ARM GAS  /tmp/ccBRULIx.s 			page 1


   1              		.arch armv7e-m
   2              		.eabi_attribute 27, 1
   3              		.eabi_attribute 28, 1
   4              		.eabi_attribute 20, 1
   5              		.eabi_attribute 21, 1
   6              		.eabi_attribute 23, 3
   7              		.eabi_attribute 24, 1
   8              		.eabi_attribute 25, 1
   9              		.eabi_attribute 26, 1
  10              		.eabi_attribute 30, 2
  11              		.eabi_attribute 34, 1
  12              		.eabi_attribute 18, 4
  13              		.file	"decn.c"
  14              		.text
  15              	.Ltext0:
  16              		.cfi_sections	.debug_frame
  17              		.section	.text.decNumberDRG_internal,"ax",%progbits
  18              		.align	1
  19              		.p2align 2,,3
  20              		.arch armv7e-m
  21              		.syntax unified
  22              		.thumb
  23              		.thumb_func
  24              		.fpu fpv4-sp-d16
  26              	decNumberDRG_internal:
  27              	.LVL0:
  28              	.LFB82:
  29              		.file 1 "src/decn.c"
   1:src/decn.c    **** /* This file is part of 34S.
   2:src/decn.c    ****  * 
   3:src/decn.c    ****  * 34S is free software: you can redistribute it and/or modify
   4:src/decn.c    ****  * it under the terms of the GNU General Public License as published by
   5:src/decn.c    ****  * the Free Software Foundation, either version 3 of the License, or
   6:src/decn.c    ****  * (at your option) any later version.
   7:src/decn.c    ****  * 
   8:src/decn.c    ****  * 34S is distributed in the hope that it will be useful,
   9:src/decn.c    ****  * but WITHOUT ANY WARRANTY; without even the implied warranty of
  10:src/decn.c    ****  * MERCHANTABILITY or FITNESS FOR A PARTICULAR PURPOSE.  See the
  11:src/decn.c    ****  * GNU General Public License for more details.
  12:src/decn.c    ****  * 
  13:src/decn.c    ****  * You should have received a copy of the GNU General Public License
  14:src/decn.c    ****  * along with 34S.  If not, see <http://www.gnu.org/licenses/>.
  15:src/decn.c    ****  */
  16:src/decn.c    **** 
  17:src/decn.c    **** #include "decn.h"
  18:src/decn.c    **** #include "xeq.h"
  19:src/decn.c    **** #include "consts.h"
  20:src/decn.c    **** #include "complex.h"
  21:src/decn.c    **** #include "stats.h"
  22:src/decn.c    **** #include "int.h"
  23:src/decn.c    **** #ifndef DM42
  24:src/decn.c    **** #include "serial.h"
  25:src/decn.c    **** #endif
  26:src/decn.c    **** #include "lcd.h"
  27:src/decn.c    **** 
  28:src/decn.c    **** // #define DUMP1
  29:src/decn.c    **** #ifdef DUMP1
ARM GAS  /tmp/ccBRULIx.s 			page 2


  30:src/decn.c    **** #include <stdio.h>
  31:src/decn.c    **** static FILE *debugf = NULL;
  32:src/decn.c    **** 
  33:src/decn.c    **** static void open_debug(void) {
  34:src/decn.c    **** 	if (debugf == NULL) {
  35:src/decn.c    **** 		debugf = fopen("/dev/ttys001", "w");
  36:src/decn.c    **** 	}
  37:src/decn.c    **** }
  38:src/decn.c    **** static void dump1(const decNumber *a, const char *msg) {
  39:src/decn.c    **** 	char buf[2000], *b = buf;
  40:src/decn.c    **** 
  41:src/decn.c    **** 	open_debug();
  42:src/decn.c    **** 	if (decNumberIsNaN(a)) b= "NaN";
  43:src/decn.c    **** 	else if (decNumberIsInfinite(a)) b = decNumberIsNegative(a)?"-inf":"inf";
  44:src/decn.c    **** 	else
  45:src/decn.c    **** 		decNumberToString(a, b);
  46:src/decn.c    **** 	fprintf(debugf, "%s: %s\n", msg ? msg : "???", b);
  47:src/decn.c    **** 	fflush(debugf);
  48:src/decn.c    **** }
  49:src/decn.c    **** #else
  50:src/decn.c    **** #define dump1(a,b)
  51:src/decn.c    **** #endif
  52:src/decn.c    **** 
  53:src/decn.c    **** 
  54:src/decn.c    **** #define MOD_DIGITS	450		/* Big enough for 1e384 mod small integer */
  55:src/decn.c    **** #define BIGMOD_DIGITS	820		/* Big enough for maxreal mod minreal */
  56:src/decn.c    **** #define SINCOS_DIGITS	51		/* Extra digits to give an accurate COS at pi/2 -- only needs to be 46 or
  57:src/decn.c    **** 
  58:src/decn.c    **** typedef struct {
  59:src/decn.c    **** 	decNumber n;
  60:src/decn.c    **** 	decNumberUnit extra[((SINCOS_DIGITS-DECNUMDIGITS+DECDPUN-1)/DECDPUN)];
  61:src/decn.c    **** } sincosNumber;
  62:src/decn.c    **** 
  63:src/decn.c    **** /* Some basic conditional tests */
  64:src/decn.c    **** int dn_lt0(const decNumber *x) {
  65:src/decn.c    **** 	return decNumberIsNegative(x) && ! decNumberIsZero(x);
  66:src/decn.c    **** }
  67:src/decn.c    **** 
  68:src/decn.c    **** int dn_le0(const decNumber *x) {
  69:src/decn.c    **** 	return decNumberIsNegative(x) || decNumberIsZero(x);
  70:src/decn.c    **** }
  71:src/decn.c    **** 
  72:src/decn.c    **** int dn_eq0(const decNumber *x) {
  73:src/decn.c    **** 	return decNumberIsZero(x);
  74:src/decn.c    **** }
  75:src/decn.c    **** 
  76:src/decn.c    **** int dn_eq(const decNumber *x, const decNumber *y) {
  77:src/decn.c    **** 	sincosNumber a;
  78:src/decn.c    **** 	return decNumberIsZero(dn_compare(&a.n, x, y));
  79:src/decn.c    **** }
  80:src/decn.c    **** 
  81:src/decn.c    **** int dn_eq1(const decNumber *x) {
  82:src/decn.c    **** 	return dn_eq(x, &const_1);
  83:src/decn.c    **** }
  84:src/decn.c    **** 
  85:src/decn.c    **** int dn_lt(const decNumber *x, const decNumber *y) {
  86:src/decn.c    **** 	sincosNumber a;
ARM GAS  /tmp/ccBRULIx.s 			page 3


  87:src/decn.c    **** 	return dn_lt0(dn_compare(&a.n, x, y));
  88:src/decn.c    **** }
  89:src/decn.c    **** 
  90:src/decn.c    **** int dn_abs_lt(const decNumber *x, const decNumber *tol) {
  91:src/decn.c    **** 	decNumber a;
  92:src/decn.c    **** 	return dn_lt(dn_abs(&a, x), tol);
  93:src/decn.c    **** }
  94:src/decn.c    **** 
  95:src/decn.c    **** int relative_error(const decNumber *x, const decNumber *y, const decNumber *tol) {
  96:src/decn.c    **** 	decNumber a, b;
  97:src/decn.c    **** 
  98:src/decn.c    **** 	if (dn_eq0(x))
  99:src/decn.c    **** 		return dn_abs_lt(y, tol);
 100:src/decn.c    **** 	dn_subtract(&a, x, y);
 101:src/decn.c    **** 	dn_divide(&b, &a, x);
 102:src/decn.c    **** 	return dn_abs_lt(&b, tol);
 103:src/decn.c    **** }
 104:src/decn.c    **** 
 105:src/decn.c    **** int absolute_error(const decNumber *x, const decNumber *y, const decNumber *tol) {
 106:src/decn.c    **** 	decNumber a;
 107:src/decn.c    **** 	return dn_abs_lt(dn_subtract(&a, x, y), tol);
 108:src/decn.c    **** }
 109:src/decn.c    **** 
 110:src/decn.c    **** const decNumber *convergence_threshold(void) {
 111:src/decn.c    **** 	return is_dblmode() ? &const_1e_32 : &const_1e_24;
 112:src/decn.c    **** }
 113:src/decn.c    **** 
 114:src/decn.c    **** 
 115:src/decn.c    **** /* Some wrapper rountines to save space
 116:src/decn.c    ****  */
 117:src/decn.c    **** decNumber *dn_add(decNumber *r, const decNumber *a, const decNumber *b) {
 118:src/decn.c    **** 	return decNumberAdd(r, a, b, &Ctx);
 119:src/decn.c    **** }
 120:src/decn.c    **** 
 121:src/decn.c    **** decNumber *dn_subtract(decNumber *r, const decNumber *a, const decNumber *b) {
 122:src/decn.c    **** 	return decNumberSubtract(r, a, b, &Ctx);
 123:src/decn.c    **** }
 124:src/decn.c    **** 
 125:src/decn.c    **** decNumber *dn_multiply(decNumber *r, const decNumber *a, const decNumber *b) {
 126:src/decn.c    **** 	return decNumberMultiply(r, a, b, &Ctx);
 127:src/decn.c    **** }
 128:src/decn.c    **** 
 129:src/decn.c    **** decNumber *dn_divide(decNumber *r, const decNumber *a, const decNumber *b) {
 130:src/decn.c    **** 	return decNumberDivide(r, a, b, &Ctx);
 131:src/decn.c    **** }
 132:src/decn.c    **** 
 133:src/decn.c    **** decNumber *dn_compare(decNumber *r, const decNumber *a, const decNumber *b) {
 134:src/decn.c    **** 	return decNumberCompare(r, a, b, &Ctx);
 135:src/decn.c    **** }
 136:src/decn.c    **** 
 137:src/decn.c    **** decNumber *dn_min(decNumber *r, const decNumber *a, const decNumber *b) {
 138:src/decn.c    **** 	return decNumberMin(r, a, b, &Ctx);
 139:src/decn.c    **** }
 140:src/decn.c    **** 
 141:src/decn.c    **** decNumber *dn_max(decNumber *r, const decNumber *a, const decNumber *b) {
 142:src/decn.c    **** 	return decNumberMax(r, a, b, &Ctx);
 143:src/decn.c    **** }
ARM GAS  /tmp/ccBRULIx.s 			page 4


 144:src/decn.c    **** 
 145:src/decn.c    **** decNumber *dn_abs(decNumber *r, const decNumber *a) {
 146:src/decn.c    **** 	return decNumberAbs(r, a, &Ctx);
 147:src/decn.c    **** }
 148:src/decn.c    **** 
 149:src/decn.c    **** decNumber *dn_minus(decNumber *r, const decNumber *a) {
 150:src/decn.c    **** 	return decNumberMinus(r, a, &Ctx);
 151:src/decn.c    **** }
 152:src/decn.c    **** 
 153:src/decn.c    **** decNumber *dn_plus(decNumber *r, const decNumber *a) {
 154:src/decn.c    **** 	return decNumberPlus(r, a, &Ctx);
 155:src/decn.c    **** }
 156:src/decn.c    **** 
 157:src/decn.c    **** decNumber *dn_sqrt(decNumber *r, const decNumber *a) {
 158:src/decn.c    **** 	return decNumberSquareRoot(r, a, &Ctx);
 159:src/decn.c    **** }
 160:src/decn.c    **** 
 161:src/decn.c    **** decNumber *dn_exp(decNumber *r, const decNumber *a) {
 162:src/decn.c    **** 	return decNumberExp(r, a, &Ctx);
 163:src/decn.c    **** }
 164:src/decn.c    **** 
 165:src/decn.c    **** 
 166:src/decn.c    **** decNumber *dn_average(decNumber *r, const decNumber *a, const decNumber *b) {
 167:src/decn.c    **** 	decNumber z;
 168:src/decn.c    **** 
 169:src/decn.c    **** 	dn_add(&z, a, b);
 170:src/decn.c    **** 	return dn_div2(r, &z);
 171:src/decn.c    **** }
 172:src/decn.c    **** 
 173:src/decn.c    **** 
 174:src/decn.c    **** #if 0
 175:src/decn.c    **** /* Define a table of small integers.
 176:src/decn.c    ****  * This should be equal or larger than any of the summation integers required in the
 177:src/decn.c    ****  * various series approximations to avoid needless computation.
 178:src/decn.c    ****  */
 179:src/decn.c    **** #define MAX_SMALL_INT	9
 180:src/decn.c    **** static const decNumber *const small_ints[MAX_SMALL_INT+1] = {
 181:src/decn.c    **** 	&const_0, &const_1, &const_2, &const_3, &const_4,
 182:src/decn.c    **** 	&const_5, &const_6, &const_7, &const_8, &const_9,
 183:src/decn.c    **** };
 184:src/decn.c    **** 
 185:src/decn.c    **** void ullint_to_dn(decNumber *x, unsigned long long int n) {
 186:src/decn.c    **** 	/* Check to see if the number is small enough to be in our table */
 187:src/decn.c    **** 	if (n <= MAX_SMALL_INT) {
 188:src/decn.c    **** 		decNumberCopy(x, small_ints[n]);
 189:src/decn.c    **** 	} else {
 190:src/decn.c    **** 		/* Got to do this the long way */
 191:src/decn.c    **** 		decNumber z;
 192:src/decn.c    **** 		int shift = 0;
 193:src/decn.c    **** 
 194:src/decn.c    **** 		decNumberZero(x);
 195:src/decn.c    **** 
 196:src/decn.c    **** 		while (n != 0) {
 197:src/decn.c    **** 			const int r = n % 10;
 198:src/decn.c    **** 			n /= 10;
 199:src/decn.c    **** 			if (r != 0) {
 200:src/decn.c    **** 				dn_mulpow10(&z, small_ints[r], shift);
ARM GAS  /tmp/ccBRULIx.s 			page 5


 201:src/decn.c    **** 				dn_add(x, x, &z);
 202:src/decn.c    **** 			}
 203:src/decn.c    **** 			++shift;
 204:src/decn.c    **** 		}
 205:src/decn.c    **** 	}
 206:src/decn.c    **** }
 207:src/decn.c    **** #endif
 208:src/decn.c    **** 
 209:src/decn.c    **** void int_to_dn(decNumber *x, int n) {
 210:src/decn.c    **** 	int sgn;
 211:src/decn.c    **** 
 212:src/decn.c    **** 	/* Account for negatives */
 213:src/decn.c    **** 	if (n < 0) {
 214:src/decn.c    **** 		sgn = 1;
 215:src/decn.c    **** 		n = -n;
 216:src/decn.c    **** 	} else
 217:src/decn.c    **** 		sgn = 0;
 218:src/decn.c    **** 
 219:src/decn.c    **** 	ullint_to_dn(x, n);
 220:src/decn.c    **** 
 221:src/decn.c    **** 	if (sgn)
 222:src/decn.c    **** 		dn_minus(x, x);
 223:src/decn.c    **** }
 224:src/decn.c    **** 
 225:src/decn.c    **** int dn_to_int(const decNumber *x) {
 226:src/decn.c    **** 	decNumber y;
 227:src/decn.c    **** #if 0
 228:src/decn.c    **** 	char buf[64];
 229:src/decn.c    **** 
 230:src/decn.c    **** 	decNumberRescale(&y, x, &const_0, &Ctx);
 231:src/decn.c    **** 	decNumberToString(&y, buf);
 232:src/decn.c    **** 	return s_to_i(buf);
 233:src/decn.c    **** #else
 234:src/decn.c    **** 	return decGetInt(decNumberTrunc(&y, x));
 235:src/decn.c    **** #endif
 236:src/decn.c    **** }
 237:src/decn.c    **** 
 238:src/decn.c    **** unsigned long long int dn_to_ull(const decNumber *x, int *sgn) {
 239:src/decn.c    **** 	decNumber y, z;
 240:src/decn.c    **** 	char buf[64];
 241:src/decn.c    **** 
 242:src/decn.c    **** 	decNumberTrunc(&z, x);
 243:src/decn.c    **** 	decNumberRescale(&y, &z, &const_0, &Ctx);
 244:src/decn.c    **** 	if (decNumberIsNegative(&z)) {
 245:src/decn.c    **** 		dn_minus(&y, &y);
 246:src/decn.c    **** 		*sgn = 1;
 247:src/decn.c    **** 	} else
 248:src/decn.c    **** 		*sgn = 0;
 249:src/decn.c    **** 	decNumberToString(&y, buf);
 250:src/decn.c    **** 	return s_to_ull(buf, 10);
 251:src/decn.c    **** }
 252:src/decn.c    **** 
 253:src/decn.c    **** 
 254:src/decn.c    **** decNumber *set_NaN(decNumber *x) {
 255:src/decn.c    **** 	if (x != NULL)
 256:src/decn.c    **** 		decNumberCopy(x, &const_NaN);
 257:src/decn.c    **** 	return x;
ARM GAS  /tmp/ccBRULIx.s 			page 6


 258:src/decn.c    **** }
 259:src/decn.c    **** 
 260:src/decn.c    **** decNumber *set_inf(decNumber *x) {
 261:src/decn.c    **** 	return decNumberCopy(x, &const_inf);
 262:src/decn.c    **** }
 263:src/decn.c    **** 
 264:src/decn.c    **** decNumber *set_neginf(decNumber *x) {
 265:src/decn.c    **** 	return decNumberCopy(x, &const__inf);
 266:src/decn.c    **** }
 267:src/decn.c    **** 
 268:src/decn.c    **** 
 269:src/decn.c    **** void decNumberPI(decNumber *pi) {
 270:src/decn.c    **** 	decNumberCopy(pi, &const_PI);
 271:src/decn.c    **** }
 272:src/decn.c    **** void decNumberPIon2(decNumber *pion2) {
 273:src/decn.c    **** 	decNumberCopy(pion2, &const_PIon2);
 274:src/decn.c    **** }
 275:src/decn.c    **** 
 276:src/decn.c    **** /* Check if a number is an integer.
 277:src/decn.c    ****  */
 278:src/decn.c    **** int is_int(const decNumber *x) {
 279:src/decn.c    **** 	enum rounding a = Ctx.round;
 280:src/decn.c    **** 	decNumber r, y;
 281:src/decn.c    **** 
 282:src/decn.c    **** 	if (decNumberIsNaN(x))
 283:src/decn.c    **** 		return 0;
 284:src/decn.c    **** 	if (decNumberIsInfinite(x))
 285:src/decn.c    **** 		return 1;
 286:src/decn.c    **** 
 287:src/decn.c    **** 	Ctx.round = DEC_ROUND_DOWN;
 288:src/decn.c    **** 	decNumberToIntegralValue(&y, x, &Ctx);
 289:src/decn.c    **** 	Ctx.round = a;
 290:src/decn.c    **** 
 291:src/decn.c    **** 	dn_subtract(&r, x, &y);
 292:src/decn.c    **** 	if (! dn_eq0(&r))
 293:src/decn.c    **** 		return 0;
 294:src/decn.c    **** 	return 1;
 295:src/decn.c    **** }
 296:src/decn.c    **** 
 297:src/decn.c    **** /* Utility routine that checks if the X register is even or odd or neither.
 298:src/decn.c    ****  * Returns positive if even, zero if odd, -1 for special, -2 for fractional.
 299:src/decn.c    ****  */
 300:src/decn.c    **** int is_even(const decNumber *x) {
 301:src/decn.c    **** 	decNumber y, z;
 302:src/decn.c    **** 
 303:src/decn.c    **** 	if (decNumberIsSpecial(x))
 304:src/decn.c    **** 		return -1;
 305:src/decn.c    **** 	dn_abs(&z, x);
 306:src/decn.c    **** 	decNumberMod(&y, &z, &const_2);
 307:src/decn.c    **** 	if (dn_eq0(&y))
 308:src/decn.c    **** 		return 1;
 309:src/decn.c    **** 	if (dn_eq1(&y))
 310:src/decn.c    **** 		return 0;
 311:src/decn.c    **** 	return -2;
 312:src/decn.c    **** }
 313:src/decn.c    **** 
 314:src/decn.c    **** decNumber *dn_inc(decNumber *x) {
ARM GAS  /tmp/ccBRULIx.s 			page 7


 315:src/decn.c    **** 	return dn_add(x, x, &const_1);
 316:src/decn.c    **** }
 317:src/decn.c    **** 
 318:src/decn.c    **** decNumber *dn_dec(decNumber *x) {
 319:src/decn.c    **** 	return dn_subtract(x, x, &const_1);
 320:src/decn.c    **** }
 321:src/decn.c    **** 
 322:src/decn.c    **** decNumber *dn_p1(decNumber *r, const decNumber *x) {
 323:src/decn.c    **** 	return dn_add(r, x, &const_1);
 324:src/decn.c    **** }
 325:src/decn.c    **** 
 326:src/decn.c    **** decNumber *dn_m1(decNumber *r, const decNumber *x) {
 327:src/decn.c    **** 	return dn_subtract(r, x, &const_1);
 328:src/decn.c    **** }
 329:src/decn.c    **** 
 330:src/decn.c    **** decNumber *dn_1m(decNumber *r, const decNumber *x) {
 331:src/decn.c    **** 	return dn_subtract(r, &const_1, x);
 332:src/decn.c    **** }
 333:src/decn.c    **** 
 334:src/decn.c    **** decNumber *dn_1(decNumber *r) {
 335:src/decn.c    **** 	return decNumberCopy(r, &const_1);
 336:src/decn.c    **** }
 337:src/decn.c    **** 
 338:src/decn.c    **** decNumber *dn__1(decNumber *r) {
 339:src/decn.c    **** 	return decNumberCopy(r, &const__1);
 340:src/decn.c    **** }
 341:src/decn.c    **** 
 342:src/decn.c    **** decNumber *dn_p2(decNumber *r, const decNumber *x) {
 343:src/decn.c    **** 	return dn_add(r, x, &const_2);
 344:src/decn.c    **** }
 345:src/decn.c    **** 
 346:src/decn.c    **** decNumber *dn_mul2(decNumber *r, const decNumber *x) {
 347:src/decn.c    **** 	return dn_multiply(r, x, &const_2);
 348:src/decn.c    **** }
 349:src/decn.c    **** 
 350:src/decn.c    **** decNumber *dn_div2(decNumber *r, const decNumber *x) {
 351:src/decn.c    **** 	return dn_multiply(r, x, &const_0_5);
 352:src/decn.c    **** }
 353:src/decn.c    **** 
 354:src/decn.c    **** decNumber *dn_mul100(decNumber *r, const decNumber *x) {
 355:src/decn.c    **** 	return dn_mulpow10(r, x, 2);
 356:src/decn.c    **** }
 357:src/decn.c    **** 
 358:src/decn.c    **** decNumber *dn_mulPI(decNumber *r, const decNumber *x) {
 359:src/decn.c    **** 	return dn_multiply(r, x, &const_PI);
 360:src/decn.c    **** }
 361:src/decn.c    **** 
 362:src/decn.c    **** decNumber *dn_mulpow10(decNumber *r, const decNumber *x, int p) {
 363:src/decn.c    **** 	decNumberCopy(r, x);
 364:src/decn.c    **** 	r->exponent += p;
 365:src/decn.c    **** 	return r;
 366:src/decn.c    **** }
 367:src/decn.c    **** 
 368:src/decn.c    **** /* Mantissa of a number
 369:src/decn.c    ****  */
 370:src/decn.c    **** #ifdef INCLUDE_MANTISSA
 371:src/decn.c    **** decNumber *decNumberMantissa(decNumber *r, const decNumber *x) {
ARM GAS  /tmp/ccBRULIx.s 			page 8


 372:src/decn.c    **** 	if (decNumberIsSpecial(x))
 373:src/decn.c    **** 		return set_NaN(r);
 374:src/decn.c    **** 	if (dn_eq0(x))
 375:src/decn.c    **** 		return decNumberCopy(r, x);
 376:src/decn.c    **** 	decNumberCopy(r, x);
 377:src/decn.c    **** 	r->exponent = 1 - r->digits;
 378:src/decn.c    **** 	return r;
 379:src/decn.c    **** }
 380:src/decn.c    **** 
 381:src/decn.c    **** /* Exponenet of a number
 382:src/decn.c    ****  */
 383:src/decn.c    **** decNumber *decNumberExponent(decNumber *r, const decNumber *x) {
 384:src/decn.c    **** 	if (decNumberIsSpecial(x))
 385:src/decn.c    **** 		return set_NaN(r);
 386:src/decn.c    **** 	if (dn_eq0(x))
 387:src/decn.c    **** 		return decNumberZero(r);
 388:src/decn.c    **** 	int_to_dn(r, x->exponent + x->digits - 1);
 389:src/decn.c    **** 	return r;
 390:src/decn.c    **** }
 391:src/decn.c    **** 
 392:src/decn.c    **** /* 1 ULP
 393:src/decn.c    ****  */
 394:src/decn.c    **** static int realULP(decNumber *r, const decNumber *x) {
 395:src/decn.c    **** 	int dblmode;
 396:src/decn.c    **** 	int subnormal = 0;
 397:src/decn.c    **** 	int expshift;
 398:src/decn.c    **** 	int minexp;
 399:src/decn.c    **** 
 400:src/decn.c    **** 	if (decNumberIsSpecial(x)) {
 401:src/decn.c    **** 		if (decNumberIsInfinite(x))
 402:src/decn.c    **** 			set_inf(r);
 403:src/decn.c    **** 		else
 404:src/decn.c    **** 			set_NaN(r);
 405:src/decn.c    **** 		return 0;
 406:src/decn.c    **** 	}
 407:src/decn.c    **** 
 408:src/decn.c    **** 	dblmode = is_dblmode();
 409:src/decn.c    **** 
 410:src/decn.c    **** 	if (dblmode) {
 411:src/decn.c    **** 		expshift = DECIMAL128_Pmax;
 412:src/decn.c    **** 		minexp = DECIMAL128_Emin - DECIMAL128_Pmax + 1;
 413:src/decn.c    **** 		if (x->exponent < DECIMAL128_Emin)
 414:src/decn.c    **** 			subnormal = 1;
 415:src/decn.c    **** 	} else {
 416:src/decn.c    **** 		expshift = DECIMAL64_Pmax;
 417:src/decn.c    **** 		minexp = DECIMAL64_Emin - DECIMAL64_Pmax + 1;
 418:src/decn.c    **** 		if (x->exponent < DECIMAL64_Emin)
 419:src/decn.c    **** 			subnormal = 1;
 420:src/decn.c    **** 	}
 421:src/decn.c    **** 
 422:src/decn.c    **** 	dn_1(r);
 423:src/decn.c    **** 	if (dn_eq0(x) || subnormal)
 424:src/decn.c    **** 		r->exponent = minexp;
 425:src/decn.c    **** 	else
 426:src/decn.c    **** 		r->exponent = x->exponent + x->digits - expshift;
 427:src/decn.c    **** 	return subnormal;
 428:src/decn.c    **** }
ARM GAS  /tmp/ccBRULIx.s 			page 9


 429:src/decn.c    **** 
 430:src/decn.c    **** decNumber *decNumberULP(decNumber *r, const decNumber *x) {
 431:src/decn.c    **** 	realULP(r, x);
 432:src/decn.c    **** 	return r;
 433:src/decn.c    **** }
 434:src/decn.c    **** 
 435:src/decn.c    **** decNumber *decNumberNeighbour(decNumber *r, const decNumber *y, const decNumber *x) {
 436:src/decn.c    **** 	decNumber ulp;
 437:src/decn.c    **** 	int down, subnormal;
 438:src/decn.c    **** 
 439:src/decn.c    **** 	if (decNumberIsNaN(y))
 440:src/decn.c    **** 		return set_NaN(r);
 441:src/decn.c    **** 	if (decNumberIsSpecial(x))
 442:src/decn.c    **** 		return decNumberCopy(r, x);
 443:src/decn.c    **** 	dn_compare(&ulp, y, x);
 444:src/decn.c    **** 	if (dn_eq0(&ulp))
 445:src/decn.c    **** 		return decNumberCopy(r, y);
 446:src/decn.c    **** 
 447:src/decn.c    **** 	down = decNumberIsNegative(&ulp) ? 1 : 0;
 448:src/decn.c    **** 	subnormal = realULP(&ulp, x);
 449:src/decn.c    **** 
 450:src/decn.c    **** 	if (! subnormal && x->digits == 1 && x->lsu[0] == 1)
 451:src/decn.c    **** 		ulp.exponent -= (! decNumberIsNegative(x)) == down;
 452:src/decn.c    **** 	if (down)
 453:src/decn.c    **** 		dn_subtract(r, x, &ulp);
 454:src/decn.c    **** 	else
 455:src/decn.c    **** 		dn_add(r, x, &ulp);
 456:src/decn.c    **** 	return r;
 457:src/decn.c    **** }
 458:src/decn.c    **** #endif
 459:src/decn.c    **** 
 460:src/decn.c    **** /* Multiply Add: x + y * z
 461:src/decn.c    ****  */
 462:src/decn.c    **** #ifdef INCLUDE_MULADD
 463:src/decn.c    **** decNumber *decNumberMAdd(decNumber *r, const decNumber *z, const decNumber *y, const decNumber *x) 
 464:src/decn.c    **** 	decNumber t;
 465:src/decn.c    **** 
 466:src/decn.c    **** 	dn_multiply(&t, x, y);
 467:src/decn.c    **** 	return dn_add(r, &t, z);
 468:src/decn.c    **** }
 469:src/decn.c    **** #endif
 470:src/decn.c    **** 
 471:src/decn.c    **** 
 472:src/decn.c    **** /* Reciprocal of a number.
 473:src/decn.c    ****  * Division is correctly rounded so we just use that instead of coding
 474:src/decn.c    ****  * something special (that could be more efficient).
 475:src/decn.c    ****  */
 476:src/decn.c    **** decNumber *decNumberRecip(decNumber *r, const decNumber *x) {
 477:src/decn.c    **** 	return dn_divide(r, &const_1, x);
 478:src/decn.c    **** }
 479:src/decn.c    **** 
 480:src/decn.c    **** /* Reciprocal of a function's result.
 481:src/decn.c    ****  * This routine calls the specified function and then multiplicatively
 482:src/decn.c    ****  * inverts its result.
 483:src/decn.c    ****  */
 484:src/decn.c    **** #if 0
 485:src/decn.c    **** static decNumber *dn_recip(decNumber *r, const decNumber *x,
ARM GAS  /tmp/ccBRULIx.s 			page 10


 486:src/decn.c    **** 		decNumber *(*func)(decNumber *r, const decNumber *x)) {
 487:src/decn.c    **** 	decNumber z;
 488:src/decn.c    **** 
 489:src/decn.c    **** 	(*func)(&z, x);
 490:src/decn.c    **** 	return decNumberRecip(r, &z);
 491:src/decn.c    **** }
 492:src/decn.c    **** #endif
 493:src/decn.c    **** 
 494:src/decn.c    **** /* A plethora of round to integer functions to support the large variety
 495:src/decn.c    ****  * of possibilities in this area.  Start with a common utility function
 496:src/decn.c    ****  * that saves the current rounding mode, rounds as required and restores
 497:src/decn.c    ****  * the rounding mode properly.
 498:src/decn.c    ****  */
 499:src/decn.c    **** static decNumber *round2int(decNumber *r, const decNumber *x, enum rounding mode) {
 500:src/decn.c    **** 	enum rounding a = Ctx.round;
 501:src/decn.c    **** 
 502:src/decn.c    **** 	Ctx.round = mode;
 503:src/decn.c    **** 	decNumberToIntegralValue(r, x, &Ctx);
 504:src/decn.c    **** 	Ctx.round = a;
 505:src/decn.c    **** 	return r;
 506:src/decn.c    **** }
 507:src/decn.c    **** 
 508:src/decn.c    **** /* Floor - truncate to minus infinity.
 509:src/decn.c    ****  */
 510:src/decn.c    **** decNumber *decNumberFloor(decNumber *r, const decNumber *x) {
 511:src/decn.c    **** 	return round2int(r, x, DEC_ROUND_FLOOR);
 512:src/decn.c    **** }
 513:src/decn.c    **** 
 514:src/decn.c    **** /* Ceiling - truncate to plus infinity.
 515:src/decn.c    ****  */
 516:src/decn.c    **** decNumber *decNumberCeil(decNumber *r, const decNumber *x) {
 517:src/decn.c    **** 	return round2int(r, x, DEC_ROUND_CEILING);
 518:src/decn.c    **** }
 519:src/decn.c    **** 
 520:src/decn.c    **** /* Trunc - truncate to zero.
 521:src/decn.c    ****  */
 522:src/decn.c    **** decNumber *decNumberTrunc(decNumber *r, const decNumber *x) {
 523:src/decn.c    **** 	return round2int(r, x, DEC_ROUND_DOWN);
 524:src/decn.c    **** }
 525:src/decn.c    **** 
 526:src/decn.c    **** /* Round - round 0.5 up.
 527:src/decn.c    ****  */
 528:src/decn.c    **** decNumber *decNumberRound(decNumber *r, const decNumber *x) {
 529:src/decn.c    **** 	return round2int(r, x, DEC_ROUND_HALF_UP);
 530:src/decn.c    **** }
 531:src/decn.c    **** 
 532:src/decn.c    **** /* Intg - round 0.5 even.
 533:src/decn.c    ****  */
 534:src/decn.c    **** static decNumber *decNumberIntg(decNumber *r, const decNumber *x) {
 535:src/decn.c    **** 	return round2int(r, x, DEC_ROUND_HALF_EVEN);
 536:src/decn.c    **** }
 537:src/decn.c    **** 
 538:src/decn.c    **** /* Frac - round 0.5 up.
 539:src/decn.c    ****  */
 540:src/decn.c    **** decNumber *decNumberFrac(decNumber *r, const decNumber *x) {
 541:src/decn.c    **** 	decNumber y;
 542:src/decn.c    **** 
ARM GAS  /tmp/ccBRULIx.s 			page 11


 543:src/decn.c    **** 	round2int(&y, x, DEC_ROUND_DOWN);
 544:src/decn.c    **** 	return dn_subtract(r, x, &y);
 545:src/decn.c    **** }
 546:src/decn.c    **** 
 547:src/decn.c    **** 
 548:src/decn.c    **** static void dn_gcd(decNumber *r, const decNumber *x, const decNumber *y, int bigmod) {
 549:src/decn.c    **** 	decNumber b, t;
 550:src/decn.c    **** 
 551:src/decn.c    **** 	decNumberCopy(&b, y);
 552:src/decn.c    **** 	decNumberCopy(r, x);
 553:src/decn.c    **** 	while (! dn_eq0(&b)) {
 554:src/decn.c    **** 		decNumberCopy(&t, &b);
 555:src/decn.c    **** 		if (bigmod)
 556:src/decn.c    **** 			decNumberBigMod(&b, r, &t);
 557:src/decn.c    **** 		else
 558:src/decn.c    **** 			decNumberMod(&b, r, &t);
 559:src/decn.c    **** 		decNumberCopy(r, &t);
 560:src/decn.c    **** 	}
 561:src/decn.c    **** }
 562:src/decn.c    **** 
 563:src/decn.c    **** static int dn_check_gcd(decNumber *r, const decNumber *x, const decNumber *y,
 564:src/decn.c    **** 		decNumber *a, decNumber *b) {
 565:src/decn.c    **** 	if (decNumberIsSpecial(x) || decNumberIsSpecial(y)) {
 566:src/decn.c    **** 		if (decNumberIsNaN(x) || decNumberIsNaN(y))
 567:src/decn.c    **** 			set_NaN(r);
 568:src/decn.c    **** 		else
 569:src/decn.c    **** 			set_inf(r);
 570:src/decn.c    **** 	} else if (!is_int(x) || !is_int(y))
 571:src/decn.c    **** 		set_NaN(r);
 572:src/decn.c    **** 	else {
 573:src/decn.c    **** 		dn_abs(a, x);
 574:src/decn.c    **** 		dn_abs(b, y);
 575:src/decn.c    **** 		return 0;
 576:src/decn.c    **** 	}
 577:src/decn.c    **** 	return 1;
 578:src/decn.c    **** }
 579:src/decn.c    **** 
 580:src/decn.c    **** decNumber *decNumberGCD(decNumber *r, const decNumber *x, const decNumber *y) {
 581:src/decn.c    **** 	decNumber a, b;
 582:src/decn.c    **** 
 583:src/decn.c    **** 	if (dn_check_gcd(r, x, y, &a, &b))
 584:src/decn.c    **** 		return r;
 585:src/decn.c    **** 
 586:src/decn.c    **** 	if(dn_eq0(x))
 587:src/decn.c    **** 		decNumberCopy(r, &b);
 588:src/decn.c    **** 	else if (dn_eq0(y))
 589:src/decn.c    **** 		decNumberCopy(r, &a);
 590:src/decn.c    **** 	else
 591:src/decn.c    **** 		dn_gcd(r, &a, &b, 1);
 592:src/decn.c    **** 	return r;
 593:src/decn.c    **** }
 594:src/decn.c    **** 
 595:src/decn.c    **** decNumber *decNumberLCM(decNumber *r, const decNumber *x, const decNumber *y) {
 596:src/decn.c    **** 	decNumber gcd, a, b, t;
 597:src/decn.c    **** 
 598:src/decn.c    **** 	if (dn_check_gcd(r, x, y, &a, &b))
 599:src/decn.c    **** 		return r;
ARM GAS  /tmp/ccBRULIx.s 			page 12


 600:src/decn.c    **** 
 601:src/decn.c    **** 	if(dn_eq0(x) || dn_eq0(y))
 602:src/decn.c    **** 		decNumberCopy(r, x);
 603:src/decn.c    **** 	dn_gcd(&gcd, &a, &b, 1);
 604:src/decn.c    **** 	dn_divide(&t, &a, &gcd);
 605:src/decn.c    **** 	return dn_multiply(r, &t, &b);
 606:src/decn.c    **** }
 607:src/decn.c    **** 
 608:src/decn.c    **** 
 609:src/decn.c    **** /* The extra logarithm and power functions */
 610:src/decn.c    **** 
 611:src/decn.c    **** /* Raise y^x */
 612:src/decn.c    **** decNumber *dn_power_internal(decNumber *r, const decNumber *y, const decNumber *x, const decNumber 
 613:src/decn.c    **** 	decNumber s, t, my;
 614:src/decn.c    **** 	int isxint, xodd, ynegative;
 615:src/decn.c    **** 	int negate = 0;
 616:src/decn.c    **** 
 617:src/decn.c    **** 	if (dn_eq1(y))
 618:src/decn.c    **** 		return dn_1(r);				// 1^x = 1
 619:src/decn.c    **** 
 620:src/decn.c    **** 	if (dn_eq0(x))
 621:src/decn.c    **** 		return dn_1(r);				// y^0 = 1
 622:src/decn.c    **** 
 623:src/decn.c    **** 	if (decNumberIsNaN(x) || decNumberIsNaN(y))
 624:src/decn.c    **** 		return set_NaN(r);
 625:src/decn.c    **** 
 626:src/decn.c    **** 	if (dn_eq1(x))
 627:src/decn.c    **** 		return decNumberCopy(r, y); 		// y^1 = y
 628:src/decn.c    **** 
 629:src/decn.c    **** 	if (decNumberIsInfinite(x)) {
 630:src/decn.c    **** 		int ylt1;
 631:src/decn.c    **** 		if (dn_eq(y, &const__1))
 632:src/decn.c    **** 			return dn_1(r);			// -1 ^ +/-inf = 1
 633:src/decn.c    **** 
 634:src/decn.c    **** 		ylt1 = dn_abs_lt(y, &const_1);
 635:src/decn.c    **** 		if (decNumberIsNegative(x)) {
 636:src/decn.c    **** 			if (ylt1)
 637:src/decn.c    **** 				return set_inf(r);		// y^-inf |y|<1 = +inf
 638:src/decn.c    **** 			return decNumberZero(r);		// y^-inf |y|>1 = +0
 639:src/decn.c    **** 		}
 640:src/decn.c    **** 		if (ylt1)
 641:src/decn.c    **** 			return decNumberZero(r);		// y^inf |y|<1 = +0
 642:src/decn.c    **** 		return set_inf(r);				// y^inf |y|>1 = +inf
 643:src/decn.c    **** 	}
 644:src/decn.c    **** 
 645:src/decn.c    **** 	isxint = is_int(x);
 646:src/decn.c    **** 	ynegative = decNumberIsNegative(y);
 647:src/decn.c    **** 	if (decNumberIsInfinite(y)) {
 648:src/decn.c    **** 		if (ynegative) {
 649:src/decn.c    **** 			xodd = isxint && is_even(x) == 0;
 650:src/decn.c    **** 			if (decNumberIsNegative(x)) {
 651:src/decn.c    **** 				decNumberZero(r);		// -inf^x x<0 = +0
 652:src/decn.c    **** 				if (xodd)			// -inf^x odd x<0 = -0
 653:src/decn.c    **** 					return decNumberCopy(r, &const__0);
 654:src/decn.c    **** 				return r;
 655:src/decn.c    **** 			}
 656:src/decn.c    **** 			if (xodd)
ARM GAS  /tmp/ccBRULIx.s 			page 13


 657:src/decn.c    **** 				return set_neginf(r);		// -inf^x odd x>0 = -inf
 658:src/decn.c    **** 			return set_inf(r);			// -inf^x x>0 = +inf
 659:src/decn.c    **** 		}
 660:src/decn.c    **** 		if (decNumberIsNegative(x))
 661:src/decn.c    **** 			return decNumberZero(r);		// +inf^x x<0 = +0
 662:src/decn.c    **** 		return set_inf(r);				// +inf^x x>0 = +inf
 663:src/decn.c    **** 	}
 664:src/decn.c    **** 
 665:src/decn.c    **** 	if (dn_eq0(y)) {
 666:src/decn.c    **** 		xodd = isxint && is_even(x) == 0;
 667:src/decn.c    **** 		if (decNumberIsNegative(x)) {
 668:src/decn.c    **** 			if (xodd && ynegative)
 669:src/decn.c    **** 				return set_neginf(r);		// -0^x odd x<0 = -inf
 670:src/decn.c    **** 			return set_inf(r);			// 0^x x<0 = +inf
 671:src/decn.c    **** 		}
 672:src/decn.c    **** 		if (xodd && ynegative)
 673:src/decn.c    **** 			return decNumberCopy(r, &const__0);	// -0^x odd x>0 = -/+0
 674:src/decn.c    **** 		return decNumberZero(r);			// 0^x x>0 = +0
 675:src/decn.c    **** 	}
 676:src/decn.c    **** 
 677:src/decn.c    **** 	if (ynegative) {
 678:src/decn.c    **** 		if (!isxint)
 679:src/decn.c    **** 			return set_NaN(r);			// y^x y<0, x not odd int = NaN
 680:src/decn.c    **** 		if (is_even(x) == 0)				// y^x, y<0, x odd = - ((-y)^x)
 681:src/decn.c    **** 			negate = 1;
 682:src/decn.c    **** 		dn_minus(&my, y);
 683:src/decn.c    **** 		y = &my;
 684:src/decn.c    **** 	}
 685:src/decn.c    **** 	if (logy == NULL) {
 686:src/decn.c    **** 		dn_ln(&t, y);
 687:src/decn.c    **** 		logy = &t;
 688:src/decn.c    **** 	}
 689:src/decn.c    **** 	dn_multiply(&s, logy, x);
 690:src/decn.c    **** 	dn_exp(r, &s);
 691:src/decn.c    **** 	if (negate)
 692:src/decn.c    **** 		return dn_minus(r, r);
 693:src/decn.c    **** 	return r;
 694:src/decn.c    **** }
 695:src/decn.c    **** 
 696:src/decn.c    **** decNumber *dn_power(decNumber *r, const decNumber *y, const decNumber *x) {
 697:src/decn.c    **** 	return dn_power_internal(r, y, x, NULL);
 698:src/decn.c    **** }
 699:src/decn.c    **** 
 700:src/decn.c    **** 
 701:src/decn.c    **** /* ln(1+x) */
 702:src/decn.c    **** decNumber *decNumberLn1p(decNumber *r, const decNumber *x) {
 703:src/decn.c    **** 	decNumber u, v, w;
 704:src/decn.c    **** 
 705:src/decn.c    **** 	if (decNumberIsSpecial(x) || dn_eq0(x)) {
 706:src/decn.c    **** 		return decNumberCopy(r, x);
 707:src/decn.c    **** 	}
 708:src/decn.c    **** 	dn_p1(&u, x);
 709:src/decn.c    **** 	dn_m1(&v, &u);
 710:src/decn.c    **** 	if (dn_eq0(&v)) {
 711:src/decn.c    **** 		return decNumberCopy(r, x);
 712:src/decn.c    **** 	}
 713:src/decn.c    **** 	dn_divide(&w, x, &v);
ARM GAS  /tmp/ccBRULIx.s 			page 14


 714:src/decn.c    **** 	dn_ln(&v, &u);
 715:src/decn.c    **** 	return dn_multiply(r, &v, &w);
 716:src/decn.c    **** }
 717:src/decn.c    **** 
 718:src/decn.c    **** /* exp(x)-1 */
 719:src/decn.c    **** decNumber *decNumberExpm1(decNumber *r, const decNumber *x) {
 720:src/decn.c    **** 	decNumber u, v, w;
 721:src/decn.c    **** 
 722:src/decn.c    **** 	if (decNumberIsSpecial(x)) {
 723:src/decn.c    **** 		return decNumberCopy(r, x);
 724:src/decn.c    **** 	}
 725:src/decn.c    **** 	dn_exp(&u, x);
 726:src/decn.c    **** 	dn_m1(&v, &u);
 727:src/decn.c    **** 	if (dn_eq0(&v)) {
 728:src/decn.c    **** 		return decNumberCopy(r, x);
 729:src/decn.c    **** 	}
 730:src/decn.c    **** 	if (dn_eq(&v, &const__1)) {
 731:src/decn.c    **** 		return dn__1(r);
 732:src/decn.c    **** 	}
 733:src/decn.c    **** 	dn_multiply(&w, &v, x);
 734:src/decn.c    **** 	dn_ln(&v, &u);
 735:src/decn.c    **** 	return dn_divide(r, &w, &v);
 736:src/decn.c    **** }
 737:src/decn.c    **** 
 738:src/decn.c    **** 
 739:src/decn.c    **** decNumber *do_log(decNumber *r, const decNumber *x, const decNumber *base) {
 740:src/decn.c    **** 	decNumber y;
 741:src/decn.c    **** 
 742:src/decn.c    **** 	if (decNumberIsSpecial(x)) {
 743:src/decn.c    **** 		if (decNumberIsNaN(x) || decNumberIsNegative(x))
 744:src/decn.c    **** 			return set_NaN(r);
 745:src/decn.c    **** 		return set_inf(r);
 746:src/decn.c    **** 	}
 747:src/decn.c    **** 	dn_ln(&y, x);
 748:src/decn.c    **** 	return dn_divide(r, &y, base);
 749:src/decn.c    **** }
 750:src/decn.c    **** 
 751:src/decn.c    **** /* Natural logarithm.
 752:src/decn.c    ****  *
 753:src/decn.c    ****  * Take advantage of the fact that we store our numbers in the form: m * 10^e
 754:src/decn.c    ****  * so log(m * 10^e) = log(m) + e * log(10)
 755:src/decn.c    ****  * do this so that m is always in the range 0.1 <= m < 2.  However if the number
 756:src/decn.c    ****  * is already in the range 0.5 .. 1.5, this step is skipped.
 757:src/decn.c    ****  *
 758:src/decn.c    ****  * Then use the fact that ln(x^2) = 2 * ln(x) to range reduce the mantissa
 759:src/decn.c    ****  * into 1/sqrt(2) <= m < 2.
 760:src/decn.c    ****  *
 761:src/decn.c    ****  * Finally, apply the series expansion:
 762:src/decn.c    ****  *   ln(x) = 2(a+a^3/3+a^5/5+...) where a=(x-1)/(x+1)
 763:src/decn.c    ****  * which converges quickly for an argument near unity.
 764:src/decn.c    ****  */
 765:src/decn.c    **** decNumber *dn_ln(decNumber *r, const decNumber *x) {
 766:src/decn.c    **** 	decNumber z, t, f, n, m, i, v, w, e;
 767:src/decn.c    **** 	const decNumber *tol = is_dblmode() ? &const_1e_37 : &const_1e_32;
 768:src/decn.c    **** 	int expon;
 769:src/decn.c    **** 
 770:src/decn.c    **** 	if (decNumberIsSpecial(x)) {
ARM GAS  /tmp/ccBRULIx.s 			page 15


 771:src/decn.c    **** 		if (decNumberIsNaN(x) || decNumberIsNegative(x))
 772:src/decn.c    **** 			return set_NaN(r);
 773:src/decn.c    **** 		return set_inf(r);
 774:src/decn.c    **** 	}
 775:src/decn.c    **** 	if (dn_le0(x)) {
 776:src/decn.c    **** 		if (decNumberIsNegative(x))
 777:src/decn.c    **** 			return set_NaN(r);
 778:src/decn.c    **** 		return set_neginf(r);
 779:src/decn.c    **** 	}
 780:src/decn.c    **** 	decNumberCopy(&z, x);
 781:src/decn.c    **** 	decNumberCopy(&f, &const_2);
 782:src/decn.c    **** 	dn_m1(&t, x);
 783:src/decn.c    **** 	dn_abs(&v, &t);
 784:src/decn.c    **** 	if (dn_gt(&v, &const_0_5)) {
 785:src/decn.c    **** 		expon = z.exponent + z.digits;
 786:src/decn.c    **** 		z.exponent = -z.digits;
 787:src/decn.c    **** 	} else
 788:src/decn.c    **** 		expon = 0;
 789:src/decn.c    **** 
 790:src/decn.c    **** /* The too high case never happens
 791:src/decn.c    **** 	while (dn_le(&const_2, &z)) {
 792:src/decn.c    **** 		dn_mul2(&f, &f);
 793:src/decn.c    **** 		dn_sqrt(&z, &z);
 794:src/decn.c    **** 	}
 795:src/decn.c    **** */
 796:src/decn.c    **** 	// Range reduce the value by repeated square roots.
 797:src/decn.c    **** 	// Making the constant here larger will reduce the number of later
 798:src/decn.c    **** 	// iterations at the expense of more square root operations.
 799:src/decn.c    **** 	while (dn_le(&z, &const_root2on2)) {
 800:src/decn.c    **** 		dn_mul2(&f, &f);
 801:src/decn.c    **** 		dn_sqrt(&z, &z);
 802:src/decn.c    **** 	}
 803:src/decn.c    **** 	dn_p1(&t, &z);
 804:src/decn.c    **** 	dn_m1(&v, &z);
 805:src/decn.c    **** 	dn_divide(&n, &v, &t);
 806:src/decn.c    **** 	decNumberCopy(&v, &n);
 807:src/decn.c    **** 	decNumberSquare(&m, &v);
 808:src/decn.c    **** 	decNumberCopy(&i, &const_3);
 809:src/decn.c    **** 
 810:src/decn.c    **** 	for (;;) {
 811:src/decn.c    **** 		dn_multiply(&n, &m, &n);
 812:src/decn.c    **** 		dn_divide(&e, &n, &i);
 813:src/decn.c    **** 		dn_add(&w, &v, &e);
 814:src/decn.c    **** 		if (relative_error(&w, &v, tol))
 815:src/decn.c    **** 			break;
 816:src/decn.c    **** 		decNumberCopy(&v, &w);
 817:src/decn.c    **** 		dn_p2(&i, &i);
 818:src/decn.c    **** 	}
 819:src/decn.c    **** 	dn_multiply(r, &f, &w);
 820:src/decn.c    **** 	if (expon == 0)
 821:src/decn.c    **** 		return r;
 822:src/decn.c    **** 	int_to_dn(&e, expon);
 823:src/decn.c    **** 	dn_multiply(&w, &e, &const_ln10);
 824:src/decn.c    **** 	return dn_add(r, r, &w);
 825:src/decn.c    **** }
 826:src/decn.c    **** 
 827:src/decn.c    **** decNumber *dn_log2(decNumber *r, const decNumber *x) {
ARM GAS  /tmp/ccBRULIx.s 			page 16


 828:src/decn.c    **** 	return do_log(r, x, &const_ln2);
 829:src/decn.c    **** }
 830:src/decn.c    **** 
 831:src/decn.c    **** decNumber *dn_log10(decNumber *r, const decNumber *x) {
 832:src/decn.c    **** 	return do_log(r, x, &const_ln10);
 833:src/decn.c    **** }
 834:src/decn.c    **** 
 835:src/decn.c    **** decNumber *decNumberLogxy(decNumber *r, const decNumber *y, const decNumber *x) {
 836:src/decn.c    **** 	decNumber lx;
 837:src/decn.c    **** 
 838:src/decn.c    **** 	dn_ln(&lx, x);
 839:src/decn.c    **** 	return do_log(r, y, &lx);
 840:src/decn.c    **** }
 841:src/decn.c    **** 
 842:src/decn.c    **** decNumber *decNumberPow2(decNumber *r, const decNumber *x) {
 843:src/decn.c    **** 	return dn_power_internal(r, &const_2, x, &const_ln2);
 844:src/decn.c    **** }
 845:src/decn.c    **** 
 846:src/decn.c    **** decNumber *decNumberPow10(decNumber *r, const decNumber *x) {
 847:src/decn.c    **** 	return dn_power_internal(r, &const_10, x, &const_ln10);
 848:src/decn.c    **** }
 849:src/decn.c    **** 
 850:src/decn.c    **** decNumber *decNumberPow_1(decNumber *r, const decNumber *x) {
 851:src/decn.c    **** 	int even = is_even(x);
 852:src/decn.c    **** 	decNumber t, u;
 853:src/decn.c    **** 
 854:src/decn.c    **** 	if (even == 1)
 855:src/decn.c    **** 		return dn_1(r);
 856:src/decn.c    **** 	if (even == 0)
 857:src/decn.c    **** 		return dn__1(r);
 858:src/decn.c    **** 	decNumberMod(&u, x, &const_2);
 859:src/decn.c    **** 	dn_mulPI(&t, &u);
 860:src/decn.c    **** 	sincosTaylor(&t, NULL, r);
 861:src/decn.c    **** 	return r;
 862:src/decn.c    **** }
 863:src/decn.c    **** 
 864:src/decn.c    **** /* Square - this almost certainly could be done more efficiently
 865:src/decn.c    ****  */
 866:src/decn.c    **** decNumber *decNumberSquare(decNumber *r, const decNumber *x) {
 867:src/decn.c    **** 	return dn_multiply(r, x, x);
 868:src/decn.c    **** }
 869:src/decn.c    **** 
 870:src/decn.c    **** /* Cube - again could be done more efficiently */
 871:src/decn.c    **** decNumber *decNumberCube(decNumber *r, const decNumber *x) {
 872:src/decn.c    **** 	decNumber z;
 873:src/decn.c    **** 
 874:src/decn.c    **** 	decNumberSquare(&z, x);
 875:src/decn.c    **** 	return dn_multiply(r, &z, x);
 876:src/decn.c    **** }
 877:src/decn.c    **** 
 878:src/decn.c    **** /* Cube root */
 879:src/decn.c    **** decNumber *decNumberCubeRoot(decNumber *r, const decNumber *x) {
 880:src/decn.c    **** 	decNumber third, t;
 881:src/decn.c    **** 
 882:src/decn.c    **** 	decNumberRecip(&third, &const_3);
 883:src/decn.c    **** 
 884:src/decn.c    **** 	if (decNumberIsNegative(x)) {
ARM GAS  /tmp/ccBRULIx.s 			page 17


 885:src/decn.c    **** 		dn_minus(r, x);
 886:src/decn.c    **** 		dn_power(&t, r, &third);
 887:src/decn.c    **** 		return dn_minus(r, &t);
 888:src/decn.c    **** 	}
 889:src/decn.c    **** 	return dn_power(r, x, &third);
 890:src/decn.c    **** }
 891:src/decn.c    **** 
 892:src/decn.c    **** #ifdef INCLUDE_XROOT
 893:src/decn.c    **** decNumber *decNumberXRoot(decNumber *r, const decNumber *a, const decNumber *b) {
 894:src/decn.c    **** 	decNumber s, t;
 895:src/decn.c    **** 
 896:src/decn.c    **** 	decNumberRecip(&s, b);
 897:src/decn.c    **** 
 898:src/decn.c    **** 	if (decNumberIsNegative(a)) {
 899:src/decn.c    **** 		if (is_even(b) == 0) {
 900:src/decn.c    **** 			dn_minus(r, a);
 901:src/decn.c    **** 			dn_power(&t, r, &s);
 902:src/decn.c    **** 			return dn_minus(r, &t);
 903:src/decn.c    **** 		}
 904:src/decn.c    **** 		return set_NaN(r);
 905:src/decn.c    **** 	}
 906:src/decn.c    **** 	return dn_power(r, a, &s);
 907:src/decn.c    **** }
 908:src/decn.c    **** #endif
 909:src/decn.c    **** 
 910:src/decn.c    **** 
 911:src/decn.c    **** 
 912:src/decn.c    **** decNumber *decNumberMod(decNumber *res, const decNumber *x, const decNumber *y) {
 913:src/decn.c    **** 	/* Declare a structure large enough to hold a really long number.
 914:src/decn.c    **** 	 * This structure is likely to be larger than is required.
 915:src/decn.c    **** 	 */
 916:src/decn.c    **** 	struct {
 917:src/decn.c    **** 		decNumber n;
 918:src/decn.c    **** 		decNumberUnit extra[((MOD_DIGITS-DECNUMDIGITS+DECDPUN-1)/DECDPUN)];
 919:src/decn.c    **** 	} out;
 920:src/decn.c    **** 
 921:src/decn.c    **** 	int digits = Ctx.digits;
 922:src/decn.c    **** 
 923:src/decn.c    **** 	Ctx.digits = MOD_DIGITS;
 924:src/decn.c    **** 	decNumberRemainder(&out.n, x, y, &Ctx);
 925:src/decn.c    **** 	Ctx.digits = digits;
 926:src/decn.c    **** 
 927:src/decn.c    **** 	return decNumberPlus(res, &out.n, &Ctx);
 928:src/decn.c    **** }
 929:src/decn.c    **** 
 930:src/decn.c    **** 
 931:src/decn.c    **** decNumber *decNumberBigMod(decNumber *res, const decNumber *x, const decNumber *y) {
 932:src/decn.c    **** 	/* Declare a structure large enough to hold a really long number.
 933:src/decn.c    **** 	 * This structure is likely to be larger than is required.
 934:src/decn.c    **** 	 */
 935:src/decn.c    **** 	struct {
 936:src/decn.c    **** 		decNumber n;
 937:src/decn.c    **** 		decNumberUnit extra[((BIGMOD_DIGITS-DECNUMDIGITS+DECDPUN-1)/DECDPUN)];
 938:src/decn.c    **** 	} out;
 939:src/decn.c    **** 
 940:src/decn.c    **** 	int digits = Ctx.digits;
 941:src/decn.c    **** 
ARM GAS  /tmp/ccBRULIx.s 			page 18


 942:src/decn.c    **** 	Ctx.digits = BIGMOD_DIGITS;
 943:src/decn.c    **** 	decNumberRemainder(&out.n, x, y, &Ctx);
 944:src/decn.c    **** 	Ctx.digits = digits;
 945:src/decn.c    **** 
 946:src/decn.c    **** #ifdef INCLUDE_MOD41
 947:src/decn.c    **** 	decNumberPlus(res, &out.n, &Ctx);
 948:src/decn.c    **** 	if (XeqOpCode == (OP_DYA | OP_MOD41) && decNumberIsNegative(x) != decNumberIsNegative(y) && !dn_eq
 949:src/decn.c    **** 		dn_add(res, res, y);
 950:src/decn.c    **** 	return res;
 951:src/decn.c    **** #else
 952:src/decn.c    **** 	return 	decNumberPlus(res, &out.n, &Ctx);
 953:src/decn.c    **** #endif
 954:src/decn.c    **** }
 955:src/decn.c    **** 
 956:src/decn.c    **** 
 957:src/decn.c    **** /* Calculate sin and cos by Taylor series
 958:src/decn.c    ****  */
 959:src/decn.c    **** void sincosTaylor(const decNumber *a, decNumber *sout, decNumber *cout) {
 960:src/decn.c    **** 	sincosNumber a2, t, j, z, s, c;
 961:src/decn.c    **** 	int i, fins = sout == NULL, finc = cout == NULL;
 962:src/decn.c    **** 	const int digits = Ctx.digits;
 963:src/decn.c    **** 	Ctx.digits = SINCOS_DIGITS;
 964:src/decn.c    **** 
 965:src/decn.c    **** 	dn_multiply(&a2.n, a, a);
 966:src/decn.c    **** 	dn_1(&j.n);
 967:src/decn.c    **** 	dn_1(&t.n);
 968:src/decn.c    **** 	dn_1(&s.n);
 969:src/decn.c    **** 	dn_1(&c.n);
 970:src/decn.c    **** 
 971:src/decn.c    **** 	for (i=1; !(fins && finc) && i < 1000; i++) {
 972:src/decn.c    **** 		const int odd = i & 1;
 973:src/decn.c    **** 
 974:src/decn.c    **** 		dn_inc(&j.n);
 975:src/decn.c    **** 		dn_divide(&z.n, &a2.n, &j.n);
 976:src/decn.c    **** 		dn_multiply(&t.n, &t.n, &z.n);
 977:src/decn.c    **** 		if (!finc) {
 978:src/decn.c    **** 			decNumberCopy(&z.n, &c.n);
 979:src/decn.c    **** 			if (odd)
 980:src/decn.c    **** 				dn_subtract(&c.n, &c.n, &t.n);
 981:src/decn.c    **** 			else
 982:src/decn.c    **** 				dn_add(&c.n, &c.n, &t.n);
 983:src/decn.c    **** 			if (dn_eq(&c.n, &z.n))
 984:src/decn.c    **** 				finc = 1;
 985:src/decn.c    **** 		}
 986:src/decn.c    **** 
 987:src/decn.c    **** 		dn_inc(&j.n);
 988:src/decn.c    **** 		dn_divide(&t.n, &t.n, &j.n);
 989:src/decn.c    **** 		if (!fins) {
 990:src/decn.c    **** 			decNumberCopy(&z.n, &s.n);
 991:src/decn.c    **** 			if (odd)
 992:src/decn.c    **** 				dn_subtract(&s.n, &s.n, &t.n);
 993:src/decn.c    **** 			else
 994:src/decn.c    **** 				dn_add(&s.n, &s.n, &t.n);
 995:src/decn.c    **** 			if (dn_eq(&s.n, &z.n))
 996:src/decn.c    **** 				fins = 1;
 997:src/decn.c    **** 		}
 998:src/decn.c    **** 	}
ARM GAS  /tmp/ccBRULIx.s 			page 19


 999:src/decn.c    **** 	Ctx.digits = digits;
1000:src/decn.c    **** 	if (sout != NULL)
1001:src/decn.c    **** 		dn_multiply(sout, &s.n, a);
1002:src/decn.c    **** 	if (cout != NULL)
1003:src/decn.c    **** 		dn_plus(cout, &c.n);
1004:src/decn.c    **** }
1005:src/decn.c    **** 
1006:src/decn.c    **** 
1007:src/decn.c    **** /*
1008:src/decn.c    ****  *  Common helper for angle conversions
1009:src/decn.c    ****  *  Checks the present mode and converts accordingly
1010:src/decn.c    ****  */
1011:src/decn.c    **** static decNumber *decNumberDRG_internal(decNumber *res, const decNumber *x, s_opcode op) {
  30              		.loc 1 1011 90 view -0
  31              		.cfi_startproc
  32              		@ args = 0, pretend = 0, frame = 0
  33              		@ frame_needed = 0, uses_anonymous_args = 0
1012:src/decn.c    **** #define DRG(op,mode) (((op) << 2) | (mode))
1013:src/decn.c    **** 	
1014:src/decn.c    **** 	switch (DRG(argKIND(op), get_trig_mode())) {
  34              		.loc 1 1014 2 view .LVU1
1011:src/decn.c    **** #define DRG(op,mode) (((op) << 2) | (mode))
  35              		.loc 1 1011 90 is_stmt 0 view .LVU2
  36 0000 70B5     		push	{r4, r5, r6, lr}
  37              		.cfi_def_cfa_offset 16
  38              		.cfi_offset 4, -16
  39              		.cfi_offset 5, -12
  40              		.cfi_offset 6, -8
  41              		.cfi_offset 14, -4
1011:src/decn.c    **** #define DRG(op,mode) (((op) << 2) | (mode))
  42              		.loc 1 1011 90 view .LVU3
  43 0002 1446     		mov	r4, r2
  44 0004 0546     		mov	r5, r0
  45 0006 0E46     		mov	r6, r1
  46              		.loc 1 1014 10 view .LVU4
  47 0008 FFF7FEFF 		bl	get_trig_mode
  48              	.LVL1:
  49              		.loc 1 1014 10 view .LVU5
  50 000c A400     		lsls	r4, r4, #2
  51 000e 04F47F74 		and	r4, r4, #1020
  52 0012 0443     		orrs	r4, r4, r0
  53 0014 A4F16903 		sub	r3, r4, #105
1015:src/decn.c    **** 
1016:src/decn.c    **** 	case DRG(OP_2DEG,  TRIG_RAD):
1017:src/decn.c    **** 	case DRG(OP_RAD2,  TRIG_DEG):
1018:src/decn.c    **** 		return decNumberR2D(res, x);
1019:src/decn.c    **** 
1020:src/decn.c    **** 	case DRG(OP_2DEG,  TRIG_GRAD):
1021:src/decn.c    **** 	case DRG(OP_GRAD2, TRIG_DEG):
1022:src/decn.c    **** 		return decNumberG2D(res, x);
1023:src/decn.c    **** 
1024:src/decn.c    **** 	case DRG(OP_2RAD,  TRIG_DEG):
1025:src/decn.c    **** 	case DRG(OP_DEG2,  TRIG_RAD):
1026:src/decn.c    **** 		return decNumberD2R(res, x);
1027:src/decn.c    **** 
1028:src/decn.c    **** 	case DRG(OP_2RAD,  TRIG_GRAD):
1029:src/decn.c    **** 	case DRG(OP_GRAD2, TRIG_RAD):
ARM GAS  /tmp/ccBRULIx.s 			page 20


1030:src/decn.c    **** 		return decNumberG2R(res, x);
1031:src/decn.c    **** 
1032:src/decn.c    **** 	case DRG(OP_2GRAD, TRIG_DEG):
1033:src/decn.c    **** 	case DRG(OP_DEG2,  TRIG_GRAD):
1034:src/decn.c    **** 		return decNumberD2G(res, x);
1035:src/decn.c    **** 
1036:src/decn.c    **** 	case DRG(OP_2GRAD, TRIG_RAD):
1037:src/decn.c    **** 	case DRG(OP_RAD2,  TRIG_GRAD):
1038:src/decn.c    **** 		return decNumberR2G(res, x);
1039:src/decn.c    **** 
1040:src/decn.c    **** 	default:
1041:src/decn.c    **** 		return decNumberCopy(res, x);
  54              		.loc 1 1041 10 view .LVU6
  55 0018 3146     		mov	r1, r6
  56 001a 2846     		mov	r0, r5
  57 001c 142B     		cmp	r3, #20
  58 001e 0CD8     		bhi	.L2
  59 0020 DFE803F0 		tbb	[pc, r3]
  60              	.L4:
  61 0024 0F       		.byte	(.L7-.L4)/2
  62 0025 15       		.byte	(.L5-.L4)/2
  63 0026 0B       		.byte	(.L2-.L4)/2
  64 0027 1B       		.byte	(.L9-.L4)/2
  65 0028 0B       		.byte	(.L2-.L4)/2
  66 0029 21       		.byte	(.L3-.L4)/2
  67 002a 0B       		.byte	(.L2-.L4)/2
  68 002b 27       		.byte	(.L8-.L4)/2
  69 002c 2D       		.byte	(.L6-.L4)/2
  70 002d 0B       		.byte	(.L2-.L4)/2
  71 002e 0B       		.byte	(.L2-.L4)/2
  72 002f 0B       		.byte	(.L2-.L4)/2
  73 0030 1B       		.byte	(.L9-.L4)/2
  74 0031 27       		.byte	(.L8-.L4)/2
  75 0032 0B       		.byte	(.L2-.L4)/2
  76 0033 0F       		.byte	(.L7-.L4)/2
  77 0034 0B       		.byte	(.L2-.L4)/2
  78 0035 2D       		.byte	(.L6-.L4)/2
  79 0036 0B       		.byte	(.L2-.L4)/2
  80 0037 15       		.byte	(.L5-.L4)/2
  81 0038 21       		.byte	(.L3-.L4)/2
  82 0039 00       		.p2align 1
  83              	.L2:
  84              		.loc 1 1041 3 is_stmt 1 view .LVU7
1042:src/decn.c    **** 	}
1043:src/decn.c    **** #undef DRG
1044:src/decn.c    **** }
  85              		.loc 1 1044 1 is_stmt 0 view .LVU8
  86 003a BDE87040 		pop	{r4, r5, r6, lr}
  87              		.cfi_remember_state
  88              		.cfi_restore 14
  89              		.cfi_restore 6
  90              		.cfi_restore 5
  91              		.cfi_restore 4
  92              		.cfi_def_cfa_offset 0
  93              	.LVL2:
1041:src/decn.c    **** 	}
  94              		.loc 1 1041 10 view .LVU9
ARM GAS  /tmp/ccBRULIx.s 			page 21


  95 003e FFF7FEBF 		b	decNumberCopy
  96              	.LVL3:
  97              	.L7:
  98              		.cfi_restore_state
1018:src/decn.c    **** 
  99              		.loc 1 1018 3 is_stmt 1 view .LVU10
 100              	.LBB1256:
 101              	.LBI1256:
1045:src/decn.c    **** 
1046:src/decn.c    **** static void cvt_rad2(decNumber *res, const decNumber *x) {
1047:src/decn.c    **** 	decNumberDRG_internal(res, x, OP_RAD2);	
1048:src/decn.c    **** }
1049:src/decn.c    **** 
1050:src/decn.c    **** /* Calculate sin and cos of the given number in radians.
1051:src/decn.c    ****  * We need to do some range reduction to guarantee that our Taylor series
1052:src/decn.c    ****  * converges rapidly.
1053:src/decn.c    ****  */
1054:src/decn.c    **** void dn_sincos(const decNumber *v, decNumber *sinv, decNumber *cosv)
1055:src/decn.c    **** {
1056:src/decn.c    **** 	decNumber x;
1057:src/decn.c    **** 
1058:src/decn.c    **** 	if (decNumberIsSpecial(v))
1059:src/decn.c    **** 		cmplx_NaN(sinv, cosv);
1060:src/decn.c    **** 	else {
1061:src/decn.c    **** 		decNumberMod(&x, v, &const_2PI);
1062:src/decn.c    **** 		sincosTaylor(&x, sinv, cosv);
1063:src/decn.c    **** 	}
1064:src/decn.c    **** }
1065:src/decn.c    **** 
1066:src/decn.c    **** /* Have to be careful here to ensure that every function we call can handle
1067:src/decn.c    ****  * the increased size of the numbers we're using.
1068:src/decn.c    ****  */
1069:src/decn.c    **** static void cvt_2rad_sincos(decNumber *sin, decNumber *cos, const decNumber *xin) {
1070:src/decn.c    **** 	sincosNumber x, y;
1071:src/decn.c    **** 	static const decNumber * const degrees[4] = {
1072:src/decn.c    **** 		&const_45, &const_90, &const_180, &const_360
1073:src/decn.c    **** 	};
1074:src/decn.c    **** 	static const decNumber * const gradians[4] = {
1075:src/decn.c    **** 		&const_50, &const_100, &const_200, &const_400
1076:src/decn.c    **** 	};
1077:src/decn.c    **** 	const decNumber * const * thresholds = NULL;
1078:src/decn.c    **** 	int sneg = 0, cneg = 0, swap = 0;
1079:src/decn.c    **** 
1080:src/decn.c    **** 	switch (get_trig_mode()) {
1081:src/decn.c    **** 	case TRIG_RAD:
1082:src/decn.c    **** 		decNumberMod(&x.n, xin, &const_2PI);
1083:src/decn.c    **** 		sincosTaylor(&x.n, sin, cos);
1084:src/decn.c    **** 		return;
1085:src/decn.c    **** 
1086:src/decn.c    **** 	case TRIG_GRAD:
1087:src/decn.c    **** 		thresholds = gradians;
1088:src/decn.c    **** 		break;
1089:src/decn.c    **** 
1090:src/decn.c    **** 	case TRIG_DEG:
1091:src/decn.c    **** 		thresholds = degrees;
1092:src/decn.c    **** 		break;
1093:src/decn.c    **** 	}
ARM GAS  /tmp/ccBRULIx.s 			page 22


1094:src/decn.c    **** 
1095:src/decn.c    **** 	// sin(-x) = -sin(x), cos(-x) = cos(x)
1096:src/decn.c    **** 	if (decNumberIsNegative(xin)) {
1097:src/decn.c    **** 		sneg = 1;
1098:src/decn.c    **** 		dn_minus(&x.n, xin);
1099:src/decn.c    **** 	} else
1100:src/decn.c    **** 		decNumberCopy(&x.n, xin);
1101:src/decn.c    **** 
1102:src/decn.c    **** 	decNumberMod(&x.n, &x.n, thresholds[3]);
1103:src/decn.c    **** 
1104:src/decn.c    **** 	// sin(180+x) = -sin(x), cos(180+x) = -cos(x)
1105:src/decn.c    **** 	if (dn_ge(&x.n, thresholds[2])) {
1106:src/decn.c    **** 		dn_subtract(&x.n, &x.n, thresholds[2]);
1107:src/decn.c    **** 		sneg = !sneg;
1108:src/decn.c    **** 		cneg = !cneg;
1109:src/decn.c    **** 	}
1110:src/decn.c    **** 
1111:src/decn.c    **** 	// sin(90+x) = cos(x), cos(90+x) = -sin(x)
1112:src/decn.c    **** 	if (dn_ge(&x.n, thresholds[1])) {
1113:src/decn.c    **** 		dn_subtract(&x.n, &x.n, thresholds[1]);
1114:src/decn.c    **** 		swap = 1;
1115:src/decn.c    **** 		cneg = !cneg;
1116:src/decn.c    **** 	}
1117:src/decn.c    **** 
1118:src/decn.c    **** 	// sin(90-x) = cos(x), cos(90-x) = sin(x)
1119:src/decn.c    **** 	if (dn_eq(&x.n, thresholds[0])) {
1120:src/decn.c    **** 		decNumberCopy(sin, &const_root2on2);
1121:src/decn.c    **** 		decNumberCopy(cos, &const_root2on2);
1122:src/decn.c    **** 	} else {
1123:src/decn.c    **** 		if (dn_gt(&x.n, thresholds[0])) {
1124:src/decn.c    **** 			dn_subtract(&x.n, thresholds[1], &x.n);
1125:src/decn.c    **** 			swap = !swap;
1126:src/decn.c    **** 		}
1127:src/decn.c    **** 		decNumberDRG_internal(&y.n, &x.n, OP_2RAD);
1128:src/decn.c    **** 		sincosTaylor(&y.n, swap?cos:sin, swap?sin:cos);
1129:src/decn.c    **** 	}
1130:src/decn.c    **** 
1131:src/decn.c    ****     if (sneg) dn_minus(sin, sin);
1132:src/decn.c    ****     if (cneg) dn_minus(cos, cos);
1133:src/decn.c    **** }
1134:src/decn.c    **** 
1135:src/decn.c    **** decNumber *decNumberSin(decNumber *res, const decNumber *x) {
1136:src/decn.c    **** 	decNumber c;
1137:src/decn.c    **** 
1138:src/decn.c    **** 	if (decNumberIsSpecial(x))
1139:src/decn.c    **** 		return set_NaN(res);
1140:src/decn.c    **** 	cvt_2rad_sincos(res, &c, x);
1141:src/decn.c    **** 	return res;
1142:src/decn.c    **** }
1143:src/decn.c    **** 
1144:src/decn.c    **** decNumber *decNumberCos(decNumber *res, const decNumber *x) {
1145:src/decn.c    **** 	decNumber s;
1146:src/decn.c    **** 
1147:src/decn.c    **** 	if (decNumberIsSpecial(x))
1148:src/decn.c    **** 		return set_NaN(res);
1149:src/decn.c    **** 	cvt_2rad_sincos(&s, res, x);
1150:src/decn.c    **** 	return res;
ARM GAS  /tmp/ccBRULIx.s 			page 23


1151:src/decn.c    **** }
1152:src/decn.c    **** 
1153:src/decn.c    **** /* Have to be careful here to ensure that every function we call can handle
1154:src/decn.c    ****  * the increased size of the numbers we're using.
1155:src/decn.c    ****  */
1156:src/decn.c    **** decNumber *decNumberTan(decNumber *res, const decNumber *x) {
1157:src/decn.c    **** 	sincosNumber x2, s, c;
1158:src/decn.c    **** 
1159:src/decn.c    **** 	if (decNumberIsSpecial(x))
1160:src/decn.c    **** 		return set_NaN(res);
1161:src/decn.c    **** 	else {
1162:src/decn.c    **** 		const int digits = Ctx.digits;
1163:src/decn.c    **** 		Ctx.digits = SINCOS_DIGITS;
1164:src/decn.c    **** 		cvt_2rad_sincos(&s.n, &c.n, x);
1165:src/decn.c    **** 		if (decNumberIsZero(&c.n))
1166:src/decn.c    **** 			return set_NaN(res);
1167:src/decn.c    **** 		dn_divide(&x2.n, &s.n, &c.n);
1168:src/decn.c    **** 		Ctx.digits = digits;
1169:src/decn.c    **** 		return dn_plus(res, &x2.n);
1170:src/decn.c    **** 	}
1171:src/decn.c    **** }
1172:src/decn.c    **** 
1173:src/decn.c    **** #if 0
1174:src/decn.c    **** decNumber *decNumberSec(decNumber *res, const decNumber *x) {
1175:src/decn.c    **** 	return dn_recip(res, x, &decNumberCos);
1176:src/decn.c    **** }
1177:src/decn.c    **** 
1178:src/decn.c    **** decNumber *decNumberCosec(decNumber *res, const decNumber *x) {
1179:src/decn.c    **** 	return dn_recip(res, x, &decNumberSin);
1180:src/decn.c    **** }
1181:src/decn.c    **** 
1182:src/decn.c    **** decNumber *decNumberCot(decNumber *res, const decNumber *x) {
1183:src/decn.c    **** 	return dn_recip(res, x, &decNumberTan);
1184:src/decn.c    **** }
1185:src/decn.c    **** #endif
1186:src/decn.c    **** 
1187:src/decn.c    **** decNumber *decNumberSinc(decNumber *res, const decNumber *x) {
1188:src/decn.c    **** 	decNumber s;
1189:src/decn.c    **** 
1190:src/decn.c    **** 	decNumberSquare(&s, x);
1191:src/decn.c    **** 	if (dn_eq1(dn_p1(&s, &s)))
1192:src/decn.c    **** 		return dn_1(res);
1193:src/decn.c    **** 	decNumberMod(res, x, &const_2PI);
1194:src/decn.c    **** 	sincosTaylor(res, &s, NULL);
1195:src/decn.c    **** 	return dn_divide(res, &s, x);
1196:src/decn.c    **** }
1197:src/decn.c    **** 
1198:src/decn.c    **** void do_atan(decNumber *res, const decNumber *x) {
1199:src/decn.c    **** 	decNumber a, b, a2, t, j, z, last;
1200:src/decn.c    **** 	int doubles = 0;
1201:src/decn.c    **** 	int invert;
1202:src/decn.c    **** 	int neg = decNumberIsNegative(x);
1203:src/decn.c    **** 	int n;
1204:src/decn.c    **** 
1205:src/decn.c    **** 	// arrange for a >= 0
1206:src/decn.c    **** 	if (neg)
1207:src/decn.c    **** 		dn_minus(&a, x);
ARM GAS  /tmp/ccBRULIx.s 			page 24


1208:src/decn.c    **** 	else
1209:src/decn.c    **** 		decNumberCopy(&a, x);
1210:src/decn.c    **** 
1211:src/decn.c    **** 	// reduce range to 0 <= a < 1, using atan(x) = pi/2 - atan(1/x)
1212:src/decn.c    **** 	invert = dn_gt(&a, &const_1);
1213:src/decn.c    **** 	if (invert)
1214:src/decn.c    **** 		dn_divide(&a, &const_1, &a);
1215:src/decn.c    **** 
1216:src/decn.c    **** 	// Range reduce to small enough limit to use taylor series
1217:src/decn.c    **** 	// using:
1218:src/decn.c    **** 	//  tan(x/2) = tan(x)/(1+sqrt(1+tan(x)^2))
1219:src/decn.c    **** 	for (n = 0; n < 1000; n++) {
1220:src/decn.c    **** 		if (dn_le(&a, &const_0_1))
1221:src/decn.c    **** 			break;
1222:src/decn.c    **** 		doubles++;
1223:src/decn.c    **** 		// a = a/(1+sqrt(1+a^2)) -- at most 3 iterations.
1224:src/decn.c    **** 		dn_multiply(&b, &a, &a);
1225:src/decn.c    **** 		dn_inc(&b);
1226:src/decn.c    **** 		dn_sqrt(&b, &b);
1227:src/decn.c    **** 		dn_inc(&b);
1228:src/decn.c    **** 		dn_divide(&a, &a, &b);
1229:src/decn.c    **** 	}
1230:src/decn.c    **** 
1231:src/decn.c    **** 	// Now Taylor series
1232:src/decn.c    **** 	// tan(x) = x(1-x^2/3+x^4/5-x^6/7...)
1233:src/decn.c    **** 	// We calculate pairs of terms and stop when the estimate doesn't change
1234:src/decn.c    **** 	decNumberCopy(res, &const_3);
1235:src/decn.c    **** 	decNumberCopy(&j, &const_5);
1236:src/decn.c    **** 	dn_multiply(&a2, &a, &a);	// a^2
1237:src/decn.c    **** 	decNumberCopy(&t, &a2);
1238:src/decn.c    **** 	dn_divide(res, &t, res);	// s = 1-t/3 -- first two terms
1239:src/decn.c    **** 	dn_1m(res, res);
1240:src/decn.c    **** 
1241:src/decn.c    **** 	do {	// Loop until there is no digits changed
1242:src/decn.c    **** 		decNumberCopy(&last, res);
1243:src/decn.c    **** 
1244:src/decn.c    **** 		dn_multiply(&t, &t, &a2);
1245:src/decn.c    **** 		dn_divide(&z, &t, &j);
1246:src/decn.c    **** 		dn_add(res, res, &z);
1247:src/decn.c    **** 		dn_p2(&j, &j);
1248:src/decn.c    **** 
1249:src/decn.c    **** 		dn_multiply(&t, &t, &a2);
1250:src/decn.c    **** 		dn_divide(&z, &t, &j);
1251:src/decn.c    **** 		dn_subtract(res, res, &z);
1252:src/decn.c    **** 		dn_p2(&j, &j);
1253:src/decn.c    **** 
1254:src/decn.c    **** 	} while (!dn_eq(res, &last));
1255:src/decn.c    **** 	dn_multiply(res, res, &a);
1256:src/decn.c    **** 
1257:src/decn.c    **** 	while (doubles) {
1258:src/decn.c    **** 		dn_add(res, res, res);
1259:src/decn.c    **** 		doubles--;
1260:src/decn.c    **** 	}
1261:src/decn.c    **** 
1262:src/decn.c    **** 	if (invert) {
1263:src/decn.c    **** 		dn_subtract(res, &const_PIon2, res);
1264:src/decn.c    **** 	}
ARM GAS  /tmp/ccBRULIx.s 			page 25


1265:src/decn.c    **** 
1266:src/decn.c    **** 	if (neg)
1267:src/decn.c    **** 		dn_minus(res, res);
1268:src/decn.c    **** }
1269:src/decn.c    **** 
1270:src/decn.c    **** void do_asin(decNumber *res, const decNumber *x) {
1271:src/decn.c    **** 	decNumber abx, z;
1272:src/decn.c    **** 
1273:src/decn.c    **** 	if (decNumberIsNaN(x)) {
1274:src/decn.c    **** 		set_NaN(res);
1275:src/decn.c    **** 		return;
1276:src/decn.c    **** 	}
1277:src/decn.c    **** 
1278:src/decn.c    **** 	dn_abs(&abx, x);
1279:src/decn.c    **** 	if (dn_gt(&abx, &const_1)) {
1280:src/decn.c    **** 		set_NaN(res);
1281:src/decn.c    **** 		return;
1282:src/decn.c    **** 	}
1283:src/decn.c    **** 
1284:src/decn.c    **** 	// res = 2*atan(x/(1+sqrt(1-x*x)))
1285:src/decn.c    **** 	dn_multiply(&z, x, x);
1286:src/decn.c    **** 	dn_1m(&z, &z);
1287:src/decn.c    **** 	dn_sqrt(&z, &z);
1288:src/decn.c    **** 	dn_inc(&z);
1289:src/decn.c    **** 	dn_divide(&z, x, &z);
1290:src/decn.c    **** 	do_atan(&abx, &z);
1291:src/decn.c    **** 	dn_mul2(res, &abx);
1292:src/decn.c    **** }
1293:src/decn.c    **** 
1294:src/decn.c    **** void do_acos(decNumber *res, const decNumber *x) {
1295:src/decn.c    **** 	decNumber abx, z;
1296:src/decn.c    **** 
1297:src/decn.c    **** 	if (decNumberIsNaN(x)) {
1298:src/decn.c    **** 		set_NaN(res);
1299:src/decn.c    **** 		return;
1300:src/decn.c    **** 	}
1301:src/decn.c    **** 
1302:src/decn.c    **** 	dn_abs(&abx, x);
1303:src/decn.c    **** 	if (dn_gt(&abx, &const_1)) {
1304:src/decn.c    **** 		set_NaN(res);
1305:src/decn.c    **** 		return;
1306:src/decn.c    **** 	}
1307:src/decn.c    **** 
1308:src/decn.c    **** 	// res = 2*atan((1-x)/sqrt(1-x*x))
1309:src/decn.c    **** 	if (dn_eq1(x))
1310:src/decn.c    **** 		decNumberZero(res);
1311:src/decn.c    **** 	else {
1312:src/decn.c    **** 		dn_multiply(&z, x, x);
1313:src/decn.c    **** 		dn_1m(&z, &z);
1314:src/decn.c    **** 		dn_sqrt(&z, &z);
1315:src/decn.c    **** 		dn_1m(&abx, x);
1316:src/decn.c    **** 		dn_divide(&z, &abx, &z);
1317:src/decn.c    **** 		do_atan(&abx, &z);
1318:src/decn.c    **** 		dn_mul2(res, &abx);
1319:src/decn.c    **** 	}
1320:src/decn.c    **** }
1321:src/decn.c    **** 
ARM GAS  /tmp/ccBRULIx.s 			page 26


1322:src/decn.c    **** decNumber *decNumberArcSin(decNumber *res, const decNumber *x) {
1323:src/decn.c    **** 	decNumber z;
1324:src/decn.c    **** 
1325:src/decn.c    **** 	do_asin(&z, x);
1326:src/decn.c    **** 	cvt_rad2(res, &z);
1327:src/decn.c    **** 	return res;
1328:src/decn.c    **** }
1329:src/decn.c    **** 
1330:src/decn.c    **** decNumber *decNumberArcCos(decNumber *res, const decNumber *x) {
1331:src/decn.c    **** 	decNumber z;
1332:src/decn.c    **** 
1333:src/decn.c    **** 	do_acos(&z, x);
1334:src/decn.c    **** 	cvt_rad2(res, &z);
1335:src/decn.c    **** 	return res;
1336:src/decn.c    **** }
1337:src/decn.c    **** 
1338:src/decn.c    **** decNumber *decNumberArcTan(decNumber *res, const decNumber *x) {
1339:src/decn.c    **** 	decNumber z;
1340:src/decn.c    **** 
1341:src/decn.c    **** 	if (decNumberIsSpecial(x)) {
1342:src/decn.c    **** 		if (decNumberIsNaN(x))
1343:src/decn.c    **** 			return set_NaN(res);
1344:src/decn.c    **** 		else {
1345:src/decn.c    **** 			decNumberCopy(&z, &const_PIon2);
1346:src/decn.c    **** 			if (decNumberIsNegative(x))
1347:src/decn.c    **** 				dn_minus(&z, &z);
1348:src/decn.c    **** 		}
1349:src/decn.c    **** 	} else
1350:src/decn.c    **** 		do_atan(&z, x);
1351:src/decn.c    **** 	cvt_rad2(res, &z);
1352:src/decn.c    **** 	return res;
1353:src/decn.c    **** }
1354:src/decn.c    **** 
1355:src/decn.c    **** decNumber *do_atan2(decNumber *at, const decNumber *y, const decNumber *x) {
1356:src/decn.c    **** 	decNumber r, t;
1357:src/decn.c    **** 	const int xneg = decNumberIsNegative(x);
1358:src/decn.c    **** 	const int yneg = decNumberIsNegative(y);
1359:src/decn.c    **** 
1360:src/decn.c    **** 	if (decNumberIsNaN(x) || decNumberIsNaN(y)) {
1361:src/decn.c    **** 		return set_NaN(at);
1362:src/decn.c    **** 	}
1363:src/decn.c    **** 	if (dn_eq0(y)) {
1364:src/decn.c    **** 		if (yneg) {
1365:src/decn.c    **** 			if (dn_eq0(x)) {
1366:src/decn.c    **** 				if (xneg) {
1367:src/decn.c    **** 					decNumberPI(at);
1368:src/decn.c    **** 					dn_minus(at, at);
1369:src/decn.c    **** 				} else
1370:src/decn.c    **** 					decNumberCopy(at, y);
1371:src/decn.c    **** 			} else if (xneg) {
1372:src/decn.c    **** 				decNumberPI(at);
1373:src/decn.c    **** 				dn_minus(at, at);
1374:src/decn.c    **** 			} else
1375:src/decn.c    **** 				decNumberCopy(at, y);
1376:src/decn.c    **** 		} else {
1377:src/decn.c    **** 			if (dn_eq0(x)) {
1378:src/decn.c    **** 				if (xneg)
ARM GAS  /tmp/ccBRULIx.s 			page 27


1379:src/decn.c    **** 					decNumberPI(at);
1380:src/decn.c    **** 				else
1381:src/decn.c    **** 					decNumberZero(at);
1382:src/decn.c    **** 			} else if (xneg)
1383:src/decn.c    **** 				decNumberPI(at);
1384:src/decn.c    **** 			else
1385:src/decn.c    **** 				decNumberZero(at);
1386:src/decn.c    **** 		}
1387:src/decn.c    **** 		return at;
1388:src/decn.c    **** 	}
1389:src/decn.c    **** 	if (dn_eq0(x)) {
1390:src/decn.c    **** 		decNumberPIon2(at);
1391:src/decn.c    **** 		if (yneg)
1392:src/decn.c    **** 			dn_minus(at, at);
1393:src/decn.c    **** 		return at;
1394:src/decn.c    **** 	}
1395:src/decn.c    **** 	if (decNumberIsInfinite(x)) {
1396:src/decn.c    **** 		if (xneg) {
1397:src/decn.c    **** 			if (decNumberIsInfinite(y)) {
1398:src/decn.c    **** 				decNumberPI(&t);
1399:src/decn.c    **** 				dn_multiply(at, &t, &const_0_75);
1400:src/decn.c    **** 				if (yneg)
1401:src/decn.c    **** 					dn_minus(at, at);
1402:src/decn.c    **** 			} else {
1403:src/decn.c    **** 				decNumberPI(at);
1404:src/decn.c    **** 				if (yneg)
1405:src/decn.c    **** 					dn_minus(at, at);
1406:src/decn.c    **** 			}
1407:src/decn.c    **** 		} else {
1408:src/decn.c    **** 			if (decNumberIsInfinite(y)) {
1409:src/decn.c    **** 				decNumberPIon2(&t);
1410:src/decn.c    **** 				dn_div2(at, &t);
1411:src/decn.c    **** 				if (yneg)
1412:src/decn.c    **** 					dn_minus(at, at);
1413:src/decn.c    **** 			} else {
1414:src/decn.c    **** 				decNumberZero(at);
1415:src/decn.c    **** 				if (yneg)
1416:src/decn.c    **** 					dn_minus(at, at);
1417:src/decn.c    **** 			}
1418:src/decn.c    **** 		}
1419:src/decn.c    **** 		return at;
1420:src/decn.c    **** 	}
1421:src/decn.c    **** 	if (decNumberIsInfinite(y)) {
1422:src/decn.c    **** 		decNumberPIon2(at);
1423:src/decn.c    **** 		if (yneg)
1424:src/decn.c    **** 			dn_minus(at, at);
1425:src/decn.c    **** 		return at;
1426:src/decn.c    **** 	}
1427:src/decn.c    **** 
1428:src/decn.c    **** 	dn_divide(&t, y, x);
1429:src/decn.c    **** 	do_atan(&r, &t);
1430:src/decn.c    **** 	if (xneg) {
1431:src/decn.c    **** 		decNumberPI(&t);
1432:src/decn.c    **** 		if (yneg)
1433:src/decn.c    **** 			dn_minus(&t, &t);
1434:src/decn.c    **** 	} else
1435:src/decn.c    **** 		decNumberZero(&t);
ARM GAS  /tmp/ccBRULIx.s 			page 28


1436:src/decn.c    **** 	dn_add(at, &r, &t);
1437:src/decn.c    **** 	if (dn_eq0(at) && yneg)
1438:src/decn.c    **** 		dn_minus(at, at);
1439:src/decn.c    **** 	return at;
1440:src/decn.c    **** }
1441:src/decn.c    **** 
1442:src/decn.c    **** decNumber *decNumberArcTan2(decNumber *res, const decNumber *a, const decNumber *b) {
1443:src/decn.c    **** 	decNumber z;
1444:src/decn.c    **** 
1445:src/decn.c    **** 	do_atan2(&z, a, b);
1446:src/decn.c    **** 	cvt_rad2(res, &z);
1447:src/decn.c    **** 	return res;	
1448:src/decn.c    **** }
1449:src/decn.c    **** 
1450:src/decn.c    **** void op_r2p(enum nilop op) {
1451:src/decn.c    **** 	decNumber x, y, rx, ry;
1452:src/decn.c    **** 
1453:src/decn.c    **** 	getXY(&x, &y);
1454:src/decn.c    **** 	cmplxToPolar(&rx, &ry, &x, &y);
1455:src/decn.c    **** 	cvt_rad2(&y, &ry);
1456:src/decn.c    **** 	setlastX();
1457:src/decn.c    **** 	setXY(&rx, &y);
1458:src/decn.c    **** #ifdef RP_PREFIX
1459:src/decn.c    **** 	RectPolConv = 1;
1460:src/decn.c    **** #endif
1461:src/decn.c    **** }
1462:src/decn.c    **** 
1463:src/decn.c    **** void op_p2r(enum nilop op) {
1464:src/decn.c    **** 	decNumber x, y, t, range, angle;
1465:src/decn.c    **** 
1466:src/decn.c    **** 	getXY(&range, &angle);
1467:src/decn.c    **** 	decNumberCos(&t, &angle);
1468:src/decn.c    **** 	dn_multiply(&x, &t, &range);
1469:src/decn.c    **** 	decNumberSin(&t, &angle);
1470:src/decn.c    **** 	dn_multiply(&y, &t, &range);
1471:src/decn.c    **** 	setlastX();
1472:src/decn.c    **** 	setXY(&x, &y);
1473:src/decn.c    **** #ifdef RP_PREFIX
1474:src/decn.c    **** 	RectPolConv = 2;
1475:src/decn.c    **** #endif
1476:src/decn.c    **** }	
1477:src/decn.c    **** 
1478:src/decn.c    **** 
1479:src/decn.c    **** /* Hyperbolic functions.
1480:src/decn.c    ****  * We start with a utility routine that calculates sinh and cosh.
1481:src/decn.c    ****  * We do the sihn as (e^x - 1) (e^x + 1) / (2 e^x) for numerical stability
1482:src/decn.c    ****  * reasons if the value of x is smallish.
1483:src/decn.c    ****  */
1484:src/decn.c    **** void dn_sinhcosh(const decNumber *x, decNumber *sinhv, decNumber *coshv) {
1485:src/decn.c    **** 	decNumber t, u, v;
1486:src/decn.c    **** 
1487:src/decn.c    **** 	if (sinhv != NULL) {
1488:src/decn.c    **** 		if (dn_abs_lt(x, &const_0_5)) {
1489:src/decn.c    **** 			decNumberExpm1(&u, x);
1490:src/decn.c    **** 			dn_div2(&t, &u);
1491:src/decn.c    **** 			dn_inc(&u);
1492:src/decn.c    **** 			dn_divide(&v, &t, &u);
ARM GAS  /tmp/ccBRULIx.s 			page 29


1493:src/decn.c    **** 			dn_inc(&u);
1494:src/decn.c    **** 			dn_multiply(sinhv, &u, &v);
1495:src/decn.c    **** 		} else {
1496:src/decn.c    **** 			dn_exp(&u, x);			// u = e^x
1497:src/decn.c    **** 			decNumberRecip(&v, &u);		// v = e^-x
1498:src/decn.c    **** 			dn_subtract(&t, &u, &v);	// r = e^x - e^-x
1499:src/decn.c    **** 			dn_div2(sinhv, &t);
1500:src/decn.c    **** 		}
1501:src/decn.c    **** 	}
1502:src/decn.c    **** 	if (coshv != NULL) {
1503:src/decn.c    **** 		dn_exp(&u, x);			// u = e^x
1504:src/decn.c    **** 		decNumberRecip(&v, &u);		// v = e^-x
1505:src/decn.c    **** 		dn_average(coshv, &v, &u);	// r = (e^x + e^-x)/2
1506:src/decn.c    **** 	}
1507:src/decn.c    **** }
1508:src/decn.c    **** 
1509:src/decn.c    **** decNumber *decNumberSinh(decNumber *res, const decNumber *x) {
1510:src/decn.c    **** 	if (decNumberIsSpecial(x)) {
1511:src/decn.c    **** 		if (decNumberIsNaN(x))
1512:src/decn.c    **** 			return set_NaN(res);
1513:src/decn.c    **** 		return decNumberCopy(res, x);
1514:src/decn.c    **** 	}
1515:src/decn.c    **** 	dn_sinhcosh(x, res, NULL);
1516:src/decn.c    **** 	return res;
1517:src/decn.c    **** }
1518:src/decn.c    **** 
1519:src/decn.c    **** decNumber *decNumberCosh(decNumber *res, const decNumber *x) {
1520:src/decn.c    **** 	if (decNumberIsSpecial(x)) {
1521:src/decn.c    **** 		if (decNumberIsNaN(x))
1522:src/decn.c    **** 			return set_NaN(res);
1523:src/decn.c    **** 		return set_inf(res);
1524:src/decn.c    **** 	}
1525:src/decn.c    **** 	dn_sinhcosh(x, NULL, res);
1526:src/decn.c    **** 	return res;
1527:src/decn.c    **** }
1528:src/decn.c    **** 
1529:src/decn.c    **** decNumber *decNumberTanh(decNumber *res, const decNumber *x) {
1530:src/decn.c    **** 	decNumber a, b;
1531:src/decn.c    **** 
1532:src/decn.c    **** 	if (decNumberIsNaN(x))
1533:src/decn.c    **** 		return set_NaN(res);
1534:src/decn.c    **** 	if (!dn_abs_lt(x, &const_100)) {
1535:src/decn.c    **** 		if (decNumberIsNegative(x))
1536:src/decn.c    **** 			return dn__1(res);
1537:src/decn.c    **** 		return dn_1(res);
1538:src/decn.c    **** 	}
1539:src/decn.c    **** 	dn_add(&a, x, x);
1540:src/decn.c    **** 	decNumberExpm1(&b, &a);
1541:src/decn.c    **** 	dn_p2(&a, &b);
1542:src/decn.c    **** 	return dn_divide(res, &b, &a);
1543:src/decn.c    **** }
1544:src/decn.c    **** 
1545:src/decn.c    **** 
1546:src/decn.c    **** #if 0
1547:src/decn.c    **** decNumber *decNumberSech(decNumber *res, const decNumber *x) {
1548:src/decn.c    **** 	return dn_recip(res, x, &decNumberCosh);
1549:src/decn.c    **** }
ARM GAS  /tmp/ccBRULIx.s 			page 30


1550:src/decn.c    **** 
1551:src/decn.c    **** decNumber *decNumberCosech(decNumber *res, const decNumber *x) {
1552:src/decn.c    **** 	return dn_recip(res, x, &decNumberSinh);
1553:src/decn.c    **** }
1554:src/decn.c    **** 
1555:src/decn.c    **** decNumber *decNumberCoth(decNumber *res, const decNumber *x) {
1556:src/decn.c    **** 	return dn_recip(res, x, &decNumberTanh);
1557:src/decn.c    **** }
1558:src/decn.c    **** #endif
1559:src/decn.c    **** 
1560:src/decn.c    **** decNumber *decNumberArcSinh(decNumber *res, const decNumber *x) {
1561:src/decn.c    **** 	decNumber y, z;
1562:src/decn.c    **** 
1563:src/decn.c    **** 	decNumberSquare(&y, x);		// y = x^2
1564:src/decn.c    **** 	dn_p1(&z, &y);			// z = x^2 + 1
1565:src/decn.c    **** 	dn_sqrt(&y, &z);		// y = sqrt(x^2+1)
1566:src/decn.c    **** 	dn_inc(&y);			// y = sqrt(x^2+1)+1
1567:src/decn.c    **** 	dn_divide(&z, x, &y);
1568:src/decn.c    **** 	dn_inc(&z);
1569:src/decn.c    **** 	dn_multiply(&y, x, &z);
1570:src/decn.c    **** 	return decNumberLn1p(res, &y);
1571:src/decn.c    **** }
1572:src/decn.c    **** 
1573:src/decn.c    **** 
1574:src/decn.c    **** decNumber *decNumberArcCosh(decNumber *res, const decNumber *x) {
1575:src/decn.c    **** 	decNumber z;
1576:src/decn.c    **** 
1577:src/decn.c    **** 	decNumberSquare(res, x);	// r = x^2
1578:src/decn.c    **** 	dn_m1(&z, res);			// z = x^2 + 1
1579:src/decn.c    **** 	dn_sqrt(res, &z);		// r = sqrt(x^2+1)
1580:src/decn.c    **** 	dn_add(&z, res, x);		// z = x + sqrt(x^2+1)
1581:src/decn.c    **** 	return dn_ln(res, &z);
1582:src/decn.c    **** }
1583:src/decn.c    **** 
1584:src/decn.c    **** decNumber *decNumberArcTanh(decNumber *res, const decNumber *x) {
1585:src/decn.c    **** 	decNumber y, z;
1586:src/decn.c    **** 
1587:src/decn.c    **** 	if (decNumberIsNaN(x))
1588:src/decn.c    **** 		return set_NaN(res);
1589:src/decn.c    **** 	dn_abs(&y, x);
1590:src/decn.c    **** 	if (dn_eq1(&y)) {
1591:src/decn.c    **** 		if (decNumberIsNegative(x))
1592:src/decn.c    **** 			return set_neginf(res);
1593:src/decn.c    **** 		return set_inf(res);
1594:src/decn.c    **** 	}
1595:src/decn.c    **** 	// Not the obvious formula but more stable...
1596:src/decn.c    **** 	dn_1m(&z, x);
1597:src/decn.c    **** 	dn_divide(&y, x, &z);
1598:src/decn.c    **** 	dn_mul2(&z, &y);
1599:src/decn.c    **** 	decNumberLn1p(&y, &z);
1600:src/decn.c    **** 	return dn_div2(res, &y);
1601:src/decn.c    **** }
1602:src/decn.c    **** 
1603:src/decn.c    **** 
1604:src/decn.c    **** decNumber *decNumberD2R(decNumber *res, const decNumber *x) {
1605:src/decn.c    **** 	return dn_multiply(res, x, &const_PIon180);
1606:src/decn.c    **** }
ARM GAS  /tmp/ccBRULIx.s 			page 31


1607:src/decn.c    **** 
1608:src/decn.c    **** decNumber *decNumberR2D(decNumber *res, const decNumber *x) {
 102              		.loc 1 1608 12 view .LVU11
 103              	.LBB1257:
1609:src/decn.c    **** 	return dn_divide(res, x, &const_PIon180);
 104              		.loc 1 1609 2 view .LVU12
 105              	.LBB1258:
 106              	.LBI1258:
 129:src/decn.c    **** 	return decNumberDivide(r, a, b, &Ctx);
 107              		.loc 1 129 12 view .LVU13
 108              	.LBB1259:
 130:src/decn.c    **** }
 109              		.loc 1 130 2 view .LVU14
 110              	.LBE1259:
 111              	.LBE1258:
 112              	.LBE1257:
 113              	.LBE1256:
1044:src/decn.c    **** 
 114              		.loc 1 1044 1 is_stmt 0 view .LVU15
 115 0042 BDE87040 		pop	{r4, r5, r6, lr}
 116              		.cfi_remember_state
 117              		.cfi_restore 14
 118              		.cfi_restore 6
 119              		.cfi_restore 5
 120              		.cfi_restore 4
 121              		.cfi_def_cfa_offset 0
 122              	.LBB1263:
 123              	.LBB1262:
 124              	.LBB1261:
 125              	.LBB1260:
 130:src/decn.c    **** }
 126              		.loc 1 130 9 view .LVU16
 127 0046 114B     		ldr	r3, .L12
 128 0048 114A     		ldr	r2, .L12+4
 129 004a FFF7FEBF 		b	decNumberDivide
 130              	.LVL4:
 131              	.L5:
 132              		.cfi_restore_state
 130:src/decn.c    **** }
 133              		.loc 1 130 9 view .LVU17
 134              	.LBE1260:
 135              	.LBE1261:
 136              	.LBE1262:
 137              	.LBE1263:
1022:src/decn.c    **** 
 138              		.loc 1 1022 3 is_stmt 1 view .LVU18
 139              	.LBB1264:
 140              	.LBI1264:
1610:src/decn.c    **** }
1611:src/decn.c    **** 
1612:src/decn.c    **** 
1613:src/decn.c    **** decNumber *decNumberG2R(decNumber *res, const decNumber *x) {
1614:src/decn.c    **** 	return dn_multiply(res, x, &const_PIon200);
1615:src/decn.c    **** }
1616:src/decn.c    **** 
1617:src/decn.c    **** decNumber *decNumberR2G(decNumber *res, const decNumber *x) {
1618:src/decn.c    **** 	return dn_divide(res, x, &const_PIon200);
ARM GAS  /tmp/ccBRULIx.s 			page 32


1619:src/decn.c    **** }
1620:src/decn.c    **** 
1621:src/decn.c    **** decNumber *decNumberG2D(decNumber *res, const decNumber *x) {
 141              		.loc 1 1621 12 view .LVU19
 142              	.LBB1265:
1622:src/decn.c    **** 	return dn_multiply(res, x, &const_0_9);
 143              		.loc 1 1622 2 view .LVU20
 144              	.LBB1266:
 145              	.LBI1266:
 125:src/decn.c    **** 	return decNumberMultiply(r, a, b, &Ctx);
 146              		.loc 1 125 12 view .LVU21
 147              	.LBB1267:
 126:src/decn.c    **** }
 148              		.loc 1 126 2 view .LVU22
 149              	.LBE1267:
 150              	.LBE1266:
 151              	.LBE1265:
 152              	.LBE1264:
1044:src/decn.c    **** 
 153              		.loc 1 1044 1 is_stmt 0 view .LVU23
 154 004e BDE87040 		pop	{r4, r5, r6, lr}
 155              		.cfi_remember_state
 156              		.cfi_restore 14
 157              		.cfi_restore 6
 158              		.cfi_restore 5
 159              		.cfi_restore 4
 160              		.cfi_def_cfa_offset 0
 161              	.LBB1271:
 162              	.LBB1270:
 163              	.LBB1269:
 164              	.LBB1268:
 126:src/decn.c    **** }
 165              		.loc 1 126 9 view .LVU24
 166 0052 0E4B     		ldr	r3, .L12
 167 0054 0F4A     		ldr	r2, .L12+8
 168 0056 FFF7FEBF 		b	decNumberMultiply
 169              	.LVL5:
 170              	.L9:
 171              		.cfi_restore_state
 126:src/decn.c    **** }
 172              		.loc 1 126 9 view .LVU25
 173              	.LBE1268:
 174              	.LBE1269:
 175              	.LBE1270:
 176              	.LBE1271:
1026:src/decn.c    **** 
 177              		.loc 1 1026 3 is_stmt 1 view .LVU26
 178              	.LBB1272:
 179              	.LBI1272:
1604:src/decn.c    **** 	return dn_multiply(res, x, &const_PIon180);
 180              		.loc 1 1604 12 view .LVU27
 181              	.LBB1273:
1605:src/decn.c    **** }
 182              		.loc 1 1605 2 view .LVU28
 183              	.LBB1274:
 184              	.LBI1274:
 125:src/decn.c    **** 	return decNumberMultiply(r, a, b, &Ctx);
ARM GAS  /tmp/ccBRULIx.s 			page 33


 185              		.loc 1 125 12 view .LVU29
 186              	.LBB1275:
 126:src/decn.c    **** }
 187              		.loc 1 126 2 view .LVU30
 188              	.LBE1275:
 189              	.LBE1274:
 190              	.LBE1273:
 191              	.LBE1272:
1044:src/decn.c    **** 
 192              		.loc 1 1044 1 is_stmt 0 view .LVU31
 193 005a BDE87040 		pop	{r4, r5, r6, lr}
 194              		.cfi_remember_state
 195              		.cfi_restore 14
 196              		.cfi_restore 6
 197              		.cfi_restore 5
 198              		.cfi_restore 4
 199              		.cfi_def_cfa_offset 0
 200              	.LBB1279:
 201              	.LBB1278:
 202              	.LBB1277:
 203              	.LBB1276:
 126:src/decn.c    **** }
 204              		.loc 1 126 9 view .LVU32
 205 005e 0B4B     		ldr	r3, .L12
 206 0060 0B4A     		ldr	r2, .L12+4
 207 0062 FFF7FEBF 		b	decNumberMultiply
 208              	.LVL6:
 209              	.L3:
 210              		.cfi_restore_state
 126:src/decn.c    **** }
 211              		.loc 1 126 9 view .LVU33
 212              	.LBE1276:
 213              	.LBE1277:
 214              	.LBE1278:
 215              	.LBE1279:
1030:src/decn.c    **** 
 216              		.loc 1 1030 3 is_stmt 1 view .LVU34
 217              	.LBB1280:
 218              	.LBI1280:
1613:src/decn.c    **** 	return dn_multiply(res, x, &const_PIon200);
 219              		.loc 1 1613 12 view .LVU35
 220              	.LBB1281:
1614:src/decn.c    **** }
 221              		.loc 1 1614 2 view .LVU36
 222              	.LBB1282:
 223              	.LBI1282:
 125:src/decn.c    **** 	return decNumberMultiply(r, a, b, &Ctx);
 224              		.loc 1 125 12 view .LVU37
 225              	.LBB1283:
 126:src/decn.c    **** }
 226              		.loc 1 126 2 view .LVU38
 227              	.LBE1283:
 228              	.LBE1282:
 229              	.LBE1281:
 230              	.LBE1280:
1044:src/decn.c    **** 
 231              		.loc 1 1044 1 is_stmt 0 view .LVU39
ARM GAS  /tmp/ccBRULIx.s 			page 34


 232 0066 BDE87040 		pop	{r4, r5, r6, lr}
 233              		.cfi_remember_state
 234              		.cfi_restore 14
 235              		.cfi_restore 6
 236              		.cfi_restore 5
 237              		.cfi_restore 4
 238              		.cfi_def_cfa_offset 0
 239              	.LBB1287:
 240              	.LBB1286:
 241              	.LBB1285:
 242              	.LBB1284:
 126:src/decn.c    **** }
 243              		.loc 1 126 9 view .LVU40
 244 006a 084B     		ldr	r3, .L12
 245 006c 0A4A     		ldr	r2, .L12+12
 246 006e FFF7FEBF 		b	decNumberMultiply
 247              	.LVL7:
 248              	.L8:
 249              		.cfi_restore_state
 126:src/decn.c    **** }
 250              		.loc 1 126 9 view .LVU41
 251              	.LBE1284:
 252              	.LBE1285:
 253              	.LBE1286:
 254              	.LBE1287:
1034:src/decn.c    **** 
 255              		.loc 1 1034 3 is_stmt 1 view .LVU42
 256              	.LBB1288:
 257              	.LBI1288:
1623:src/decn.c    **** }
1624:src/decn.c    **** 
1625:src/decn.c    **** decNumber *decNumberD2G(decNumber *res, const decNumber *x) {
 258              		.loc 1 1625 12 view .LVU43
 259              	.LBB1289:
1626:src/decn.c    **** 	return dn_divide(res, x, &const_0_9);
 260              		.loc 1 1626 2 view .LVU44
 261              	.LBB1290:
 262              	.LBI1290:
 129:src/decn.c    **** 	return decNumberDivide(r, a, b, &Ctx);
 263              		.loc 1 129 12 view .LVU45
 264              	.LBB1291:
 130:src/decn.c    **** }
 265              		.loc 1 130 2 view .LVU46
 266              	.LBE1291:
 267              	.LBE1290:
 268              	.LBE1289:
 269              	.LBE1288:
1044:src/decn.c    **** 
 270              		.loc 1 1044 1 is_stmt 0 view .LVU47
 271 0072 BDE87040 		pop	{r4, r5, r6, lr}
 272              		.cfi_remember_state
 273              		.cfi_restore 14
 274              		.cfi_restore 6
 275              		.cfi_restore 5
 276              		.cfi_restore 4
 277              		.cfi_def_cfa_offset 0
 278              	.LBB1295:
ARM GAS  /tmp/ccBRULIx.s 			page 35


 279              	.LBB1294:
 280              	.LBB1293:
 281              	.LBB1292:
 130:src/decn.c    **** }
 282              		.loc 1 130 9 view .LVU48
 283 0076 054B     		ldr	r3, .L12
 284 0078 064A     		ldr	r2, .L12+8
 285 007a FFF7FEBF 		b	decNumberDivide
 286              	.LVL8:
 287              	.L6:
 288              		.cfi_restore_state
 130:src/decn.c    **** }
 289              		.loc 1 130 9 view .LVU49
 290              	.LBE1292:
 291              	.LBE1293:
 292              	.LBE1294:
 293              	.LBE1295:
1038:src/decn.c    **** 
 294              		.loc 1 1038 3 is_stmt 1 view .LVU50
 295              	.LBB1296:
 296              	.LBI1296:
1617:src/decn.c    **** 	return dn_divide(res, x, &const_PIon200);
 297              		.loc 1 1617 12 view .LVU51
 298              	.LBB1297:
1618:src/decn.c    **** }
 299              		.loc 1 1618 2 view .LVU52
 300              	.LBB1298:
 301              	.LBI1298:
 129:src/decn.c    **** 	return decNumberDivide(r, a, b, &Ctx);
 302              		.loc 1 129 12 view .LVU53
 303              	.LBB1299:
 130:src/decn.c    **** }
 304              		.loc 1 130 2 view .LVU54
 305              	.LBE1299:
 306              	.LBE1298:
 307              	.LBE1297:
 308              	.LBE1296:
1044:src/decn.c    **** 
 309              		.loc 1 1044 1 is_stmt 0 view .LVU55
 310 007e BDE87040 		pop	{r4, r5, r6, lr}
 311              		.cfi_restore 14
 312              		.cfi_restore 6
 313              		.cfi_restore 5
 314              		.cfi_restore 4
 315              		.cfi_def_cfa_offset 0
 316              	.LBB1303:
 317              	.LBB1302:
 318              	.LBB1301:
 319              	.LBB1300:
 130:src/decn.c    **** }
 320              		.loc 1 130 9 view .LVU56
 321 0082 024B     		ldr	r3, .L12
 322 0084 044A     		ldr	r2, .L12+12
 323 0086 FFF7FEBF 		b	decNumberDivide
 324              	.LVL9:
 325              	.L13:
 130:src/decn.c    **** }
ARM GAS  /tmp/ccBRULIx.s 			page 36


 326              		.loc 1 130 9 view .LVU57
 327 008a 00BF     		.align	2
 328              	.L12:
 329 008c 00000000 		.word	Ctx
 330 0090 00000000 		.word	const_PIon180
 331 0094 00000000 		.word	const_0_9
 332 0098 00000000 		.word	const_PIon200
 333              	.LBE1300:
 334              	.LBE1301:
 335              	.LBE1302:
 336              	.LBE1303:
 337              		.cfi_endproc
 338              	.LFE82:
 340              		.section	.text.realULP,"ax",%progbits
 341              		.align	1
 342              		.p2align 2,,3
 343              		.syntax unified
 344              		.thumb
 345              		.thumb_func
 346              		.fpu fpv4-sp-d16
 348              	realULP:
 349              	.LVL10:
 350              	.LFB48:
 394:src/decn.c    **** 	int dblmode;
 351              		.loc 1 394 54 is_stmt 1 view -0
 352              		.cfi_startproc
 353              		@ args = 0, pretend = 0, frame = 0
 354              		@ frame_needed = 0, uses_anonymous_args = 0
 394:src/decn.c    **** 	int dblmode;
 355              		.loc 1 394 54 is_stmt 0 view .LVU59
 356 0000 F8B5     		push	{r3, r4, r5, r6, r7, lr}
 357              		.cfi_def_cfa_offset 24
 358              		.cfi_offset 3, -24
 359              		.cfi_offset 4, -20
 360              		.cfi_offset 5, -16
 361              		.cfi_offset 6, -12
 362              		.cfi_offset 7, -8
 363              		.cfi_offset 14, -4
 400:src/decn.c    **** 		if (decNumberIsInfinite(x))
 364              		.loc 1 400 6 view .LVU60
 365 0002 0B7A     		ldrb	r3, [r1, #8]	@ zero_extendqisi2
 400:src/decn.c    **** 		if (decNumberIsInfinite(x))
 366              		.loc 1 400 5 view .LVU61
 367 0004 13F0700F 		tst	r3, #112
 394:src/decn.c    **** 	int dblmode;
 368              		.loc 1 394 54 view .LVU62
 369 0008 0546     		mov	r5, r0
 395:src/decn.c    **** 	int subnormal = 0;
 370              		.loc 1 395 2 is_stmt 1 view .LVU63
 396:src/decn.c    **** 	int expshift;
 371              		.loc 1 396 2 view .LVU64
 372              	.LVL11:
 397:src/decn.c    **** 	int minexp;
 373              		.loc 1 397 2 view .LVU65
 398:src/decn.c    **** 
 374              		.loc 1 398 2 view .LVU66
 400:src/decn.c    **** 		if (decNumberIsInfinite(x))
ARM GAS  /tmp/ccBRULIx.s 			page 37


 375              		.loc 1 400 2 view .LVU67
 400:src/decn.c    **** 		if (decNumberIsInfinite(x))
 376              		.loc 1 400 5 is_stmt 0 view .LVU68
 377 000a 1CD0     		beq	.L15
 401:src/decn.c    **** 			set_inf(r);
 378              		.loc 1 401 3 is_stmt 1 view .LVU69
 401:src/decn.c    **** 			set_inf(r);
 379              		.loc 1 401 6 is_stmt 0 view .LVU70
 380 000c 13F04004 		ands	r4, r3, #64
 381 0010 2AD1     		bne	.L30
 404:src/decn.c    **** 		return 0;
 382              		.loc 1 404 4 is_stmt 1 view .LVU71
 383              	.LVL12:
 384              	.LBB1318:
 385              	.LBI1318:
 254:src/decn.c    **** 	if (x != NULL)
 386              		.loc 1 254 12 view .LVU72
 387              	.LBB1319:
 255:src/decn.c    **** 		decNumberCopy(x, &const_NaN);
 388              		.loc 1 255 2 view .LVU73
 255:src/decn.c    **** 		decNumberCopy(x, &const_NaN);
 389              		.loc 1 255 5 is_stmt 0 view .LVU74
 390 0012 B0B1     		cbz	r0, .L29
 256:src/decn.c    **** 	return x;
 391              		.loc 1 256 3 is_stmt 1 view .LVU75
 392 0014 1B49     		ldr	r1, .L33
 393              	.LVL13:
 256:src/decn.c    **** 	return x;
 394              		.loc 1 256 3 is_stmt 0 view .LVU76
 395 0016 FFF7FEFF 		bl	decNumberCopy
 396              	.LVL14:
 256:src/decn.c    **** 	return x;
 397              		.loc 1 256 3 view .LVU77
 398              	.LBE1319:
 399              	.LBE1318:
 405:src/decn.c    **** 	}
 400              		.loc 1 405 10 view .LVU78
 401 001a 2046     		mov	r0, r4
 428:src/decn.c    **** 
 402              		.loc 1 428 1 view .LVU79
 403 001c F8BD     		pop	{r3, r4, r5, r6, r7, pc}
 404              	.LVL15:
 405              	.L18:
 406              	.LBB1320:
 407              	.LBB1321:
 416:src/decn.c    **** 		minexp = DECIMAL64_Emin - DECIMAL64_Pmax + 1;
 408              		.loc 1 416 3 is_stmt 1 view .LVU80
 417:src/decn.c    **** 		if (x->exponent < DECIMAL64_Emin)
 409              		.loc 1 417 3 view .LVU81
 418:src/decn.c    **** 			subnormal = 1;
 410              		.loc 1 418 3 view .LVU82
 418:src/decn.c    **** 			subnormal = 1;
 411              		.loc 1 418 6 is_stmt 0 view .LVU83
 412 001e 13F5C07F 		cmn	r3, #384
 417:src/decn.c    **** 		if (x->exponent < DECIMAL64_Emin)
 413              		.loc 1 417 10 view .LVU84
 414 0022 194E     		ldr	r6, .L33+4
ARM GAS  /tmp/ccBRULIx.s 			page 38


 418:src/decn.c    **** 			subnormal = 1;
 415              		.loc 1 418 6 view .LVU85
 416 0024 19DD     		ble	.L19
 416:src/decn.c    **** 		minexp = DECIMAL64_Emin - DECIMAL64_Pmax + 1;
 417              		.loc 1 416 12 view .LVU86
 418 0026 1027     		movs	r7, #16
 419              	.LVL16:
 420              	.L20:
 422:src/decn.c    **** 	if (dn_eq0(x) || subnormal)
 421              		.loc 1 422 2 is_stmt 1 view .LVU87
 422              	.LBB1322:
 423              	.LBI1322:
 334:src/decn.c    **** 	return decNumberCopy(r, &const_1);
 424              		.loc 1 334 12 view .LVU88
 425              	.LBB1323:
 335:src/decn.c    **** }
 426              		.loc 1 335 2 view .LVU89
 335:src/decn.c    **** }
 427              		.loc 1 335 9 is_stmt 0 view .LVU90
 428 0028 1849     		ldr	r1, .L33+8
 429 002a 2846     		mov	r0, r5
 430              	.LVL17:
 335:src/decn.c    **** }
 431              		.loc 1 335 9 view .LVU91
 432 002c FFF7FEFF 		bl	decNumberCopy
 433              	.LVL18:
 335:src/decn.c    **** }
 434              		.loc 1 335 9 view .LVU92
 435              	.LBE1323:
 436              	.LBE1322:
 423:src/decn.c    **** 		r->exponent = minexp;
 437              		.loc 1 423 2 is_stmt 1 view .LVU93
 438              	.LBB1325:
 439              	.LBI1325:
  72:src/decn.c    **** 	return decNumberIsZero(x);
 440              		.loc 1 72 5 view .LVU94
 441              	.LBB1326:
  73:src/decn.c    **** }
 442              		.loc 1 73 2 view .LVU95
  73:src/decn.c    **** }
 443              		.loc 1 73 9 is_stmt 0 view .LVU96
 444 0030 6389     		ldrh	r3, [r4, #10]
 445 0032 2268     		ldr	r2, [r4]
 446 0034 0BB9     		cbnz	r3, .L21
 447 0036 012A     		cmp	r2, #1
 448 0038 1DD0     		beq	.L31
 449              	.L21:
 450              	.LVL19:
  73:src/decn.c    **** }
 451              		.loc 1 73 9 view .LVU97
 452              	.LBE1326:
 453              	.LBE1325:
 426:src/decn.c    **** 	return subnormal;
 454              		.loc 1 426 3 is_stmt 1 view .LVU98
 426:src/decn.c    **** 	return subnormal;
 455              		.loc 1 426 29 is_stmt 0 view .LVU99
 456 003a 6368     		ldr	r3, [r4, #4]
ARM GAS  /tmp/ccBRULIx.s 			page 39


 457 003c 1A44     		add	r2, r2, r3
 426:src/decn.c    **** 	return subnormal;
 458              		.loc 1 426 41 view .LVU100
 459 003e D21B     		subs	r2, r2, r7
 426:src/decn.c    **** 	return subnormal;
 460              		.loc 1 426 15 view .LVU101
 461 0040 6A60     		str	r2, [r5, #4]
 462              	.LVL20:
 463              	.L29:
 426:src/decn.c    **** 	return subnormal;
 464              		.loc 1 426 15 view .LVU102
 465 0042 0020     		movs	r0, #0
 466              	.LBE1321:
 467              	.LBE1320:
 428:src/decn.c    **** 
 468              		.loc 1 428 1 view .LVU103
 469 0044 F8BD     		pop	{r3, r4, r5, r6, r7, pc}
 470              	.LVL21:
 471              	.L15:
 472              	.LBB1334:
 473              	.LBI1320:
 394:src/decn.c    **** 	int dblmode;
 474              		.loc 1 394 12 is_stmt 1 view .LVU104
 475              	.LBB1332:
 408:src/decn.c    **** 
 476              		.loc 1 408 2 view .LVU105
 477 0046 0C46     		mov	r4, r1
 408:src/decn.c    **** 
 478              		.loc 1 408 12 is_stmt 0 view .LVU106
 479 0048 FFF7FEFF 		bl	is_dblmode
 480              	.LVL22:
 410:src/decn.c    **** 		expshift = DECIMAL128_Pmax;
 481              		.loc 1 410 2 is_stmt 1 view .LVU107
 413:src/decn.c    **** 			subnormal = 1;
 482              		.loc 1 413 6 is_stmt 0 view .LVU108
 483 004c 6368     		ldr	r3, [r4, #4]
 410:src/decn.c    **** 		expshift = DECIMAL128_Pmax;
 484              		.loc 1 410 5 view .LVU109
 485 004e 0028     		cmp	r0, #0
 486 0050 E5D0     		beq	.L18
 411:src/decn.c    **** 		minexp = DECIMAL128_Emin - DECIMAL128_Pmax + 1;
 487              		.loc 1 411 3 is_stmt 1 view .LVU110
 488              	.LVL23:
 412:src/decn.c    **** 		if (x->exponent < DECIMAL128_Emin)
 489              		.loc 1 412 3 view .LVU111
 413:src/decn.c    **** 			subnormal = 1;
 490              		.loc 1 413 3 view .LVU112
 413:src/decn.c    **** 			subnormal = 1;
 491              		.loc 1 413 6 is_stmt 0 view .LVU113
 492 0052 13F5C05F 		cmn	r3, #6144
 412:src/decn.c    **** 		if (x->exponent < DECIMAL128_Emin)
 493              		.loc 1 412 10 view .LVU114
 494 0056 0E4E     		ldr	r6, .L33+12
 413:src/decn.c    **** 			subnormal = 1;
 495              		.loc 1 413 6 view .LVU115
 496 0058 0BDC     		bgt	.L32
 497              	.LVL24:
ARM GAS  /tmp/ccBRULIx.s 			page 40


 498              	.L19:
 422:src/decn.c    **** 	if (dn_eq0(x) || subnormal)
 499              		.loc 1 422 2 is_stmt 1 view .LVU116
 500              	.LBB1329:
 334:src/decn.c    **** 	return decNumberCopy(r, &const_1);
 501              		.loc 1 334 12 view .LVU117
 502              	.LBB1324:
 335:src/decn.c    **** }
 503              		.loc 1 335 2 view .LVU118
 335:src/decn.c    **** }
 504              		.loc 1 335 9 is_stmt 0 view .LVU119
 505 005a 0C49     		ldr	r1, .L33+8
 506 005c 2846     		mov	r0, r5
 507              	.LVL25:
 335:src/decn.c    **** }
 508              		.loc 1 335 9 view .LVU120
 509 005e FFF7FEFF 		bl	decNumberCopy
 510              	.LVL26:
 335:src/decn.c    **** }
 511              		.loc 1 335 9 view .LVU121
 512              	.LBE1324:
 513              	.LBE1329:
 423:src/decn.c    **** 		r->exponent = minexp;
 514              		.loc 1 423 2 is_stmt 1 view .LVU122
 515              	.LBB1330:
  72:src/decn.c    **** 	return decNumberIsZero(x);
 516              		.loc 1 72 5 view .LVU123
 517              	.LBB1327:
  73:src/decn.c    **** }
 518              		.loc 1 73 2 view .LVU124
  73:src/decn.c    **** }
 519              		.loc 1 73 9 is_stmt 0 view .LVU125
 520 0062 0120     		movs	r0, #1
 521              	.LVL27:
 522              	.L22:
  73:src/decn.c    **** }
 523              		.loc 1 73 9 view .LVU126
 524              	.LBE1327:
 525              	.LBE1330:
 424:src/decn.c    **** 	else
 526              		.loc 1 424 3 is_stmt 1 view .LVU127
 424:src/decn.c    **** 	else
 527              		.loc 1 424 15 is_stmt 0 view .LVU128
 528 0064 6E60     		str	r6, [r5, #4]
 529              	.LBE1332:
 530              	.LBE1334:
 428:src/decn.c    **** 
 531              		.loc 1 428 1 view .LVU129
 532 0066 F8BD     		pop	{r3, r4, r5, r6, r7, pc}
 533              	.LVL28:
 534              	.L30:
 402:src/decn.c    **** 		else
 535              		.loc 1 402 4 is_stmt 1 view .LVU130
 536              	.LBB1335:
 537              	.LBI1335:
 260:src/decn.c    **** 	return decNumberCopy(x, &const_inf);
 538              		.loc 1 260 12 view .LVU131
ARM GAS  /tmp/ccBRULIx.s 			page 41


 539              	.LBB1336:
 261:src/decn.c    **** }
 540              		.loc 1 261 2 view .LVU132
 261:src/decn.c    **** }
 541              		.loc 1 261 9 is_stmt 0 view .LVU133
 542 0068 0A49     		ldr	r1, .L33+16
 543              	.LVL29:
 261:src/decn.c    **** }
 544              		.loc 1 261 9 view .LVU134
 545 006a FFF7FEFF 		bl	decNumberCopy
 546              	.LVL30:
 261:src/decn.c    **** }
 547              		.loc 1 261 9 view .LVU135
 548              	.LBE1336:
 549              	.LBE1335:
 405:src/decn.c    **** 	}
 550              		.loc 1 405 10 view .LVU136
 551 006e 0020     		movs	r0, #0
 428:src/decn.c    **** 
 552              		.loc 1 428 1 view .LVU137
 553 0070 F8BD     		pop	{r3, r4, r5, r6, r7, pc}
 554              	.LVL31:
 555              	.L32:
 556              	.LBB1337:
 557              	.LBB1333:
 411:src/decn.c    **** 		minexp = DECIMAL128_Emin - DECIMAL128_Pmax + 1;
 558              		.loc 1 411 12 view .LVU138
 559 0072 2227     		movs	r7, #34
 560 0074 D8E7     		b	.L20
 561              	.LVL32:
 562              	.L31:
 563              	.LBB1331:
 564              	.LBB1328:
  73:src/decn.c    **** }
 565              		.loc 1 73 9 view .LVU139
 566 0076 237A     		ldrb	r3, [r4, #8]	@ zero_extendqisi2
 567 0078 13F07003 		ands	r3, r3, #112
 568 007c DDD1     		bne	.L21
 569 007e 1846     		mov	r0, r3
 570 0080 F0E7     		b	.L22
 571              	.L34:
 572 0082 00BF     		.align	2
 573              	.L33:
 574 0084 00000000 		.word	const_NaN
 575 0088 72FEFFFF 		.word	-398
 576 008c 00000000 		.word	const_1
 577 0090 E0E7FFFF 		.word	-6176
 578 0094 00000000 		.word	const_inf
 579              	.LBE1328:
 580              	.LBE1331:
 581              	.LBE1333:
 582              	.LBE1337:
 583              		.cfi_endproc
 584              	.LFE48:
 586              		.section	.text.dn_lt0,"ax",%progbits
 587              		.align	1
 588              		.p2align 2,,3
ARM GAS  /tmp/ccBRULIx.s 			page 42


 589              		.global	dn_lt0
 590              		.syntax unified
 591              		.thumb
 592              		.thumb_func
 593              		.fpu fpv4-sp-d16
 595              	dn_lt0:
 596              	.LVL33:
 597              	.LFB0:
  64:src/decn.c    **** 	return decNumberIsNegative(x) && ! decNumberIsZero(x);
 598              		.loc 1 64 32 is_stmt 1 view -0
 599              		.cfi_startproc
 600              		@ args = 0, pretend = 0, frame = 0
 601              		@ frame_needed = 0, uses_anonymous_args = 0
 602              		@ link register save eliminated.
  65:src/decn.c    **** }
 603              		.loc 1 65 2 view .LVU141
  65:src/decn.c    **** }
 604              		.loc 1 65 32 is_stmt 0 view .LVU142
 605 0000 90F90830 		ldrsb	r3, [r0, #8]
  65:src/decn.c    **** }
 606              		.loc 1 65 9 view .LVU143
 607 0004 027A     		ldrb	r2, [r0, #8]	@ zero_extendqisi2
  65:src/decn.c    **** }
 608              		.loc 1 65 32 view .LVU144
 609 0006 002B     		cmp	r3, #0
 610 0008 01DB     		blt	.L40
 611 000a 0020     		movs	r0, #0
 612              	.LVL34:
  65:src/decn.c    **** }
 613              		.loc 1 65 32 view .LVU145
 614 000c 7047     		bx	lr
 615              	.LVL35:
 616              	.L40:
  65:src/decn.c    **** }
 617              		.loc 1 65 32 discriminator 1 view .LVU146
 618 000e 4389     		ldrh	r3, [r0, #10]
 619 0010 13B9     		cbnz	r3, .L39
  65:src/decn.c    **** }
 620              		.loc 1 65 37 discriminator 4 view .LVU147
 621 0012 0368     		ldr	r3, [r0]
 622 0014 012B     		cmp	r3, #1
 623 0016 01D0     		beq	.L41
 624              	.L39:
  65:src/decn.c    **** }
 625              		.loc 1 65 32 view .LVU148
 626 0018 0120     		movs	r0, #1
 627              	.LVL36:
  66:src/decn.c    **** 
 628              		.loc 1 66 1 view .LVU149
 629 001a 7047     		bx	lr
 630              	.LVL37:
 631              	.L41:
  65:src/decn.c    **** }
 632              		.loc 1 65 35 discriminator 6 view .LVU150
 633 001c 12F0700F 		tst	r2, #112
 634 0020 14BF     		ite	ne
 635 0022 0120     		movne	r0, #1
ARM GAS  /tmp/ccBRULIx.s 			page 43


 636              	.LVL38:
  65:src/decn.c    **** }
 637              		.loc 1 65 35 discriminator 6 view .LVU151
 638 0024 0020     		moveq	r0, #0
 639 0026 7047     		bx	lr
 640              		.cfi_endproc
 641              	.LFE0:
 643              		.section	.text.dn_le0,"ax",%progbits
 644              		.align	1
 645              		.p2align 2,,3
 646              		.global	dn_le0
 647              		.syntax unified
 648              		.thumb
 649              		.thumb_func
 650              		.fpu fpv4-sp-d16
 652              	dn_le0:
 653              	.LVL39:
 654              	.LFB1:
  68:src/decn.c    **** 	return decNumberIsNegative(x) || decNumberIsZero(x);
 655              		.loc 1 68 32 is_stmt 1 view -0
 656              		.cfi_startproc
 657              		@ args = 0, pretend = 0, frame = 0
 658              		@ frame_needed = 0, uses_anonymous_args = 0
 659              		@ link register save eliminated.
  69:src/decn.c    **** }
 660              		.loc 1 69 2 view .LVU153
  69:src/decn.c    **** }
 661              		.loc 1 69 32 is_stmt 0 view .LVU154
 662 0000 90F90830 		ldrsb	r3, [r0, #8]
  69:src/decn.c    **** }
 663              		.loc 1 69 9 view .LVU155
 664 0004 027A     		ldrb	r2, [r0, #8]	@ zero_extendqisi2
  69:src/decn.c    **** }
 665              		.loc 1 69 32 view .LVU156
 666 0006 002B     		cmp	r3, #0
 667 0008 06DB     		blt	.L44
  69:src/decn.c    **** }
 668              		.loc 1 69 32 discriminator 2 view .LVU157
 669 000a 4389     		ldrh	r3, [r0, #10]
 670 000c 13B9     		cbnz	r3, .L45
  69:src/decn.c    **** }
 671              		.loc 1 69 35 discriminator 3 view .LVU158
 672 000e 0168     		ldr	r1, [r0]
 673 0010 0129     		cmp	r1, #1
 674 0012 03D0     		beq	.L47
 675              	.L45:
  69:src/decn.c    **** }
 676              		.loc 1 69 32 view .LVU159
 677 0014 0020     		movs	r0, #0
 678              	.LVL40:
  69:src/decn.c    **** }
 679              		.loc 1 69 32 view .LVU160
 680 0016 7047     		bx	lr
 681              	.LVL41:
 682              	.L44:
  69:src/decn.c    **** }
 683              		.loc 1 69 32 view .LVU161
ARM GAS  /tmp/ccBRULIx.s 			page 44


 684 0018 0120     		movs	r0, #1
 685              	.LVL42:
  69:src/decn.c    **** }
 686              		.loc 1 69 32 view .LVU162
 687 001a 7047     		bx	lr
 688              	.LVL43:
 689              	.L47:
  69:src/decn.c    **** }
 690              		.loc 1 69 35 discriminator 5 view .LVU163
 691 001c 12F0700F 		tst	r2, #112
 692 0020 0CBF     		ite	eq
 693 0022 0120     		moveq	r0, #1
 694              	.LVL44:
  69:src/decn.c    **** }
 695              		.loc 1 69 35 discriminator 5 view .LVU164
 696 0024 0020     		movne	r0, #0
 697 0026 7047     		bx	lr
 698              		.cfi_endproc
 699              	.LFE1:
 701              		.section	.text.dn_eq0,"ax",%progbits
 702              		.align	1
 703              		.p2align 2,,3
 704              		.global	dn_eq0
 705              		.syntax unified
 706              		.thumb
 707              		.thumb_func
 708              		.fpu fpv4-sp-d16
 710              	dn_eq0:
 711              	.LVL45:
 712              	.LFB2:
  72:src/decn.c    **** 	return decNumberIsZero(x);
 713              		.loc 1 72 32 is_stmt 1 view -0
 714              		.cfi_startproc
 715              		@ args = 0, pretend = 0, frame = 0
 716              		@ frame_needed = 0, uses_anonymous_args = 0
 717              		@ link register save eliminated.
  73:src/decn.c    **** }
 718              		.loc 1 73 2 view .LVU166
  73:src/decn.c    **** }
 719              		.loc 1 73 9 is_stmt 0 view .LVU167
 720 0000 4389     		ldrh	r3, [r0, #10]
 721 0002 13B9     		cbnz	r3, .L50
  73:src/decn.c    **** }
 722              		.loc 1 73 9 discriminator 1 view .LVU168
 723 0004 0268     		ldr	r2, [r0]
 724 0006 012A     		cmp	r2, #1
 725 0008 01D0     		beq	.L52
 726              	.L50:
  73:src/decn.c    **** }
 727              		.loc 1 73 9 view .LVU169
 728 000a 0020     		movs	r0, #0
 729              	.LVL46:
  73:src/decn.c    **** }
 730              		.loc 1 73 9 view .LVU170
 731 000c 7047     		bx	lr
 732              	.LVL47:
 733              	.L52:
ARM GAS  /tmp/ccBRULIx.s 			page 45


  73:src/decn.c    **** }
 734              		.loc 1 73 9 discriminator 3 view .LVU171
 735 000e 037A     		ldrb	r3, [r0, #8]	@ zero_extendqisi2
 736 0010 13F0700F 		tst	r3, #112
 737 0014 0CBF     		ite	eq
 738 0016 0120     		moveq	r0, #1
 739              	.LVL48:
  73:src/decn.c    **** }
 740              		.loc 1 73 9 discriminator 3 view .LVU172
 741 0018 0020     		movne	r0, #0
 742 001a 7047     		bx	lr
 743              		.cfi_endproc
 744              	.LFE2:
 746              		.section	.text.dn_eq,"ax",%progbits
 747              		.align	1
 748              		.p2align 2,,3
 749              		.global	dn_eq
 750              		.syntax unified
 751              		.thumb
 752              		.thumb_func
 753              		.fpu fpv4-sp-d16
 755              	dn_eq:
 756              	.LVL49:
 757              	.LFB3:
  76:src/decn.c    **** 	sincosNumber a;
 758              		.loc 1 76 51 is_stmt 1 view -0
 759              		.cfi_startproc
 760              		@ args = 0, pretend = 0, frame = 48
 761              		@ frame_needed = 0, uses_anonymous_args = 0
  77:src/decn.c    **** 	return decNumberIsZero(dn_compare(&a.n, x, y));
 762              		.loc 1 77 2 view .LVU174
  78:src/decn.c    **** }
 763              		.loc 1 78 2 view .LVU175
  76:src/decn.c    **** 	sincosNumber a;
 764              		.loc 1 76 51 is_stmt 0 view .LVU176
 765 0000 30B5     		push	{r4, r5, lr}
 766              		.cfi_def_cfa_offset 12
 767              		.cfi_offset 4, -12
 768              		.cfi_offset 5, -8
 769              		.cfi_offset 14, -4
 770 0002 8DB0     		sub	sp, sp, #52
 771              		.cfi_def_cfa_offset 64
 772              	.LVL50:
 773              	.LBB1338:
 774              	.LBB1339:
 134:src/decn.c    **** }
 775              		.loc 1 134 9 view .LVU177
 776 0004 114B     		ldr	r3, .L58
 777 0006 0A46     		mov	r2, r1
 778              	.LBE1339:
 779              	.LBE1338:
  76:src/decn.c    **** 	sincosNumber a;
 780              		.loc 1 76 51 view .LVU178
 781 0008 0446     		mov	r4, r0
 782              	.LVL51:
  76:src/decn.c    **** 	sincosNumber a;
 783              		.loc 1 76 51 view .LVU179
ARM GAS  /tmp/ccBRULIx.s 			page 46


 784 000a 0D46     		mov	r5, r1
 785              	.LVL52:
 786              	.LBB1341:
 787              	.LBI1338:
 133:src/decn.c    **** 	return decNumberCompare(r, a, b, &Ctx);
 788              		.loc 1 133 12 is_stmt 1 view .LVU180
 789              	.LBB1340:
 134:src/decn.c    **** }
 790              		.loc 1 134 2 view .LVU181
 134:src/decn.c    **** }
 791              		.loc 1 134 9 is_stmt 0 view .LVU182
 792 000c 0146     		mov	r1, r0
 793              	.LVL53:
 134:src/decn.c    **** }
 794              		.loc 1 134 9 view .LVU183
 795 000e 01A8     		add	r0, sp, #4
 796              	.LVL54:
 134:src/decn.c    **** }
 797              		.loc 1 134 9 view .LVU184
 798 0010 FFF7FEFF 		bl	decNumberCompare
 799              	.LVL55:
 134:src/decn.c    **** }
 800              		.loc 1 134 9 view .LVU185
 801              	.LBE1340:
 802              	.LBE1341:
  78:src/decn.c    **** }
 803              		.loc 1 78 9 view .LVU186
 804 0014 4389     		ldrh	r3, [r0, #10]
 805 0016 13B1     		cbz	r3, .L54
 806              	.L56:
 807 0018 0020     		movs	r0, #0
 808              	.L53:
  79:src/decn.c    **** 
 809              		.loc 1 79 1 view .LVU187
 810 001a 0DB0     		add	sp, sp, #52
 811              		.cfi_remember_state
 812              		.cfi_def_cfa_offset 12
 813              		@ sp needed
 814 001c 30BD     		pop	{r4, r5, pc}
 815              	.LVL56:
 816              	.L54:
 817              		.cfi_restore_state
 818              	.LBB1342:
 819              	.LBI1342:
 133:src/decn.c    **** 	return decNumberCompare(r, a, b, &Ctx);
 820              		.loc 1 133 12 is_stmt 1 view .LVU188
 821              	.LBB1343:
 134:src/decn.c    **** }
 822              		.loc 1 134 2 view .LVU189
 134:src/decn.c    **** }
 823              		.loc 1 134 9 is_stmt 0 view .LVU190
 824 001e 0B4B     		ldr	r3, .L58
 825 0020 2A46     		mov	r2, r5
 826 0022 2146     		mov	r1, r4
 827 0024 01A8     		add	r0, sp, #4
 828              	.LVL57:
 134:src/decn.c    **** }
ARM GAS  /tmp/ccBRULIx.s 			page 47


 829              		.loc 1 134 9 view .LVU191
 830 0026 FFF7FEFF 		bl	decNumberCompare
 831              	.LVL58:
 134:src/decn.c    **** }
 832              		.loc 1 134 9 view .LVU192
 833              	.LBE1343:
 834              	.LBE1342:
  78:src/decn.c    **** }
 835              		.loc 1 78 9 view .LVU193
 836 002a 0368     		ldr	r3, [r0]
 837 002c 012B     		cmp	r3, #1
 838 002e F3D1     		bne	.L56
 839              	.LVL59:
 840              	.LBB1344:
 841              	.LBI1344:
 133:src/decn.c    **** 	return decNumberCompare(r, a, b, &Ctx);
 842              		.loc 1 133 12 is_stmt 1 view .LVU194
 843              	.LBB1345:
 134:src/decn.c    **** }
 844              		.loc 1 134 2 view .LVU195
 134:src/decn.c    **** }
 845              		.loc 1 134 9 is_stmt 0 view .LVU196
 846 0030 064B     		ldr	r3, .L58
 847 0032 2A46     		mov	r2, r5
 848 0034 2146     		mov	r1, r4
 849 0036 01A8     		add	r0, sp, #4
 850              	.LVL60:
 134:src/decn.c    **** }
 851              		.loc 1 134 9 view .LVU197
 852 0038 FFF7FEFF 		bl	decNumberCompare
 853              	.LVL61:
 134:src/decn.c    **** }
 854              		.loc 1 134 9 view .LVU198
 855              	.LBE1345:
 856              	.LBE1344:
  78:src/decn.c    **** }
 857              		.loc 1 78 9 view .LVU199
 858 003c 037A     		ldrb	r3, [r0, #8]	@ zero_extendqisi2
 859 003e 13F0700F 		tst	r3, #112
 860 0042 0CBF     		ite	eq
 861 0044 0120     		moveq	r0, #1
 862 0046 0020     		movne	r0, #0
 863 0048 E7E7     		b	.L53
 864              	.L59:
 865 004a 00BF     		.align	2
 866              	.L58:
 867 004c 00000000 		.word	Ctx
 868              		.cfi_endproc
 869              	.LFE3:
 871              		.section	.text.dn_eq1,"ax",%progbits
 872              		.align	1
 873              		.p2align 2,,3
 874              		.global	dn_eq1
 875              		.syntax unified
 876              		.thumb
 877              		.thumb_func
 878              		.fpu fpv4-sp-d16
ARM GAS  /tmp/ccBRULIx.s 			page 48


 880              	dn_eq1:
 881              	.LVL62:
 882              	.LFB4:
  81:src/decn.c    **** 	return dn_eq(x, &const_1);
 883              		.loc 1 81 32 is_stmt 1 view -0
 884              		.cfi_startproc
 885              		@ args = 0, pretend = 0, frame = 0
 886              		@ frame_needed = 0, uses_anonymous_args = 0
 887              		@ link register save eliminated.
  82:src/decn.c    **** }
 888              		.loc 1 82 2 view .LVU201
  82:src/decn.c    **** }
 889              		.loc 1 82 9 is_stmt 0 view .LVU202
 890 0000 0149     		ldr	r1, .L61
 891 0002 FFF7FEBF 		b	dn_eq
 892              	.LVL63:
 893              	.L62:
  82:src/decn.c    **** }
 894              		.loc 1 82 9 view .LVU203
 895 0006 00BF     		.align	2
 896              	.L61:
 897 0008 00000000 		.word	const_1
 898              		.cfi_endproc
 899              	.LFE4:
 901              		.section	.text.dn_lt,"ax",%progbits
 902              		.align	1
 903              		.p2align 2,,3
 904              		.global	dn_lt
 905              		.syntax unified
 906              		.thumb
 907              		.thumb_func
 908              		.fpu fpv4-sp-d16
 910              	dn_lt:
 911              	.LVL64:
 912              	.LFB5:
  85:src/decn.c    **** 	sincosNumber a;
 913              		.loc 1 85 51 is_stmt 1 view -0
 914              		.cfi_startproc
 915              		@ args = 0, pretend = 0, frame = 48
 916              		@ frame_needed = 0, uses_anonymous_args = 0
  86:src/decn.c    **** 	return dn_lt0(dn_compare(&a.n, x, y));
 917              		.loc 1 86 2 view .LVU205
  87:src/decn.c    **** }
 918              		.loc 1 87 2 view .LVU206
  85:src/decn.c    **** 	sincosNumber a;
 919              		.loc 1 85 51 is_stmt 0 view .LVU207
 920 0000 00B5     		push	{lr}
 921              		.cfi_def_cfa_offset 4
 922              		.cfi_offset 14, -4
 923 0002 8DB0     		sub	sp, sp, #52
 924              		.cfi_def_cfa_offset 56
 925              	.LVL65:
  85:src/decn.c    **** 	sincosNumber a;
 926              		.loc 1 85 51 view .LVU208
 927 0004 0A46     		mov	r2, r1
 928              	.LVL66:
 929              	.LBB1346:
ARM GAS  /tmp/ccBRULIx.s 			page 49


 930              	.LBI1346:
 133:src/decn.c    **** 	return decNumberCompare(r, a, b, &Ctx);
 931              		.loc 1 133 12 is_stmt 1 view .LVU209
 932              	.LBB1347:
 134:src/decn.c    **** }
 933              		.loc 1 134 2 view .LVU210
 134:src/decn.c    **** }
 934              		.loc 1 134 9 is_stmt 0 view .LVU211
 935 0006 0E4B     		ldr	r3, .L71
 936 0008 0146     		mov	r1, r0
 937              	.LVL67:
 134:src/decn.c    **** }
 938              		.loc 1 134 9 view .LVU212
 939 000a 01A8     		add	r0, sp, #4
 940              	.LVL68:
 134:src/decn.c    **** }
 941              		.loc 1 134 9 view .LVU213
 942 000c FFF7FEFF 		bl	decNumberCompare
 943              	.LVL69:
 134:src/decn.c    **** }
 944              		.loc 1 134 9 view .LVU214
 945              	.LBE1347:
 946              	.LBE1346:
 947              	.LBB1348:
 948              	.LBI1348:
  64:src/decn.c    **** 	return decNumberIsNegative(x) && ! decNumberIsZero(x);
 949              		.loc 1 64 5 is_stmt 1 view .LVU215
 950              	.LBB1349:
  65:src/decn.c    **** }
 951              		.loc 1 65 2 view .LVU216
  65:src/decn.c    **** }
 952              		.loc 1 65 32 is_stmt 0 view .LVU217
 953 0010 90F90830 		ldrsb	r3, [r0, #8]
  65:src/decn.c    **** }
 954              		.loc 1 65 9 view .LVU218
 955 0014 027A     		ldrb	r2, [r0, #8]	@ zero_extendqisi2
  65:src/decn.c    **** }
 956              		.loc 1 65 32 view .LVU219
 957 0016 002B     		cmp	r3, #0
 958 0018 03DB     		blt	.L69
 959 001a 0020     		movs	r0, #0
 960              	.LVL70:
 961              	.L63:
  65:src/decn.c    **** }
 962              		.loc 1 65 32 view .LVU220
 963              	.LBE1349:
 964              	.LBE1348:
  88:src/decn.c    **** 
 965              		.loc 1 88 1 view .LVU221
 966 001c 0DB0     		add	sp, sp, #52
 967              		.cfi_remember_state
 968              		.cfi_def_cfa_offset 4
 969              		@ sp needed
 970 001e 5DF804FB 		ldr	pc, [sp], #4
 971              	.LVL71:
 972              	.L69:
 973              		.cfi_restore_state
ARM GAS  /tmp/ccBRULIx.s 			page 50


 974              	.LBB1352:
 975              	.LBB1350:
  65:src/decn.c    **** }
 976              		.loc 1 65 32 view .LVU222
 977 0022 4389     		ldrh	r3, [r0, #10]
 978 0024 13B9     		cbnz	r3, .L67
  65:src/decn.c    **** }
 979              		.loc 1 65 37 view .LVU223
 980 0026 0368     		ldr	r3, [r0]
 981 0028 012B     		cmp	r3, #1
 982 002a 03D0     		beq	.L70
 983              	.L67:
  65:src/decn.c    **** }
 984              		.loc 1 65 32 view .LVU224
 985 002c 0120     		movs	r0, #1
 986              	.LVL72:
  65:src/decn.c    **** }
 987              		.loc 1 65 32 view .LVU225
 988              	.LBE1350:
 989              	.LBE1352:
  88:src/decn.c    **** 
 990              		.loc 1 88 1 view .LVU226
 991 002e 0DB0     		add	sp, sp, #52
 992              		.cfi_remember_state
 993              		.cfi_def_cfa_offset 4
 994              		@ sp needed
 995 0030 5DF804FB 		ldr	pc, [sp], #4
 996              	.LVL73:
 997              	.L70:
 998              		.cfi_restore_state
 999              	.LBB1353:
 1000              	.LBB1351:
  65:src/decn.c    **** }
 1001              		.loc 1 65 35 view .LVU227
 1002 0034 12F0700F 		tst	r2, #112
 1003 0038 14BF     		ite	ne
 1004 003a 0120     		movne	r0, #1
 1005              	.LVL74:
  65:src/decn.c    **** }
 1006              		.loc 1 65 35 view .LVU228
 1007 003c 0020     		moveq	r0, #0
 1008 003e EDE7     		b	.L63
 1009              	.L72:
 1010              		.align	2
 1011              	.L71:
 1012 0040 00000000 		.word	Ctx
 1013              	.LBE1351:
 1014              	.LBE1353:
 1015              		.cfi_endproc
 1016              	.LFE5:
 1018              		.section	.text.dn_abs_lt,"ax",%progbits
 1019              		.align	1
 1020              		.p2align 2,,3
 1021              		.global	dn_abs_lt
 1022              		.syntax unified
 1023              		.thumb
 1024              		.thumb_func
ARM GAS  /tmp/ccBRULIx.s 			page 51


 1025              		.fpu fpv4-sp-d16
 1027              	dn_abs_lt:
 1028              	.LVL75:
 1029              	.LFB6:
  90:src/decn.c    **** 	decNumber a;
 1030              		.loc 1 90 57 is_stmt 1 view -0
 1031              		.cfi_startproc
 1032              		@ args = 0, pretend = 0, frame = 40
 1033              		@ frame_needed = 0, uses_anonymous_args = 0
  91:src/decn.c    **** 	return dn_lt(dn_abs(&a, x), tol);
 1034              		.loc 1 91 2 view .LVU230
  92:src/decn.c    **** }
 1035              		.loc 1 92 2 view .LVU231
  90:src/decn.c    **** 	decNumber a;
 1036              		.loc 1 90 57 is_stmt 0 view .LVU232
 1037 0000 10B5     		push	{r4, lr}
 1038              		.cfi_def_cfa_offset 8
 1039              		.cfi_offset 4, -8
 1040              		.cfi_offset 14, -4
 1041 0002 8AB0     		sub	sp, sp, #40
 1042              		.cfi_def_cfa_offset 48
 1043              	.LVL76:
 1044              	.LBB1354:
 1045              	.LBI1354:
 145:src/decn.c    **** 	return decNumberAbs(r, a, &Ctx);
 1046              		.loc 1 145 12 is_stmt 1 view .LVU233
 1047              	.LBB1355:
 146:src/decn.c    **** }
 1048              		.loc 1 146 2 view .LVU234
 146:src/decn.c    **** }
 1049              		.loc 1 146 9 is_stmt 0 view .LVU235
 1050 0004 054A     		ldr	r2, .L75
 1051              	.LBE1355:
 1052              	.LBE1354:
  90:src/decn.c    **** 	decNumber a;
 1053              		.loc 1 90 57 view .LVU236
 1054 0006 0C46     		mov	r4, r1
 1055              	.LBB1357:
 1056              	.LBB1356:
 146:src/decn.c    **** }
 1057              		.loc 1 146 9 view .LVU237
 1058 0008 0146     		mov	r1, r0
 1059              	.LVL77:
 146:src/decn.c    **** }
 1060              		.loc 1 146 9 view .LVU238
 1061 000a 01A8     		add	r0, sp, #4
 1062              	.LVL78:
 146:src/decn.c    **** }
 1063              		.loc 1 146 9 view .LVU239
 1064 000c FFF7FEFF 		bl	decNumberAbs
 1065              	.LVL79:
 146:src/decn.c    **** }
 1066              		.loc 1 146 9 view .LVU240
 1067              	.LBE1356:
 1068              	.LBE1357:
  92:src/decn.c    **** }
 1069              		.loc 1 92 9 view .LVU241
ARM GAS  /tmp/ccBRULIx.s 			page 52


 1070 0010 2146     		mov	r1, r4
 1071 0012 FFF7FEFF 		bl	dn_lt
 1072              	.LVL80:
  93:src/decn.c    **** 
 1073              		.loc 1 93 1 view .LVU242
 1074 0016 0AB0     		add	sp, sp, #40
 1075              		.cfi_def_cfa_offset 8
 1076              		@ sp needed
 1077 0018 10BD     		pop	{r4, pc}
 1078              	.LVL81:
 1079              	.L76:
  93:src/decn.c    **** 
 1080              		.loc 1 93 1 view .LVU243
 1081 001a 00BF     		.align	2
 1082              	.L75:
 1083 001c 00000000 		.word	Ctx
 1084              		.cfi_endproc
 1085              	.LFE6:
 1087              		.section	.text.gcheckSmall,"ax",%progbits
 1088              		.align	1
 1089              		.p2align 2,,3
 1090              		.syntax unified
 1091              		.thumb
 1092              		.thumb_func
 1093              		.fpu fpv4-sp-d16
 1095              	gcheckSmall:
 1096              	.LVL82:
 1097              	.LFB136:
1627:src/decn.c    **** }
1628:src/decn.c    **** 
1629:src/decn.c    **** decNumber *decNumberDRG(decNumber *res, const decNumber *x) {
1630:src/decn.c    **** 	return decNumberDRG_internal(res, x, XeqOpCode);
1631:src/decn.c    **** }
1632:src/decn.c    **** 
1633:src/decn.c    **** /* Check the arguments a little and perform the computation of
1634:src/decn.c    ****  * ln(permutation) which is common across both our callers.
1635:src/decn.c    ****  *
1636:src/decn.c    ****  * This is the real version.
1637:src/decn.c    ****  */
1638:src/decn.c    **** enum perm_opts { PERM_INVALID=0, PERM_INTG, PERM_NORMAL };
1639:src/decn.c    **** static enum perm_opts perm_helper(decNumber *r, const decNumber *x, const decNumber *y) {
1640:src/decn.c    **** 	decNumber n, s;
1641:src/decn.c    **** 
1642:src/decn.c    **** 	if (decNumberIsSpecial(x) || decNumberIsSpecial(y) || dn_lt0(x) || dn_lt0(y)) {
1643:src/decn.c    **** 		if (decNumberIsInfinite(x) && !decNumberIsInfinite(y))
1644:src/decn.c    **** 			set_inf(r);
1645:src/decn.c    **** 		else
1646:src/decn.c    **** 			set_NaN(r);
1647:src/decn.c    **** 		return PERM_INVALID;
1648:src/decn.c    **** 	}
1649:src/decn.c    **** 	dn_p1(&n, x);				// x+1
1650:src/decn.c    **** 	decNumberLnGamma(&s, &n);		// lnGamma(x+1) = Ln x!
1651:src/decn.c    **** 
1652:src/decn.c    **** 	dn_subtract(r, &n, y);	// x-y+1
1653:src/decn.c    **** 	if (dn_le0(r)) {
1654:src/decn.c    **** 		set_NaN(r);
1655:src/decn.c    **** 		return PERM_INVALID;
ARM GAS  /tmp/ccBRULIx.s 			page 53


1656:src/decn.c    **** 	}
1657:src/decn.c    **** 	decNumberLnGamma(&n, r);		// LnGamma(x-y+1) = Ln (x-y)!
1658:src/decn.c    **** 	dn_subtract(r, &s, &n);
1659:src/decn.c    **** 
1660:src/decn.c    **** 	if (is_int(x) && is_int(y))
1661:src/decn.c    **** 		return PERM_INTG;
1662:src/decn.c    **** 	return PERM_NORMAL;
1663:src/decn.c    **** }
1664:src/decn.c    **** 
1665:src/decn.c    **** 
1666:src/decn.c    **** /* Calculate permutations:
1667:src/decn.c    ****  * C(x, y) = P(x, y) / y! = x! / ( (x-y)! y! )
1668:src/decn.c    ****  */
1669:src/decn.c    **** decNumber *decNumberComb(decNumber *res, const decNumber *x, const decNumber *y) {
1670:src/decn.c    **** 	decNumber r, n, s;
1671:src/decn.c    **** 	const enum perm_opts code = perm_helper(&r, x, y);
1672:src/decn.c    **** 
1673:src/decn.c    **** 	if (code != PERM_INVALID) {
1674:src/decn.c    **** 		dn_p1(&n, y);				// y+1
1675:src/decn.c    **** 		decNumberLnGamma(&s, &n);		// LnGamma(y+1) = Ln y!
1676:src/decn.c    **** 		dn_subtract(&n, &r, &s);
1677:src/decn.c    **** 
1678:src/decn.c    **** 		dn_exp(res, &n);
1679:src/decn.c    **** 		if (code == PERM_INTG)
1680:src/decn.c    **** 			decNumberIntg(res, res);
1681:src/decn.c    **** 	} else
1682:src/decn.c    **** 		decNumberCopy(res, &r);
1683:src/decn.c    **** 	return res;
1684:src/decn.c    **** }
1685:src/decn.c    **** 
1686:src/decn.c    **** /* Calculate permutations:
1687:src/decn.c    ****  * P(x, y) = x! / (x-y)!
1688:src/decn.c    ****  */
1689:src/decn.c    **** decNumber *decNumberPerm(decNumber *res, const decNumber *x, const decNumber *y) {
1690:src/decn.c    **** 	decNumber t;
1691:src/decn.c    **** 	const enum perm_opts code = perm_helper(&t, x, y);
1692:src/decn.c    **** 
1693:src/decn.c    **** 	if (code != PERM_INVALID) {
1694:src/decn.c    **** 		dn_exp(res, &t);
1695:src/decn.c    **** 		if (code == PERM_INTG)
1696:src/decn.c    **** 			decNumberIntg(res, res);
1697:src/decn.c    **** 	} else
1698:src/decn.c    **** 		decNumberCopy(res, &t);
1699:src/decn.c    **** 	return res;
1700:src/decn.c    **** }
1701:src/decn.c    **** 
1702:src/decn.c    **** #ifdef _DEBUG_
1703:src/decn.c    **** #include <stdio.h>
1704:src/decn.c    **** char dump[DECNUMDIGITS + 10];
1705:src/decn.c    **** #define DUMP(d, s) ((int) decNumberToString(d, dump), fprintf(f, s "=%s\n", dump))
1706:src/decn.c    **** 
1707:src/decn.c    **** #endif
1708:src/decn.c    **** 
1709:src/decn.c    **** const decNumber *const gamma_consts[21] = {
1710:src/decn.c    **** 	&const_gammaC01, &const_gammaC02, &const_gammaC03,
1711:src/decn.c    **** 	&const_gammaC04, &const_gammaC05, &const_gammaC06,
1712:src/decn.c    **** 	&const_gammaC07, &const_gammaC08, &const_gammaC09,
ARM GAS  /tmp/ccBRULIx.s 			page 54


1713:src/decn.c    **** 	&const_gammaC10, &const_gammaC11, &const_gammaC12,
1714:src/decn.c    **** 	&const_gammaC13, &const_gammaC14, &const_gammaC15,
1715:src/decn.c    **** 	&const_gammaC16, &const_gammaC17, &const_gammaC18,
1716:src/decn.c    **** 	&const_gammaC19, &const_gammaC20, &const_gammaC21,
1717:src/decn.c    **** };
1718:src/decn.c    **** 
1719:src/decn.c    **** static void dn_LnGamma(decNumber *res, const decNumber *x) {
1720:src/decn.c    **** 	decNumber r, s, t, u, v;
1721:src/decn.c    **** 	int k;
1722:src/decn.c    **** #ifdef DUMP
1723:src/decn.c    **** 	FILE *f = fopen("calc.out","a");
1724:src/decn.c    **** 	DUMP(x, "z");
1725:src/decn.c    **** #endif
1726:src/decn.c    **** 	decNumberZero(&s);
1727:src/decn.c    **** 	dn_add(&t, x, &const_21);
1728:src/decn.c    **** 	for (k = 20; k >= 0; k--) {
1729:src/decn.c    **** 		dn_divide(&u, gamma_consts[k], &t);
1730:src/decn.c    **** 		dn_dec(&t);
1731:src/decn.c    **** 		dn_add(&s, &s, &u);
1732:src/decn.c    **** 	}
1733:src/decn.c    **** 	dn_add(&t, &s, &const_gammaC00);
1734:src/decn.c    **** 	dn_ln(&s, &t);
1735:src/decn.c    **** #ifdef DUMP
1736:src/decn.c    **** 	DUMP(&t, "sum");
1737:src/decn.c    **** 	DUMP(&s, "ln");
1738:src/decn.c    **** #endif
1739:src/decn.c    **** //		r = z + g + .5;
1740:src/decn.c    **** 	dn_add(&r, x, &const_gammaR);
1741:src/decn.c    **** #ifdef DUMP
1742:src/decn.c    **** 	DUMP(&r, "r");
1743:src/decn.c    **** #endif
1744:src/decn.c    **** 
1745:src/decn.c    **** //		r = log(R[0][0]) + (z+.5) * log(r) - r;
1746:src/decn.c    **** 	dn_ln(&u, &r);
1747:src/decn.c    **** 	dn_add(&t, x, &const_0_5);
1748:src/decn.c    **** 	dn_multiply(&v, &u, &t);
1749:src/decn.c    **** #ifdef DUMP
1750:src/decn.c    **** 	DUMP(&v, "(z+.5)*log(r)");
1751:src/decn.c    **** #endif
1752:src/decn.c    **** 
1753:src/decn.c    **** 	dn_subtract(&u, &v, &r);
1754:src/decn.c    **** 	dn_add(res, &u, &s);
1755:src/decn.c    **** 
1756:src/decn.c    **** #ifdef DUMP
1757:src/decn.c    **** 	DUMP(res, "res");
1758:src/decn.c    **** 	fclose(f);
1759:src/decn.c    **** #endif
1760:src/decn.c    **** }
1761:src/decn.c    **** 
1762:src/decn.c    **** // common code for the [GAMMA] and LN[GAMMA]
1763:src/decn.c    **** static decNumber *Gamma_LnGamma(decNumber *res, const decNumber *xin, const int ln) {
1764:src/decn.c    **** 	decNumber x, t;
1765:src/decn.c    **** 	int reflec = 0;
1766:src/decn.c    **** 
1767:src/decn.c    **** 	// Check for special cases
1768:src/decn.c    **** 	if (decNumberIsSpecial(xin)) {
1769:src/decn.c    **** 		if (decNumberIsInfinite(xin) && !decNumberIsNegative(xin))
ARM GAS  /tmp/ccBRULIx.s 			page 55


1770:src/decn.c    **** 			return set_inf(res);
1771:src/decn.c    **** 		return set_NaN(res);
1772:src/decn.c    **** 	}
1773:src/decn.c    **** 
1774:src/decn.c    **** 	// Handle x approximately zero case
1775:src/decn.c    **** 	if (dn_abs_lt(xin, &const_1e_24)) {
1776:src/decn.c    **** 		if (dn_eq0(xin))
1777:src/decn.c    **** 			return set_NaN(res);
1778:src/decn.c    **** 		decNumberRecip(&x, xin);
1779:src/decn.c    **** 		dn_subtract(res, &x, &const_egamma);
1780:src/decn.c    **** 		if (ln) 
1781:src/decn.c    **** 			return dn_ln(res, res);
1782:src/decn.c    **** 		return res;
1783:src/decn.c    **** 	}
1784:src/decn.c    **** 
1785:src/decn.c    **** 	// Correct our argument and begin the inversion if it is negative
1786:src/decn.c    **** 	if (dn_le0(xin)) {
1787:src/decn.c    **** 		reflec = 1;
1788:src/decn.c    **** 		dn_1m(&t, xin);
1789:src/decn.c    **** 		if (is_int(&t))
1790:src/decn.c    **** 			return set_NaN(res);
1791:src/decn.c    **** 		dn_m1(&x, &t);
1792:src/decn.c    **** 	} else {
1793:src/decn.c    **** 		dn_m1(&x, xin);
1794:src/decn.c    **** #ifdef GAMMA_FAST_INTEGERS
1795:src/decn.c    **** 		// Provide a fast path evaluation for positive integer arguments that aren't too large
1796:src/decn.c    **** 		// The threshold for overflow is 205! (i.e. 204! is within range and 205! isn't).
1797:src/decn.c    **** 		// Without introducing a new constant, we've got 150 or 256 to choose from.
1798:src/decn.c    **** 		if (is_int(&x) && ! dn_eq0(xin) && dn_lt(&x, &const_256)) {
1799:src/decn.c    **** 			dn_1(res);
1800:src/decn.c    **** 			while (! dn_eq0(&x)) {
1801:src/decn.c    **** 				dn_multiply(res, res, &x);
1802:src/decn.c    **** 				dn_m1(&x, &x);
1803:src/decn.c    **** 			}
1804:src/decn.c    **** 			if (ln)
1805:src/decn.c    **** 				return dn_ln(res, res);
1806:src/decn.c    **** 			return res;
1807:src/decn.c    **** 		}
1808:src/decn.c    **** #endif
1809:src/decn.c    **** 	}
1810:src/decn.c    **** 
1811:src/decn.c    **** 	dn_LnGamma(res, &x);
1812:src/decn.c    **** 	if (!ln) dn_exp(res, res);
1813:src/decn.c    **** 
1814:src/decn.c    **** 	// Finally invert if we started with a negative argument
1815:src/decn.c    **** 	if (reflec) {
1816:src/decn.c    **** 		// figure out xin * PI mod 2PI
1817:src/decn.c    **** 		decNumberMod(&t, xin, &const_2);
1818:src/decn.c    **** 		dn_mulPI(&t, &t);
1819:src/decn.c    **** 		sincosTaylor(&t, &x, NULL);
1820:src/decn.c    **** 		if (ln) {
1821:src/decn.c    **** 			dn_divide(&t, &const_PI, &x);
1822:src/decn.c    **** 			dn_ln(&t, &t);
1823:src/decn.c    **** 			dn_subtract(res, &t, res);
1824:src/decn.c    **** 		} else {
1825:src/decn.c    **** 			dn_multiply(&t, &x, res);
1826:src/decn.c    **** 			dn_divide(res, &const_PI, &t);
ARM GAS  /tmp/ccBRULIx.s 			page 56


1827:src/decn.c    **** 		}
1828:src/decn.c    **** 	}
1829:src/decn.c    **** 	return res;
1830:src/decn.c    **** }
1831:src/decn.c    **** 
1832:src/decn.c    **** decNumber *decNumberFactorial(decNumber *res, const decNumber *xin) {
1833:src/decn.c    **** 	decNumber x;
1834:src/decn.c    **** 
1835:src/decn.c    **** 	dn_p1(&x, xin);
1836:src/decn.c    **** 	return decNumberGamma(res, &x);
1837:src/decn.c    **** }
1838:src/decn.c    **** 
1839:src/decn.c    **** decNumber *decNumberGamma(decNumber *res, const decNumber *xin) {
1840:src/decn.c    **** 	return Gamma_LnGamma(res, xin, 0);
1841:src/decn.c    **** }
1842:src/decn.c    **** 
1843:src/decn.c    **** // The log gamma function.
1844:src/decn.c    **** decNumber *decNumberLnGamma(decNumber *res, const decNumber *xin) {
1845:src/decn.c    **** 	return Gamma_LnGamma(res, xin, 1);
1846:src/decn.c    **** }
1847:src/decn.c    **** 
1848:src/decn.c    **** // lnBeta(x, y) = lngamma(x) + lngamma(y) - lngamma(x+y)
1849:src/decn.c    **** decNumber *decNumberLnBeta(decNumber *res, const decNumber *x, const decNumber *y) {
1850:src/decn.c    **** 	decNumber s, t, u;
1851:src/decn.c    **** 
1852:src/decn.c    **** 	decNumberLnGamma(&s, x);
1853:src/decn.c    **** 	busy();
1854:src/decn.c    **** 	decNumberLnGamma(&t, y);
1855:src/decn.c    **** 	busy();
1856:src/decn.c    **** 	dn_add(&u, &s, &t);
1857:src/decn.c    **** 	dn_add(&s, x, y);
1858:src/decn.c    **** 	decNumberLnGamma(&t, &s);
1859:src/decn.c    **** 	dn_subtract(res, &u, &t);
1860:src/decn.c    **** 	return res;
1861:src/decn.c    **** }
1862:src/decn.c    **** 
1863:src/decn.c    **** decNumber *decNumberHMS2HR(decNumber *res, const decNumber *xin) {
1864:src/decn.c    **** 	decNumber m, s, t, x;
1865:src/decn.c    **** 	const int neg = decNumberIsNegative(xin);
1866:src/decn.c    **** 
1867:src/decn.c    **** 	// decode hhhh.mmss...
1868:src/decn.c    **** 	dn_abs(&x, xin);
1869:src/decn.c    **** 	decNumberFrac(&t, &x);			// t = .mmss
1870:src/decn.c    **** 	dn_mul100(&s, &t);			// s = mm.ss
1871:src/decn.c    **** 	decNumberTrunc(&m, &s);			// m = mm
1872:src/decn.c    **** 	decNumberFrac(&t, &s);			// t = .ss
1873:src/decn.c    **** 	dn_multiply(&s, &t, &const_1on60);	// s = ss.sss / 60
1874:src/decn.c    **** 	dn_mulpow10(&s, &s, 2);
1875:src/decn.c    **** 	dn_add(&t, &m, &s);			// s = mm + ss.sss / 60
1876:src/decn.c    **** 	dn_multiply(&m, &t, &const_1on60);
1877:src/decn.c    **** 	decNumberTrunc(&s, &x);			// s = hh
1878:src/decn.c    **** 	dn_add(res, &m, &s);
1879:src/decn.c    **** 	if (neg) dn_minus(res, res);
1880:src/decn.c    **** 	return res;
1881:src/decn.c    **** }
1882:src/decn.c    **** 
1883:src/decn.c    **** decNumber *decNumberHR2HMS(decNumber *res, const decNumber *xin) {
ARM GAS  /tmp/ccBRULIx.s 			page 57


1884:src/decn.c    **** 	decNumber m, s, t, x;
1885:src/decn.c    **** 	const int neg = decNumberIsNegative(xin);
1886:src/decn.c    **** 
1887:src/decn.c    **** 	dn_abs(&x, xin);
1888:src/decn.c    **** 	decNumberFrac(&t, &x);			// t = .mmssss
1889:src/decn.c    **** 	dn_multiply(&s, &t, &const_60);		// s = mm.ssss
1890:src/decn.c    **** 	decNumberTrunc(&m, &s);			// m = mm
1891:src/decn.c    **** 	decNumberFrac(&t, &s);			// t = .ssss
1892:src/decn.c    **** 	dn_multiply(&s, &t, &const_0_6);	// scale down by 60/100
1893:src/decn.c    **** 	dn_add(&t, &s, &m);			// t = mm.ss
1894:src/decn.c    **** 	dn_mulpow10(&m, &t, -2);		// t = .mmss
1895:src/decn.c    **** 	decNumberTrunc(&s, &x);			// s = hh
1896:src/decn.c    **** 	dn_add(&t, &m, &s);			// t = hh.mmss = result
1897:src/decn.c    **** 
1898:src/decn.c    **** 	// Round to the appropriate number of digits for the result
1899:src/decn.c    **** 	decNumberRoundDigits(&t, &t, is_dblmode() ? 34 : 16, DEC_ROUND_HALF_EVEN);
1900:src/decn.c    **** 
1901:src/decn.c    **** 	// Now fix any rounding/carry issues
1902:src/decn.c    **** 	dn_mulpow10(&s, &t, 2);			// hhmm.ssss
1903:src/decn.c    **** 	decNumberFrac(&m, &s);			// .ssss
1904:src/decn.c    **** 	if (dn_ge(&m, &const_0_6))
1905:src/decn.c    **** 		dn_add(&s, &s, &const_0_4);
1906:src/decn.c    **** 	dn_mulpow10(res, &s, -2);		// hh.mmssss
1907:src/decn.c    **** 	decNumberFrac(&m, res);
1908:src/decn.c    **** 	if (dn_ge(&m, &const_0_6))
1909:src/decn.c    **** 		dn_add(res, res, &const_0_4);
1910:src/decn.c    **** 	if (neg) dn_minus(res, res);
1911:src/decn.c    **** 	return res;
1912:src/decn.c    **** }
1913:src/decn.c    **** 
1914:src/decn.c    **** decNumber *decNumberHMSAdd(decNumber *res, const decNumber *x, const decNumber *y) {
1915:src/decn.c    **** 	decNumber a, b, c;
1916:src/decn.c    **** 
1917:src/decn.c    **** 	decNumberHMS2HR(&a, x);
1918:src/decn.c    **** 	decNumberHMS2HR(&b, y);
1919:src/decn.c    **** 	dn_add(&c, &a, &b);
1920:src/decn.c    **** 	decNumberHR2HMS(res, &c);
1921:src/decn.c    **** 	return res;
1922:src/decn.c    **** }
1923:src/decn.c    **** 
1924:src/decn.c    **** decNumber *decNumberHMSSub(decNumber *res, const decNumber *x, const decNumber *y) {
1925:src/decn.c    **** 	decNumber a, b, c;
1926:src/decn.c    **** 
1927:src/decn.c    **** 	decNumberHMS2HR(&a, x);
1928:src/decn.c    **** 	decNumberHMS2HR(&b, y);
1929:src/decn.c    **** 	dn_subtract(&c, &a, &b);
1930:src/decn.c    **** 	decNumberHR2HMS(res, &c);
1931:src/decn.c    **** 	return res;
1932:src/decn.c    **** }
1933:src/decn.c    **** 
1934:src/decn.c    **** /* Logical operations on decNumbers.
1935:src/decn.c    ****  * We treat 0 as false and non-zero as true.
1936:src/decn.c    ****  */
1937:src/decn.c    **** static int dn2bool(const decNumber *x) {
1938:src/decn.c    **** 	return dn_eq0(x)?0:1;
1939:src/decn.c    **** }
1940:src/decn.c    **** 
ARM GAS  /tmp/ccBRULIx.s 			page 58


1941:src/decn.c    **** static decNumber *bool2dn(decNumber *res, int l) {
1942:src/decn.c    **** 	if (l)
1943:src/decn.c    **** 		dn_1(res);
1944:src/decn.c    **** 	else
1945:src/decn.c    **** 		decNumberZero(res);
1946:src/decn.c    **** 	return res;
1947:src/decn.c    **** }
1948:src/decn.c    **** 
1949:src/decn.c    **** decNumber *decNumberNot(decNumber *res, const decNumber *x) {
1950:src/decn.c    **** 	return bool2dn(res, !dn2bool(x));
1951:src/decn.c    **** }
1952:src/decn.c    **** 
1953:src/decn.c    **** /*
1954:src/decn.c    ****  *  Execute the logical operations via a truth table.
1955:src/decn.c    ****  *  Each nibble encodes a single operation.
1956:src/decn.c    ****  */
1957:src/decn.c    **** decNumber *decNumberBooleanOp(decNumber *res, const decNumber *x, const decNumber *y) {
1958:src/decn.c    **** 	const unsigned int TRUTH_TABLE = 0x9176E8;
1959:src/decn.c    **** 	const unsigned int bit = ((argKIND(XeqOpCode) - OP_LAND) << 2) + (dn2bool(y) << 1) + dn2bool(x);
1960:src/decn.c    **** 	return bool2dn(res, (TRUTH_TABLE >> bit) & 1);
1961:src/decn.c    **** }
1962:src/decn.c    **** 
1963:src/decn.c    **** 
1964:src/decn.c    **** /*
1965:src/decn.c    ****  * Round a number to a given number of digits and with a given mode
1966:src/decn.c    ****  */
1967:src/decn.c    **** decNumber *decNumberRoundDigits(decNumber *res, const decNumber *x, const int digits, const enum ro
1968:src/decn.c    **** 	enum rounding default_round = Ctx.round;
1969:src/decn.c    **** 	int default_digits = Ctx.digits;
1970:src/decn.c    **** 
1971:src/decn.c    **** 	Ctx.round = round;
1972:src/decn.c    **** 	Ctx.digits = digits;
1973:src/decn.c    **** 	decNumberPlus(res, x, &Ctx);
1974:src/decn.c    **** 	Ctx.digits = default_digits;
1975:src/decn.c    **** 	Ctx.round = default_round;
1976:src/decn.c    **** 	return res;
1977:src/decn.c    **** }
1978:src/decn.c    **** 
1979:src/decn.c    **** 
1980:src/decn.c    **** /*
1981:src/decn.c    ****  *  Round to display accuracy
1982:src/decn.c    ****  */
1983:src/decn.c    **** decNumber *decNumberRnd(decNumber *res, const decNumber *x) {
1984:src/decn.c    **** 	decNumber t, u;
1985:src/decn.c    **** #if defined(INCLUDE_SIGFIG_MODE)
1986:src/decn.c    **** 	int numdig;
1987:src/decn.c    **** 	enum display_modes dmode;
1988:src/decn.c    **** #else
1989:src/decn.c    **** 	int numdig = UState.dispdigs + 1;
1990:src/decn.c    **** 	enum display_modes dmode = (enum display_modes) UState.dispmode;
1991:src/decn.c    **** #endif
1992:src/decn.c    **** 
1993:src/decn.c    **** 	if (decNumberIsSpecial(x))
1994:src/decn.c    **** 		return decNumberCopy(res, x);
1995:src/decn.c    **** 
1996:src/decn.c    **** 	if (UState.fract) {
1997:src/decn.c    **** 		decNumber2Fraction(&t, &u, x);
ARM GAS  /tmp/ccBRULIx.s 			page 59


1998:src/decn.c    **** 		return dn_divide(res, &t, &u);
1999:src/decn.c    **** 	}
2000:src/decn.c    **** 
2001:src/decn.c    **** #if defined(INCLUDE_SIGFIG_MODE)
2002:src/decn.c    **** 	dmode = get_dispmode_digs(&numdig);
2003:src/decn.c    **** 	numdig++;
2004:src/decn.c    **** 	if (dmode == MODE_STD) {
2005:src/decn.c    **** 		// to fit new definition of std_round_fix in display.c
2006:src/decn.c    **** 		dmode = std_round_fix(x, &numdig, dmode, numdig-1);
2007:src/decn.c    **** 		numdig = DISPLAY_DIGITS;
2008:src/decn.c    ****  	}
2009:src/decn.c    **** #else	
2010:src/decn.c    **** 	if (dmode == MODE_STD) {
2011:src/decn.c    **** 		dmode = std_round_fix(x);
2012:src/decn.c    **** 		numdig = DISPLAY_DIGITS;
2013:src/decn.c    **** 	}
2014:src/decn.c    **** #endif
2015:src/decn.c    **** 	
2016:src/decn.c    **** 	if (dmode == MODE_FIX)
2017:src/decn.c    **** 		/* FIX is different since the number of digits changes */
2018:src/decn.c    **** 		return decNumberRoundDecimals(res, x, numdig-1, DEC_ROUND_HALF_UP);
2019:src/decn.c    **** 
2020:src/decn.c    **** 	return decNumberRoundDigits(res, x, numdig, DEC_ROUND_HALF_UP);
2021:src/decn.c    **** }
2022:src/decn.c    **** 
2023:src/decn.c    **** decNumber *decNumberRoundDecimals(decNumber *r, const decNumber *x, const int n, const enum roundin
2024:src/decn.c    **** 	decNumber t;
2025:src/decn.c    **** #if 0
2026:src/decn.c    **** 	/* The slow but always correct way */
2027:src/decn.c    **** 	decNumber u, p10;
2028:src/decn.c    **** 
2029:src/decn.c    **** 	int_to_dn(&u, n);
2030:src/decn.c    **** 	decNumberPow10(&p10, &u);
2031:src/decn.c    **** 	dn_multiply(&t, x, &p10);
2032:src/decn.c    **** 	round2int(&u, &t, round);
2033:src/decn.c    **** 	return dn_divide(r, &u, &p10);
2034:src/decn.c    **** #else
2035:src/decn.c    **** 	/* The much faster way but relying on base 10 numbers with exponents */
2036:src/decn.c    **** 	if (decNumberIsSpecial(x))
2037:src/decn.c    **** 		return decNumberCopy(r, x);
2038:src/decn.c    **** 
2039:src/decn.c    **** 	decNumberCopy(&t, x);
2040:src/decn.c    **** 	t.exponent += n;
2041:src/decn.c    **** 	round2int(r, &t, round);
2042:src/decn.c    **** 	r->exponent -= n;
2043:src/decn.c    **** 	return r;
2044:src/decn.c    **** #endif
2045:src/decn.c    **** }
2046:src/decn.c    **** 
2047:src/decn.c    **** void decNumber2Fraction(decNumber *n, decNumber *d, const decNumber *x) {
2048:src/decn.c    **** 	decNumber z, dold, t, s, maxd;
2049:src/decn.c    **** 	int neg;
2050:src/decn.c    **** 	enum denom_modes dm;
2051:src/decn.c    **** 	int i;
2052:src/decn.c    **** 
2053:src/decn.c    **** 	if (decNumberIsNaN(x)) {
2054:src/decn.c    **** 		cmplx_NaN(n, d);
ARM GAS  /tmp/ccBRULIx.s 			page 60


2055:src/decn.c    **** 		return;
2056:src/decn.c    **** 	}
2057:src/decn.c    **** 	if (decNumberIsInfinite(x)) {
2058:src/decn.c    **** 		decNumberZero(d);
2059:src/decn.c    **** 		if (decNumberIsNegative(x))
2060:src/decn.c    **** 			dn__1(n);
2061:src/decn.c    **** 		else
2062:src/decn.c    **** 			dn_1(n);
2063:src/decn.c    **** 		return;
2064:src/decn.c    **** 	}
2065:src/decn.c    **** 
2066:src/decn.c    **** 	dm = UState.denom_mode;
2067:src/decn.c    **** 	get_maxdenom(&maxd);
2068:src/decn.c    **** 
2069:src/decn.c    **** 	neg = decNumberIsNegative(x);
2070:src/decn.c    **** 	if (neg)
2071:src/decn.c    **** 		dn_minus(&z, x);
2072:src/decn.c    **** 	else
2073:src/decn.c    **** 		decNumberCopy(&z, x);
2074:src/decn.c    **** 	if (dm == DENOM_ANY) {
2075:src/decn.c    **** 		decNumberZero(&dold);
2076:src/decn.c    **** 		dn_1(d);
2077:src/decn.c    **** 		/* Do a partial fraction expansion until the denominator is too large */
2078:src/decn.c    **** 		for (i=0; i<1000; i++) {
2079:src/decn.c    **** 			decNumberTrunc(&t, &z);
2080:src/decn.c    **** 			dn_subtract(&s, &z, &t);
2081:src/decn.c    **** 			if (dn_eq0(&s))
2082:src/decn.c    **** 				break;
2083:src/decn.c    **** 			decNumberRecip(&z, &s);
2084:src/decn.c    **** 			decNumberTrunc(&s, &z);
2085:src/decn.c    **** 			dn_multiply(&t, &s, d);
2086:src/decn.c    **** 			dn_add(&s, &t, &dold);	// s is new denominator estimate
2087:src/decn.c    **** 			if (dn_lt(&maxd, &s))
2088:src/decn.c    **** 				break;
2089:src/decn.c    **** 			decNumberCopy(&dold, d);
2090:src/decn.c    **** 			decNumberCopy(d, &s);
2091:src/decn.c    **** 		}
2092:src/decn.c    **** 	} else
2093:src/decn.c    **** 		decNumberCopy(d, &maxd);
2094:src/decn.c    **** 	dn_multiply(&t, x, d);
2095:src/decn.c    **** 	decNumberRound(n, &t);
2096:src/decn.c    **** 	if (dm == DENOM_FACTOR) {
2097:src/decn.c    **** 		if (dn_eq0(n))
2098:src/decn.c    **** 			dn_1(d);
2099:src/decn.c    **** 		else {
2100:src/decn.c    **** 			dn_gcd(&t, n, d, 0);
2101:src/decn.c    **** 			dn_divide(n, n, &t);
2102:src/decn.c    **** 			dn_divide(d, d, &t);
2103:src/decn.c    **** 		}
2104:src/decn.c    **** 	}
2105:src/decn.c    **** }
2106:src/decn.c    **** 
2107:src/decn.c    **** static decNumber *gser(decNumber *res, const decNumber *a, const decNumber *x, const decNumber *gln
2108:src/decn.c    **** 	decNumber ap, del, sum, t, u;
2109:src/decn.c    **** 	int i;
2110:src/decn.c    **** 
2111:src/decn.c    **** 	if (dn_le0(x))
ARM GAS  /tmp/ccBRULIx.s 			page 61


2112:src/decn.c    **** 		return decNumberZero(res);
2113:src/decn.c    **** 	decNumberCopy(&ap, a);
2114:src/decn.c    **** 	decNumberRecip(&sum, a);
2115:src/decn.c    **** 	decNumberCopy(&del, &sum);
2116:src/decn.c    **** 	for (i=0; i<1000; i++) {
2117:src/decn.c    **** 		dn_inc(&ap);
2118:src/decn.c    **** 		dn_divide(&t, x, &ap);
2119:src/decn.c    **** 		dn_multiply(&del, &del, &t);
2120:src/decn.c    **** 		dn_add(&t, &sum, &del);
2121:src/decn.c    **** 		if (dn_eq(&t, &sum))
2122:src/decn.c    **** 			break;
2123:src/decn.c    **** 		decNumberCopy(&sum, &t);
2124:src/decn.c    **** 	}
2125:src/decn.c    **** 	dn_ln(&t, x);
2126:src/decn.c    **** 	dn_multiply(&u, &t, a);
2127:src/decn.c    **** 	dn_subtract(&t, &u, x);
2128:src/decn.c    **** 	dn_subtract(&u, &t, gln);
2129:src/decn.c    **** 	dn_exp(&t, &u);
2130:src/decn.c    **** 	return dn_multiply(res, &sum, &t);
2131:src/decn.c    **** }
2132:src/decn.c    **** 
2133:src/decn.c    **** static void gcheckSmall(decNumber *v)
2134:src/decn.c    **** {
 1098              		.loc 1 2134 1 is_stmt 1 view -0
 1099              		.cfi_startproc
 1100              		@ args = 0, pretend = 0, frame = 0
 1101              		@ frame_needed = 0, uses_anonymous_args = 0
2135:src/decn.c    **** 	const decNumber * const threshold = &const_1e_10000;
 1102              		.loc 1 2135 2 view .LVU245
2136:src/decn.c    **** 
2137:src/decn.c    **** 	if (dn_abs_lt(v, threshold))
 1103              		.loc 1 2137 2 view .LVU246
2134:src/decn.c    **** 	const decNumber * const threshold = &const_1e_10000;
 1104              		.loc 1 2134 1 is_stmt 0 view .LVU247
 1105 0000 10B5     		push	{r4, lr}
 1106              		.cfi_def_cfa_offset 8
 1107              		.cfi_offset 4, -8
 1108              		.cfi_offset 14, -4
 1109              		.loc 1 2137 6 view .LVU248
 1110 0002 0649     		ldr	r1, .L81
2134:src/decn.c    **** 	const decNumber * const threshold = &const_1e_10000;
 1111              		.loc 1 2134 1 view .LVU249
 1112 0004 0446     		mov	r4, r0
 1113              		.loc 1 2137 6 view .LVU250
 1114 0006 FFF7FEFF 		bl	dn_abs_lt
 1115              	.LVL83:
 1116              		.loc 1 2137 5 view .LVU251
 1117 000a 00B9     		cbnz	r0, .L80
2138:src/decn.c    **** 		decNumberCopy(v, threshold);
2139:src/decn.c    **** }
 1118              		.loc 1 2139 1 view .LVU252
 1119 000c 10BD     		pop	{r4, pc}
 1120              	.LVL84:
 1121              	.L80:
2138:src/decn.c    **** 		decNumberCopy(v, threshold);
 1122              		.loc 1 2138 3 is_stmt 1 view .LVU253
 1123 000e 2046     		mov	r0, r4
ARM GAS  /tmp/ccBRULIx.s 			page 62


 1124 0010 0249     		ldr	r1, .L81
 1125              		.loc 1 2139 1 is_stmt 0 view .LVU254
 1126 0012 BDE81040 		pop	{r4, lr}
 1127              		.cfi_restore 14
 1128              		.cfi_restore 4
 1129              		.cfi_def_cfa_offset 0
 1130              	.LVL85:
2138:src/decn.c    **** 		decNumberCopy(v, threshold);
 1131              		.loc 1 2138 3 view .LVU255
 1132 0016 FFF7FEBF 		b	decNumberCopy
 1133              	.LVL86:
 1134              	.L82:
2138:src/decn.c    **** 		decNumberCopy(v, threshold);
 1135              		.loc 1 2138 3 view .LVU256
 1136 001a 00BF     		.align	2
 1137              	.L81:
 1138 001c 00000000 		.word	const_1e_10000
 1139              		.cfi_endproc
 1140              	.LFE136:
 1142              		.section	.text.relative_error,"ax",%progbits
 1143              		.align	1
 1144              		.p2align 2,,3
 1145              		.global	relative_error
 1146              		.syntax unified
 1147              		.thumb
 1148              		.thumb_func
 1149              		.fpu fpv4-sp-d16
 1151              	relative_error:
 1152              	.LVL87:
 1153              	.LFB7:
  95:src/decn.c    **** 	decNumber a, b;
 1154              		.loc 1 95 82 is_stmt 1 view -0
 1155              		.cfi_startproc
 1156              		@ args = 0, pretend = 0, frame = 72
 1157              		@ frame_needed = 0, uses_anonymous_args = 0
  96:src/decn.c    **** 
 1158              		.loc 1 96 2 view .LVU258
  98:src/decn.c    **** 		return dn_abs_lt(y, tol);
 1159              		.loc 1 98 2 view .LVU259
  95:src/decn.c    **** 	decNumber a, b;
 1160              		.loc 1 95 82 is_stmt 0 view .LVU260
 1161 0000 30B5     		push	{r4, r5, lr}
 1162              		.cfi_def_cfa_offset 12
 1163              		.cfi_offset 4, -12
 1164              		.cfi_offset 5, -8
 1165              		.cfi_offset 14, -4
 1166              	.LBB1358:
 1167              	.LBB1359:
  73:src/decn.c    **** }
 1168              		.loc 1 73 9 view .LVU261
 1169 0002 4389     		ldrh	r3, [r0, #10]
 1170              	.LBE1359:
 1171              	.LBE1358:
  95:src/decn.c    **** 	decNumber a, b;
 1172              		.loc 1 95 82 view .LVU262
 1173 0004 1546     		mov	r5, r2
 1174 0006 93B0     		sub	sp, sp, #76
ARM GAS  /tmp/ccBRULIx.s 			page 63


 1175              		.cfi_def_cfa_offset 88
  95:src/decn.c    **** 	decNumber a, b;
 1176              		.loc 1 95 82 view .LVU263
 1177 0008 0446     		mov	r4, r0
 1178              	.LVL88:
 1179              	.LBB1363:
 1180              	.LBI1358:
  72:src/decn.c    **** 	return decNumberIsZero(x);
 1181              		.loc 1 72 5 is_stmt 1 view .LVU264
 1182              	.LBB1360:
  73:src/decn.c    **** }
 1183              		.loc 1 73 2 view .LVU265
 1184              	.LBE1360:
 1185              	.LBE1363:
  95:src/decn.c    **** 	decNumber a, b;
 1186              		.loc 1 95 82 is_stmt 0 view .LVU266
 1187 000a 0A46     		mov	r2, r1
 1188              	.LVL89:
 1189              	.LBB1364:
 1190              	.LBB1361:
  73:src/decn.c    **** }
 1191              		.loc 1 73 9 view .LVU267
 1192 000c 13B9     		cbnz	r3, .L84
 1193 000e 0368     		ldr	r3, [r0]
 1194 0010 012B     		cmp	r3, #1
 1195 0012 10D0     		beq	.L87
 1196              	.L84:
 1197              	.LVL90:
  73:src/decn.c    **** }
 1198              		.loc 1 73 9 view .LVU268
 1199              	.LBE1361:
 1200              	.LBE1364:
 100:src/decn.c    **** 	dn_divide(&b, &a, x);
 1201              		.loc 1 100 2 is_stmt 1 view .LVU269
 1202              	.LBB1365:
 1203              	.LBI1365:
 121:src/decn.c    **** 	return decNumberSubtract(r, a, b, &Ctx);
 1204              		.loc 1 121 12 view .LVU270
 1205              	.LBB1366:
 122:src/decn.c    **** }
 1206              		.loc 1 122 2 view .LVU271
 122:src/decn.c    **** }
 1207              		.loc 1 122 9 is_stmt 0 view .LVU272
 1208 0014 0C4B     		ldr	r3, .L88
 1209 0016 2146     		mov	r1, r4
 1210              	.LVL91:
 122:src/decn.c    **** }
 1211              		.loc 1 122 9 view .LVU273
 1212 0018 6846     		mov	r0, sp
 1213              	.LVL92:
 122:src/decn.c    **** }
 1214              		.loc 1 122 9 view .LVU274
 1215 001a FFF7FEFF 		bl	decNumberSubtract
 1216              	.LVL93:
 122:src/decn.c    **** }
 1217              		.loc 1 122 9 view .LVU275
 1218              	.LBE1366:
ARM GAS  /tmp/ccBRULIx.s 			page 64


 1219              	.LBE1365:
 101:src/decn.c    **** 	return dn_abs_lt(&b, tol);
 1220              		.loc 1 101 2 is_stmt 1 view .LVU276
 1221              	.LBB1367:
 1222              	.LBI1367:
 129:src/decn.c    **** 	return decNumberDivide(r, a, b, &Ctx);
 1223              		.loc 1 129 12 view .LVU277
 1224              	.LBB1368:
 130:src/decn.c    **** }
 1225              		.loc 1 130 2 view .LVU278
 130:src/decn.c    **** }
 1226              		.loc 1 130 9 is_stmt 0 view .LVU279
 1227 001e 6946     		mov	r1, sp
 1228 0020 094B     		ldr	r3, .L88
 1229 0022 2246     		mov	r2, r4
 1230 0024 09A8     		add	r0, sp, #36
 1231              	.LVL94:
 130:src/decn.c    **** }
 1232              		.loc 1 130 9 view .LVU280
 1233 0026 FFF7FEFF 		bl	decNumberDivide
 1234              	.LVL95:
 130:src/decn.c    **** }
 1235              		.loc 1 130 9 view .LVU281
 1236              	.LBE1368:
 1237              	.LBE1367:
 102:src/decn.c    **** }
 1238              		.loc 1 102 2 is_stmt 1 view .LVU282
 102:src/decn.c    **** }
 1239              		.loc 1 102 9 is_stmt 0 view .LVU283
 1240 002a 2946     		mov	r1, r5
 1241 002c 09A8     		add	r0, sp, #36
 1242 002e FFF7FEFF 		bl	dn_abs_lt
 1243              	.LVL96:
 1244              	.L83:
 103:src/decn.c    **** 
 1245              		.loc 1 103 1 view .LVU284
 1246 0032 13B0     		add	sp, sp, #76
 1247              		.cfi_remember_state
 1248              		.cfi_def_cfa_offset 12
 1249              		@ sp needed
 1250 0034 30BD     		pop	{r4, r5, pc}
 1251              	.LVL97:
 1252              	.L87:
 1253              		.cfi_restore_state
 1254              	.LBB1369:
 1255              	.LBB1362:
  73:src/decn.c    **** }
 1256              		.loc 1 73 9 view .LVU285
 1257 0036 037A     		ldrb	r3, [r0, #8]	@ zero_extendqisi2
 1258 0038 13F0700F 		tst	r3, #112
 1259 003c EAD1     		bne	.L84
 1260              	.LVL98:
  73:src/decn.c    **** }
 1261              		.loc 1 73 9 view .LVU286
 1262              	.LBE1362:
 1263              	.LBE1369:
  99:src/decn.c    **** 	dn_subtract(&a, x, y);
ARM GAS  /tmp/ccBRULIx.s 			page 65


 1264              		.loc 1 99 3 is_stmt 1 view .LVU287
  99:src/decn.c    **** 	dn_subtract(&a, x, y);
 1265              		.loc 1 99 10 is_stmt 0 view .LVU288
 1266 003e 2946     		mov	r1, r5
 1267              	.LVL99:
  99:src/decn.c    **** 	dn_subtract(&a, x, y);
 1268              		.loc 1 99 10 view .LVU289
 1269 0040 1046     		mov	r0, r2
 1270              	.LVL100:
  99:src/decn.c    **** 	dn_subtract(&a, x, y);
 1271              		.loc 1 99 10 view .LVU290
 1272 0042 FFF7FEFF 		bl	dn_abs_lt
 1273              	.LVL101:
  99:src/decn.c    **** 	dn_subtract(&a, x, y);
 1274              		.loc 1 99 10 view .LVU291
 1275 0046 F4E7     		b	.L83
 1276              	.L89:
 1277              		.align	2
 1278              	.L88:
 1279 0048 00000000 		.word	Ctx
 1280              		.cfi_endproc
 1281              	.LFE7:
 1283              		.section	.text.absolute_error,"ax",%progbits
 1284              		.align	1
 1285              		.p2align 2,,3
 1286              		.global	absolute_error
 1287              		.syntax unified
 1288              		.thumb
 1289              		.thumb_func
 1290              		.fpu fpv4-sp-d16
 1292              	absolute_error:
 1293              	.LVL102:
 1294              	.LFB8:
 105:src/decn.c    **** 	decNumber a;
 1295              		.loc 1 105 82 is_stmt 1 view -0
 1296              		.cfi_startproc
 1297              		@ args = 0, pretend = 0, frame = 40
 1298              		@ frame_needed = 0, uses_anonymous_args = 0
 106:src/decn.c    **** 	return dn_abs_lt(dn_subtract(&a, x, y), tol);
 1299              		.loc 1 106 2 view .LVU293
 107:src/decn.c    **** }
 1300              		.loc 1 107 2 view .LVU294
 105:src/decn.c    **** 	decNumber a;
 1301              		.loc 1 105 82 is_stmt 0 view .LVU295
 1302 0000 10B5     		push	{r4, lr}
 1303              		.cfi_def_cfa_offset 8
 1304              		.cfi_offset 4, -8
 1305              		.cfi_offset 14, -4
 1306 0002 0B46     		mov	r3, r1
 1307 0004 8AB0     		sub	sp, sp, #40
 1308              		.cfi_def_cfa_offset 48
 1309              	.LVL103:
 1310              	.LBB1370:
 1311              	.LBI1370:
 121:src/decn.c    **** 	return decNumberSubtract(r, a, b, &Ctx);
 1312              		.loc 1 121 12 is_stmt 1 view .LVU296
 1313              	.LBB1371:
ARM GAS  /tmp/ccBRULIx.s 			page 66


 122:src/decn.c    **** }
 1314              		.loc 1 122 2 view .LVU297
 122:src/decn.c    **** }
 1315              		.loc 1 122 9 is_stmt 0 view .LVU298
 1316 0006 0146     		mov	r1, r0
 1317              	.LVL104:
 122:src/decn.c    **** }
 1318              		.loc 1 122 9 view .LVU299
 1319              	.LBE1371:
 1320              	.LBE1370:
 105:src/decn.c    **** 	decNumber a;
 1321              		.loc 1 105 82 view .LVU300
 1322 0008 1446     		mov	r4, r2
 1323              	.LBB1373:
 1324              	.LBB1372:
 122:src/decn.c    **** }
 1325              		.loc 1 122 9 view .LVU301
 1326 000a 01A8     		add	r0, sp, #4
 1327              	.LVL105:
 122:src/decn.c    **** }
 1328              		.loc 1 122 9 view .LVU302
 1329 000c 1A46     		mov	r2, r3
 1330              	.LVL106:
 122:src/decn.c    **** }
 1331              		.loc 1 122 9 view .LVU303
 1332 000e 044B     		ldr	r3, .L92
 1333              	.LVL107:
 122:src/decn.c    **** }
 1334              		.loc 1 122 9 view .LVU304
 1335 0010 FFF7FEFF 		bl	decNumberSubtract
 1336              	.LVL108:
 122:src/decn.c    **** }
 1337              		.loc 1 122 9 view .LVU305
 1338              	.LBE1372:
 1339              	.LBE1373:
 107:src/decn.c    **** }
 1340              		.loc 1 107 9 view .LVU306
 1341 0014 2146     		mov	r1, r4
 1342 0016 FFF7FEFF 		bl	dn_abs_lt
 1343              	.LVL109:
 108:src/decn.c    **** 
 1344              		.loc 1 108 1 view .LVU307
 1345 001a 0AB0     		add	sp, sp, #40
 1346              		.cfi_def_cfa_offset 8
 1347              		@ sp needed
 1348 001c 10BD     		pop	{r4, pc}
 1349              	.LVL110:
 1350              	.L93:
 108:src/decn.c    **** 
 1351              		.loc 1 108 1 view .LVU308
 1352 001e 00BF     		.align	2
 1353              	.L92:
 1354 0020 00000000 		.word	Ctx
 1355              		.cfi_endproc
 1356              	.LFE8:
 1358              		.section	.text.convergence_threshold,"ax",%progbits
 1359              		.align	1
ARM GAS  /tmp/ccBRULIx.s 			page 67


 1360              		.p2align 2,,3
 1361              		.global	convergence_threshold
 1362              		.syntax unified
 1363              		.thumb
 1364              		.thumb_func
 1365              		.fpu fpv4-sp-d16
 1367              	convergence_threshold:
 1368              	.LFB9:
 110:src/decn.c    **** 	return is_dblmode() ? &const_1e_32 : &const_1e_24;
 1369              		.loc 1 110 46 is_stmt 1 view -0
 1370              		.cfi_startproc
 1371              		@ args = 0, pretend = 0, frame = 0
 1372              		@ frame_needed = 0, uses_anonymous_args = 0
 111:src/decn.c    **** }
 1373              		.loc 1 111 2 view .LVU310
 110:src/decn.c    **** 	return is_dblmode() ? &const_1e_32 : &const_1e_24;
 1374              		.loc 1 110 46 is_stmt 0 view .LVU311
 1375 0000 08B5     		push	{r3, lr}
 1376              		.cfi_def_cfa_offset 8
 1377              		.cfi_offset 3, -8
 1378              		.cfi_offset 14, -4
 111:src/decn.c    **** }
 1379              		.loc 1 111 9 view .LVU312
 1380 0002 FFF7FEFF 		bl	is_dblmode
 1381              	.LVL111:
 111:src/decn.c    **** }
 1382              		.loc 1 111 37 view .LVU313
 1383 0006 034A     		ldr	r2, .L98
 1384 0008 034B     		ldr	r3, .L98+4
 112:src/decn.c    **** 
 1385              		.loc 1 112 1 view .LVU314
 1386 000a 0028     		cmp	r0, #0
 1387 000c 14BF     		ite	ne
 1388 000e 1046     		movne	r0, r2
 1389 0010 1846     		moveq	r0, r3
 1390 0012 08BD     		pop	{r3, pc}
 1391              	.L99:
 1392              		.align	2
 1393              	.L98:
 1394 0014 00000000 		.word	const_1e_32
 1395 0018 00000000 		.word	const_1e_24
 1396              		.cfi_endproc
 1397              	.LFE9:
 1399              		.section	.text.dn_add,"ax",%progbits
 1400              		.align	1
 1401              		.p2align 2,,3
 1402              		.global	dn_add
 1403              		.syntax unified
 1404              		.thumb
 1405              		.thumb_func
 1406              		.fpu fpv4-sp-d16
 1408              	dn_add:
 1409              	.LVL112:
 1410              	.LFB10:
 117:src/decn.c    **** 	return decNumberAdd(r, a, b, &Ctx);
 1411              		.loc 1 117 73 is_stmt 1 view -0
 1412              		.cfi_startproc
ARM GAS  /tmp/ccBRULIx.s 			page 68


 1413              		@ args = 0, pretend = 0, frame = 0
 1414              		@ frame_needed = 0, uses_anonymous_args = 0
 1415              		@ link register save eliminated.
 118:src/decn.c    **** }
 1416              		.loc 1 118 2 view .LVU316
 118:src/decn.c    **** }
 1417              		.loc 1 118 9 is_stmt 0 view .LVU317
 1418 0000 014B     		ldr	r3, .L101
 1419 0002 FFF7FEBF 		b	decNumberAdd
 1420              	.LVL113:
 1421              	.L102:
 118:src/decn.c    **** }
 1422              		.loc 1 118 9 view .LVU318
 1423 0006 00BF     		.align	2
 1424              	.L101:
 1425 0008 00000000 		.word	Ctx
 1426              		.cfi_endproc
 1427              	.LFE10:
 1429              		.section	.text.dn_subtract,"ax",%progbits
 1430              		.align	1
 1431              		.p2align 2,,3
 1432              		.global	dn_subtract
 1433              		.syntax unified
 1434              		.thumb
 1435              		.thumb_func
 1436              		.fpu fpv4-sp-d16
 1438              	dn_subtract:
 1439              	.LVL114:
 1440              	.LFB11:
 121:src/decn.c    **** 	return decNumberSubtract(r, a, b, &Ctx);
 1441              		.loc 1 121 78 is_stmt 1 view -0
 1442              		.cfi_startproc
 1443              		@ args = 0, pretend = 0, frame = 0
 1444              		@ frame_needed = 0, uses_anonymous_args = 0
 1445              		@ link register save eliminated.
 122:src/decn.c    **** }
 1446              		.loc 1 122 2 view .LVU320
 122:src/decn.c    **** }
 1447              		.loc 1 122 9 is_stmt 0 view .LVU321
 1448 0000 014B     		ldr	r3, .L104
 1449 0002 FFF7FEBF 		b	decNumberSubtract
 1450              	.LVL115:
 1451              	.L105:
 122:src/decn.c    **** }
 1452              		.loc 1 122 9 view .LVU322
 1453 0006 00BF     		.align	2
 1454              	.L104:
 1455 0008 00000000 		.word	Ctx
 1456              		.cfi_endproc
 1457              	.LFE11:
 1459              		.section	.text.dn_multiply,"ax",%progbits
 1460              		.align	1
 1461              		.p2align 2,,3
 1462              		.global	dn_multiply
 1463              		.syntax unified
 1464              		.thumb
 1465              		.thumb_func
ARM GAS  /tmp/ccBRULIx.s 			page 69


 1466              		.fpu fpv4-sp-d16
 1468              	dn_multiply:
 1469              	.LVL116:
 1470              	.LFB12:
 125:src/decn.c    **** 	return decNumberMultiply(r, a, b, &Ctx);
 1471              		.loc 1 125 78 is_stmt 1 view -0
 1472              		.cfi_startproc
 1473              		@ args = 0, pretend = 0, frame = 0
 1474              		@ frame_needed = 0, uses_anonymous_args = 0
 1475              		@ link register save eliminated.
 126:src/decn.c    **** }
 1476              		.loc 1 126 2 view .LVU324
 126:src/decn.c    **** }
 1477              		.loc 1 126 9 is_stmt 0 view .LVU325
 1478 0000 014B     		ldr	r3, .L107
 1479 0002 FFF7FEBF 		b	decNumberMultiply
 1480              	.LVL117:
 1481              	.L108:
 126:src/decn.c    **** }
 1482              		.loc 1 126 9 view .LVU326
 1483 0006 00BF     		.align	2
 1484              	.L107:
 1485 0008 00000000 		.word	Ctx
 1486              		.cfi_endproc
 1487              	.LFE12:
 1489              		.section	.text.dn_divide,"ax",%progbits
 1490              		.align	1
 1491              		.p2align 2,,3
 1492              		.global	dn_divide
 1493              		.syntax unified
 1494              		.thumb
 1495              		.thumb_func
 1496              		.fpu fpv4-sp-d16
 1498              	dn_divide:
 1499              	.LVL118:
 1500              	.LFB13:
 129:src/decn.c    **** 	return decNumberDivide(r, a, b, &Ctx);
 1501              		.loc 1 129 76 is_stmt 1 view -0
 1502              		.cfi_startproc
 1503              		@ args = 0, pretend = 0, frame = 0
 1504              		@ frame_needed = 0, uses_anonymous_args = 0
 1505              		@ link register save eliminated.
 130:src/decn.c    **** }
 1506              		.loc 1 130 2 view .LVU328
 130:src/decn.c    **** }
 1507              		.loc 1 130 9 is_stmt 0 view .LVU329
 1508 0000 014B     		ldr	r3, .L110
 1509 0002 FFF7FEBF 		b	decNumberDivide
 1510              	.LVL119:
 1511              	.L111:
 130:src/decn.c    **** }
 1512              		.loc 1 130 9 view .LVU330
 1513 0006 00BF     		.align	2
 1514              	.L110:
 1515 0008 00000000 		.word	Ctx
 1516              		.cfi_endproc
 1517              	.LFE13:
ARM GAS  /tmp/ccBRULIx.s 			page 70


 1519              		.section	.text.dn_compare,"ax",%progbits
 1520              		.align	1
 1521              		.p2align 2,,3
 1522              		.global	dn_compare
 1523              		.syntax unified
 1524              		.thumb
 1525              		.thumb_func
 1526              		.fpu fpv4-sp-d16
 1528              	dn_compare:
 1529              	.LVL120:
 1530              	.LFB14:
 133:src/decn.c    **** 	return decNumberCompare(r, a, b, &Ctx);
 1531              		.loc 1 133 77 is_stmt 1 view -0
 1532              		.cfi_startproc
 1533              		@ args = 0, pretend = 0, frame = 0
 1534              		@ frame_needed = 0, uses_anonymous_args = 0
 1535              		@ link register save eliminated.
 134:src/decn.c    **** }
 1536              		.loc 1 134 2 view .LVU332
 134:src/decn.c    **** }
 1537              		.loc 1 134 9 is_stmt 0 view .LVU333
 1538 0000 014B     		ldr	r3, .L113
 1539 0002 FFF7FEBF 		b	decNumberCompare
 1540              	.LVL121:
 1541              	.L114:
 134:src/decn.c    **** }
 1542              		.loc 1 134 9 view .LVU334
 1543 0006 00BF     		.align	2
 1544              	.L113:
 1545 0008 00000000 		.word	Ctx
 1546              		.cfi_endproc
 1547              	.LFE14:
 1549              		.section	.text.dn_min,"ax",%progbits
 1550              		.align	1
 1551              		.p2align 2,,3
 1552              		.global	dn_min
 1553              		.syntax unified
 1554              		.thumb
 1555              		.thumb_func
 1556              		.fpu fpv4-sp-d16
 1558              	dn_min:
 1559              	.LVL122:
 1560              	.LFB15:
 137:src/decn.c    **** 	return decNumberMin(r, a, b, &Ctx);
 1561              		.loc 1 137 73 is_stmt 1 view -0
 1562              		.cfi_startproc
 1563              		@ args = 0, pretend = 0, frame = 0
 1564              		@ frame_needed = 0, uses_anonymous_args = 0
 1565              		@ link register save eliminated.
 138:src/decn.c    **** }
 1566              		.loc 1 138 2 view .LVU336
 138:src/decn.c    **** }
 1567              		.loc 1 138 9 is_stmt 0 view .LVU337
 1568 0000 014B     		ldr	r3, .L116
 1569 0002 FFF7FEBF 		b	decNumberMin
 1570              	.LVL123:
 1571              	.L117:
ARM GAS  /tmp/ccBRULIx.s 			page 71


 138:src/decn.c    **** }
 1572              		.loc 1 138 9 view .LVU338
 1573 0006 00BF     		.align	2
 1574              	.L116:
 1575 0008 00000000 		.word	Ctx
 1576              		.cfi_endproc
 1577              	.LFE15:
 1579              		.section	.text.dn_max,"ax",%progbits
 1580              		.align	1
 1581              		.p2align 2,,3
 1582              		.global	dn_max
 1583              		.syntax unified
 1584              		.thumb
 1585              		.thumb_func
 1586              		.fpu fpv4-sp-d16
 1588              	dn_max:
 1589              	.LVL124:
 1590              	.LFB16:
 141:src/decn.c    **** 	return decNumberMax(r, a, b, &Ctx);
 1591              		.loc 1 141 73 is_stmt 1 view -0
 1592              		.cfi_startproc
 1593              		@ args = 0, pretend = 0, frame = 0
 1594              		@ frame_needed = 0, uses_anonymous_args = 0
 1595              		@ link register save eliminated.
 142:src/decn.c    **** }
 1596              		.loc 1 142 2 view .LVU340
 142:src/decn.c    **** }
 1597              		.loc 1 142 9 is_stmt 0 view .LVU341
 1598 0000 014B     		ldr	r3, .L119
 1599 0002 FFF7FEBF 		b	decNumberMax
 1600              	.LVL125:
 1601              	.L120:
 142:src/decn.c    **** }
 1602              		.loc 1 142 9 view .LVU342
 1603 0006 00BF     		.align	2
 1604              	.L119:
 1605 0008 00000000 		.word	Ctx
 1606              		.cfi_endproc
 1607              	.LFE16:
 1609              		.section	.text.dn_abs,"ax",%progbits
 1610              		.align	1
 1611              		.p2align 2,,3
 1612              		.global	dn_abs
 1613              		.syntax unified
 1614              		.thumb
 1615              		.thumb_func
 1616              		.fpu fpv4-sp-d16
 1618              	dn_abs:
 1619              	.LVL126:
 1620              	.LFB17:
 145:src/decn.c    **** 	return decNumberAbs(r, a, &Ctx);
 1621              		.loc 1 145 53 is_stmt 1 view -0
 1622              		.cfi_startproc
 1623              		@ args = 0, pretend = 0, frame = 0
 1624              		@ frame_needed = 0, uses_anonymous_args = 0
 1625              		@ link register save eliminated.
 146:src/decn.c    **** }
ARM GAS  /tmp/ccBRULIx.s 			page 72


 1626              		.loc 1 146 2 view .LVU344
 146:src/decn.c    **** }
 1627              		.loc 1 146 9 is_stmt 0 view .LVU345
 1628 0000 014A     		ldr	r2, .L122
 1629 0002 FFF7FEBF 		b	decNumberAbs
 1630              	.LVL127:
 1631              	.L123:
 146:src/decn.c    **** }
 1632              		.loc 1 146 9 view .LVU346
 1633 0006 00BF     		.align	2
 1634              	.L122:
 1635 0008 00000000 		.word	Ctx
 1636              		.cfi_endproc
 1637              	.LFE17:
 1639              		.section	.text.dn_minus,"ax",%progbits
 1640              		.align	1
 1641              		.p2align 2,,3
 1642              		.global	dn_minus
 1643              		.syntax unified
 1644              		.thumb
 1645              		.thumb_func
 1646              		.fpu fpv4-sp-d16
 1648              	dn_minus:
 1649              	.LVL128:
 1650              	.LFB18:
 149:src/decn.c    **** 	return decNumberMinus(r, a, &Ctx);
 1651              		.loc 1 149 55 is_stmt 1 view -0
 1652              		.cfi_startproc
 1653              		@ args = 0, pretend = 0, frame = 0
 1654              		@ frame_needed = 0, uses_anonymous_args = 0
 1655              		@ link register save eliminated.
 150:src/decn.c    **** }
 1656              		.loc 1 150 2 view .LVU348
 150:src/decn.c    **** }
 1657              		.loc 1 150 9 is_stmt 0 view .LVU349
 1658 0000 014A     		ldr	r2, .L125
 1659 0002 FFF7FEBF 		b	decNumberMinus
 1660              	.LVL129:
 1661              	.L126:
 150:src/decn.c    **** }
 1662              		.loc 1 150 9 view .LVU350
 1663 0006 00BF     		.align	2
 1664              	.L125:
 1665 0008 00000000 		.word	Ctx
 1666              		.cfi_endproc
 1667              	.LFE18:
 1669              		.section	.text.dn_plus,"ax",%progbits
 1670              		.align	1
 1671              		.p2align 2,,3
 1672              		.global	dn_plus
 1673              		.syntax unified
 1674              		.thumb
 1675              		.thumb_func
 1676              		.fpu fpv4-sp-d16
 1678              	dn_plus:
 1679              	.LVL130:
 1680              	.LFB19:
ARM GAS  /tmp/ccBRULIx.s 			page 73


 153:src/decn.c    **** 	return decNumberPlus(r, a, &Ctx);
 1681              		.loc 1 153 54 is_stmt 1 view -0
 1682              		.cfi_startproc
 1683              		@ args = 0, pretend = 0, frame = 0
 1684              		@ frame_needed = 0, uses_anonymous_args = 0
 1685              		@ link register save eliminated.
 154:src/decn.c    **** }
 1686              		.loc 1 154 2 view .LVU352
 154:src/decn.c    **** }
 1687              		.loc 1 154 9 is_stmt 0 view .LVU353
 1688 0000 014A     		ldr	r2, .L128
 1689 0002 FFF7FEBF 		b	decNumberPlus
 1690              	.LVL131:
 1691              	.L129:
 154:src/decn.c    **** }
 1692              		.loc 1 154 9 view .LVU354
 1693 0006 00BF     		.align	2
 1694              	.L128:
 1695 0008 00000000 		.word	Ctx
 1696              		.cfi_endproc
 1697              	.LFE19:
 1699              		.section	.text.dn_sqrt,"ax",%progbits
 1700              		.align	1
 1701              		.p2align 2,,3
 1702              		.global	dn_sqrt
 1703              		.syntax unified
 1704              		.thumb
 1705              		.thumb_func
 1706              		.fpu fpv4-sp-d16
 1708              	dn_sqrt:
 1709              	.LVL132:
 1710              	.LFB20:
 157:src/decn.c    **** 	return decNumberSquareRoot(r, a, &Ctx);
 1711              		.loc 1 157 54 is_stmt 1 view -0
 1712              		.cfi_startproc
 1713              		@ args = 0, pretend = 0, frame = 0
 1714              		@ frame_needed = 0, uses_anonymous_args = 0
 1715              		@ link register save eliminated.
 158:src/decn.c    **** }
 1716              		.loc 1 158 2 view .LVU356
 158:src/decn.c    **** }
 1717              		.loc 1 158 9 is_stmt 0 view .LVU357
 1718 0000 014A     		ldr	r2, .L131
 1719 0002 FFF7FEBF 		b	decNumberSquareRoot
 1720              	.LVL133:
 1721              	.L132:
 158:src/decn.c    **** }
 1722              		.loc 1 158 9 view .LVU358
 1723 0006 00BF     		.align	2
 1724              	.L131:
 1725 0008 00000000 		.word	Ctx
 1726              		.cfi_endproc
 1727              	.LFE20:
 1729              		.section	.text.dn_exp,"ax",%progbits
 1730              		.align	1
 1731              		.p2align 2,,3
 1732              		.global	dn_exp
ARM GAS  /tmp/ccBRULIx.s 			page 74


 1733              		.syntax unified
 1734              		.thumb
 1735              		.thumb_func
 1736              		.fpu fpv4-sp-d16
 1738              	dn_exp:
 1739              	.LVL134:
 1740              	.LFB21:
 161:src/decn.c    **** 	return decNumberExp(r, a, &Ctx);
 1741              		.loc 1 161 53 is_stmt 1 view -0
 1742              		.cfi_startproc
 1743              		@ args = 0, pretend = 0, frame = 0
 1744              		@ frame_needed = 0, uses_anonymous_args = 0
 1745              		@ link register save eliminated.
 162:src/decn.c    **** }
 1746              		.loc 1 162 2 view .LVU360
 162:src/decn.c    **** }
 1747              		.loc 1 162 9 is_stmt 0 view .LVU361
 1748 0000 014A     		ldr	r2, .L134
 1749 0002 FFF7FEBF 		b	decNumberExp
 1750              	.LVL135:
 1751              	.L135:
 162:src/decn.c    **** }
 1752              		.loc 1 162 9 view .LVU362
 1753 0006 00BF     		.align	2
 1754              	.L134:
 1755 0008 00000000 		.word	Ctx
 1756              		.cfi_endproc
 1757              	.LFE21:
 1759              		.section	.text.dn_average,"ax",%progbits
 1760              		.align	1
 1761              		.p2align 2,,3
 1762              		.global	dn_average
 1763              		.syntax unified
 1764              		.thumb
 1765              		.thumb_func
 1766              		.fpu fpv4-sp-d16
 1768              	dn_average:
 1769              	.LVL136:
 1770              	.LFB22:
 166:src/decn.c    **** 	decNumber z;
 1771              		.loc 1 166 77 is_stmt 1 view -0
 1772              		.cfi_startproc
 1773              		@ args = 0, pretend = 0, frame = 40
 1774              		@ frame_needed = 0, uses_anonymous_args = 0
 166:src/decn.c    **** 	decNumber z;
 1775              		.loc 1 166 77 is_stmt 0 view .LVU364
 1776 0000 10B5     		push	{r4, lr}
 1777              		.cfi_def_cfa_offset 8
 1778              		.cfi_offset 4, -8
 1779              		.cfi_offset 14, -4
 1780 0002 8AB0     		sub	sp, sp, #40
 1781              		.cfi_def_cfa_offset 48
 166:src/decn.c    **** 	decNumber z;
 1782              		.loc 1 166 77 view .LVU365
 1783 0004 0446     		mov	r4, r0
 167:src/decn.c    **** 
 1784              		.loc 1 167 2 is_stmt 1 view .LVU366
ARM GAS  /tmp/ccBRULIx.s 			page 75


 169:src/decn.c    **** 	return dn_div2(r, &z);
 1785              		.loc 1 169 2 view .LVU367
 1786              	.LVL137:
 1787              	.LBB1374:
 1788              	.LBI1374:
 117:src/decn.c    **** 	return decNumberAdd(r, a, b, &Ctx);
 1789              		.loc 1 117 12 view .LVU368
 1790              	.LBB1375:
 118:src/decn.c    **** }
 1791              		.loc 1 118 2 view .LVU369
 118:src/decn.c    **** }
 1792              		.loc 1 118 9 is_stmt 0 view .LVU370
 1793 0006 064B     		ldr	r3, .L138
 1794 0008 01A8     		add	r0, sp, #4
 1795              	.LVL138:
 118:src/decn.c    **** }
 1796              		.loc 1 118 9 view .LVU371
 1797 000a FFF7FEFF 		bl	decNumberAdd
 1798              	.LVL139:
 118:src/decn.c    **** }
 1799              		.loc 1 118 9 view .LVU372
 1800              	.LBE1375:
 1801              	.LBE1374:
 170:src/decn.c    **** }
 1802              		.loc 1 170 2 is_stmt 1 view .LVU373
 1803              	.LBB1376:
 1804              	.LBI1376:
 350:src/decn.c    **** 	return dn_multiply(r, x, &const_0_5);
 1805              		.loc 1 350 12 view .LVU374
 1806              	.LBB1377:
 351:src/decn.c    **** }
 1807              		.loc 1 351 2 view .LVU375
 1808              	.LBB1378:
 1809              	.LBI1378:
 125:src/decn.c    **** 	return decNumberMultiply(r, a, b, &Ctx);
 1810              		.loc 1 125 12 view .LVU376
 1811              	.LBB1379:
 126:src/decn.c    **** }
 1812              		.loc 1 126 2 view .LVU377
 126:src/decn.c    **** }
 1813              		.loc 1 126 9 is_stmt 0 view .LVU378
 1814 000e 044B     		ldr	r3, .L138
 1815 0010 044A     		ldr	r2, .L138+4
 1816 0012 2046     		mov	r0, r4
 1817 0014 01A9     		add	r1, sp, #4
 1818              	.LVL140:
 126:src/decn.c    **** }
 1819              		.loc 1 126 9 view .LVU379
 1820 0016 FFF7FEFF 		bl	decNumberMultiply
 1821              	.LVL141:
 126:src/decn.c    **** }
 1822              		.loc 1 126 9 view .LVU380
 1823              	.LBE1379:
 1824              	.LBE1378:
 1825              	.LBE1377:
 1826              	.LBE1376:
 171:src/decn.c    **** 
ARM GAS  /tmp/ccBRULIx.s 			page 76


 1827              		.loc 1 171 1 view .LVU381
 1828 001a 0AB0     		add	sp, sp, #40
 1829              		.cfi_def_cfa_offset 8
 1830              		@ sp needed
 1831 001c 10BD     		pop	{r4, pc}
 1832              	.LVL142:
 1833              	.L139:
 171:src/decn.c    **** 
 1834              		.loc 1 171 1 view .LVU382
 1835 001e 00BF     		.align	2
 1836              	.L138:
 1837 0020 00000000 		.word	Ctx
 1838 0024 00000000 		.word	const_0_5
 1839              		.cfi_endproc
 1840              	.LFE22:
 1842              		.section	.text.int_to_dn,"ax",%progbits
 1843              		.align	1
 1844              		.p2align 2,,3
 1845              		.global	int_to_dn
 1846              		.syntax unified
 1847              		.thumb
 1848              		.thumb_func
 1849              		.fpu fpv4-sp-d16
 1851              	int_to_dn:
 1852              	.LVL143:
 1853              	.LFB23:
 209:src/decn.c    **** 	int sgn;
 1854              		.loc 1 209 37 is_stmt 1 view -0
 1855              		.cfi_startproc
 1856              		@ args = 0, pretend = 0, frame = 0
 1857              		@ frame_needed = 0, uses_anonymous_args = 0
 210:src/decn.c    **** 
 1858              		.loc 1 210 2 view .LVU384
 213:src/decn.c    **** 		sgn = 1;
 1859              		.loc 1 213 2 view .LVU385
 213:src/decn.c    **** 		sgn = 1;
 1860              		.loc 1 213 5 is_stmt 0 view .LVU386
 1861 0000 0029     		cmp	r1, #0
 213:src/decn.c    **** 		sgn = 1;
 1862              		.loc 1 213 5 view .LVU387
 1863 0002 03DB     		blt	.L145
 1864              	.LVL144:
 219:src/decn.c    **** 
 1865              		.loc 1 219 2 is_stmt 1 view .LVU388
 1866 0004 0A46     		mov	r2, r1
 1867 0006 CB17     		asrs	r3, r1, #31
 1868 0008 FFF7FEBF 		b	ullint_to_dn
 1869              	.LVL145:
 1870              	.L145:
 214:src/decn.c    **** 		n = -n;
 1871              		.loc 1 214 3 view .LVU389
 215:src/decn.c    **** 	} else
 1872              		.loc 1 215 3 view .LVU390
 219:src/decn.c    **** 
 1873              		.loc 1 219 2 view .LVU391
 209:src/decn.c    **** 	int sgn;
 1874              		.loc 1 209 37 is_stmt 0 view .LVU392
ARM GAS  /tmp/ccBRULIx.s 			page 77


 1875 000c 10B5     		push	{r4, lr}
 1876              		.cfi_def_cfa_offset 8
 1877              		.cfi_offset 4, -8
 1878              		.cfi_offset 14, -4
 215:src/decn.c    **** 	} else
 1879              		.loc 1 215 5 view .LVU393
 1880 000e 4A42     		rsbs	r2, r1, #0
 1881 0010 0446     		mov	r4, r0
 219:src/decn.c    **** 
 1882              		.loc 1 219 2 view .LVU394
 1883 0012 D317     		asrs	r3, r2, #31
 1884 0014 FFF7FEFF 		bl	ullint_to_dn
 1885              	.LVL146:
 221:src/decn.c    **** 		dn_minus(x, x);
 1886              		.loc 1 221 2 is_stmt 1 view .LVU395
 1887              	.LBB1384:
 1888              	.LBI1384:
 209:src/decn.c    **** 	int sgn;
 1889              		.loc 1 209 6 view .LVU396
 1890              	.LBB1385:
 222:src/decn.c    **** }
 1891              		.loc 1 222 3 view .LVU397
 1892              	.LBB1386:
 1893              	.LBI1386:
 149:src/decn.c    **** 	return decNumberMinus(r, a, &Ctx);
 1894              		.loc 1 149 12 view .LVU398
 1895              	.LBB1387:
 150:src/decn.c    **** }
 1896              		.loc 1 150 2 view .LVU399
 150:src/decn.c    **** }
 1897              		.loc 1 150 9 is_stmt 0 view .LVU400
 1898 0018 2146     		mov	r1, r4
 1899 001a 2046     		mov	r0, r4
 1900 001c 024A     		ldr	r2, .L146
 1901              	.LBE1387:
 1902              	.LBE1386:
 1903              	.LBE1385:
 1904              	.LBE1384:
 223:src/decn.c    **** 
 1905              		.loc 1 223 1 view .LVU401
 1906 001e BDE81040 		pop	{r4, lr}
 1907              		.cfi_restore 14
 1908              		.cfi_restore 4
 1909              		.cfi_def_cfa_offset 0
 1910              	.LVL147:
 1911              	.LBB1391:
 1912              	.LBB1390:
 1913              	.LBB1389:
 1914              	.LBB1388:
 150:src/decn.c    **** }
 1915              		.loc 1 150 9 view .LVU402
 1916 0022 FFF7FEBF 		b	decNumberMinus
 1917              	.LVL148:
 1918              	.L147:
 150:src/decn.c    **** }
 1919              		.loc 1 150 9 view .LVU403
 1920 0026 00BF     		.align	2
ARM GAS  /tmp/ccBRULIx.s 			page 78


 1921              	.L146:
 1922 0028 00000000 		.word	Ctx
 1923              	.LBE1388:
 1924              	.LBE1389:
 1925              	.LBE1390:
 1926              	.LBE1391:
 1927              		.cfi_endproc
 1928              	.LFE23:
 1930              		.section	.text.dn_to_int,"ax",%progbits
 1931              		.align	1
 1932              		.p2align 2,,3
 1933              		.global	dn_to_int
 1934              		.syntax unified
 1935              		.thumb
 1936              		.thumb_func
 1937              		.fpu fpv4-sp-d16
 1939              	dn_to_int:
 1940              	.LVL149:
 1941              	.LFB24:
 225:src/decn.c    **** 	decNumber y;
 1942              		.loc 1 225 35 is_stmt 1 view -0
 1943              		.cfi_startproc
 1944              		@ args = 0, pretend = 0, frame = 40
 1945              		@ frame_needed = 0, uses_anonymous_args = 0
 226:src/decn.c    **** #if 0
 1946              		.loc 1 226 2 view .LVU405
 234:src/decn.c    **** #endif
 1947              		.loc 1 234 2 view .LVU406
 225:src/decn.c    **** 	decNumber y;
 1948              		.loc 1 225 35 is_stmt 0 view .LVU407
 1949 0000 30B5     		push	{r4, r5, lr}
 1950              		.cfi_def_cfa_offset 12
 1951              		.cfi_offset 4, -12
 1952              		.cfi_offset 5, -8
 1953              		.cfi_offset 14, -4
 1954              	.LBB1392:
 1955              	.LBB1393:
 1956              	.LBB1394:
 500:src/decn.c    **** 
 1957              		.loc 1 500 16 view .LVU408
 1958 0002 084C     		ldr	r4, .L150
 1959              	.LBE1394:
 1960              	.LBE1393:
 1961              	.LBE1392:
 225:src/decn.c    **** 	decNumber y;
 1962              		.loc 1 225 35 view .LVU409
 1963 0004 8BB0     		sub	sp, sp, #44
 1964              		.cfi_def_cfa_offset 56
 1965              	.LVL150:
 225:src/decn.c    **** 	decNumber y;
 1966              		.loc 1 225 35 view .LVU410
 1967 0006 0146     		mov	r1, r0
 1968              	.LVL151:
 1969              	.LBB1399:
 1970              	.LBI1392:
 522:src/decn.c    **** 	return round2int(r, x, DEC_ROUND_DOWN);
 1971              		.loc 1 522 12 is_stmt 1 view .LVU411
ARM GAS  /tmp/ccBRULIx.s 			page 79


 1972              	.LBE1399:
 523:src/decn.c    **** }
 1973              		.loc 1 523 2 view .LVU412
 1974              	.LBB1400:
 1975              	.LBB1397:
 1976              	.LBI1393:
 499:src/decn.c    **** 	enum rounding a = Ctx.round;
 1977              		.loc 1 499 19 view .LVU413
 1978              	.LBB1395:
 500:src/decn.c    **** 
 1979              		.loc 1 500 2 view .LVU414
 502:src/decn.c    **** 	decNumberToIntegralValue(r, x, &Ctx);
 1980              		.loc 1 502 12 is_stmt 0 view .LVU415
 1981 0008 0523     		movs	r3, #5
 503:src/decn.c    **** 	Ctx.round = a;
 1982              		.loc 1 503 2 view .LVU416
 1983 000a 2246     		mov	r2, r4
 1984 000c 01A8     		add	r0, sp, #4
 1985              	.LVL152:
 500:src/decn.c    **** 
 1986              		.loc 1 500 16 view .LVU417
 1987 000e 257B     		ldrb	r5, [r4, #12]	@ zero_extendqisi2
 1988              	.LVL153:
 502:src/decn.c    **** 	decNumberToIntegralValue(r, x, &Ctx);
 1989              		.loc 1 502 2 is_stmt 1 view .LVU418
 502:src/decn.c    **** 	decNumberToIntegralValue(r, x, &Ctx);
 1990              		.loc 1 502 12 is_stmt 0 view .LVU419
 1991 0010 2373     		strb	r3, [r4, #12]
 503:src/decn.c    **** 	Ctx.round = a;
 1992              		.loc 1 503 2 is_stmt 1 view .LVU420
 1993 0012 FFF7FEFF 		bl	decNumberToIntegralValue
 1994              	.LVL154:
 504:src/decn.c    **** 	return r;
 1995              		.loc 1 504 2 view .LVU421
 1996              	.LBE1395:
 1997              	.LBE1397:
 1998              	.LBE1400:
 234:src/decn.c    **** #endif
 1999              		.loc 1 234 9 is_stmt 0 view .LVU422
 2000 0016 01A8     		add	r0, sp, #4
 2001              	.LVL155:
 2002              	.LBB1401:
 2003              	.LBB1398:
 2004              	.LBB1396:
 504:src/decn.c    **** 	return r;
 2005              		.loc 1 504 12 view .LVU423
 2006 0018 2573     		strb	r5, [r4, #12]
 505:src/decn.c    **** }
 2007              		.loc 1 505 2 is_stmt 1 view .LVU424
 2008              	.LVL156:
 505:src/decn.c    **** }
 2009              		.loc 1 505 2 is_stmt 0 view .LVU425
 2010              	.LBE1396:
 2011              	.LBE1398:
 2012              	.LBE1401:
 234:src/decn.c    **** #endif
 2013              		.loc 1 234 9 view .LVU426
ARM GAS  /tmp/ccBRULIx.s 			page 80


 2014 001a FFF7FEFF 		bl	decGetInt
 2015              	.LVL157:
 236:src/decn.c    **** 
 2016              		.loc 1 236 1 view .LVU427
 2017 001e 0BB0     		add	sp, sp, #44
 2018              		.cfi_def_cfa_offset 12
 2019              		@ sp needed
 2020 0020 30BD     		pop	{r4, r5, pc}
 2021              	.L151:
 2022 0022 00BF     		.align	2
 2023              	.L150:
 2024 0024 00000000 		.word	Ctx
 2025              		.cfi_endproc
 2026              	.LFE24:
 2028              		.section	.text.dn_to_ull,"ax",%progbits
 2029              		.align	1
 2030              		.p2align 2,,3
 2031              		.global	dn_to_ull
 2032              		.syntax unified
 2033              		.thumb
 2034              		.thumb_func
 2035              		.fpu fpv4-sp-d16
 2037              	dn_to_ull:
 2038              	.LVL158:
 2039              	.LFB25:
 238:src/decn.c    **** 	decNumber y, z;
 2040              		.loc 1 238 64 is_stmt 1 view -0
 2041              		.cfi_startproc
 2042              		@ args = 0, pretend = 0, frame = 136
 2043              		@ frame_needed = 0, uses_anonymous_args = 0
 239:src/decn.c    **** 	char buf[64];
 2044              		.loc 1 239 2 view .LVU429
 240:src/decn.c    **** 
 2045              		.loc 1 240 2 view .LVU430
 242:src/decn.c    **** 	decNumberRescale(&y, &z, &const_0, &Ctx);
 2046              		.loc 1 242 2 view .LVU431
 238:src/decn.c    **** 	decNumber y, z;
 2047              		.loc 1 238 64 is_stmt 0 view .LVU432
 2048 0000 70B5     		push	{r4, r5, r6, lr}
 2049              		.cfi_def_cfa_offset 16
 2050              		.cfi_offset 4, -16
 2051              		.cfi_offset 5, -12
 2052              		.cfi_offset 6, -8
 2053              		.cfi_offset 14, -4
 2054              	.LBB1402:
 2055              	.LBB1403:
 2056              	.LBB1404:
 500:src/decn.c    **** 
 2057              		.loc 1 500 16 view .LVU433
 2058 0002 154C     		ldr	r4, .L157
 2059              	.LBE1404:
 2060              	.LBE1403:
 2061              	.LBE1402:
 238:src/decn.c    **** 	decNumber y, z;
 2062              		.loc 1 238 64 view .LVU434
 2063 0004 A2B0     		sub	sp, sp, #136
 2064              		.cfi_def_cfa_offset 152
ARM GAS  /tmp/ccBRULIx.s 			page 81


 2065              	.LVL159:
 2066              	.LBB1411:
 2067              	.LBI1402:
 522:src/decn.c    **** 	return round2int(r, x, DEC_ROUND_DOWN);
 2068              		.loc 1 522 12 is_stmt 1 view .LVU435
 2069              	.LBE1411:
 523:src/decn.c    **** }
 2070              		.loc 1 523 2 view .LVU436
 2071              	.LBB1412:
 2072              	.LBB1408:
 2073              	.LBI1403:
 499:src/decn.c    **** 	enum rounding a = Ctx.round;
 2074              		.loc 1 499 19 view .LVU437
 2075              	.LBB1405:
 500:src/decn.c    **** 
 2076              		.loc 1 500 2 view .LVU438
 502:src/decn.c    **** 	decNumberToIntegralValue(r, x, &Ctx);
 2077              		.loc 1 502 12 is_stmt 0 view .LVU439
 2078 0006 0523     		movs	r3, #5
 503:src/decn.c    **** 	Ctx.round = a;
 2079              		.loc 1 503 2 view .LVU440
 2080 0008 2246     		mov	r2, r4
 2081              	.LBE1405:
 2082              	.LBE1408:
 2083              	.LBE1412:
 238:src/decn.c    **** 	decNumber y, z;
 2084              		.loc 1 238 64 view .LVU441
 2085 000a 0D46     		mov	r5, r1
 2086              	.LBB1413:
 2087              	.LBB1409:
 2088              	.LBB1406:
 503:src/decn.c    **** 	Ctx.round = a;
 2089              		.loc 1 503 2 view .LVU442
 2090 000c 0146     		mov	r1, r0
 2091              	.LVL160:
 503:src/decn.c    **** 	Ctx.round = a;
 2092              		.loc 1 503 2 view .LVU443
 2093 000e 09A8     		add	r0, sp, #36
 2094              	.LVL161:
 500:src/decn.c    **** 
 2095              		.loc 1 500 16 view .LVU444
 2096 0010 267B     		ldrb	r6, [r4, #12]	@ zero_extendqisi2
 2097              	.LVL162:
 502:src/decn.c    **** 	decNumberToIntegralValue(r, x, &Ctx);
 2098              		.loc 1 502 2 is_stmt 1 view .LVU445
 502:src/decn.c    **** 	decNumberToIntegralValue(r, x, &Ctx);
 2099              		.loc 1 502 12 is_stmt 0 view .LVU446
 2100 0012 2373     		strb	r3, [r4, #12]
 503:src/decn.c    **** 	Ctx.round = a;
 2101              		.loc 1 503 2 is_stmt 1 view .LVU447
 2102 0014 FFF7FEFF 		bl	decNumberToIntegralValue
 2103              	.LVL163:
 504:src/decn.c    **** 	return r;
 2104              		.loc 1 504 2 view .LVU448
 2105              	.LBE1406:
 2106              	.LBE1409:
 2107              	.LBE1413:
ARM GAS  /tmp/ccBRULIx.s 			page 82


 243:src/decn.c    **** 	if (decNumberIsNegative(&z)) {
 2108              		.loc 1 243 2 is_stmt 0 view .LVU449
 2109 0018 2346     		mov	r3, r4
 2110 001a 104A     		ldr	r2, .L157+4
 2111              	.LBB1414:
 2112              	.LBB1410:
 2113              	.LBB1407:
 504:src/decn.c    **** 	return r;
 2114              		.loc 1 504 12 view .LVU450
 2115 001c 2673     		strb	r6, [r4, #12]
 505:src/decn.c    **** }
 2116              		.loc 1 505 2 is_stmt 1 view .LVU451
 2117              	.LVL164:
 505:src/decn.c    **** }
 2118              		.loc 1 505 2 is_stmt 0 view .LVU452
 2119              	.LBE1407:
 2120              	.LBE1410:
 2121              	.LBE1414:
 243:src/decn.c    **** 	if (decNumberIsNegative(&z)) {
 2122              		.loc 1 243 2 is_stmt 1 view .LVU453
 2123 001e 09A9     		add	r1, sp, #36
 2124 0020 6846     		mov	r0, sp
 2125 0022 FFF7FEFF 		bl	decNumberRescale
 2126              	.LVL165:
 244:src/decn.c    **** 		dn_minus(&y, &y);
 2127              		.loc 1 244 2 view .LVU454
 244:src/decn.c    **** 		dn_minus(&y, &y);
 2128              		.loc 1 244 5 is_stmt 0 view .LVU455
 2129 0026 9DF92C30 		ldrsb	r3, [sp, #44]
 2130 002a 002B     		cmp	r3, #0
 2131 002c 0BDB     		blt	.L156
 248:src/decn.c    **** 	decNumberToString(&y, buf);
 2132              		.loc 1 248 3 is_stmt 1 view .LVU456
 248:src/decn.c    **** 	decNumberToString(&y, buf);
 2133              		.loc 1 248 8 is_stmt 0 view .LVU457
 2134 002e 0023     		movs	r3, #0
 2135 0030 2B60     		str	r3, [r5]
 2136              	.L154:
 249:src/decn.c    **** 	return s_to_ull(buf, 10);
 2137              		.loc 1 249 2 is_stmt 1 view .LVU458
 2138 0032 12A9     		add	r1, sp, #72
 2139 0034 6846     		mov	r0, sp
 2140 0036 FFF7FEFF 		bl	decNumberToString
 2141              	.LVL166:
 250:src/decn.c    **** }
 2142              		.loc 1 250 2 view .LVU459
 250:src/decn.c    **** }
 2143              		.loc 1 250 9 is_stmt 0 view .LVU460
 2144 003a 12A8     		add	r0, sp, #72
 2145 003c 0A21     		movs	r1, #10
 2146 003e FFF7FEFF 		bl	s_to_ull
 2147              	.LVL167:
 251:src/decn.c    **** 
 2148              		.loc 1 251 1 view .LVU461
 2149 0042 22B0     		add	sp, sp, #136
 2150              		.cfi_remember_state
 2151              		.cfi_def_cfa_offset 16
ARM GAS  /tmp/ccBRULIx.s 			page 83


 2152              		@ sp needed
 2153 0044 70BD     		pop	{r4, r5, r6, pc}
 2154              	.LVL168:
 2155              	.L156:
 2156              		.cfi_restore_state
 245:src/decn.c    **** 		*sgn = 1;
 2157              		.loc 1 245 3 is_stmt 1 view .LVU462
 2158              	.LBB1415:
 2159              	.LBI1415:
 149:src/decn.c    **** 	return decNumberMinus(r, a, &Ctx);
 2160              		.loc 1 149 12 view .LVU463
 2161              	.LBB1416:
 150:src/decn.c    **** }
 2162              		.loc 1 150 2 view .LVU464
 150:src/decn.c    **** }
 2163              		.loc 1 150 9 is_stmt 0 view .LVU465
 2164 0046 2246     		mov	r2, r4
 2165 0048 6946     		mov	r1, sp
 2166 004a 6846     		mov	r0, sp
 2167 004c FFF7FEFF 		bl	decNumberMinus
 2168              	.LVL169:
 150:src/decn.c    **** }
 2169              		.loc 1 150 9 view .LVU466
 2170              	.LBE1416:
 2171              	.LBE1415:
 246:src/decn.c    **** 	} else
 2172              		.loc 1 246 3 is_stmt 1 view .LVU467
 246:src/decn.c    **** 	} else
 2173              		.loc 1 246 8 is_stmt 0 view .LVU468
 2174 0050 0123     		movs	r3, #1
 2175 0052 2B60     		str	r3, [r5]
 2176 0054 EDE7     		b	.L154
 2177              	.L158:
 2178 0056 00BF     		.align	2
 2179              	.L157:
 2180 0058 00000000 		.word	Ctx
 2181 005c 00000000 		.word	const_0
 2182              		.cfi_endproc
 2183              	.LFE25:
 2185              		.section	.text.set_NaN,"ax",%progbits
 2186              		.align	1
 2187              		.p2align 2,,3
 2188              		.global	set_NaN
 2189              		.syntax unified
 2190              		.thumb
 2191              		.thumb_func
 2192              		.fpu fpv4-sp-d16
 2194              	set_NaN:
 2195              	.LVL170:
 2196              	.LFB26:
 254:src/decn.c    **** 	if (x != NULL)
 2197              		.loc 1 254 34 is_stmt 1 view -0
 2198              		.cfi_startproc
 2199              		@ args = 0, pretend = 0, frame = 0
 2200              		@ frame_needed = 0, uses_anonymous_args = 0
 255:src/decn.c    **** 		decNumberCopy(x, &const_NaN);
 2201              		.loc 1 255 2 view .LVU470
ARM GAS  /tmp/ccBRULIx.s 			page 84


 254:src/decn.c    **** 	if (x != NULL)
 2202              		.loc 1 254 34 is_stmt 0 view .LVU471
 2203 0000 10B5     		push	{r4, lr}
 2204              		.cfi_def_cfa_offset 8
 2205              		.cfi_offset 4, -8
 2206              		.cfi_offset 14, -4
 255:src/decn.c    **** 		decNumberCopy(x, &const_NaN);
 2207              		.loc 1 255 5 view .LVU472
 2208 0002 0446     		mov	r4, r0
 2209 0004 10B1     		cbz	r0, .L160
 256:src/decn.c    **** 	return x;
 2210              		.loc 1 256 3 is_stmt 1 view .LVU473
 2211 0006 0249     		ldr	r1, .L165
 2212 0008 FFF7FEFF 		bl	decNumberCopy
 2213              	.LVL171:
 2214              	.L160:
 257:src/decn.c    **** }
 2215              		.loc 1 257 2 view .LVU474
 258:src/decn.c    **** 
 2216              		.loc 1 258 1 is_stmt 0 view .LVU475
 2217 000c 2046     		mov	r0, r4
 2218 000e 10BD     		pop	{r4, pc}
 2219              	.LVL172:
 2220              	.L166:
 258:src/decn.c    **** 
 2221              		.loc 1 258 1 view .LVU476
 2222              		.align	2
 2223              	.L165:
 2224 0010 00000000 		.word	const_NaN
 2225              		.cfi_endproc
 2226              	.LFE26:
 2228              		.section	.text.set_inf,"ax",%progbits
 2229              		.align	1
 2230              		.p2align 2,,3
 2231              		.global	set_inf
 2232              		.syntax unified
 2233              		.thumb
 2234              		.thumb_func
 2235              		.fpu fpv4-sp-d16
 2237              	set_inf:
 2238              	.LVL173:
 2239              	.LFB27:
 260:src/decn.c    **** 	return decNumberCopy(x, &const_inf);
 2240              		.loc 1 260 34 is_stmt 1 view -0
 2241              		.cfi_startproc
 2242              		@ args = 0, pretend = 0, frame = 0
 2243              		@ frame_needed = 0, uses_anonymous_args = 0
 2244              		@ link register save eliminated.
 261:src/decn.c    **** }
 2245              		.loc 1 261 2 view .LVU478
 261:src/decn.c    **** }
 2246              		.loc 1 261 9 is_stmt 0 view .LVU479
 2247 0000 0149     		ldr	r1, .L168
 2248 0002 FFF7FEBF 		b	decNumberCopy
 2249              	.LVL174:
 2250              	.L169:
 261:src/decn.c    **** }
ARM GAS  /tmp/ccBRULIx.s 			page 85


 2251              		.loc 1 261 9 view .LVU480
 2252 0006 00BF     		.align	2
 2253              	.L168:
 2254 0008 00000000 		.word	const_inf
 2255              		.cfi_endproc
 2256              	.LFE27:
 2258              		.section	.text.set_neginf,"ax",%progbits
 2259              		.align	1
 2260              		.p2align 2,,3
 2261              		.global	set_neginf
 2262              		.syntax unified
 2263              		.thumb
 2264              		.thumb_func
 2265              		.fpu fpv4-sp-d16
 2267              	set_neginf:
 2268              	.LVL175:
 2269              	.LFB28:
 264:src/decn.c    **** 	return decNumberCopy(x, &const__inf);
 2270              		.loc 1 264 37 is_stmt 1 view -0
 2271              		.cfi_startproc
 2272              		@ args = 0, pretend = 0, frame = 0
 2273              		@ frame_needed = 0, uses_anonymous_args = 0
 2274              		@ link register save eliminated.
 265:src/decn.c    **** }
 2275              		.loc 1 265 2 view .LVU482
 265:src/decn.c    **** }
 2276              		.loc 1 265 9 is_stmt 0 view .LVU483
 2277 0000 0149     		ldr	r1, .L171
 2278 0002 FFF7FEBF 		b	decNumberCopy
 2279              	.LVL176:
 2280              	.L172:
 265:src/decn.c    **** }
 2281              		.loc 1 265 9 view .LVU484
 2282 0006 00BF     		.align	2
 2283              	.L171:
 2284 0008 00000000 		.word	const__inf
 2285              		.cfi_endproc
 2286              	.LFE28:
 2288              		.section	.text.decNumberPI,"ax",%progbits
 2289              		.align	1
 2290              		.p2align 2,,3
 2291              		.global	decNumberPI
 2292              		.syntax unified
 2293              		.thumb
 2294              		.thumb_func
 2295              		.fpu fpv4-sp-d16
 2297              	decNumberPI:
 2298              	.LVL177:
 2299              	.LFB29:
 269:src/decn.c    **** 	decNumberCopy(pi, &const_PI);
 2300              		.loc 1 269 33 is_stmt 1 view -0
 2301              		.cfi_startproc
 2302              		@ args = 0, pretend = 0, frame = 0
 2303              		@ frame_needed = 0, uses_anonymous_args = 0
 2304              		@ link register save eliminated.
 270:src/decn.c    **** }
 2305              		.loc 1 270 2 view .LVU486
ARM GAS  /tmp/ccBRULIx.s 			page 86


 2306 0000 0149     		ldr	r1, .L174
 2307 0002 FFF7FEBF 		b	decNumberCopy
 2308              	.LVL178:
 2309              	.L175:
 270:src/decn.c    **** }
 2310              		.loc 1 270 2 is_stmt 0 view .LVU487
 2311 0006 00BF     		.align	2
 2312              	.L174:
 2313 0008 00000000 		.word	const_PI
 2314              		.cfi_endproc
 2315              	.LFE29:
 2317              		.section	.text.decNumberPIon2,"ax",%progbits
 2318              		.align	1
 2319              		.p2align 2,,3
 2320              		.global	decNumberPIon2
 2321              		.syntax unified
 2322              		.thumb
 2323              		.thumb_func
 2324              		.fpu fpv4-sp-d16
 2326              	decNumberPIon2:
 2327              	.LVL179:
 2328              	.LFB30:
 272:src/decn.c    **** 	decNumberCopy(pion2, &const_PIon2);
 2329              		.loc 1 272 39 is_stmt 1 view -0
 2330              		.cfi_startproc
 2331              		@ args = 0, pretend = 0, frame = 0
 2332              		@ frame_needed = 0, uses_anonymous_args = 0
 2333              		@ link register save eliminated.
 273:src/decn.c    **** }
 2334              		.loc 1 273 2 view .LVU489
 2335 0000 0149     		ldr	r1, .L177
 2336 0002 FFF7FEBF 		b	decNumberCopy
 2337              	.LVL180:
 2338              	.L178:
 273:src/decn.c    **** }
 2339              		.loc 1 273 2 is_stmt 0 view .LVU490
 2340 0006 00BF     		.align	2
 2341              	.L177:
 2342 0008 00000000 		.word	const_PIon2
 2343              		.cfi_endproc
 2344              	.LFE30:
 2346              		.section	.text.is_int,"ax",%progbits
 2347              		.align	1
 2348              		.p2align 2,,3
 2349              		.global	is_int
 2350              		.syntax unified
 2351              		.thumb
 2352              		.thumb_func
 2353              		.fpu fpv4-sp-d16
 2355              	is_int:
 2356              	.LVL181:
 2357              	.LFB31:
 278:src/decn.c    **** 	enum rounding a = Ctx.round;
 2358              		.loc 1 278 32 is_stmt 1 view -0
 2359              		.cfi_startproc
 2360              		@ args = 0, pretend = 0, frame = 72
 2361              		@ frame_needed = 0, uses_anonymous_args = 0
ARM GAS  /tmp/ccBRULIx.s 			page 87


 279:src/decn.c    **** 	decNumber r, y;
 2362              		.loc 1 279 2 view .LVU492
 280:src/decn.c    **** 
 2363              		.loc 1 280 2 view .LVU493
 282:src/decn.c    **** 		return 0;
 2364              		.loc 1 282 2 view .LVU494
 282:src/decn.c    **** 		return 0;
 2365              		.loc 1 282 6 is_stmt 0 view .LVU495
 2366 0000 037A     		ldrb	r3, [r0, #8]	@ zero_extendqisi2
 282:src/decn.c    **** 		return 0;
 2367              		.loc 1 282 5 view .LVU496
 2368 0002 13F0300F 		tst	r3, #48
 2369 0006 24D1     		bne	.L188
 284:src/decn.c    **** 		return 1;
 2370              		.loc 1 284 2 is_stmt 1 view .LVU497
 284:src/decn.c    **** 		return 1;
 2371              		.loc 1 284 5 is_stmt 0 view .LVU498
 2372 0008 5B06     		lsls	r3, r3, #25
 2373 000a 01D5     		bpl	.L181
 285:src/decn.c    **** 
 2374              		.loc 1 285 10 view .LVU499
 2375 000c 0120     		movs	r0, #1
 2376              	.LVL182:
 285:src/decn.c    **** 
 2377              		.loc 1 285 10 view .LVU500
 2378 000e 7047     		bx	lr
 2379              	.LVL183:
 2380              	.L181:
 278:src/decn.c    **** 	enum rounding a = Ctx.round;
 2381              		.loc 1 278 32 view .LVU501
 2382 0010 70B5     		push	{r4, r5, r6, lr}
 2383              		.cfi_def_cfa_offset 16
 2384              		.cfi_offset 4, -16
 2385              		.cfi_offset 5, -12
 2386              		.cfi_offset 6, -8
 2387              		.cfi_offset 14, -4
 279:src/decn.c    **** 	decNumber r, y;
 2388              		.loc 1 279 16 view .LVU502
 2389 0012 124D     		ldr	r5, .L192
 278:src/decn.c    **** 	enum rounding a = Ctx.round;
 2390              		.loc 1 278 32 view .LVU503
 2391 0014 92B0     		sub	sp, sp, #72
 2392              		.cfi_def_cfa_offset 88
 2393 0016 0446     		mov	r4, r0
 287:src/decn.c    **** 	decNumberToIntegralValue(&y, x, &Ctx);
 2394              		.loc 1 287 12 view .LVU504
 2395 0018 0523     		movs	r3, #5
 288:src/decn.c    **** 	Ctx.round = a;
 2396              		.loc 1 288 2 view .LVU505
 2397 001a 2A46     		mov	r2, r5
 2398 001c 2146     		mov	r1, r4
 2399 001e 09A8     		add	r0, sp, #36
 2400              	.LVL184:
 279:src/decn.c    **** 	decNumber r, y;
 2401              		.loc 1 279 16 view .LVU506
 2402 0020 2E7B     		ldrb	r6, [r5, #12]	@ zero_extendqisi2
 287:src/decn.c    **** 	decNumberToIntegralValue(&y, x, &Ctx);
ARM GAS  /tmp/ccBRULIx.s 			page 88


 2403              		.loc 1 287 2 is_stmt 1 view .LVU507
 287:src/decn.c    **** 	decNumberToIntegralValue(&y, x, &Ctx);
 2404              		.loc 1 287 12 is_stmt 0 view .LVU508
 2405 0022 2B73     		strb	r3, [r5, #12]
 2406              	.LVL185:
 288:src/decn.c    **** 	Ctx.round = a;
 2407              		.loc 1 288 2 is_stmt 1 view .LVU509
 2408 0024 FFF7FEFF 		bl	decNumberToIntegralValue
 2409              	.LVL186:
 289:src/decn.c    **** 
 2410              		.loc 1 289 2 view .LVU510
 2411              	.LBB1417:
 2412              	.LBB1418:
 122:src/decn.c    **** }
 2413              		.loc 1 122 9 is_stmt 0 view .LVU511
 2414 0028 2B46     		mov	r3, r5
 2415 002a 09AA     		add	r2, sp, #36
 2416 002c 2146     		mov	r1, r4
 2417 002e 6846     		mov	r0, sp
 2418              	.LBE1418:
 2419              	.LBE1417:
 289:src/decn.c    **** 
 2420              		.loc 1 289 12 view .LVU512
 2421 0030 2E73     		strb	r6, [r5, #12]
 291:src/decn.c    **** 	if (! dn_eq0(&r))
 2422              		.loc 1 291 2 is_stmt 1 view .LVU513
 2423              	.LVL187:
 2424              	.LBB1420:
 2425              	.LBI1417:
 121:src/decn.c    **** 	return decNumberSubtract(r, a, b, &Ctx);
 2426              		.loc 1 121 12 view .LVU514
 2427              	.LBB1419:
 122:src/decn.c    **** }
 2428              		.loc 1 122 2 view .LVU515
 122:src/decn.c    **** }
 2429              		.loc 1 122 9 is_stmt 0 view .LVU516
 2430 0032 FFF7FEFF 		bl	decNumberSubtract
 2431              	.LVL188:
 122:src/decn.c    **** }
 2432              		.loc 1 122 9 view .LVU517
 2433              	.LBE1419:
 2434              	.LBE1420:
 292:src/decn.c    **** 		return 0;
 2435              		.loc 1 292 2 is_stmt 1 view .LVU518
 2436              	.LBB1421:
 2437              	.LBI1421:
  72:src/decn.c    **** 	return decNumberIsZero(x);
 2438              		.loc 1 72 5 view .LVU519
 2439              	.LBB1422:
  73:src/decn.c    **** }
 2440              		.loc 1 73 2 view .LVU520
  73:src/decn.c    **** }
 2441              		.loc 1 73 9 is_stmt 0 view .LVU521
 2442 0036 BDF80A30 		ldrh	r3, [sp, #10]
 2443 003a 3BB9     		cbnz	r3, .L180
  73:src/decn.c    **** }
 2444              		.loc 1 73 9 view .LVU522
ARM GAS  /tmp/ccBRULIx.s 			page 89


 2445 003c 009B     		ldr	r3, [sp]
 2446 003e 012B     		cmp	r3, #1
 2447 0040 04D1     		bne	.L180
 2448 0042 9DF80830 		ldrb	r3, [sp, #8]	@ zero_extendqisi2
 2449 0046 13F0700F 		tst	r3, #112
 2450 004a 04D0     		beq	.L183
 2451              	.L180:
 2452              	.LVL189:
  73:src/decn.c    **** }
 2453              		.loc 1 73 9 view .LVU523
 2454              	.LBE1422:
 2455              	.LBE1421:
 293:src/decn.c    **** 	return 1;
 2456              		.loc 1 293 3 is_stmt 1 view .LVU524
 293:src/decn.c    **** 	return 1;
 2457              		.loc 1 293 10 is_stmt 0 view .LVU525
 2458 004c 0020     		movs	r0, #0
 295:src/decn.c    **** 
 2459              		.loc 1 295 1 view .LVU526
 2460 004e 12B0     		add	sp, sp, #72
 2461              		.cfi_def_cfa_offset 16
 2462              		@ sp needed
 2463 0050 70BD     		pop	{r4, r5, r6, pc}
 2464              	.LVL190:
 2465              	.L188:
 2466              		.cfi_def_cfa_offset 0
 2467              		.cfi_restore 4
 2468              		.cfi_restore 5
 2469              		.cfi_restore 6
 2470              		.cfi_restore 14
 293:src/decn.c    **** 	return 1;
 2471              		.loc 1 293 3 is_stmt 1 view .LVU527
 293:src/decn.c    **** 	return 1;
 2472              		.loc 1 293 10 is_stmt 0 view .LVU528
 2473 0052 0020     		movs	r0, #0
 2474              	.LVL191:
 295:src/decn.c    **** 
 2475              		.loc 1 295 1 view .LVU529
 2476 0054 7047     		bx	lr
 2477              	.LVL192:
 2478              	.L183:
 2479              		.cfi_def_cfa_offset 88
 2480              		.cfi_offset 4, -16
 2481              		.cfi_offset 5, -12
 2482              		.cfi_offset 6, -8
 2483              		.cfi_offset 14, -4
 285:src/decn.c    **** 
 2484              		.loc 1 285 10 view .LVU530
 2485 0056 0120     		movs	r0, #1
 295:src/decn.c    **** 
 2486              		.loc 1 295 1 view .LVU531
 2487 0058 12B0     		add	sp, sp, #72
 2488              		.cfi_def_cfa_offset 16
 2489              	.LVL193:
 295:src/decn.c    **** 
 2490              		.loc 1 295 1 view .LVU532
 2491              		@ sp needed
ARM GAS  /tmp/ccBRULIx.s 			page 90


 2492 005a 70BD     		pop	{r4, r5, r6, pc}
 2493              	.LVL194:
 2494              	.L193:
 295:src/decn.c    **** 
 2495              		.loc 1 295 1 view .LVU533
 2496              		.align	2
 2497              	.L192:
 2498 005c 00000000 		.word	Ctx
 2499              		.cfi_endproc
 2500              	.LFE31:
 2502              		.section	.text.dn_check_gcd,"ax",%progbits
 2503              		.align	1
 2504              		.p2align 2,,3
 2505              		.syntax unified
 2506              		.thumb
 2507              		.thumb_func
 2508              		.fpu fpv4-sp-d16
 2510              	dn_check_gcd:
 2511              	.LVL195:
 2512              	.LFB60:
 564:src/decn.c    **** 	if (decNumberIsSpecial(x) || decNumberIsSpecial(y)) {
 2513              		.loc 1 564 31 is_stmt 1 view -0
 2514              		.cfi_startproc
 2515              		@ args = 4, pretend = 0, frame = 0
 2516              		@ frame_needed = 0, uses_anonymous_args = 0
 565:src/decn.c    **** 		if (decNumberIsNaN(x) || decNumberIsNaN(y))
 2517              		.loc 1 565 2 view .LVU535
 564:src/decn.c    **** 	if (decNumberIsSpecial(x) || decNumberIsSpecial(y)) {
 2518              		.loc 1 564 31 is_stmt 0 view .LVU536
 2519 0000 2DE9F843 		push	{r3, r4, r5, r6, r7, r8, r9, lr}
 2520              		.cfi_def_cfa_offset 32
 2521              		.cfi_offset 3, -32
 2522              		.cfi_offset 4, -28
 2523              		.cfi_offset 5, -24
 2524              		.cfi_offset 6, -20
 2525              		.cfi_offset 7, -16
 2526              		.cfi_offset 8, -12
 2527              		.cfi_offset 9, -8
 2528              		.cfi_offset 14, -4
 565:src/decn.c    **** 		if (decNumberIsNaN(x) || decNumberIsNaN(y))
 2529              		.loc 1 565 6 view .LVU537
 2530 0004 0F7A     		ldrb	r7, [r1, #8]	@ zero_extendqisi2
 565:src/decn.c    **** 		if (decNumberIsNaN(x) || decNumberIsNaN(y))
 2531              		.loc 1 565 5 view .LVU538
 2532 0006 17F0700F 		tst	r7, #112
 564:src/decn.c    **** 	if (decNumberIsSpecial(x) || decNumberIsSpecial(y)) {
 2533              		.loc 1 564 31 view .LVU539
 2534 000a 0446     		mov	r4, r0
 2535 000c 9046     		mov	r8, r2
 565:src/decn.c    **** 		if (decNumberIsNaN(x) || decNumberIsNaN(y))
 2536              		.loc 1 565 5 view .LVU540
 2537 000e 03D1     		bne	.L195
 565:src/decn.c    **** 		if (decNumberIsNaN(x) || decNumberIsNaN(y))
 2538              		.loc 1 565 28 discriminator 1 view .LVU541
 2539 0010 107A     		ldrb	r0, [r2, #8]	@ zero_extendqisi2
 2540              	.LVL196:
 565:src/decn.c    **** 		if (decNumberIsNaN(x) || decNumberIsNaN(y))
ARM GAS  /tmp/ccBRULIx.s 			page 91


 2541              		.loc 1 565 28 discriminator 1 view .LVU542
 2542 0012 10F07005 		ands	r5, r0, #112
 2543 0016 19D0     		beq	.L196
 2544              	.L195:
 566:src/decn.c    **** 			set_NaN(r);
 2545              		.loc 1 566 3 is_stmt 1 view .LVU543
 566:src/decn.c    **** 			set_NaN(r);
 2546              		.loc 1 566 6 is_stmt 0 view .LVU544
 2547 0018 17F0300F 		tst	r7, #48
 2548 001c 07D0     		beq	.L207
 2549              	.LVL197:
 2550              	.L197:
 567:src/decn.c    **** 		else
 2551              		.loc 1 567 4 is_stmt 1 view .LVU545
 2552              	.LBB1439:
 2553              	.LBI1439:
 254:src/decn.c    **** 	if (x != NULL)
 2554              		.loc 1 254 12 view .LVU546
 2555              	.LBB1440:
 255:src/decn.c    **** 		decNumberCopy(x, &const_NaN);
 2556              		.loc 1 255 2 view .LVU547
 255:src/decn.c    **** 		decNumberCopy(x, &const_NaN);
 2557              		.loc 1 255 5 is_stmt 0 view .LVU548
 2558 001e 94B1     		cbz	r4, .L202
 256:src/decn.c    **** 	return x;
 2559              		.loc 1 256 3 is_stmt 1 view .LVU549
 2560 0020 1649     		ldr	r1, .L208
 2561 0022 2046     		mov	r0, r4
 2562 0024 FFF7FEFF 		bl	decNumberCopy
 2563              	.LVL198:
 2564              	.LBE1440:
 2565              	.LBE1439:
 577:src/decn.c    **** }
 2566              		.loc 1 577 9 is_stmt 0 view .LVU550
 2567 0028 0120     		movs	r0, #1
 2568              	.LVL199:
 2569              	.L194:
 578:src/decn.c    **** 
 2570              		.loc 1 578 1 view .LVU551
 2571 002a BDE8F883 		pop	{r3, r4, r5, r6, r7, r8, r9, pc}
 2572              	.LVL200:
 2573              	.L207:
 566:src/decn.c    **** 			set_NaN(r);
 2574              		.loc 1 566 25 discriminator 1 view .LVU552
 2575 002e 98F80830 		ldrb	r3, [r8, #8]	@ zero_extendqisi2
 2576              	.LVL201:
 566:src/decn.c    **** 			set_NaN(r);
 2577              		.loc 1 566 25 discriminator 1 view .LVU553
 2578 0032 13F0300F 		tst	r3, #48
 2579 0036 F2D1     		bne	.L197
 569:src/decn.c    **** 	} else if (!is_int(x) || !is_int(y))
 2580              		.loc 1 569 4 is_stmt 1 view .LVU554
 2581              	.LVL202:
 2582              	.LBB1441:
 2583              	.LBI1441:
 260:src/decn.c    **** 	return decNumberCopy(x, &const_inf);
 2584              		.loc 1 260 12 view .LVU555
ARM GAS  /tmp/ccBRULIx.s 			page 92


 2585              	.LBB1442:
 261:src/decn.c    **** }
 2586              		.loc 1 261 2 view .LVU556
 261:src/decn.c    **** }
 2587              		.loc 1 261 9 is_stmt 0 view .LVU557
 2588 0038 1149     		ldr	r1, .L208+4
 2589              	.LVL203:
 261:src/decn.c    **** }
 2590              		.loc 1 261 9 view .LVU558
 2591 003a 2046     		mov	r0, r4
 2592 003c FFF7FEFF 		bl	decNumberCopy
 2593              	.LVL204:
 261:src/decn.c    **** }
 2594              		.loc 1 261 9 view .LVU559
 2595              	.LBE1442:
 2596              	.LBE1441:
 577:src/decn.c    **** }
 2597              		.loc 1 577 9 view .LVU560
 2598 0040 0120     		movs	r0, #1
 578:src/decn.c    **** 
 2599              		.loc 1 578 1 view .LVU561
 2600 0042 BDE8F883 		pop	{r3, r4, r5, r6, r7, r8, r9, pc}
 2601              	.LVL205:
 2602              	.L202:
 577:src/decn.c    **** }
 2603              		.loc 1 577 9 view .LVU562
 2604 0046 0120     		movs	r0, #1
 2605              	.LVL206:
 578:src/decn.c    **** 
 2606              		.loc 1 578 1 view .LVU563
 2607 0048 BDE8F883 		pop	{r3, r4, r5, r6, r7, r8, r9, pc}
 2608              	.LVL207:
 2609              	.L196:
 2610              	.LBB1443:
 2611              	.LBB1444:
 570:src/decn.c    **** 		set_NaN(r);
 2612              		.loc 1 570 14 view .LVU564
 2613 004c 0846     		mov	r0, r1
 2614 004e 8946     		mov	r9, r1
 2615 0050 1E46     		mov	r6, r3
 2616              	.LVL208:
 570:src/decn.c    **** 		set_NaN(r);
 2617              		.loc 1 570 14 view .LVU565
 2618              	.LBE1444:
 2619              	.LBI1443:
 563:src/decn.c    **** 		decNumber *a, decNumber *b) {
 2620              		.loc 1 563 12 is_stmt 1 view .LVU566
 2621              	.LBB1449:
 570:src/decn.c    **** 		set_NaN(r);
 2622              		.loc 1 570 9 view .LVU567
 570:src/decn.c    **** 		set_NaN(r);
 2623              		.loc 1 570 14 is_stmt 0 view .LVU568
 2624 0052 FFF7FEFF 		bl	is_int
 2625              	.LVL209:
 570:src/decn.c    **** 		set_NaN(r);
 2626              		.loc 1 570 12 view .LVU569
 2627 0056 0028     		cmp	r0, #0
ARM GAS  /tmp/ccBRULIx.s 			page 93


 2628 0058 E1D0     		beq	.L197
 570:src/decn.c    **** 		set_NaN(r);
 2629              		.loc 1 570 28 view .LVU570
 2630 005a 4046     		mov	r0, r8
 2631 005c FFF7FEFF 		bl	is_int
 2632              	.LVL210:
 570:src/decn.c    **** 		set_NaN(r);
 2633              		.loc 1 570 24 view .LVU571
 2634 0060 0028     		cmp	r0, #0
 2635 0062 DCD0     		beq	.L197
 573:src/decn.c    **** 		dn_abs(b, y);
 2636              		.loc 1 573 3 is_stmt 1 view .LVU572
 2637              	.LVL211:
 2638              	.LBB1445:
 2639              	.LBI1445:
 145:src/decn.c    **** 	return decNumberAbs(r, a, &Ctx);
 2640              		.loc 1 145 12 view .LVU573
 2641              	.LBB1446:
 146:src/decn.c    **** }
 2642              		.loc 1 146 2 view .LVU574
 146:src/decn.c    **** }
 2643              		.loc 1 146 9 is_stmt 0 view .LVU575
 2644 0064 074A     		ldr	r2, .L208+8
 2645 0066 4946     		mov	r1, r9
 2646 0068 3046     		mov	r0, r6
 2647 006a FFF7FEFF 		bl	decNumberAbs
 2648              	.LVL212:
 146:src/decn.c    **** }
 2649              		.loc 1 146 9 view .LVU576
 2650              	.LBE1446:
 2651              	.LBE1445:
 574:src/decn.c    **** 		return 0;
 2652              		.loc 1 574 3 is_stmt 1 view .LVU577
 2653              	.LBB1447:
 2654              	.LBI1447:
 145:src/decn.c    **** 	return decNumberAbs(r, a, &Ctx);
 2655              		.loc 1 145 12 view .LVU578
 2656              	.LBB1448:
 146:src/decn.c    **** }
 2657              		.loc 1 146 2 view .LVU579
 146:src/decn.c    **** }
 2658              		.loc 1 146 9 is_stmt 0 view .LVU580
 2659 006e 054A     		ldr	r2, .L208+8
 2660 0070 0898     		ldr	r0, [sp, #32]
 2661 0072 4146     		mov	r1, r8
 2662 0074 FFF7FEFF 		bl	decNumberAbs
 2663              	.LVL213:
 146:src/decn.c    **** }
 2664              		.loc 1 146 9 view .LVU581
 2665              	.LBE1448:
 2666              	.LBE1447:
 575:src/decn.c    **** 	}
 2667              		.loc 1 575 3 is_stmt 1 view .LVU582
 575:src/decn.c    **** 	}
 2668              		.loc 1 575 10 is_stmt 0 view .LVU583
 2669 0078 2846     		mov	r0, r5
 2670 007a D6E7     		b	.L194
ARM GAS  /tmp/ccBRULIx.s 			page 94


 2671              	.L209:
 2672              		.align	2
 2673              	.L208:
 2674 007c 00000000 		.word	const_NaN
 2675 0080 00000000 		.word	const_inf
 2676 0084 00000000 		.word	Ctx
 2677              	.LBE1449:
 2678              	.LBE1443:
 2679              		.cfi_endproc
 2680              	.LFE60:
 2682              		.section	.text.dn_inc,"ax",%progbits
 2683              		.align	1
 2684              		.p2align 2,,3
 2685              		.global	dn_inc
 2686              		.syntax unified
 2687              		.thumb
 2688              		.thumb_func
 2689              		.fpu fpv4-sp-d16
 2691              	dn_inc:
 2692              	.LVL214:
 2693              	.LFB33:
 314:src/decn.c    **** 	return dn_add(x, x, &const_1);
 2694              		.loc 1 314 33 is_stmt 1 view -0
 2695              		.cfi_startproc
 2696              		@ args = 0, pretend = 0, frame = 0
 2697              		@ frame_needed = 0, uses_anonymous_args = 0
 2698              		@ link register save eliminated.
 315:src/decn.c    **** }
 2699              		.loc 1 315 2 view .LVU585
 2700              	.LBB1450:
 2701              	.LBB1451:
 118:src/decn.c    **** }
 2702              		.loc 1 118 9 is_stmt 0 view .LVU586
 2703 0000 024B     		ldr	r3, .L211
 2704 0002 034A     		ldr	r2, .L211+4
 2705              	.LBE1451:
 2706              	.LBE1450:
 314:src/decn.c    **** 	return dn_add(x, x, &const_1);
 2707              		.loc 1 314 33 view .LVU587
 2708 0004 0146     		mov	r1, r0
 2709              	.LVL215:
 2710              	.LBB1453:
 2711              	.LBI1450:
 117:src/decn.c    **** 	return decNumberAdd(r, a, b, &Ctx);
 2712              		.loc 1 117 12 is_stmt 1 view .LVU588
 2713              	.LBB1452:
 118:src/decn.c    **** }
 2714              		.loc 1 118 2 view .LVU589
 118:src/decn.c    **** }
 2715              		.loc 1 118 9 is_stmt 0 view .LVU590
 2716 0006 FFF7FEBF 		b	decNumberAdd
 2717              	.LVL216:
 2718              	.L212:
 118:src/decn.c    **** }
 2719              		.loc 1 118 9 view .LVU591
 2720 000a 00BF     		.align	2
 2721              	.L211:
ARM GAS  /tmp/ccBRULIx.s 			page 95


 2722 000c 00000000 		.word	Ctx
 2723 0010 00000000 		.word	const_1
 2724              	.LBE1452:
 2725              	.LBE1453:
 2726              		.cfi_endproc
 2727              	.LFE33:
 2729              		.section	.text.dn_dec,"ax",%progbits
 2730              		.align	1
 2731              		.p2align 2,,3
 2732              		.global	dn_dec
 2733              		.syntax unified
 2734              		.thumb
 2735              		.thumb_func
 2736              		.fpu fpv4-sp-d16
 2738              	dn_dec:
 2739              	.LVL217:
 2740              	.LFB34:
 318:src/decn.c    **** 	return dn_subtract(x, x, &const_1);
 2741              		.loc 1 318 33 is_stmt 1 view -0
 2742              		.cfi_startproc
 2743              		@ args = 0, pretend = 0, frame = 0
 2744              		@ frame_needed = 0, uses_anonymous_args = 0
 2745              		@ link register save eliminated.
 319:src/decn.c    **** }
 2746              		.loc 1 319 2 view .LVU593
 2747              	.LBB1454:
 2748              	.LBB1455:
 122:src/decn.c    **** }
 2749              		.loc 1 122 9 is_stmt 0 view .LVU594
 2750 0000 024B     		ldr	r3, .L214
 2751 0002 034A     		ldr	r2, .L214+4
 2752              	.LBE1455:
 2753              	.LBE1454:
 318:src/decn.c    **** 	return dn_subtract(x, x, &const_1);
 2754              		.loc 1 318 33 view .LVU595
 2755 0004 0146     		mov	r1, r0
 2756              	.LVL218:
 2757              	.LBB1457:
 2758              	.LBI1454:
 121:src/decn.c    **** 	return decNumberSubtract(r, a, b, &Ctx);
 2759              		.loc 1 121 12 is_stmt 1 view .LVU596
 2760              	.LBB1456:
 122:src/decn.c    **** }
 2761              		.loc 1 122 2 view .LVU597
 122:src/decn.c    **** }
 2762              		.loc 1 122 9 is_stmt 0 view .LVU598
 2763 0006 FFF7FEBF 		b	decNumberSubtract
 2764              	.LVL219:
 2765              	.L215:
 122:src/decn.c    **** }
 2766              		.loc 1 122 9 view .LVU599
 2767 000a 00BF     		.align	2
 2768              	.L214:
 2769 000c 00000000 		.word	Ctx
 2770 0010 00000000 		.word	const_1
 2771              	.LBE1456:
 2772              	.LBE1457:
ARM GAS  /tmp/ccBRULIx.s 			page 96


 2773              		.cfi_endproc
 2774              	.LFE34:
 2776              		.section	.text.dn_p1,"ax",%progbits
 2777              		.align	1
 2778              		.p2align 2,,3
 2779              		.global	dn_p1
 2780              		.syntax unified
 2781              		.thumb
 2782              		.thumb_func
 2783              		.fpu fpv4-sp-d16
 2785              	dn_p1:
 2786              	.LVL220:
 2787              	.LFB35:
 322:src/decn.c    **** 	return dn_add(r, x, &const_1);
 2788              		.loc 1 322 52 is_stmt 1 view -0
 2789              		.cfi_startproc
 2790              		@ args = 0, pretend = 0, frame = 0
 2791              		@ frame_needed = 0, uses_anonymous_args = 0
 2792              		@ link register save eliminated.
 323:src/decn.c    **** }
 2793              		.loc 1 323 2 view .LVU601
 2794              	.LBB1458:
 2795              	.LBI1458:
 117:src/decn.c    **** 	return decNumberAdd(r, a, b, &Ctx);
 2796              		.loc 1 117 12 view .LVU602
 2797              	.LBB1459:
 118:src/decn.c    **** }
 2798              		.loc 1 118 2 view .LVU603
 118:src/decn.c    **** }
 2799              		.loc 1 118 9 is_stmt 0 view .LVU604
 2800 0000 014B     		ldr	r3, .L217
 2801 0002 024A     		ldr	r2, .L217+4
 2802 0004 FFF7FEBF 		b	decNumberAdd
 2803              	.LVL221:
 2804              	.L218:
 118:src/decn.c    **** }
 2805              		.loc 1 118 9 view .LVU605
 2806              		.align	2
 2807              	.L217:
 2808 0008 00000000 		.word	Ctx
 2809 000c 00000000 		.word	const_1
 2810              	.LBE1459:
 2811              	.LBE1458:
 2812              		.cfi_endproc
 2813              	.LFE35:
 2815              		.section	.text.dn_m1,"ax",%progbits
 2816              		.align	1
 2817              		.p2align 2,,3
 2818              		.global	dn_m1
 2819              		.syntax unified
 2820              		.thumb
 2821              		.thumb_func
 2822              		.fpu fpv4-sp-d16
 2824              	dn_m1:
 2825              	.LVL222:
 2826              	.LFB36:
 326:src/decn.c    **** 	return dn_subtract(r, x, &const_1);
ARM GAS  /tmp/ccBRULIx.s 			page 97


 2827              		.loc 1 326 52 is_stmt 1 view -0
 2828              		.cfi_startproc
 2829              		@ args = 0, pretend = 0, frame = 0
 2830              		@ frame_needed = 0, uses_anonymous_args = 0
 2831              		@ link register save eliminated.
 327:src/decn.c    **** }
 2832              		.loc 1 327 2 view .LVU607
 2833              	.LBB1460:
 2834              	.LBI1460:
 121:src/decn.c    **** 	return decNumberSubtract(r, a, b, &Ctx);
 2835              		.loc 1 121 12 view .LVU608
 2836              	.LBB1461:
 122:src/decn.c    **** }
 2837              		.loc 1 122 2 view .LVU609
 122:src/decn.c    **** }
 2838              		.loc 1 122 9 is_stmt 0 view .LVU610
 2839 0000 014B     		ldr	r3, .L220
 2840 0002 024A     		ldr	r2, .L220+4
 2841 0004 FFF7FEBF 		b	decNumberSubtract
 2842              	.LVL223:
 2843              	.L221:
 122:src/decn.c    **** }
 2844              		.loc 1 122 9 view .LVU611
 2845              		.align	2
 2846              	.L220:
 2847 0008 00000000 		.word	Ctx
 2848 000c 00000000 		.word	const_1
 2849              	.LBE1461:
 2850              	.LBE1460:
 2851              		.cfi_endproc
 2852              	.LFE36:
 2854              		.section	.text.dn_1m,"ax",%progbits
 2855              		.align	1
 2856              		.p2align 2,,3
 2857              		.global	dn_1m
 2858              		.syntax unified
 2859              		.thumb
 2860              		.thumb_func
 2861              		.fpu fpv4-sp-d16
 2863              	dn_1m:
 2864              	.LVL224:
 2865              	.LFB37:
 330:src/decn.c    **** 	return dn_subtract(r, &const_1, x);
 2866              		.loc 1 330 52 is_stmt 1 view -0
 2867              		.cfi_startproc
 2868              		@ args = 0, pretend = 0, frame = 0
 2869              		@ frame_needed = 0, uses_anonymous_args = 0
 2870              		@ link register save eliminated.
 331:src/decn.c    **** }
 2871              		.loc 1 331 2 view .LVU613
 330:src/decn.c    **** 	return dn_subtract(r, &const_1, x);
 2872              		.loc 1 330 52 is_stmt 0 view .LVU614
 2873 0000 0A46     		mov	r2, r1
 2874              	.LVL225:
 2875              	.LBB1462:
 2876              	.LBI1462:
 121:src/decn.c    **** 	return decNumberSubtract(r, a, b, &Ctx);
ARM GAS  /tmp/ccBRULIx.s 			page 98


 2877              		.loc 1 121 12 is_stmt 1 view .LVU615
 2878              	.LBB1463:
 122:src/decn.c    **** }
 2879              		.loc 1 122 2 view .LVU616
 122:src/decn.c    **** }
 2880              		.loc 1 122 9 is_stmt 0 view .LVU617
 2881 0002 024B     		ldr	r3, .L223
 2882 0004 0249     		ldr	r1, .L223+4
 2883              	.LVL226:
 122:src/decn.c    **** }
 2884              		.loc 1 122 9 view .LVU618
 2885 0006 FFF7FEBF 		b	decNumberSubtract
 2886              	.LVL227:
 2887              	.L224:
 122:src/decn.c    **** }
 2888              		.loc 1 122 9 view .LVU619
 2889 000a 00BF     		.align	2
 2890              	.L223:
 2891 000c 00000000 		.word	Ctx
 2892 0010 00000000 		.word	const_1
 2893              	.LBE1463:
 2894              	.LBE1462:
 2895              		.cfi_endproc
 2896              	.LFE37:
 2898              		.section	.text.dn_1,"ax",%progbits
 2899              		.align	1
 2900              		.p2align 2,,3
 2901              		.global	dn_1
 2902              		.syntax unified
 2903              		.thumb
 2904              		.thumb_func
 2905              		.fpu fpv4-sp-d16
 2907              	dn_1:
 2908              	.LVL228:
 2909              	.LFB38:
 334:src/decn.c    **** 	return decNumberCopy(r, &const_1);
 2910              		.loc 1 334 31 is_stmt 1 view -0
 2911              		.cfi_startproc
 2912              		@ args = 0, pretend = 0, frame = 0
 2913              		@ frame_needed = 0, uses_anonymous_args = 0
 2914              		@ link register save eliminated.
 335:src/decn.c    **** }
 2915              		.loc 1 335 2 view .LVU621
 335:src/decn.c    **** }
 2916              		.loc 1 335 9 is_stmt 0 view .LVU622
 2917 0000 0149     		ldr	r1, .L226
 2918 0002 FFF7FEBF 		b	decNumberCopy
 2919              	.LVL229:
 2920              	.L227:
 335:src/decn.c    **** }
 2921              		.loc 1 335 9 view .LVU623
 2922 0006 00BF     		.align	2
 2923              	.L226:
 2924 0008 00000000 		.word	const_1
 2925              		.cfi_endproc
 2926              	.LFE38:
 2928              		.section	.text.dn__1,"ax",%progbits
ARM GAS  /tmp/ccBRULIx.s 			page 99


 2929              		.align	1
 2930              		.p2align 2,,3
 2931              		.global	dn__1
 2932              		.syntax unified
 2933              		.thumb
 2934              		.thumb_func
 2935              		.fpu fpv4-sp-d16
 2937              	dn__1:
 2938              	.LVL230:
 2939              	.LFB39:
 338:src/decn.c    **** 	return decNumberCopy(r, &const__1);
 2940              		.loc 1 338 32 is_stmt 1 view -0
 2941              		.cfi_startproc
 2942              		@ args = 0, pretend = 0, frame = 0
 2943              		@ frame_needed = 0, uses_anonymous_args = 0
 2944              		@ link register save eliminated.
 339:src/decn.c    **** }
 2945              		.loc 1 339 2 view .LVU625
 339:src/decn.c    **** }
 2946              		.loc 1 339 9 is_stmt 0 view .LVU626
 2947 0000 0149     		ldr	r1, .L229
 2948 0002 FFF7FEBF 		b	decNumberCopy
 2949              	.LVL231:
 2950              	.L230:
 339:src/decn.c    **** }
 2951              		.loc 1 339 9 view .LVU627
 2952 0006 00BF     		.align	2
 2953              	.L229:
 2954 0008 00000000 		.word	const__1
 2955              		.cfi_endproc
 2956              	.LFE39:
 2958              		.section	.text.dn_p2,"ax",%progbits
 2959              		.align	1
 2960              		.p2align 2,,3
 2961              		.global	dn_p2
 2962              		.syntax unified
 2963              		.thumb
 2964              		.thumb_func
 2965              		.fpu fpv4-sp-d16
 2967              	dn_p2:
 2968              	.LVL232:
 2969              	.LFB40:
 342:src/decn.c    **** 	return dn_add(r, x, &const_2);
 2970              		.loc 1 342 52 is_stmt 1 view -0
 2971              		.cfi_startproc
 2972              		@ args = 0, pretend = 0, frame = 0
 2973              		@ frame_needed = 0, uses_anonymous_args = 0
 2974              		@ link register save eliminated.
 343:src/decn.c    **** }
 2975              		.loc 1 343 2 view .LVU629
 2976              	.LBB1464:
 2977              	.LBI1464:
 117:src/decn.c    **** 	return decNumberAdd(r, a, b, &Ctx);
 2978              		.loc 1 117 12 view .LVU630
 2979              	.LBB1465:
 118:src/decn.c    **** }
 2980              		.loc 1 118 2 view .LVU631
ARM GAS  /tmp/ccBRULIx.s 			page 100


 118:src/decn.c    **** }
 2981              		.loc 1 118 9 is_stmt 0 view .LVU632
 2982 0000 014B     		ldr	r3, .L232
 2983 0002 024A     		ldr	r2, .L232+4
 2984 0004 FFF7FEBF 		b	decNumberAdd
 2985              	.LVL233:
 2986              	.L233:
 118:src/decn.c    **** }
 2987              		.loc 1 118 9 view .LVU633
 2988              		.align	2
 2989              	.L232:
 2990 0008 00000000 		.word	Ctx
 2991 000c 00000000 		.word	const_2
 2992              	.LBE1465:
 2993              	.LBE1464:
 2994              		.cfi_endproc
 2995              	.LFE40:
 2997              		.section	.text.dn_mul2,"ax",%progbits
 2998              		.align	1
 2999              		.p2align 2,,3
 3000              		.global	dn_mul2
 3001              		.syntax unified
 3002              		.thumb
 3003              		.thumb_func
 3004              		.fpu fpv4-sp-d16
 3006              	dn_mul2:
 3007              	.LVL234:
 3008              	.LFB41:
 346:src/decn.c    **** 	return dn_multiply(r, x, &const_2);
 3009              		.loc 1 346 54 is_stmt 1 view -0
 3010              		.cfi_startproc
 3011              		@ args = 0, pretend = 0, frame = 0
 3012              		@ frame_needed = 0, uses_anonymous_args = 0
 3013              		@ link register save eliminated.
 347:src/decn.c    **** }
 3014              		.loc 1 347 2 view .LVU635
 3015              	.LBB1466:
 3016              	.LBI1466:
 125:src/decn.c    **** 	return decNumberMultiply(r, a, b, &Ctx);
 3017              		.loc 1 125 12 view .LVU636
 3018              	.LBB1467:
 126:src/decn.c    **** }
 3019              		.loc 1 126 2 view .LVU637
 126:src/decn.c    **** }
 3020              		.loc 1 126 9 is_stmt 0 view .LVU638
 3021 0000 014B     		ldr	r3, .L235
 3022 0002 024A     		ldr	r2, .L235+4
 3023 0004 FFF7FEBF 		b	decNumberMultiply
 3024              	.LVL235:
 3025              	.L236:
 126:src/decn.c    **** }
 3026              		.loc 1 126 9 view .LVU639
 3027              		.align	2
 3028              	.L235:
 3029 0008 00000000 		.word	Ctx
 3030 000c 00000000 		.word	const_2
 3031              	.LBE1467:
ARM GAS  /tmp/ccBRULIx.s 			page 101


 3032              	.LBE1466:
 3033              		.cfi_endproc
 3034              	.LFE41:
 3036              		.section	.text.dn_div2,"ax",%progbits
 3037              		.align	1
 3038              		.p2align 2,,3
 3039              		.global	dn_div2
 3040              		.syntax unified
 3041              		.thumb
 3042              		.thumb_func
 3043              		.fpu fpv4-sp-d16
 3045              	dn_div2:
 3046              	.LVL236:
 3047              	.LFB42:
 350:src/decn.c    **** 	return dn_multiply(r, x, &const_0_5);
 3048              		.loc 1 350 54 is_stmt 1 view -0
 3049              		.cfi_startproc
 3050              		@ args = 0, pretend = 0, frame = 0
 3051              		@ frame_needed = 0, uses_anonymous_args = 0
 3052              		@ link register save eliminated.
 351:src/decn.c    **** }
 3053              		.loc 1 351 2 view .LVU641
 3054              	.LBB1468:
 3055              	.LBI1468:
 125:src/decn.c    **** 	return decNumberMultiply(r, a, b, &Ctx);
 3056              		.loc 1 125 12 view .LVU642
 3057              	.LBB1469:
 126:src/decn.c    **** }
 3058              		.loc 1 126 2 view .LVU643
 126:src/decn.c    **** }
 3059              		.loc 1 126 9 is_stmt 0 view .LVU644
 3060 0000 014B     		ldr	r3, .L238
 3061 0002 024A     		ldr	r2, .L238+4
 3062 0004 FFF7FEBF 		b	decNumberMultiply
 3063              	.LVL237:
 3064              	.L239:
 126:src/decn.c    **** }
 3065              		.loc 1 126 9 view .LVU645
 3066              		.align	2
 3067              	.L238:
 3068 0008 00000000 		.word	Ctx
 3069 000c 00000000 		.word	const_0_5
 3070              	.LBE1469:
 3071              	.LBE1468:
 3072              		.cfi_endproc
 3073              	.LFE42:
 3075              		.section	.text.dn_mul100,"ax",%progbits
 3076              		.align	1
 3077              		.p2align 2,,3
 3078              		.global	dn_mul100
 3079              		.syntax unified
 3080              		.thumb
 3081              		.thumb_func
 3082              		.fpu fpv4-sp-d16
 3084              	dn_mul100:
 3085              	.LVL238:
 3086              	.LFB43:
ARM GAS  /tmp/ccBRULIx.s 			page 102


 354:src/decn.c    **** 	return dn_mulpow10(r, x, 2);
 3087              		.loc 1 354 56 is_stmt 1 view -0
 3088              		.cfi_startproc
 3089              		@ args = 0, pretend = 0, frame = 0
 3090              		@ frame_needed = 0, uses_anonymous_args = 0
 354:src/decn.c    **** 	return dn_mulpow10(r, x, 2);
 3091              		.loc 1 354 56 is_stmt 0 view .LVU647
 3092 0000 10B5     		push	{r4, lr}
 3093              		.cfi_def_cfa_offset 8
 3094              		.cfi_offset 4, -8
 3095              		.cfi_offset 14, -4
 354:src/decn.c    **** 	return dn_mulpow10(r, x, 2);
 3096              		.loc 1 354 56 view .LVU648
 3097 0002 0446     		mov	r4, r0
 355:src/decn.c    **** }
 3098              		.loc 1 355 2 is_stmt 1 view .LVU649
 3099              	.LVL239:
 3100              	.LBB1470:
 3101              	.LBI1470:
 362:src/decn.c    **** 	decNumberCopy(r, x);
 3102              		.loc 1 362 12 view .LVU650
 3103              	.LBB1471:
 363:src/decn.c    **** 	r->exponent += p;
 3104              		.loc 1 363 2 view .LVU651
 3105 0004 FFF7FEFF 		bl	decNumberCopy
 3106              	.LVL240:
 364:src/decn.c    **** 	return r;
 3107              		.loc 1 364 2 view .LVU652
 364:src/decn.c    **** 	return r;
 3108              		.loc 1 364 14 is_stmt 0 view .LVU653
 3109 0008 6368     		ldr	r3, [r4, #4]
 3110 000a 0233     		adds	r3, r3, #2
 3111 000c 6360     		str	r3, [r4, #4]
 365:src/decn.c    **** }
 3112              		.loc 1 365 2 is_stmt 1 view .LVU654
 3113              	.LVL241:
 365:src/decn.c    **** }
 3114              		.loc 1 365 2 is_stmt 0 view .LVU655
 3115              	.LBE1471:
 3116              	.LBE1470:
 356:src/decn.c    **** 
 3117              		.loc 1 356 1 view .LVU656
 3118 000e 2046     		mov	r0, r4
 3119 0010 10BD     		pop	{r4, pc}
 356:src/decn.c    **** 
 3120              		.loc 1 356 1 view .LVU657
 3121              		.cfi_endproc
 3122              	.LFE43:
 3124 0012 00BF     		.section	.text.dn_mulPI,"ax",%progbits
 3125              		.align	1
 3126              		.p2align 2,,3
 3127              		.global	dn_mulPI
 3128              		.syntax unified
 3129              		.thumb
 3130              		.thumb_func
 3131              		.fpu fpv4-sp-d16
 3133              	dn_mulPI:
ARM GAS  /tmp/ccBRULIx.s 			page 103


 3134              	.LVL242:
 3135              	.LFB44:
 358:src/decn.c    **** 	return dn_multiply(r, x, &const_PI);
 3136              		.loc 1 358 55 is_stmt 1 view -0
 3137              		.cfi_startproc
 3138              		@ args = 0, pretend = 0, frame = 0
 3139              		@ frame_needed = 0, uses_anonymous_args = 0
 3140              		@ link register save eliminated.
 359:src/decn.c    **** }
 3141              		.loc 1 359 2 view .LVU659
 3142              	.LBB1472:
 3143              	.LBI1472:
 125:src/decn.c    **** 	return decNumberMultiply(r, a, b, &Ctx);
 3144              		.loc 1 125 12 view .LVU660
 3145              	.LBB1473:
 126:src/decn.c    **** }
 3146              		.loc 1 126 2 view .LVU661
 126:src/decn.c    **** }
 3147              		.loc 1 126 9 is_stmt 0 view .LVU662
 3148 0000 014B     		ldr	r3, .L243
 3149 0002 024A     		ldr	r2, .L243+4
 3150 0004 FFF7FEBF 		b	decNumberMultiply
 3151              	.LVL243:
 3152              	.L244:
 126:src/decn.c    **** }
 3153              		.loc 1 126 9 view .LVU663
 3154              		.align	2
 3155              	.L243:
 3156 0008 00000000 		.word	Ctx
 3157 000c 00000000 		.word	const_PI
 3158              	.LBE1473:
 3159              	.LBE1472:
 3160              		.cfi_endproc
 3161              	.LFE44:
 3163              		.section	.text.dn_mulpow10,"ax",%progbits
 3164              		.align	1
 3165              		.p2align 2,,3
 3166              		.global	dn_mulpow10
 3167              		.syntax unified
 3168              		.thumb
 3169              		.thumb_func
 3170              		.fpu fpv4-sp-d16
 3172              	dn_mulpow10:
 3173              	.LVL244:
 3174              	.LFB45:
 362:src/decn.c    **** 	decNumberCopy(r, x);
 3175              		.loc 1 362 65 is_stmt 1 view -0
 3176              		.cfi_startproc
 3177              		@ args = 0, pretend = 0, frame = 0
 3178              		@ frame_needed = 0, uses_anonymous_args = 0
 363:src/decn.c    **** 	r->exponent += p;
 3179              		.loc 1 363 2 view .LVU665
 362:src/decn.c    **** 	decNumberCopy(r, x);
 3180              		.loc 1 362 65 is_stmt 0 view .LVU666
 3181 0000 38B5     		push	{r3, r4, r5, lr}
 3182              		.cfi_def_cfa_offset 16
 3183              		.cfi_offset 3, -16
ARM GAS  /tmp/ccBRULIx.s 			page 104


 3184              		.cfi_offset 4, -12
 3185              		.cfi_offset 5, -8
 3186              		.cfi_offset 14, -4
 362:src/decn.c    **** 	decNumberCopy(r, x);
 3187              		.loc 1 362 65 view .LVU667
 3188 0002 0446     		mov	r4, r0
 3189 0004 1546     		mov	r5, r2
 363:src/decn.c    **** 	r->exponent += p;
 3190              		.loc 1 363 2 view .LVU668
 3191 0006 FFF7FEFF 		bl	decNumberCopy
 3192              	.LVL245:
 364:src/decn.c    **** 	return r;
 3193              		.loc 1 364 2 is_stmt 1 view .LVU669
 364:src/decn.c    **** 	return r;
 3194              		.loc 1 364 14 is_stmt 0 view .LVU670
 3195 000a 6368     		ldr	r3, [r4, #4]
 3196 000c 2B44     		add	r3, r3, r5
 3197 000e 6360     		str	r3, [r4, #4]
 365:src/decn.c    **** }
 3198              		.loc 1 365 2 is_stmt 1 view .LVU671
 366:src/decn.c    **** 
 3199              		.loc 1 366 1 is_stmt 0 view .LVU672
 3200 0010 2046     		mov	r0, r4
 3201 0012 38BD     		pop	{r3, r4, r5, pc}
 366:src/decn.c    **** 
 3202              		.loc 1 366 1 view .LVU673
 3203              		.cfi_endproc
 3204              	.LFE45:
 3206              		.section	.text.decNumberMantissa,"ax",%progbits
 3207              		.align	1
 3208              		.p2align 2,,3
 3209              		.global	decNumberMantissa
 3210              		.syntax unified
 3211              		.thumb
 3212              		.thumb_func
 3213              		.fpu fpv4-sp-d16
 3215              	decNumberMantissa:
 3216              	.LVL246:
 3217              	.LFB46:
 371:src/decn.c    **** 	if (decNumberIsSpecial(x))
 3218              		.loc 1 371 64 is_stmt 1 view -0
 3219              		.cfi_startproc
 3220              		@ args = 0, pretend = 0, frame = 0
 3221              		@ frame_needed = 0, uses_anonymous_args = 0
 372:src/decn.c    **** 		return set_NaN(r);
 3222              		.loc 1 372 2 view .LVU675
 371:src/decn.c    **** 	if (decNumberIsSpecial(x))
 3223              		.loc 1 371 64 is_stmt 0 view .LVU676
 3224 0000 10B5     		push	{r4, lr}
 3225              		.cfi_def_cfa_offset 8
 3226              		.cfi_offset 4, -8
 3227              		.cfi_offset 14, -4
 372:src/decn.c    **** 		return set_NaN(r);
 3228              		.loc 1 372 5 view .LVU677
 3229 0002 0A7A     		ldrb	r2, [r1, #8]	@ zero_extendqisi2
 3230 0004 12F0700F 		tst	r2, #112
 371:src/decn.c    **** 	if (decNumberIsSpecial(x))
ARM GAS  /tmp/ccBRULIx.s 			page 105


 3231              		.loc 1 371 64 view .LVU678
 3232 0008 0446     		mov	r4, r0
 372:src/decn.c    **** 		return set_NaN(r);
 3233              		.loc 1 372 5 view .LVU679
 3234 000a 13D1     		bne	.L255
 374:src/decn.c    **** 		return decNumberCopy(r, x);
 3235              		.loc 1 374 2 is_stmt 1 view .LVU680
 3236              	.LVL247:
 3237              	.LBB1474:
 3238              	.LBI1474:
  72:src/decn.c    **** 	return decNumberIsZero(x);
 3239              		.loc 1 72 5 view .LVU681
 3240              	.LBB1475:
  73:src/decn.c    **** }
 3241              		.loc 1 73 2 view .LVU682
  73:src/decn.c    **** }
 3242              		.loc 1 73 9 is_stmt 0 view .LVU683
 3243 000c 4A89     		ldrh	r2, [r1, #10]
 3244 000e 0B46     		mov	r3, r1
 3245 0010 4AB1     		cbz	r2, .L256
 3246              	.L250:
 3247              	.LVL248:
  73:src/decn.c    **** }
 3248              		.loc 1 73 9 view .LVU684
 3249              	.LBE1475:
 3250              	.LBE1474:
 376:src/decn.c    **** 	r->exponent = 1 - r->digits;
 3251              		.loc 1 376 2 is_stmt 1 view .LVU685
 3252 0012 1946     		mov	r1, r3
 3253              	.LVL249:
 376:src/decn.c    **** 	r->exponent = 1 - r->digits;
 3254              		.loc 1 376 2 is_stmt 0 view .LVU686
 3255 0014 2046     		mov	r0, r4
 3256              	.LVL250:
 376:src/decn.c    **** 	r->exponent = 1 - r->digits;
 3257              		.loc 1 376 2 view .LVU687
 3258 0016 FFF7FEFF 		bl	decNumberCopy
 3259              	.LVL251:
 377:src/decn.c    **** 	return r;
 3260              		.loc 1 377 2 is_stmt 1 view .LVU688
 377:src/decn.c    **** 	return r;
 3261              		.loc 1 377 18 is_stmt 0 view .LVU689
 3262 001a 2368     		ldr	r3, [r4]
 3263 001c C3F10103 		rsb	r3, r3, #1
 377:src/decn.c    **** 	return r;
 3264              		.loc 1 377 14 view .LVU690
 3265 0020 6360     		str	r3, [r4, #4]
 378:src/decn.c    **** }
 3266              		.loc 1 378 2 is_stmt 1 view .LVU691
 3267              	.L249:
 379:src/decn.c    **** 
 3268              		.loc 1 379 1 is_stmt 0 view .LVU692
 3269 0022 2046     		mov	r0, r4
 3270 0024 10BD     		pop	{r4, pc}
 3271              	.LVL252:
 3272              	.L256:
 3273              	.LBB1477:
ARM GAS  /tmp/ccBRULIx.s 			page 106


 3274              	.LBB1476:
  73:src/decn.c    **** }
 3275              		.loc 1 73 9 view .LVU693
 3276 0026 0A68     		ldr	r2, [r1]
