ARM GAS  /tmp/cc9o0abE.s 			page 1


   1              		.arch armv7e-m
   2              		.eabi_attribute 27, 1
   3              		.eabi_attribute 28, 1
   4              		.eabi_attribute 20, 1
   5              		.eabi_attribute 21, 1
   6              		.eabi_attribute 23, 3
   7              		.eabi_attribute 24, 1
   8              		.eabi_attribute 25, 1
   9              		.eabi_attribute 26, 1
  10              		.eabi_attribute 30, 2
  11              		.eabi_attribute 34, 1
  12              		.eabi_attribute 18, 4
  13              		.file	"display.c"
  14              		.text
  15              	.Ltext0:
  16              		.cfi_sections	.debug_frame
  17              		.section	.text.set_separator_decimal_modes,"ax",%progbits
  18              		.align	1
  19              		.p2align 2,,3
  20              		.arch armv7e-m
  21              		.syntax unified
  22              		.thumb
  23              		.thumb_func
  24              		.fpu fpv4-sp-d16
  26              	set_separator_decimal_modes:
  27              	.LFB0:
  28              		.file 1 "src/display.c"
   1:src/display.c **** /* This file is part of 34S.
   2:src/display.c ****  * 
   3:src/display.c ****  * 34S is free software: you can redistribute it and/or modify
   4:src/display.c ****  * it under the terms of the GNU General Public License as published by
   5:src/display.c ****  * the Free Software Foundation, either version 3 of the License, or
   6:src/display.c ****  * (at your option) any later version.
   7:src/display.c ****  * 
   8:src/display.c ****  * 34S is distributed in the hope that it will be useful,
   9:src/display.c ****  * but WITHOUT ANY WARRANTY; without even the implied warranty of
  10:src/display.c ****  * MERCHANTABILITY or FITNESS FOR A PARTICULAR PURPOSE.  See the
  11:src/display.c ****  * GNU General Public License for more details.
  12:src/display.c ****  * 
  13:src/display.c ****  * You should have received a copy of the GNU General Public License
  14:src/display.c ****  * along with 34S.  If not, see <http://www.gnu.org/licenses/>.
  15:src/display.c ****  */
  16:src/display.c **** 
  17:src/display.c **** #include "features.h"
  18:src/display.c **** #include "xeq.h" 
  19:src/display.c **** #include "storage.h"
  20:src/display.c **** #include "display.h"
  21:src/display.c **** #include "lcd.h"
  22:src/display.c **** #include "int.h"
  23:src/display.c **** #include "consts.h"
  24:src/display.c **** #include "alpha.h"
  25:src/display.c **** #include "stats.h"
  26:src/display.c **** #include "decn.h"
  27:src/display.c **** #include "revision.h"
  28:src/display.c **** #ifdef INFRARED
  29:src/display.c **** #include "printer.h"
  30:src/display.c **** #endif
ARM GAS  /tmp/cc9o0abE.s 			page 2


  31:src/display.c **** #ifndef DM42
  32:src/display.c **** #include "serial.h"
  33:src/display.c **** #endif
  34:src/display.c **** 
  35:src/display.c **** static enum separator_modes { SEP_NONE, SEP_COMMA, SEP_DOT } SeparatorMode;
  36:src/display.c **** static enum decimal_modes { DECIMAL_DOT, DECIMAL_COMMA } DecimalMode;
  37:src/display.c **** 
  38:src/display.c **** static void set_status_sized(const char *, int);
  39:src/display.c **** static void set_status_sized_top(const char *, int);
  40:src/display.c **** static void s_s_sized(const char *str, int smallp, int b_w, int m_b, int m_d);
  41:src/display.c **** 
  42:src/display.c **** static void set_status(const char *);
  43:src/display.c **** static void set_status_top(const char *);
  44:src/display.c **** #ifdef TOP_ROW
  45:src/display.c **** static void set_status_top_always(const char *);
  46:src/display.c **** #endif
  47:src/display.c **** 
  48:src/display.c **** static void set_status_right(const char *);
  49:src/display.c **** static void set_status_graphic(const unsigned char *);
  50:src/display.c **** 
  51:src/display.c **** static void set_int_x(const long long int value, char *res);
  52:src/display.c **** 
  53:src/display.c **** const char *DispMsg; // What to display in message area
  54:src/display.c **** 
  55:src/display.c **** short int DispPlot;
  56:src/display.c **** short int no_status_top = 0;
  57:src/display.c **** 
  58:src/display.c **** #if !defined(REALBUILD) && !defined(DM42) 
  59:src/display.c **** char LastDisplayedText[NUMALPHA + 1];	   // For clipboard export
  60:src/display.c **** char LastDisplayedNumber[NUMBER_LENGTH + 1];
  61:src/display.c **** char LastDisplayedExponent[EXPONENT_LENGTH + 1];
  62:src/display.c **** char forceDispPlot;
  63:src/display.c **** #endif
  64:src/display.c **** 
  65:src/display.c **** FLAG ShowRPN;		   // controls visibility of RPN annunciator
  66:src/display.c **** FLAG JustDisplayed;	   // Avoid duplicate calls to display()
  67:src/display.c **** SMALL_INT IntMaxWindow;    // Number of windows for integer display
  68:src/display.c **** FLAG IoAnnunciator;	   // Status of the little "=" sign
  69:src/display.c **** 
  70:src/display.c **** /* Message strings
  71:src/display.c ****  * Strings starting S7_ are for the lower 7 segment line.  Strings starting S_
  72:src/display.c ****  * are for the upper dot matrix line.
  73:src/display.c ****  */
  74:src/display.c **** static const char S_SURE[] = "Sure?";
  75:src/display.c **** 
  76:src/display.c **** static const char S7_ERROR[] = "Error";		/* Default lower line error display */
  77:src/display.c **** static const char S7_NaN[] = "not nuMmEric";	/* Displaying NaN in lower line */
  78:src/display.c **** #if !defined(REALBUILD) && !defined(DM42)
  79:src/display.c **** static const char S7_NaN_Text[] = " N o t   n u m e r i c ";
  80:src/display.c **** #endif
  81:src/display.c **** static const char S7_INF[] = "Infinity";	/* Displaying infinity in lower line */
  82:src/display.c **** #if !defined(REALBUILD) && !defined(DM42)
  83:src/display.c **** static const char S7_INF_Text[] = " I n f i n i t y ";
  84:src/display.c **** static const char S7_NEG_INF_Text[] = "-I n f i n i t y ";
  85:src/display.c **** #endif
  86:src/display.c **** 
  87:src/display.c **** static const char S7_STEP[] = "StEP ";		/* Step marker in program mode (lower line) */
ARM GAS  /tmp/cc9o0abE.s 			page 3


  88:src/display.c **** #if !defined(REALBUILD) && !defined(DM42)
  89:src/display.c **** static const char S7_STEP_ShortText[] = "STEP";
  90:src/display.c **** #endif
  91:src/display.c **** 
  92:src/display.c **** static const char S7_fract_EQ[] = " = ";	/* Exponent in fraction mode indicates low, equal or high 
  93:src/display.c **** static const char S7_fract_LT[] = " Lt";
  94:src/display.c **** static const char S7_fract_GT[] = " Gt";
  95:src/display.c **** 
  96:src/display.c **** static const char libname[][5] = {
  97:src/display.c ****   "rAMm", "Lib ", "Bup ",
  98:src/display.c **** #ifndef REALBUILD
  99:src/display.c ****   "roMm"
 100:src/display.c **** #endif
 101:src/display.c **** };
 102:src/display.c **** 
 103:src/display.c **** #if !defined(REALBUILD) && !defined(DM42)
 104:src/display.c **** static const char libname_text[][10] = {
 105:src/display.c ****   " R a m ", " L i b ", " B u p ",	" R o m "
 106:src/display.c **** };
 107:src/display.c **** static const char libname_shorttext[][5] = {
 108:src/display.c ****   "Ram", "Lib", "Bup", "Rom"
 109:src/display.c **** };
 110:src/display.c **** #endif
 111:src/display.c **** 
 112:src/display.c **** 
 113:src/display.c **** /* Set the separator and decimal mode globals
 114:src/display.c ****  */
 115:src/display.c **** static void set_separator_decimal_modes(void) {
  29              		.loc 1 115 47 view -0
  30              		.cfi_startproc
  31              		@ args = 0, pretend = 0, frame = 0
  32              		@ frame_needed = 0, uses_anonymous_args = 0
  33              		@ link register save eliminated.
 116:src/display.c ****   // Separators used by various modes
 117:src/display.c ****   if (UState.fraccomma) {
  34              		.loc 1 117 3 view .LVU1
  35              		.loc 1 117 7 is_stmt 0 view .LVU2
  36 0000 114B     		ldr	r3, .L14
 118:src/display.c ****     SeparatorMode = SEP_DOT;
  37              		.loc 1 118 19 view .LVU3
  38 0002 1249     		ldr	r1, .L14+4
 117:src/display.c ****     SeparatorMode = SEP_DOT;
  39              		.loc 1 117 7 view .LVU4
  40 0004 1A68     		ldr	r2, [r3]
  41 0006 92F8E73F 		ldrb	r3, [r2, #4071]	@ zero_extendqisi2
 117:src/display.c ****     SeparatorMode = SEP_DOT;
  42              		.loc 1 117 6 view .LVU5
  43 000a 13F02000 		ands	r0, r3, #32
 115:src/display.c ****   // Separators used by various modes
  44              		.loc 1 115 47 view .LVU6
  45 000e 30B4     		push	{r4, r5}
  46              		.cfi_def_cfa_offset 8
  47              		.cfi_offset 4, -8
  48              		.cfi_offset 5, -4
 117:src/display.c ****     SeparatorMode = SEP_DOT;
  49              		.loc 1 117 6 view .LVU7
  50 0010 0ED0     		beq	.L2
ARM GAS  /tmp/cc9o0abE.s 			page 4


  51              		.loc 1 118 5 is_stmt 1 view .LVU8
 119:src/display.c ****     DecimalMode = DECIMAL_COMMA;
  52              		.loc 1 119 17 is_stmt 0 view .LVU9
  53 0012 0F48     		ldr	r0, .L14+8
 120:src/display.c ****   }
 121:src/display.c ****   else {
 122:src/display.c ****     SeparatorMode = SEP_COMMA;
 123:src/display.c ****     DecimalMode = DECIMAL_DOT;
 124:src/display.c ****   }
 125:src/display.c ****   if ((UState.intm && UState.nointseparator) || (!UState.intm && UState.nothousands))
  54              		.loc 1 125 8 view .LVU10
  55 0014 92F8E82F 		ldrb	r2, [r2, #4072]	@ zero_extendqisi2
 119:src/display.c ****     DecimalMode = DECIMAL_COMMA;
  56              		.loc 1 119 17 view .LVU11
  57 0018 0124     		movs	r4, #1
 118:src/display.c ****     DecimalMode = DECIMAL_COMMA;
  58              		.loc 1 118 19 view .LVU12
  59 001a 0225     		movs	r5, #2
 119:src/display.c ****     DecimalMode = DECIMAL_COMMA;
  60              		.loc 1 119 17 view .LVU13
  61 001c 0470     		strb	r4, [r0]
  62              		.loc 1 125 6 view .LVU14
  63 001e D007     		lsls	r0, r2, #31
 118:src/display.c ****     DecimalMode = DECIMAL_COMMA;
  64              		.loc 1 118 19 view .LVU15
  65 0020 0D70     		strb	r5, [r1]
 119:src/display.c ****     DecimalMode = DECIMAL_COMMA;
  66              		.loc 1 119 5 is_stmt 1 view .LVU16
  67              		.loc 1 125 3 view .LVU17
  68              		.loc 1 125 6 is_stmt 0 view .LVU18
  69 0022 0DD4     		bmi	.L13
  70              	.L4:
  71              		.loc 1 125 63 discriminator 4 view .LVU19
  72 0024 5B06     		lsls	r3, r3, #25
  73 0026 01D5     		bpl	.L1
  74              	.L5:
 126:src/display.c ****     SeparatorMode = SEP_NONE;
  75              		.loc 1 126 5 is_stmt 1 view .LVU20
  76              		.loc 1 126 19 is_stmt 0 view .LVU21
  77 0028 0023     		movs	r3, #0
  78 002a 0B70     		strb	r3, [r1]
  79              	.L1:
 127:src/display.c **** }
  80              		.loc 1 127 1 view .LVU22
  81 002c 30BC     		pop	{r4, r5}
  82              		.cfi_remember_state
  83              		.cfi_restore 5
  84              		.cfi_restore 4
  85              		.cfi_def_cfa_offset 0
  86 002e 7047     		bx	lr
  87              	.L2:
  88              		.cfi_restore_state
 122:src/display.c ****     DecimalMode = DECIMAL_DOT;
  89              		.loc 1 122 5 is_stmt 1 view .LVU23
 123:src/display.c ****   }
  90              		.loc 1 123 17 is_stmt 0 view .LVU24
  91 0030 074C     		ldr	r4, .L14+8
ARM GAS  /tmp/cc9o0abE.s 			page 5


 125:src/display.c ****     SeparatorMode = SEP_NONE;
  92              		.loc 1 125 8 view .LVU25
  93 0032 92F8E82F 		ldrb	r2, [r2, #4072]	@ zero_extendqisi2
 123:src/display.c ****   }
  94              		.loc 1 123 17 view .LVU26
  95 0036 2070     		strb	r0, [r4]
 122:src/display.c ****     DecimalMode = DECIMAL_DOT;
  96              		.loc 1 122 19 view .LVU27
  97 0038 0125     		movs	r5, #1
 125:src/display.c ****     SeparatorMode = SEP_NONE;
  98              		.loc 1 125 6 view .LVU28
  99 003a D007     		lsls	r0, r2, #31
 122:src/display.c ****     DecimalMode = DECIMAL_DOT;
 100              		.loc 1 122 19 view .LVU29
 101 003c 0D70     		strb	r5, [r1]
 123:src/display.c ****   }
 102              		.loc 1 123 5 is_stmt 1 view .LVU30
 125:src/display.c ****     SeparatorMode = SEP_NONE;
 103              		.loc 1 125 3 view .LVU31
 125:src/display.c ****     SeparatorMode = SEP_NONE;
 104              		.loc 1 125 6 is_stmt 0 view .LVU32
 105 003e F1D5     		bpl	.L4
 106              	.L13:
 125:src/display.c ****     SeparatorMode = SEP_NONE;
 107              		.loc 1 125 20 discriminator 1 view .LVU33
 108 0040 1A06     		lsls	r2, r3, #24
 109 0042 F1D4     		bmi	.L5
 110              		.loc 1 127 1 view .LVU34
 111 0044 30BC     		pop	{r4, r5}
 112              		.cfi_restore 5
 113              		.cfi_restore 4
 114              		.cfi_def_cfa_offset 0
 115 0046 7047     		bx	lr
 116              	.L15:
 117              		.align	2
 118              	.L14:
 119 0048 00000000 		.word	main_ram
 120 004c 00000000 		.word	.LANCHOR0
 121 0050 00000000 		.word	.LANCHOR1
 122              		.cfi_endproc
 123              	.LFE0:
 125              		.section	.text.set_dig,"ax",%progbits
 126              		.align	1
 127              		.p2align 2,,3
 128              		.syntax unified
 129              		.thumb
 130              		.thumb_func
 131              		.fpu fpv4-sp-d16
 133              	set_dig:
 134              	.LVL0:
 135              	.LFB6:
 128:src/display.c **** 
 129:src/display.c **** 
 130:src/display.c **** /* Table of error messages.
 131:src/display.c ****  * These consist of a double string.  The first is displayed in the
 132:src/display.c ****  * top line, the second in the bottom.  If the second is empty, "Error"
 133:src/display.c ****  * is displayed instead.  To get a blank lower line, include a space.
ARM GAS  /tmp/cc9o0abE.s 			page 6


 134:src/display.c ****  */
 135:src/display.c **** void error_message(const unsigned int e) 
 136:src/display.c **** {
 137:src/display.c **** #define MSG1(top) top "\0"
 138:src/display.c **** #define MSG2(top,bottom) top "\0" bottom
 139:src/display.c **** 
 140:src/display.c ****   // NB: this MUST be in the same order as the error #defines in errors.h
 141:src/display.c ****   static const char *const error_table[] = 
 142:src/display.c ****     {
 143:src/display.c ****       // manually get the order correct!
 144:src/display.c ****       MSG2("Running", "ProGraMm"),
 145:src/display.c ****       MSG1("Domain"),
 146:src/display.c ****       MSG2("Bad time", "or dAtE"),
 147:src/display.c ****       MSG2("Undefined", "Op-COdE"),
 148:src/display.c ****       MSG1("+\237"),
 149:src/display.c ****       MSG1("-\237"),
 150:src/display.c ****       MSG2("No such", "LAbEL"),
 151:src/display.c ****       MSG2("Illegal", "OPErAtion"),
 152:src/display.c ****       MSG1("Out of range"),
 153:src/display.c **** #ifdef WARNINGS_IN_UPPER_LINE_ONLY
 154:src/display.c ****       MSG2("Bad digit", "1"),
 155:src/display.c ****       MSG2("Too long", "1"),
 156:src/display.c **** #else
 157:src/display.c ****       MSG1("Bad digit"),
 158:src/display.c ****       MSG1("Too long"),
 159:src/display.c **** #endif
 160:src/display.c ****       MSG2("RAM is", "FuLL"),
 161:src/display.c ****       MSG2("Stack", "CLASH"),
 162:src/display.c ****       MSG1("Bad mode"),
 163:src/display.c ****       MSG2("Word\006\006\006size", "too SMmALL"),
 164:src/display.c ****       MSG2("Too few", "dAtA PointS"),
 165:src/display.c ****       MSG2("Invalid", "ParaMmEtEr"),
 166:src/display.c ****       MSG1("I/O"),
 167:src/display.c ****       MSG2("Invalid", "dAtA"),
 168:src/display.c ****       MSG2("Write", "ProtEctEd"),
 169:src/display.c ****       MSG2("No root", "Found"),
 170:src/display.c ****       MSG2("Matrix", "MmISMmAtCH"),
 171:src/display.c ****       MSG1("Singular"),
 172:src/display.c ****       MSG2("Flash is", "FuLL"),
 173:src/display.c ****       MSG2("No crystal", "InStaLLEd"),
 174:src/display.c **** #ifndef SHIFT_EXPONENT
 175:src/display.c **** #  ifdef WARNINGS_IN_UPPER_LINE_ONLY
 176:src/display.c **** #     ifdef INCLUDE_FONT_ESCAPE
 177:src/display.c ****       MSG2("Too\007\304 small", "1"),
 178:src/display.c **** #     else
 179:src/display.c ****       MSG2("Too small", "1"),
 180:src/display.c **** #     endif
 181:src/display.c ****       MSG2("Too big", "1"),
 182:src/display.c **** #  else
 183:src/display.c **** #     ifdef INCLUDE_FONT_ESCAPE
 184:src/display.c ****       MSG1("Too\007\304 small"),
 185:src/display.c **** #     else
 186:src/display.c ****       MSG1("Too small"),
 187:src/display.c **** #     endif
 188:src/display.c ****       MSG1("Too big"),
 189:src/display.c **** #  endif
 190:src/display.c **** #endif
ARM GAS  /tmp/cc9o0abE.s 			page 7


 191:src/display.c **** #ifdef INCLUDE_C_LOCK
 192:src/display.c ****       MSG2("Use even reg","for CoMmPLEH"),
 193:src/display.c **** #endif
 194:src/display.c ****       MSG2("\004 \035", "X"),		// Integral ~
 195:src/display.c **** #if INTERRUPT_XROM_TICKS > 0
 196:src/display.c ****       MSG2("Interrupted", "X"),
 197:src/display.c **** #endif
 198:src/display.c ****     };
 199:src/display.c **** #undef MSG1
 200:src/display.c **** #undef MSG2
 201:src/display.c **** #if !defined(REALBUILD) && !defined(DM42)
 202:src/display.c ****   static const char *const error_table_text[] =
 203:src/display.c ****     {
 204:src/display.c ****       " P r o g r a m ",
 205:src/display.c ****       "",
 206:src/display.c ****       " o r   d a t e ",
 207:src/display.c ****       " O p - c o d e ",
 208:src/display.c ****       "",
 209:src/display.c ****       "",
 210:src/display.c ****       " L a b e l ",
 211:src/display.c ****       " O p e r a t i o n ",
 212:src/display.c ****       "",
 213:src/display.c ****       "",
 214:src/display.c ****       "",
 215:src/display.c ****       " F u l l ",
 216:src/display.c ****       " C l a s h ",
 217:src/display.c ****       "",
 218:src/display.c ****       " T o o   s m a l l ",
 219:src/display.c ****       " D a t a   p o i n t s ",
 220:src/display.c ****       " P a r a m e t e r ",
 221:src/display.c ****       "",
 222:src/display.c ****       " D a t a ",
 223:src/display.c ****       " P r o t e c t e d ",
 224:src/display.c ****       " F o u n d ",
 225:src/display.c ****       " M i s m a t c h ",
 226:src/display.c ****       "",
 227:src/display.c ****       " F u l l ",
 228:src/display.c ****       " I n s t a l l e d ",
 229:src/display.c **** #ifndef SHIFT_EXPONENT
 230:src/display.c ****       "",
 231:src/display.c ****       "",
 232:src/display.c **** #endif
 233:src/display.c **** #ifdef INCLUDE_C_LOCK
 234:src/display.c ****       "",
 235:src/display.c **** #endif
 236:src/display.c ****       "",
 237:src/display.c ****     };
 238:src/display.c **** #endif
 239:src/display.c **** 
 240:src/display.c ****   if (e != ERR_NONE || Running) {
 241:src/display.c ****     const char *p = error_table[e];
 242:src/display.c ****     const char *q = find_char(p, '\0') + 1;
 243:src/display.c ****     if (*q == '\0')
 244:src/display.c ****       q = S7_ERROR;
 245:src/display.c ****     if (*q == 'X') {
 246:src/display.c ****       DispMsg = p;
 247:src/display.c ****       frozen_display();
ARM GAS  /tmp/cc9o0abE.s 			page 8


 248:src/display.c ****     }
 249:src/display.c ****     else {
 250:src/display.c **** #ifdef WARNINGS_IN_UPPER_LINE_ONLY
 251:src/display.c ****       if (*q == '1')
 252:src/display.c **** 	q = CNULL;
 253:src/display.c **** #endif
 254:src/display.c ****       message(p, q);
 255:src/display.c ****       State2.disp_freeze = (e != ERR_NONE);
 256:src/display.c **** #if !defined(REALBUILD) && !defined(DM42)
 257:src/display.c ****       scopy(LastDisplayedNumber, error_table_text[e]);
 258:src/display.c **** #endif
 259:src/display.c ****     }
 260:src/display.c **** #ifdef INFRARED
 261:src/display.c ****     if (Tracing) {
 262:src/display.c ****       if (*q == 'X')
 263:src/display.c **** 	print_reg(regX_idx, p, 0);
 264:src/display.c ****       else {
 265:src/display.c **** 	print_tab(0);
 266:src/display.c **** 	print_line(p, 0);
 267:src/display.c **** 	print(' ');
 268:src/display.c **** 	while (*q != '\0') {
 269:src/display.c **** 	  int c = *q;
 270:src/display.c **** 	  if (c >= 'A')
 271:src/display.c **** 	    c |= 0x60; // ASCII lower case
 272:src/display.c **** 	  print(c);
 273:src/display.c **** 	  if (c == 'm' /* || c == 'w' */)
 274:src/display.c **** 	    ++q;
 275:src/display.c **** 	  ++q;
 276:src/display.c **** 	}
 277:src/display.c **** 	print_advance( 0 );
 278:src/display.c ****       }
 279:src/display.c ****     }
 280:src/display.c **** #endif
 281:src/display.c ****   }
 282:src/display.c **** }
 283:src/display.c **** 
 284:src/display.c **** 
 285:src/display.c **** /* Define a limited character set for the 7-segment portion of the
 286:src/display.c ****  * display.
 287:src/display.c ****  */
 288:src/display.c **** #define D_TOP 64
 289:src/display.c **** #define D_TL 32
 290:src/display.c **** #define D_TR 8
 291:src/display.c **** #define D_MIDDLE 16
 292:src/display.c **** #define D_BL 4
 293:src/display.c **** #define D_BR 1
 294:src/display.c **** #define D_BOTTOM 2
 295:src/display.c **** 
 296:src/display.c **** #include "charset7.h"
 297:src/display.c **** 
 298:src/display.c **** #if !defined(REALBUILD) && !defined(DM42) 
 299:src/display.c **** #define SET_MANT_SIGN set_mant_sign_dot()
 300:src/display.c **** #define CLR_MANT_SIGN clr_mant_sign_dot()
 301:src/display.c **** #define SET_EXP_SIGN set_exp_sign_dot()
 302:src/display.c **** #define CLR_EXP_SIGN clr_exp_sign_dot()
 303:src/display.c **** 
 304:src/display.c **** static void set_mant_sign_dot()
ARM GAS  /tmp/cc9o0abE.s 			page 9


 305:src/display.c **** {
 306:src/display.c ****   LastDisplayedNumber[0]='-';
 307:src/display.c ****   set_dot(MANT_SIGN);
 308:src/display.c **** }
 309:src/display.c **** 
 310:src/display.c **** static void clr_mant_sign_dot()
 311:src/display.c **** {
 312:src/display.c ****   LastDisplayedNumber[0]=' ';
 313:src/display.c ****   clr_dot(MANT_SIGN);
 314:src/display.c **** }
 315:src/display.c **** 
 316:src/display.c **** static void set_exp_sign_dot()
 317:src/display.c **** {
 318:src/display.c ****   LastDisplayedExponent[0]='-';
 319:src/display.c ****   set_dot(EXP_SIGN);
 320:src/display.c **** }
 321:src/display.c **** 
 322:src/display.c **** static void clr_exp_sign_dot()
 323:src/display.c **** {
 324:src/display.c ****   LastDisplayedExponent[0]=' ';
 325:src/display.c ****   clr_dot(EXP_SIGN);
 326:src/display.c **** }
 327:src/display.c **** 
 328:src/display.c **** #else
 329:src/display.c **** #define SET_MANT_SIGN set_dot(MANT_SIGN)
 330:src/display.c **** #define CLR_MANT_SIGN clr_dot(MANT_SIGN)
 331:src/display.c **** 
 332:src/display.c **** #define SET_EXP_SIGN set_dot(EXP_SIGN)
 333:src/display.c **** #define CLR_EXP_SIGN clr_dot(EXP_SIGN)
 334:src/display.c **** 
 335:src/display.c **** #endif
 336:src/display.c **** 
 337:src/display.c **** #ifndef REALBUILD
 338:src/display.c **** int getdig(int ch)
 339:src/display.c **** #else
 340:src/display.c ****   static int getdig(int ch)
 341:src/display.c **** #endif
 342:src/display.c **** {
 343:src/display.c ****   // perform index lookup
 344:src/display.c ****   return digtbl[ch&0xff];
 345:src/display.c **** }
 346:src/display.c **** 
 347:src/display.c **** void dot(int n, int on) {
 348:src/display.c ****   if (on)	set_dot(n);
 349:src/display.c ****   else	clr_dot(n);
 350:src/display.c **** }
 351:src/display.c **** 
 352:src/display.c **** 
 353:src/display.c **** /* Set the decimal point *after* the indicated digit
 354:src/display.c ****  * The marker can be either a comma or a dot depending on the value
 355:src/display.c ****  * of decimal.
 356:src/display.c ****  */
 357:src/display.c **** static char *set_decimal(const int posn, const enum decimal_modes decimal, char *res) {
 358:src/display.c ****   if (res) {
 359:src/display.c ****     *res++ = (decimal == DECIMAL_DOT)?'.':',';
 360:src/display.c ****   } else {
 361:src/display.c ****     set_dot(posn+7);
ARM GAS  /tmp/cc9o0abE.s 			page 10


 362:src/display.c ****     if (decimal != DECIMAL_DOT)
 363:src/display.c ****       set_dot(posn+8);
 364:src/display.c **** #if !defined(REALBUILD) && !defined(DM42)
 365:src/display.c ****     LastDisplayedNumber[(posn/9)*2+2]= decimal == DECIMAL_DOT?'.':',';
 366:src/display.c **** #endif
 367:src/display.c ****   }
 368:src/display.c ****   return res;
 369:src/display.c **** }
 370:src/display.c **** 
 371:src/display.c **** /* Set the digit group separator *before* the specified digit.
 372:src/display.c ****  * This can be nothing, a comma or a dot depending on the state of the
 373:src/display.c ****  * sep argument.
 374:src/display.c ****  */
 375:src/display.c **** static char *set_separator(int posn, const enum separator_modes sep, char *res) {
 376:src/display.c ****   if (sep == SEP_NONE)
 377:src/display.c ****     return res;
 378:src/display.c ****   if (res) {
 379:src/display.c ****     if (sep == SEP_COMMA) *res++ = ',';
 380:src/display.c ****     else *res++ = '.';
 381:src/display.c ****   } else {
 382:src/display.c ****     posn -= SEGS_PER_DIGIT;
 383:src/display.c ****     set_dot(posn+7);
 384:src/display.c ****     if (sep == SEP_COMMA)
 385:src/display.c ****       set_dot(posn+8);
 386:src/display.c **** #if !defined(REALBUILD) && !defined(DM42)
 387:src/display.c ****     LastDisplayedNumber[(posn/9)*2+2] = sep == SEP_COMMA?',':'.';
 388:src/display.c **** #endif
 389:src/display.c ****   }
 390:src/display.c ****   return res;
 391:src/display.c **** }
 392:src/display.c **** 
 393:src/display.c **** /* Set a digit in positions [base, base+6] */
 394:src/display.c **** static void set_dig(int base, int ch)
 395:src/display.c **** {
 136              		.loc 1 395 1 is_stmt 1 view -0
 137              		.cfi_startproc
 138              		@ args = 0, pretend = 0, frame = 0
 139              		@ frame_needed = 0, uses_anonymous_args = 0
 396:src/display.c ****   int i;
 140              		.loc 1 396 3 view .LVU36
 397:src/display.c ****   int c = getdig(ch);
 141              		.loc 1 397 3 view .LVU37
 142              	.LBB162:
 143              	.LBI162:
 338:src/display.c **** #else
 144              		.loc 1 338 5 view .LVU38
 145              	.LBB163:
 344:src/display.c **** }
 146              		.loc 1 344 3 view .LVU39
 344:src/display.c **** }
 147              		.loc 1 344 16 is_stmt 0 view .LVU40
 148 0000 0A4B     		ldr	r3, .L24
 344:src/display.c **** }
 149              		.loc 1 344 19 view .LVU41
 150 0002 C9B2     		uxtb	r1, r1
 151              	.LVL1:
 344:src/display.c **** }
ARM GAS  /tmp/cc9o0abE.s 			page 11


 152              		.loc 1 344 19 view .LVU42
 153              	.LBE163:
 154              	.LBE162:
 395:src/display.c ****   int i;
 155              		.loc 1 395 1 view .LVU43
 156 0004 70B5     		push	{r4, r5, r6, lr}
 157              		.cfi_def_cfa_offset 16
 158              		.cfi_offset 4, -16
 159              		.cfi_offset 5, -12
 160              		.cfi_offset 6, -8
 161              		.cfi_offset 14, -4
 162              	.LBB165:
 163              	.LBB164:
 344:src/display.c **** }
 164              		.loc 1 344 16 view .LVU44
 165 0006 5E5C     		ldrb	r6, [r3, r1]	@ zero_extendqisi2
 166              	.LVL2:
 344:src/display.c **** }
 167              		.loc 1 344 16 view .LVU45
 168              	.LBE164:
 169              	.LBE165:
 398:src/display.c **** #if !defined(REALBUILD) && !defined(DM42)
 399:src/display.c ****   if(base<SEGS_EXP_BASE)
 400:src/display.c ****     LastDisplayedNumber[(base/9)*2+1] = ch==0?' ':ch;
 401:src/display.c ****   else
 402:src/display.c ****     LastDisplayedExponent[(base-SEGS_EXP_BASE)/7+1] = ch;
 403:src/display.c **** #endif
 404:src/display.c ****   for (i=6; i>=0; i--)
 170              		.loc 1 404 3 is_stmt 1 view .LVU46
 171              		.loc 1 404 13 view .LVU47
 172 0008 851D     		adds	r5, r0, #6
 173              		.loc 1 404 9 is_stmt 0 view .LVU48
 174 000a 0624     		movs	r4, #6
 175 000c 03E0     		b	.L19
 176              	.LVL3:
 177              	.L23:
 405:src/display.c ****     {
 406:src/display.c ****       //		dot(base, c & (1 << i));
 407:src/display.c ****       if (c & (1 << i))
 408:src/display.c **** 	set_dot(base);
 178              		.loc 1 408 2 view .LVU49
 179 000e FFF7FEFF 		bl	set_dot
 180              	.LVL4:
 409:src/display.c ****       else
 410:src/display.c **** 	clr_dot(base);
 411:src/display.c ****       base++;
 181              		.loc 1 411 7 is_stmt 1 view .LVU50
 404:src/display.c ****     {
 182              		.loc 1 404 19 view .LVU51
 404:src/display.c ****     {
 183              		.loc 1 404 3 is_stmt 0 view .LVU52
 184 0012 013C     		subs	r4, r4, #1
 185              	.LVL5:
 404:src/display.c ****     {
 186              		.loc 1 404 3 view .LVU53
 187 0014 09D3     		bcc	.L22
 188              	.LVL6:
ARM GAS  /tmp/cc9o0abE.s 			page 12


 189              	.L19:
 408:src/display.c ****       else
 190              		.loc 1 408 2 is_stmt 1 view .LVU54
 410:src/display.c ****       base++;
 191              		.loc 1 410 2 view .LVU55
 407:src/display.c **** 	set_dot(base);
 192              		.loc 1 407 11 is_stmt 0 view .LVU56
 193 0016 46FA04F3 		asr	r3, r6, r4
 407:src/display.c **** 	set_dot(base);
 194              		.loc 1 407 10 view .LVU57
 195 001a DB07     		lsls	r3, r3, #31
 196 001c A5EB0400 		sub	r0, r5, r4
 197              	.LVL7:
 407:src/display.c **** 	set_dot(base);
 198              		.loc 1 407 7 is_stmt 1 view .LVU58
 407:src/display.c **** 	set_dot(base);
 199              		.loc 1 407 10 is_stmt 0 view .LVU59
 200 0020 F5D4     		bmi	.L23
 410:src/display.c ****       base++;
 201              		.loc 1 410 2 view .LVU60
 202 0022 FFF7FEFF 		bl	clr_dot
 203              	.LVL8:
 204              		.loc 1 411 7 is_stmt 1 view .LVU61
 404:src/display.c ****     {
 205              		.loc 1 404 19 view .LVU62
 404:src/display.c ****     {
 206              		.loc 1 404 3 is_stmt 0 view .LVU63
 207 0026 013C     		subs	r4, r4, #1
 208              	.LVL9:
 404:src/display.c ****     {
 209              		.loc 1 404 3 view .LVU64
 210 0028 F5D2     		bcs	.L19
 211              	.LVL10:
 212              	.L22:
 412:src/display.c ****     }
 413:src/display.c **** }
 213              		.loc 1 413 1 view .LVU65
 214 002a 70BD     		pop	{r4, r5, r6, pc}
 215              	.LVL11:
 216              	.L25:
 217              		.loc 1 413 1 view .LVU66
 218              		.align	2
 219              	.L24:
 220 002c 00000000 		.word	.LANCHOR2
 221              		.cfi_endproc
 222              	.LFE6:
 224              		.section	.text.hms_render,"ax",%progbits
 225              		.align	1
 226              		.p2align 2,,3
 227              		.syntax unified
 228              		.thumb
 229              		.thumb_func
 230              		.fpu fpv4-sp-d16
 232              	hms_render:
 233              	.LVL12:
 234              	.LFB17:
 414:src/display.c **** 
ARM GAS  /tmp/cc9o0abE.s 			page 13


 415:src/display.c **** static char *set_dig_s(int base, int ch, char *res) {
 416:src/display.c ****   if (res) *res++ = ch;
 417:src/display.c ****   else	set_dig(base, ch);
 418:src/display.c ****   return res;
 419:src/display.c **** }
 420:src/display.c **** 
 421:src/display.c **** 
 422:src/display.c **** static void set_digits_string(const char *msg, int j) {
 423:src/display.c ****   for (; *msg != '\0'; msg++) {
 424:src/display.c ****     if (*msg == '.' || *msg == ',')
 425:src/display.c ****       set_decimal(j - SEGS_PER_DIGIT, *msg == '.' ? DECIMAL_DOT : DECIMAL_COMMA, CNULL);
 426:src/display.c ****     else {
 427:src/display.c ****       set_dig_s(j, *msg, CNULL);
 428:src/display.c ****       j += SEGS_PER_DIGIT;
 429:src/display.c ****     }
 430:src/display.c ****   }
 431:src/display.c **** }
 432:src/display.c **** 
 433:src/display.c **** static void set_exp_digits_string(const char *msg, char *res) {
 434:src/display.c ****   int i;
 435:src/display.c ****   const int n = res == NULL ? 3 : 4;
 436:src/display.c **** 
 437:src/display.c ****   for (i=0; i<n && msg[i] != '\0'; i++)
 438:src/display.c ****     res = set_dig_s(SEGS_EXP_BASE + i * SEGS_PER_EXP_DIGIT, msg[i], res);
 439:src/display.c **** }
 440:src/display.c **** 
 441:src/display.c **** /* Force the exponent display
 442:src/display.c ****  * Flags: Bit 0 (LSB): Zero pad.
 443:src/display.c ****  *            1:       Exponent is negative (useful for negative zero).
 444:src/display.c ****  *            2:       Pad with spaces. Overrides bit 0 if PAD_EXPONENTS_WITH_SPACES
 445:src/display.c ****  *                     is enabled, otherwise it's the same as bit 0.
 446:src/display.c ****  *            3:       Exponent is being entered. Show all four digits if
 447:src/display.c ****  *                     LARGE_EXPONENT_ENTRY is enabled;
 448:src/display.c ****  *            4:       The mantissa is too long, cut off the last three digits.
 449:src/display.c ****  */
 450:src/display.c **** static void set_exp(int exp, int flags, char *res) {
 451:src/display.c ****   union {
 452:src/display.c ****     char buf[4];
 453:src/display.c ****     int i;
 454:src/display.c ****   } u;
 455:src/display.c ****   int negative;
 456:src/display.c **** #if SHOW_LARGE_EXPONENT > 0
 457:src/display.c ****   int thousands;
 458:src/display.c **** #  if SHOW_LARGE_EXPONENT == 3
 459:src/display.c ****   const int show_large_exponent = !get_user_flag(regL_idx);
 460:src/display.c **** #  elif SHOW_LARGE_EXPONENT == 2
 461:src/display.c ****   const int show_large_exponent = get_user_flag(regL_idx);
 462:src/display.c **** #  else
 463:src/display.c ****   const int show_large_exponent = 1;
 464:src/display.c **** #  endif
 465:src/display.c **** #else
 466:src/display.c **** #  ifdef LARGE_EXPONENT_ENTRY
 467:src/display.c ****   int thousands;
 468:src/display.c **** #  endif
 469:src/display.c ****   const int show_large_exponent = 0;
 470:src/display.c **** #endif
 471:src/display.c **** 
ARM GAS  /tmp/cc9o0abE.s 			page 14


 472:src/display.c ****   negative = flags & 2;
 473:src/display.c ****   if (exp < 0) {
 474:src/display.c ****     negative = 1;
 475:src/display.c ****     exp = -exp;
 476:src/display.c ****   }
 477:src/display.c **** #if SHOW_LARGE_EXPONENT > 0 || defined(LARGE_EXPONENT_ENTRY)
 478:src/display.c ****   thousands = exp / 1000;
 479:src/display.c **** #endif
 480:src/display.c ****   if (res) {
 481:src/display.c **** #ifdef INCLUDE_YREG_CODE
 482:src/display.c **** #if SHOW_LARGE_EXPONENT > 0 || defined(LARGE_EXPONENT_ENTRY)
 483:src/display.c ****     if (thousands != 0) {
 484:src/display.c **** #else
 485:src/display.c ****       if (exp > 999) {
 486:src/display.c **** #endif
 487:src/display.c **** 	if (!negative) *res++ = ':'; // Separator for large +ve exponents
 488:src/display.c **** 	// No exponent separator for large -ve exponents
 489:src/display.c ****       }
 490:src/display.c ****       else *res++ = 'e'; // Normal separator
 491:src/display.c **** #else
 492:src/display.c ****       *res++ = 'e';
 493:src/display.c **** #endif
 494:src/display.c ****       if (negative) *res++ = '-';
 495:src/display.c ****     }
 496:src/display.c ****     else {
 497:src/display.c ****       if (negative) SET_EXP_SIGN;
 498:src/display.c **** #if SHOW_LARGE_EXPONENT > 0 || defined(LARGE_EXPONENT_ENTRY)
 499:src/display.c ****       if (thousands != 0) {
 500:src/display.c **** #else
 501:src/display.c **** 	if (exp > 999) {
 502:src/display.c **** #endif
 503:src/display.c **** 	  if (!show_large_exponent
 504:src/display.c **** #ifdef LARGE_EXPONENT_ENTRY
 505:src/display.c **** 	      && (flags & 8) == 0
 506:src/display.c **** #endif
 507:src/display.c **** 	      ) {
 508:src/display.c **** #ifdef REALBUILD
 509:src/display.c **** 	    u.i = 'H' + 'I' * 0x100 + 'G' * 0x10000L; // Smaller ARM code
 510:src/display.c **** #else
 511:src/display.c **** 	    scopy(u.buf, "HIG"); // More portable code
 512:src/display.c **** #endif
 513:src/display.c **** 	    goto no_number;
 514:src/display.c **** 	  }
 515:src/display.c **** #if SHOW_LARGE_EXPONENT > 0 || defined(LARGE_EXPONENT_ENTRY)
 516:src/display.c **** 	  else {
 517:src/display.c **** 	    exp -= thousands * 1000;
 518:src/display.c **** #  ifdef LARGE_EXPONENT_ENTRY
 519:src/display.c **** 	    if (flags & 16) {
 520:src/display.c **** 	      // Cut off the last three digits of the mantissa.
 521:src/display.c **** 	      int i;
 522:src/display.c **** 
 523:src/display.c **** 	      for (i = 9 * SEGS_PER_DIGIT - 2; i < 11 * SEGS_PER_DIGIT; ++i)
 524:src/display.c **** 		// Clear digits and separators
 525:src/display.c **** 		clr_dot(i);
 526:src/display.c **** 	      set_dig(9 * SEGS_PER_DIGIT, '>');
 527:src/display.c **** 	    }
 528:src/display.c **** #  endif
ARM GAS  /tmp/cc9o0abE.s 			page 15


 529:src/display.c **** 	    if (negative) {
 530:src/display.c **** 	      CLR_EXP_SIGN;
 531:src/display.c **** 	      set_dig(10 * SEGS_PER_DIGIT, '-');
 532:src/display.c **** 	    }
 533:src/display.c **** 	    set_dig(11 * SEGS_PER_DIGIT, thousands + '0');
 534:src/display.c **** 	    flags = 1;
 535:src/display.c **** 	  }
 536:src/display.c **** #endif
 537:src/display.c **** 	}
 538:src/display.c ****       }
 539:src/display.c **** #ifdef REALBUILD
 540:src/display.c ****       u.i = 0; // Smaller ARM code
 541:src/display.c **** #else
 542:src/display.c ****       xset(u.buf, '\0', sizeof(u.buf)); // More portable code
 543:src/display.c **** #endif
 544:src/display.c ****       if (flags & 5) {
 545:src/display.c **** 	num_arg_0(u.buf, exp, 3);
 546:src/display.c **** #if defined(PAD_EXPONENTS_WITH_SPACES) && !defined(DONT_PAD_EXPONENT_ENTRY)
 547:src/display.c **** 	if (flags & 4) { // Pad exponent with spaces instead of zeros
 548:src/display.c **** 	  int i;
 549:src/display.c **** 
 550:src/display.c **** 	  for (i = 0; i < 2; ++i) {
 551:src/display.c **** 	    if (u.buf[i] == '0')
 552:src/display.c **** 	      u.buf[i] = ' ';
 553:src/display.c **** 	    else
 554:src/display.c **** 	      break;
 555:src/display.c **** 	  }
 556:src/display.c **** 	  if (i != 0 && negative) {
 557:src/display.c **** 	    // Move minus sign to right in front of exponent
 558:src/display.c **** 	    CLR_EXP_SIGN;
 559:src/display.c **** 	    u.buf[i - 1] = '-';
 560:src/display.c **** 	  }
 561:src/display.c **** 	}
 562:src/display.c **** #endif
 563:src/display.c ****       }
 564:src/display.c ****       else
 565:src/display.c **** 	num_arg(u.buf, exp);
 566:src/display.c ****     no_number:
 567:src/display.c ****       set_exp_digits_string(u.buf, res);
 568:src/display.c ****     }
 569:src/display.c **** 
 570:src/display.c ****     static void carry_overflow(void) {
 571:src/display.c ****       const int base = SEGS_EXP_BASE;
 572:src/display.c ****       int c;
 573:src/display.c ****       unsigned int b;
 574:src/display.c **** 
 575:src/display.c ****       // Figure out the base
 576:src/display.c ****       switch (State2.smode) {
 577:src/display.c ****       case SDISP_BIN:	b = 2;		break;
 578:src/display.c ****       case SDISP_OCT:	b = 8;		break;
 579:src/display.c ****       case SDISP_DEC:	b = 10;		break;
 580:src/display.c ****       case SDISP_HEX:	b = 16;		break;
 581:src/display.c ****       default:	b = UState.int_base+1;	break;
 582:src/display.c ****       }
 583:src/display.c **** 
 584:src/display.c ****       // Display the base as the first exponent digit
 585:src/display.c ****       if (b > 10 && b < 16)
ARM GAS  /tmp/cc9o0abE.s 			page 16


 586:src/display.c **** 	SET_EXP_SIGN;
 587:src/display.c ****       c = "B34567o9D12345h"[b-2];
 588:src/display.c ****       set_dig(base, c);
 589:src/display.c **** 
 590:src/display.c ****       // Carry and overflow are the next two exponent digits if they are set
 591:src/display.c ****       if (get_carry())
 592:src/display.c **** 	set_dig(base + SEGS_PER_EXP_DIGIT, 'c');
 593:src/display.c ****       if (get_overflow())
 594:src/display.c **** 	set_dig(base + 2*SEGS_PER_EXP_DIGIT, 'o');
 595:src/display.c ****     }
 596:src/display.c **** 
 597:src/display.c ****     static int set_x_fract(const decNumber *rgx, char *res);
 598:src/display.c ****     static void set_x_hms(const decNumber *rgx, char *res);
 599:src/display.c **** #if !(defined INCLUDE_YREG_CODE && defined INCLUDE_YREG_HMS)
 600:src/display.c ****     // replace_char() isn't used or implemented unless HMS Y register display is enabled
 601:src/display.c ****     static void replace_char(char *a, char b, char c) { }
 602:src/display.c **** #endif
 603:src/display.c **** 
 604:src/display.c ****     /* Display the annunicator text line.
 605:src/display.c ****      * Care needs to be taken to keep things aligned.
 606:src/display.c ****      * Spaces are 5 pixels wide, \006 is a single pixel space.
 607:src/display.c ****      */
 608:src/display.c **** #ifdef TOP_ROW
 609:src/display.c ****     static void annunciators(void) {
 610:src/display.c ****       // We initialize q here to avoid uninitialized error messages by very strict compilers
 611:src/display.c ****       char buf[42], *p = buf, *q="";
 612:src/display.c ****       char buf2[42], *p2 = buf2;
 613:src/display.c ****       int n;
 614:src/display.c ****       static const char shift_chars[4] = " \021\022\023";
 615:src/display.c ****       const char shift_char = shift_chars[cur_shift()];
 616:src/display.c ****       // Constant variables and code branches depending on a constant variable
 617:src/display.c ****       // that's set to 0 will be optimized away. This way it's easier to make a
 618:src/display.c ****       // feature run-time configurable if needed.
 619:src/display.c **** #ifdef INCLUDE_YREG_CODE
 620:src/display.c **** #  ifdef YREG_ALWAYS_ON
 621:src/display.c ****       const int yreg_enabled = 1;
 622:src/display.c **** #  else
 623:src/display.c ****       const int yreg_enabled = UState.show_y;
 624:src/display.c **** #  endif
 625:src/display.c **** #  ifdef INCLUDE_YREG_HMS
 626:src/display.c ****       const int yreg_hms = 1;
 627:src/display.c **** #  else
 628:src/display.c ****       const int yreg_hms = 0;
 629:src/display.c **** #  endif
 630:src/display.c **** #  ifdef INCLUDE_YREG_FRACT
 631:src/display.c ****       const int yreg_fract = 1;
 632:src/display.c **** #  else
 633:src/display.c ****       const int yreg_fract = 0;
 634:src/display.c **** #  endif
 635:src/display.c **** #else
 636:src/display.c ****       const int yreg_enabled = 0;
 637:src/display.c ****       const int yreg_hms = 0;
 638:src/display.c ****       const int yreg_fract = 0;
 639:src/display.c **** #endif
 640:src/display.c **** #ifdef RP_PREFIX
 641:src/display.c ****       const int rp_prefix = 1;
 642:src/display.c **** #else
ARM GAS  /tmp/cc9o0abE.s 			page 17


 643:src/display.c ****       const int rp_prefix = 0;
 644:src/display.c ****       const int RectPolConv = -1; // This variable doesn't exist without RP_PREFIX
 645:src/display.c **** #endif
 646:src/display.c ****       // Indicates whether font escape code is compiled in.
 647:src/display.c ****       // This variable will always be set at compile time.
 648:src/display.c **** #ifdef INCLUDE_FONT_ESCAPE
 649:src/display.c ****       const int has_FONT_ESCAPE = 1;
 650:src/display.c **** #else
 651:src/display.c ****       const int has_FONT_ESCAPE = 0;
 652:src/display.c **** #endif
 653:src/display.c **** 
 654:src/display.c ****       xset(buf, '\0', sizeof(buf));
 655:src/display.c ****       xset(buf2, '\0', sizeof(buf2));
 656:src/display.c ****       
 657:src/display.c ****       if (is_intmode()) {
 658:src/display.c **** #ifdef SHOW_STACK_SIZE
 659:src/display.c **** 	if (shift_char == ' ') {
 660:src/display.c **** 	  *p2++ = '\007';
 661:src/display.c **** 	  *p2++ = '\346';
 662:src/display.c **** 	  *p2++ = (UState.stack_depth ? ':' : '.');
 663:src/display.c **** 	}
 664:src/display.c **** 	else
 665:src/display.c **** #endif
 666:src/display.c **** 	  {
 667:src/display.c **** 	    *p2++ = shift_char;
 668:src/display.c **** 	    *p2++ = '\006';
 669:src/display.c **** 	  }
 670:src/display.c **** 
 671:src/display.c **** 	switch(int_mode()) {
 672:src/display.c **** 	default:
 673:src/display.c **** 	case MODE_2COMP:	q = "2c\006";		break;
 674:src/display.c **** 	case MODE_UNSIGNED:	q = "un\006";		break;
 675:src/display.c **** 	case MODE_1COMP:	q = "\0061c\006\006";	break;
 676:src/display.c **** 	case MODE_SGNMANT:	q = "sm";		break;
 677:src/display.c **** 	}
 678:src/display.c **** 	q = scopy(p2, q);
 679:src/display.c **** 	*q++ = '\006';
 680:src/display.c **** 	p2 = num_arg_0(q, word_size(), 2);
 681:src/display.c **** 
 682:src/display.c **** 	if (IntMaxWindow > 0) {
 683:src/display.c **** 	  n = 4 + 2 * (5 - IntMaxWindow);
 684:src/display.c **** 	  if (*q == '1')
 685:src/display.c **** 	    n += 2;
 686:src/display.c **** 	  if (q[1] == '1')
 687:src/display.c **** 	    n += 2;
 688:src/display.c **** 	  while (n-- > 0)
 689:src/display.c **** 	    *p2++ = '\006';
 690:src/display.c **** 
 691:src/display.c **** 	  for (n = IntMaxWindow; n >= 0; n--)
 692:src/display.c **** 	    *p2++ = State2.window == n ? '|' : '\'';
 693:src/display.c **** 	}
 694:src/display.c **** 	if (yreg_enabled) goto display_yreg;
 695:src/display.c ****       }
 696:src/display.c **** #ifdef INCLUDE_C_LOCK
 697:src/display.c ****       else if ( (!yreg_enabled && !C_LOCKED) // force y-reg display in complex lock mode
 698:src/display.c **** #else
 699:src/display.c ****       else if (!yreg_enabled
ARM GAS  /tmp/cc9o0abE.s 			page 18


 700:src/display.c **** #endif
 701:src/display.c **** #ifdef SHIFT_AND_CMPLX_SUPPRESS_YREG
 702:src/display.c **** 	       || shift_char != ' ' || State2.cmplx
 703:src/display.c **** #endif
 704:src/display.c **** 	       ) {
 705:src/display.c **** 	// The stack size indicator is displayed on the right if date mode indication is enabled
 706:src/display.c **** 	// because the 'D' in small font doesn't look good next to the date mode indicator.
 707:src/display.c **** #if defined SHOW_STACK_SIZE && defined NO_DATEMODE_INDICATION
 708:src/display.c **** 	if (shift_char == ' ') {
 709:src/display.c **** 	  *p2++ = '\007';
 710:src/display.c **** 	  *p2++ = '\342';
 711:src/display.c **** 	  *p2++ = (UState.stack_depth ? ':' : '.');
 712:src/display.c **** 	  *p2++ = '\007';
 713:src/display.c **** 	  *p2++ = '\344';
 714:src/display.c **** 	  *p2++ = (is_dblmode() ? 'D' : ' ');
 715:src/display.c **** 	}
 716:src/display.c **** 	else
 717:src/display.c **** #endif
 718:src/display.c **** 	  if (shift_char != ' ' || !is_dblmode()) {
 719:src/display.c **** 	    *p2++ = shift_char;
 720:src/display.c **** 	    *p2++ = '\006';
 721:src/display.c **** 	  }
 722:src/display.c **** 	  else {
 723:src/display.c **** 	    *p2++ = 'D';
 724:src/display.c **** 	  }
 725:src/display.c **** 
 726:src/display.c **** 	if (State2.cmplx) {
 727:src/display.c **** 	  *p2++ = ' ';
 728:src/display.c **** 	  *p2 = '\024';
 729:src/display.c **** 	  goto skip;
 730:src/display.c **** 	}
 731:src/display.c **** 	if (State2.arrow) {
 732:src/display.c **** 	  *p2++ = ' ';
 733:src/display.c **** 	  *p2 = '\015';
 734:src/display.c **** 	  goto skip;
 735:src/display.c **** 	}
 736:src/display.c **** 
 737:src/display.c **** 	if (shift_char == ' ' && (State2.wascomplex || (rp_prefix && RectPolConv != 0))) {
 738:src/display.c **** 	  if (State2.wascomplex) {
 739:src/display.c **** 	    q = (has_FONT_ESCAPE ? "\007\207i" : "i\006");
 740:src/display.c **** 	  }
 741:src/display.c **** 	  else if (rp_prefix) {
 742:src/display.c **** 	    if (RectPolConv == 1) {
 743:src/display.c **** 	      q = "\007\306<";
 744:src/display.c **** 	    }
 745:src/display.c **** 	    else {
 746:src/display.c **** 	      q = "\007\306y";
 747:src/display.c **** 	    }
 748:src/display.c **** 	  }
 749:src/display.c **** 	  p = scopy(buf, q);
 750:src/display.c **** 
 751:src/display.c **** 	  goto display_yreg;
 752:src/display.c **** 	}
 753:src/display.c **** 
 754:src/display.c **** 	switch (UState.date_mode) {
 755:src/display.c **** #ifndef NO_DATEMODE_INDICATION
 756:src/display.c **** #if defined(DEFAULT_DATEMODE) && (DEFAULT_DATEMODE != 0)
ARM GAS  /tmp/cc9o0abE.s 			page 19


 757:src/display.c **** 	case DATE_DMY:	q = "d.my\006\006";	break;
 758:src/display.c **** #endif
 759:src/display.c **** #if ! defined(DEFAULT_DATEMODE) || (DEFAULT_DATEMODE != 1)
 760:src/display.c **** 	case DATE_YMD:	q = "y.md\006\006";	break;
 761:src/display.c **** #endif
 762:src/display.c **** #if ! defined(DEFAULT_DATEMODE) || (DEFAULT_DATEMODE != 2)
 763:src/display.c **** 	case DATE_MDY:	q = "m.dy\006\006";	break;
 764:src/display.c **** #endif
 765:src/display.c **** #endif
 766:src/display.c **** 	default:	q = (has_FONT_ESCAPE ? "\007\225\006" : "    \006");	break; // 21 pixels
 767:src/display.c **** 	}
 768:src/display.c **** 	p2 = scopy(p2, q);
 769:src/display.c **** #if !defined SHOW_STACK_SIZE || defined NO_DATEMODE_INDICATION
 770:src/display.c **** 	if (get_trig_mode() == TRIG_GRAD) {
 771:src/display.c **** 	  scopy(p2, (has_FONT_ESCAPE ? "\006\006\007\210\007" : "\006\006\007" ));
 772:src/display.c **** 	}
 773:src/display.c **** #else
 774:src/display.c **** 	p2 = scopy(p2, (get_trig_mode() == TRIG_GRAD ? "\006\006\007\210\007" : "  "));
 775:src/display.c **** 	*p2++ = '\007';
 776:src/display.c **** 	*p2++ = '\342';
 777:src/display.c **** 	*p2 =  (UState.stack_depth ? ':' : '.');
 778:src/display.c **** #endif
 779:src/display.c ****       }
 780:src/display.c ****       else { // yreg_enabled
 781:src/display.c **** 	// do top-related things first
 782:src/display.c **** #ifndef SHIFT_AND_CMPLX_SUPPRESS_YREG
 783:src/display.c **** 	if (State2.cmplx) {
 784:src/display.c **** 	  *p2++ = '\007';
 785:src/display.c **** 	  *p2++ = '\344'; // small font; 4 px wide
 786:src/display.c **** 	  *p2++ = shift_char;
 787:src/display.c **** 	  *p2++ = '\024';
 788:src/display.c **** 	}
 789:src/display.c **** 	else {// if (shift_char != ' ') {
 790:src/display.c **** 	  *p2++ = '\007';
 791:src/display.c **** 	  *p2++ = '\307'; // big font; 7 px wide 
 792:src/display.c **** 	  *p2++ = shift_char;
 793:src/display.c **** 	}
 794:src/display.c **** #endif
 795:src/display.c **** #ifdef SHOW_GRADIAN_PREFIX
 796:src/display.c **** 	if (get_trig_mode() == TRIG_GRAD) {
 797:src/display.c **** 	  *p2++ = '\007';
 798:src/display.c **** 	  *p2++ = '\207';
 799:src/display.c **** 	  *p2++ = '\007';	    
 800:src/display.c **** 	}
 801:src/display.c **** 	else {
 802:src/display.c **** 	  *p2++ = '\007';
 803:src/display.c **** 	  *p2++ = '\207';
 804:src/display.c **** 	  *p2++ = ' ';
 805:src/display.c **** 	}
 806:src/display.c **** #endif
 807:src/display.c **** #ifndef SHOW_STACK_SIZE
 808:src/display.c **** 	q = (is_dblmode() ? "\007\307D" : "\007\207 ");
 809:src/display.c **** 	p2 = scopy(p2, q);
 810:src/display.c **** #else
 811:src/display.c **** 	if (is_dblmode()) {
 812:src/display.c **** 	  *p2++ = '\007';
 813:src/display.c **** 	  *p2++ = '\342';
ARM GAS  /tmp/cc9o0abE.s 			page 20


 814:src/display.c **** 	  *p2++ = (UState.stack_depth ? ':' : '.');
 815:src/display.c **** 	  *p2++ = '\007';
 816:src/display.c **** 	  *p2++ = '\345';
 817:src/display.c **** 	  *p2++ = 'D';
 818:src/display.c **** 	}
 819:src/display.c **** 	else {
 820:src/display.c **** 	  q = (UState.stack_depth ? "\007\347:" : "\007\347.");
 821:src/display.c **** 	  p2 = scopy(p2, q);
 822:src/display.c **** 	}
 823:src/display.c **** #endif
 824:src/display.c **** 
 825:src/display.c **** 	switch (UState.date_mode) {
 826:src/display.c **** #ifndef NO_DATEMODE_INDICATION
 827:src/display.c **** #if defined(DEFAULT_DATEMODE) && (DEFAULT_DATEMODE != 0)
 828:src/display.c **** 	case DATE_DMY:	q = "d.my\006\006";	break;
 829:src/display.c **** #endif
 830:src/display.c **** #if ! defined(DEFAULT_DATEMODE) || (DEFAULT_DATEMODE != 1)
 831:src/display.c **** 	case DATE_YMD:	q = "y.md\006\006";	break;
 832:src/display.c **** #endif
 833:src/display.c **** #if ! defined(DEFAULT_DATEMODE) || (DEFAULT_DATEMODE != 2)
 834:src/display.c **** 	case DATE_MDY:	q = "m.dy\006\006";	break;
 835:src/display.c **** #endif
 836:src/display.c **** #endif
 837:src/display.c **** 	default:	q = (has_FONT_ESCAPE ? "\007\225\006" : "    \006");	break; // 21 pixels
 838:src/display.c **** 	}
 839:src/display.c **** 	  
 840:src/display.c **** 	//      no_copy:
 841:src/display.c **** 	// display either arrow or datemode
 842:src/display.c **** 	if (State2.arrow) {
 843:src/display.c **** 	  scopy(p2, "\007\204\006\015");
 844:src/display.c **** 	} // no need to skip y display with arrow here
 845:src/display.c **** 	else {
 846:src/display.c **** 	  p2 = scopy(p2, q);
 847:src/display.c **** 	}
 848:src/display.c **** 	// now do the annotations, if any, for the middle row:
 849:src/display.c **** #ifdef INCLUDE_C_LOCK
 850:src/display.c **** 	if ( (REAL_FLAG || IMAG_FLAG) && C_LOCKED ) {
 851:src/display.c **** 	  if ( POLAR_DISPLAY ) {
 852:src/display.c **** 	    q = (REAL_FLAG ? "Length:" : "Angle:");
 853:src/display.c **** 	  }
 854:src/display.c **** 	  else {
 855:src/display.c **** 	    q = (REAL_FLAG ? "Real:" : "Imag:");
 856:src/display.c **** 	  }
 857:src/display.c **** 	  scopy(p, q);
 858:src/display.c **** 	  goto skip;
 859:src/display.c **** 	}
 860:src/display.c **** 	else if ((rp_prefix && RectPolConv == 1) || (C_LOCKED && POLAR_DISPLAY)) {
 861:src/display.c **** 	  q = "\007\307<";
 862:src/display.c **** 	  p = scopy(p, q);
 863:src/display.c **** 	}
 864:src/display.c **** 	else if (State2.wascomplex || C_LOCKED) {
 865:src/display.c **** 	  q = CPX_J ? "\007\207j" : "\007\207i";
 866:src/display.c **** 	  p = scopy(p, q);
 867:src/display.c **** 	}
 868:src/display.c **** #else
 869:src/display.c **** 	
 870:src/display.c **** 	if (State2.wascomplex) {
ARM GAS  /tmp/cc9o0abE.s 			page 21


 871:src/display.c **** 	  q = "\007\207i";
 872:src/display.c **** 	  p = scopy(p, q);
 873:src/display.c **** 	  //	    goto no_copy;
 874:src/display.c **** 	}
 875:src/display.c **** 	else if (rp_prefix && RectPolConv == 1) {
 876:src/display.c **** 	  q = "\007\307<";
 877:src/display.c **** 	  p = scopy(p, q);
 878:src/display.c **** 	  //	    goto no_copy;
 879:src/display.c **** 	}
 880:src/display.c **** 	else
 881:src/display.c **** #endif
 882:src/display.c **** 	  if (rp_prefix && RectPolConv == 2) {
 883:src/display.c **** 	    q = "\007\307y";
 884:src/display.c **** 	    p = scopy(p, q);
 885:src/display.c **** 	    //	    goto no_copy;
 886:src/display.c **** 	  }
 887:src/display.c ****       
 888:src/display.c **** 	if (State2.runmode) {
 889:src/display.c **** 	  decNumber y;
 890:src/display.c **** 	display_yreg:
 891:src/display.c **** 	  /* This is a bit convoluted.  ShowRegister is the real portion being shown.  Normally
 892:src/display.c **** 	   * ShowRegister+1 would contain the complex component, however if the register being
 893:src/display.c **** 	   * examined is on the stack and there is a command line present, the stack will be lifted
 894:src/display.c **** 	   * after we execute so we need to show ShowRegister instead.
 895:src/display.c **** 	   */
 896:src/display.c **** 	  if (is_intmode()) {
 897:src/display.c **** 	    set_int_x(get_reg_n_int(regY_idx), p);
 898:src/display.c **** 	    goto skip;
 899:src/display.c **** 	  }
 900:src/display.c **** #ifdef INCLUDE_C_LOCK
 901:src/display.c **** 	  if ( C_LOCKED && POLAR_DISPLAY && !POLAR_FORM_NOT_READY) {
 902:src/display.c **** 	    getRegister(&y, regK_idx);
 903:src/display.c **** 	  }
 904:src/display.c **** 	  else {
 905:src/display.c **** 	    getRegister(&y, (ShowRegister >= regX_idx && ShowRegister < regX_idx + stack_size()
 906:src/display.c **** 			     && (get_cmdline() && !State2.catalogue)
 907:src/display.c **** 			     && !(yreg_enabled && !State2.state_lift) // unless stack lift is disabled...
 908:src/display.c **** 			     ) ? ShowRegister : ShowRegister+1);
 909:src/display.c **** 	  }
 910:src/display.c **** #else
 911:src/display.c **** 	  getRegister(&y, (ShowRegister >= regX_idx && ShowRegister < regX_idx + stack_size() && get_cmdli
 912:src/display.c **** 	      && !(yreg_enabled && !State2.state_lift) // unless stack lift is disabled...
 913:src/display.c **** 			   ) ? ShowRegister : ShowRegister+1);
 914:src/display.c **** #endif
 915:src/display.c **** 	  if ((yreg_hms || yreg_fract) && !decNumberIsSpecial(&y)) {
 916:src/display.c **** #ifdef INCLUDE_C_LOCK
 917:src/display.c **** 	    if (yreg_hms && State2.hms && ( !C_LOCKED || ( C_LOCKED && (POLAR_DISPLAY && ((enum trig_modes
 918:src/display.c **** #else
 919:src/display.c **** 	    if (yreg_hms && State2.hms) {
 920:src/display.c **** #endif
 921:src/display.c **** 	      const int saved_nothousands = UState.nothousands;
 922:src/display.c **** 
 923:src/display.c **** 	      xset(buf, '\0', sizeof(buf));
 924:src/display.c **** 	      UState.nothousands = 1;
 925:src/display.c **** 	      set_x_hms(&y, buf); // no prefix or alignment for HMS display
 926:src/display.c **** 	      UState.nothousands = saved_nothousands;
 927:src/display.c **** 	      // First replace the '@' character with the degree symbol
ARM GAS  /tmp/cc9o0abE.s 			page 22


 928:src/display.c **** 	      // Then, if the string doesn't fit in the dot matrix display, replace spaces with narrow spa
 929:src/display.c **** 	      // then remove the second symbol (") and the overflow or underflow signs,
 930:src/display.c **** 	      // then remove the fractional part of the seconds.
 931:src/display.c **** 	      p = "@\005 \006\"\0.\0";
 932:src/display.c **** 	      while (*p) {
 933:src/display.c **** 		replace_char(buf, p[0], p[1]);
 934:src/display.c **** 		if (pixel_length(buf, 1) <= BW_TOP + 1) {
 935:src/display.c **** 		  goto skip;
 936:src/display.c **** 		}
 937:src/display.c **** 		p += 2;
 938:src/display.c **** 	      }
 939:src/display.c **** 	      goto skip;
 940:src/display.c **** 	    }
 941:src/display.c **** 	    if (yreg_fract && UState.fract
 942:src/display.c **** #ifndef SHIFT_AND_CMPLX_SUPPRESS_YREG
 943:src/display.c **** 		&& !State2.cmplx
 944:src/display.c **** #endif
 945:src/display.c **** #ifdef ANGLES_NOT_SHOWN_AS_FRACTIONS
 946:src/display.c **** 		&& !(rp_prefix && RectPolConv == 1)
 947:src/display.c **** #endif
 948:src/display.c **** 		&& set_x_fract(&y, p)) {
 949:src/display.c **** 	      char ltgteq;
 950:src/display.c **** 
 951:src/display.c **** 	      q = find_char(buf, '\0') - 2;
 952:src/display.c **** 	      // Replace Lt/Gt/= with </>/= in small font
 953:src/display.c **** 	      ltgteq = *q;
 954:src/display.c **** 	      switch (ltgteq) {
 955:src/display.c **** 	      case 'G':	ltgteq = '>'; break;
 956:src/display.c **** 	      case 'L':	ltgteq = '<'; break;
 957:src/display.c **** 	      }
 958:src/display.c **** 	      scopy(q, "\007\344?");
 959:src/display.c **** 	      q[2] = ltgteq;
 960:src/display.c **** 
 961:src/display.c **** 	      if (pixel_length(buf, 1) <= BW_TOP + 1) {
 962:src/display.c **** 		goto skip;
 963:src/display.c **** 	      }
 964:src/display.c **** 	      q[-1] = '\0'; // Remove </>/= if string doesn't fit in the dot matrix display
 965:src/display.c **** 	      if (pixel_length(buf, 1) <= BW_TOP + 1) {
 966:src/display.c **** 		goto skip;
 967:src/display.c **** 	      }
 968:src/display.c **** 	      xset(p, '\0', sizeof(buf) - (p - buf));
 969:src/display.c **** 	    }
 970:src/display.c **** 	  }
 971:src/display.c **** 	  for (n=DISPLAY_DIGITS; n>1; ) {
 972:src/display.c **** 	    int extra_pixels;
 973:src/display.c **** 
 974:src/display.c **** 	    set_x_dn(&y, p, &n);
 975:src/display.c **** 	    extra_pixels = pixel_length(buf, 1) - (BITMAP_WIDTH + 1);
 976:src/display.c **** 	    if (extra_pixels <= 0)
 977:src/display.c **** 	      break;
 978:src/display.c **** 
 979:src/display.c **** 	    xset(p, '\0', n+10);
 980:src/display.c **** 
 981:src/display.c **** 	    n -= (extra_pixels + 3) / 4; // The maximum width of digits in the small font is 4 pixels.
 982:src/display.c **** 	  }
 983:src/display.c **** 	}
 984:src/display.c ****       }
ARM GAS  /tmp/cc9o0abE.s 			page 23


 985:src/display.c ****       
 986:src/display.c ****     skip:
 987:src/display.c ****       if (State2.runmode) set_status(buf); // don't overwrite program line with blank
 988:src/display.c ****       set_status_top_always(buf2);
 989:src/display.c ****       
 990:src/display.c ****     }
 991:src/display.c **** #else
 992:src/display.c ****     static void annunciators(void) {
 993:src/display.c ****       // We initialize q here to avoid uninitialized error messages by very strict compilers
 994:src/display.c ****       char buf[42], *p = buf, *q="";
 995:src/display.c ****       int n;
 996:src/display.c ****       static const char shift_chars[4] = " \021\022\023";
 997:src/display.c ****       const char shift_char = shift_chars[cur_shift()];
 998:src/display.c ****       // Constant variables and code branches depending on a constant variable
 999:src/display.c ****       // that's set to 0 will be optimized away. This way it's easier to make a
1000:src/display.c ****       // feature run-time configurable if needed.
1001:src/display.c **** #ifdef INCLUDE_YREG_CODE
1002:src/display.c **** #  ifdef YREG_ALWAYS_ON
1003:src/display.c ****       const int yreg_enabled = 1;
1004:src/display.c **** #  else
1005:src/display.c ****       const int yreg_enabled = UState.show_y;
1006:src/display.c **** #  endif
1007:src/display.c **** #  ifdef INCLUDE_YREG_HMS
1008:src/display.c ****       const int yreg_hms = 1;
1009:src/display.c **** #  else
1010:src/display.c ****       const int yreg_hms = 0;
1011:src/display.c **** #  endif
1012:src/display.c **** #  ifdef INCLUDE_YREG_FRACT
1013:src/display.c ****       const int yreg_fract = 1;
1014:src/display.c **** #  else
1015:src/display.c ****       const int yreg_fract = 0;
1016:src/display.c **** #  endif
1017:src/display.c **** #else
1018:src/display.c ****       const int yreg_enabled = 0;
1019:src/display.c ****       const int yreg_hms = 0;
1020:src/display.c ****       const int yreg_fract = 0;
1021:src/display.c **** #endif
1022:src/display.c **** #ifdef RP_PREFIX
1023:src/display.c ****       const int rp_prefix = 1;
1024:src/display.c **** #else
1025:src/display.c ****       const int rp_prefix = 0;
1026:src/display.c ****       const int RectPolConv = -1; // This variable doesn't exist without RP_PREFIX
1027:src/display.c **** #endif
1028:src/display.c ****       // Indicates whether font escape code is compiled in.
1029:src/display.c ****       // This variable will always be set at compile time.
1030:src/display.c **** #ifdef INCLUDE_FONT_ESCAPE
1031:src/display.c ****       const int has_FONT_ESCAPE = 1;
1032:src/display.c **** #else
1033:src/display.c ****       const int has_FONT_ESCAPE = 0;
1034:src/display.c **** #endif
1035:src/display.c **** 
1036:src/display.c ****       xset(buf, '\0', sizeof(buf));
1037:src/display.c ****       
1038:src/display.c ****       if (is_intmode()) {
1039:src/display.c **** #ifdef SHOW_STACK_SIZE
1040:src/display.c **** 	if (shift_char == ' ') {
1041:src/display.c **** 	  *p++ = '\007';
ARM GAS  /tmp/cc9o0abE.s 			page 24


1042:src/display.c **** 	  *p++ = '\346';
1043:src/display.c **** 	  *p++ = (UState.stack_depth ? ':' : '.');
1044:src/display.c **** 	}
1045:src/display.c **** 	else
1046:src/display.c **** #endif
1047:src/display.c **** 	  {
1048:src/display.c **** 	    *p++ = shift_char;
1049:src/display.c **** 	    *p++ = '\006';
1050:src/display.c **** 	  }
1051:src/display.c **** 
1052:src/display.c **** 	switch(int_mode()) {
1053:src/display.c **** 	default:
1054:src/display.c **** 	case MODE_2COMP:	q = "2c\006";		break;
1055:src/display.c **** 	case MODE_UNSIGNED:	q = "un\006";		break;
1056:src/display.c **** 	case MODE_1COMP:	q = "\0061c\006\006";	break;
1057:src/display.c **** 	case MODE_SGNMANT:	q = "sm";		break;
1058:src/display.c **** 	}
1059:src/display.c **** 	q = scopy(p, q);
1060:src/display.c **** 	*q++ = '\006';
1061:src/display.c **** 	p = num_arg_0(q, word_size(), 2);
1062:src/display.c **** 
1063:src/display.c **** 	if (IntMaxWindow > 0) {
1064:src/display.c **** 	  n = 4 + 2 * (5 - IntMaxWindow);
1065:src/display.c **** 	  if (*q == '1')
1066:src/display.c **** 	    n += 2;
1067:src/display.c **** 	  if (q[1] == '1')
1068:src/display.c **** 	    n += 2;
1069:src/display.c **** 	  while (n-- > 0)
1070:src/display.c **** 	    *p++ = '\006';
1071:src/display.c **** 
1072:src/display.c **** 	  for (n = IntMaxWindow; n >= 0; n--)
1073:src/display.c **** 	    *p++ = State2.window == n ? '|' : '\'';
1074:src/display.c **** 	}
1075:src/display.c ****       }
1076:src/display.c **** #ifdef INCLUDE_C_LOCK
1077:src/display.c ****       else if ( (!yreg_enabled && !C_LOCKED) // force y-reg display in complex lock mode
1078:src/display.c **** #else
1079:src/display.c ****       else if (!yreg_enabled
1080:src/display.c **** #endif
1081:src/display.c **** #ifdef SHIFT_AND_CMPLX_SUPPRESS_YREG
1082:src/display.c **** 	       || shift_char != ' ' || State2.cmplx
1083:src/display.c **** #endif
1084:src/display.c **** 	       ) {
1085:src/display.c **** 	// The stack size indicator is displayed on the right if date mode indication is enabled
1086:src/display.c **** 	// because the 'D' in small font doesn't look good next to the date mode indicator.
1087:src/display.c **** #if defined SHOW_STACK_SIZE && defined NO_DATEMODE_INDICATION
1088:src/display.c **** 	if (shift_char == ' ') {
1089:src/display.c **** 	  *p++ = '\007';
1090:src/display.c **** 	  *p++ = '\342';
1091:src/display.c **** 	  *p++ = (UState.stack_depth ? ':' : '.');
1092:src/display.c **** 	  *p++ = '\007';
1093:src/display.c **** 	  *p++ = '\344';
1094:src/display.c **** 	  *p++ = (is_dblmode() ? 'D' : ' ');
1095:src/display.c **** 	}
1096:src/display.c **** 	else
1097:src/display.c **** #endif
1098:src/display.c **** 	  if (shift_char != ' ' || !is_dblmode()) {
ARM GAS  /tmp/cc9o0abE.s 			page 25


1099:src/display.c **** 	    *p++ = shift_char;
1100:src/display.c **** 	    *p++ = '\006';
1101:src/display.c **** 	  }
1102:src/display.c **** 	  else {
1103:src/display.c **** 	    *p++ = 'D';
1104:src/display.c **** 	  }
1105:src/display.c **** 
1106:src/display.c **** 	if (State2.cmplx) {
1107:src/display.c **** 	  *p++ = ' ';
1108:src/display.c **** 	  *p = '\024';
1109:src/display.c **** 	  goto skip;
1110:src/display.c **** 	}
1111:src/display.c **** 	if (State2.arrow) {
1112:src/display.c **** 	  *p++ = ' ';
1113:src/display.c **** 	  *p = '\015';
1114:src/display.c **** 	  goto skip;
1115:src/display.c **** 	}
1116:src/display.c **** 
1117:src/display.c **** 	if (shift_char == ' ' && (State2.wascomplex || (rp_prefix && RectPolConv != 0))) {
1118:src/display.c **** 	  if (State2.wascomplex) {
1119:src/display.c **** 	    q = (has_FONT_ESCAPE ? "\007\207i" : "i\006");
1120:src/display.c **** 	  }
1121:src/display.c **** 	  else if (rp_prefix) {
1122:src/display.c **** 	    if (RectPolConv == 1) {
1123:src/display.c **** 	      q = "\007\306<";
1124:src/display.c **** 	    }
1125:src/display.c **** 	    else {
1126:src/display.c **** 	      q = "\007\306y";
1127:src/display.c **** 	    }
1128:src/display.c **** 	  }
1129:src/display.c **** 	  p = scopy(buf, q);
1130:src/display.c **** 
1131:src/display.c **** 	  goto display_yreg;
1132:src/display.c **** 	}
1133:src/display.c **** 
1134:src/display.c **** 	switch (UState.date_mode) {
1135:src/display.c **** #ifndef NO_DATEMODE_INDICATION
1136:src/display.c **** #if defined(DEFAULT_DATEMODE) && (DEFAULT_DATEMODE != 0)
1137:src/display.c **** 	case DATE_DMY:	q = "d.my\006\006";	break;
1138:src/display.c **** #endif
1139:src/display.c **** #if ! defined(DEFAULT_DATEMODE) || (DEFAULT_DATEMODE != 1)
1140:src/display.c **** 	case DATE_YMD:	q = "y.md\006\006";	break;
1141:src/display.c **** #endif
1142:src/display.c **** #if ! defined(DEFAULT_DATEMODE) || (DEFAULT_DATEMODE != 2)
1143:src/display.c **** 	case DATE_MDY:	q = "m.dy\006\006";	break;
1144:src/display.c **** #endif
1145:src/display.c **** #endif
1146:src/display.c **** 	default:	q = (has_FONT_ESCAPE ? "\007\225\006" : "    \006");	break; // 21 pixels
1147:src/display.c **** 	}
1148:src/display.c **** 	p = scopy(p, q);
1149:src/display.c **** #if !defined SHOW_STACK_SIZE || defined NO_DATEMODE_INDICATION
1150:src/display.c **** 	if (get_trig_mode() == TRIG_GRAD) {
1151:src/display.c **** 	  scopy(p, (has_FONT_ESCAPE ? "\006\006\007\210\007" : "\006\006\007" ));
1152:src/display.c **** 	}
1153:src/display.c **** #else
1154:src/display.c **** 	p = scopy(p, (get_trig_mode() == TRIG_GRAD ? "\006\006\007\210\007" : "  "));
1155:src/display.c **** 	*p++ = '\007';
ARM GAS  /tmp/cc9o0abE.s 			page 26


1156:src/display.c **** 	*p++ = '\342';
1157:src/display.c **** 	*p =  (UState.stack_depth ? ':' : '.');
1158:src/display.c **** #endif
1159:src/display.c ****       }
1160:src/display.c ****       else { // yreg_enabled
1161:src/display.c **** #ifndef SHIFT_AND_CMPLX_SUPPRESS_YREG
1162:src/display.c **** 	if (State2.cmplx) {
1163:src/display.c **** 	  *p++ = '\007';
1164:src/display.c **** 	  *p++ = '\344';
1165:src/display.c **** 	  *p++ = shift_char;
1166:src/display.c **** 	  q = "\024";
1167:src/display.c **** 	}
1168:src/display.c **** 	else if (shift_char != ' ') {
1169:src/display.c **** 	  *p++ = '\007';
1170:src/display.c **** 	  *p++ = '\307';
1171:src/display.c **** 	  *p++ = shift_char;
1172:src/display.c **** 	  goto no_copy;
1173:src/display.c **** 	}
1174:src/display.c **** 	else
1175:src/display.c **** #endif
1176:src/display.c **** #ifdef INCLUDE_C_LOCK
1177:src/display.c **** 		if ( (REAL_FLAG || IMAG_FLAG) && C_LOCKED ) {
1178:src/display.c **** 			if ( POLAR_DISPLAY ) {
1179:src/display.c **** 				q = (REAL_FLAG ? "Length:" : "Angle:");
1180:src/display.c **** 			}
1181:src/display.c **** 			else {
1182:src/display.c **** 				q = (REAL_FLAG ? "Real:" : "Imag:");
1183:src/display.c **** 			}
1184:src/display.c **** 			scopy(p, q);
1185:src/display.c **** 			goto skip;
1186:src/display.c **** 		}
1187:src/display.c **** 		else if ((rp_prefix && RectPolConv == 1) || (C_LOCKED && POLAR_DISPLAY)) {
1188:src/display.c **** 			q = "\007\307<";
1189:src/display.c **** 		}
1190:src/display.c **** 		else if (State2.wascomplex || C_LOCKED) {
1191:src/display.c **** 			q = CPX_J ? "\007\207j" : "\007\207i";
1192:src/display.c **** 		}
1193:src/display.c **** #else
1194:src/display.c **** 	  if (State2.wascomplex) {
1195:src/display.c **** 	    q = "\007\207i";
1196:src/display.c **** 	  }
1197:src/display.c **** 	  else if (rp_prefix && RectPolConv == 1) {
1198:src/display.c **** 	    q = "\007\307<";
1199:src/display.c **** 	  }
1200:src/display.c **** #endif
1201:src/display.c **** 	  else if (rp_prefix && RectPolConv == 2) {
1202:src/display.c **** 	    q = "\007\307y";
1203:src/display.c **** 	  }
1204:src/display.c **** #ifdef SHOW_GRADIAN_PREFIX
1205:src/display.c **** 	  else if (get_trig_mode() == TRIG_GRAD) {
1206:src/display.c **** 	    q = "\007\207\007";
1207:src/display.c **** 	  }
1208:src/display.c **** #endif
1209:src/display.c **** 	  else {
1210:src/display.c **** #ifndef SHOW_STACK_SIZE
1211:src/display.c **** 	    q = (is_dblmode() ? "\007\307D" : "\007\207 ");
1212:src/display.c **** #else
ARM GAS  /tmp/cc9o0abE.s 			page 27


1213:src/display.c **** 	    if (is_dblmode()) {
1214:src/display.c **** 	      *p++ = '\007';
1215:src/display.c **** 	      *p++ = '\342';
1216:src/display.c **** 	      *p++ = (UState.stack_depth ? ':' : '.');
1217:src/display.c **** 	      q = "\007\345D";
1218:src/display.c **** 	    }
1219:src/display.c **** 	    else {
1220:src/display.c **** 	      q = (UState.stack_depth ? "\007\347:" : "\007\347.");
1221:src/display.c **** 	    }
1222:src/display.c **** #endif
1223:src/display.c **** 	  }
1224:src/display.c **** 	p = scopy(p, q);
1225:src/display.c **** #ifndef SHIFT_AND_CMPLX_SUPPRESS_YREG
1226:src/display.c ****       no_copy:
1227:src/display.c **** #endif
1228:src/display.c **** 
1229:src/display.c **** 	if (State2.arrow) {
1230:src/display.c **** 	  scopy(p, "\007\204\006\015");
1231:src/display.c **** 	} else if (State2.runmode) {
1232:src/display.c **** 	  decNumber y;
1233:src/display.c **** 	display_yreg:
1234:src/display.c **** 	  /* This is a bit convoluted.  ShowRegister is the real portion being shown.  Normally
1235:src/display.c **** 	   * ShowRegister+1 would contain the complex component, however if the register being
1236:src/display.c **** 	   * examined is on the stack and there is a command line present, the stack will be lifted
1237:src/display.c **** 	   * after we execute so we need to show ShowRegister instead.
1238:src/display.c **** 	   */
1239:src/display.c **** #ifdef INCLUDE_C_LOCK
1240:src/display.c **** 		  if ( C_LOCKED && POLAR_DISPLAY && !POLAR_FORM_NOT_READY) {
1241:src/display.c **** 		    getRegister(&y, regK_idx);
1242:src/display.c **** 		  }
1243:src/display.c **** 		  else {
1244:src/display.c **** 		    getRegister(&y, (ShowRegister >= regX_idx && ShowRegister < regX_idx + stack_size()
1245:src/display.c **** 				     && (get_cmdline() && !State2.catalogue)
1246:src/display.c **** 				     && !(yreg_enabled && !State2.state_lift) // unless stack lift is disabled...
1247:src/display.c **** 				     ) ? ShowRegister : ShowRegister+1);
1248:src/display.c **** 		  }
1249:src/display.c **** #else
1250:src/display.c **** 	  getRegister(&y, (ShowRegister >= regX_idx && ShowRegister < regX_idx + stack_size() && get_cmdli
1251:src/display.c **** 			   && !(yreg_enabled && !State2.state_lift) // unless stack lift is disabled...
1252:src/display.c **** 			   ) ? ShowRegister : ShowRegister+1);
1253:src/display.c **** #endif
1254:src/display.c **** 	  if ((yreg_hms || yreg_fract) && !decNumberIsSpecial(&y)) {
1255:src/display.c **** #ifdef INCLUDE_C_LOCK
1256:src/display.c **** 		    if (yreg_hms && State2.hms && ( !C_LOCKED || ( C_LOCKED && (POLAR_DISPLAY && ((enum trig_mode
1257:src/display.c **** #else
1258:src/display.c **** 	    if (yreg_hms && State2.hms) {
1259:src/display.c **** #endif
1260:src/display.c **** 	      const int saved_nothousands = UState.nothousands;
1261:src/display.c **** 
1262:src/display.c **** 	      xset(buf, '\0', sizeof(buf));
1263:src/display.c **** 	      UState.nothousands = 1;
1264:src/display.c **** 	      set_x_hms(&y, buf); // no prefix or alignment for HMS display
1265:src/display.c **** 	      UState.nothousands = saved_nothousands;
1266:src/display.c **** 	      // First replace the '@' character with the degree symbol
1267:src/display.c **** 	      // Then, if the string doesn't fit in the dot matrix display, replace spaces with narrow spa
1268:src/display.c **** 	      // then remove the second symbol (") and the overflow or underflow signs,
1269:src/display.c **** 	      // then remove the fractional part of the seconds.
ARM GAS  /tmp/cc9o0abE.s 			page 28


1270:src/display.c **** 	      p = "@\005 \006\"\0.\0";
1271:src/display.c **** 	      while (*p) {
1272:src/display.c **** 		replace_char(buf, p[0], p[1]);
1273:src/display.c **** 		if (pixel_length(buf, 1) <= BW_TOP + 1) {
1274:src/display.c **** 		  goto skip;
1275:src/display.c **** 		}
1276:src/display.c **** 		p += 2;
1277:src/display.c **** 	      }
1278:src/display.c **** 	      goto skip;
1279:src/display.c **** 	    }
1280:src/display.c **** 	    if (yreg_fract && UState.fract
1281:src/display.c **** #ifndef SHIFT_AND_CMPLX_SUPPRESS_YREG
1282:src/display.c **** 		&& !State2.cmplx
1283:src/display.c **** #endif
1284:src/display.c **** #ifdef ANGLES_NOT_SHOWN_AS_FRACTIONS
1285:src/display.c **** 		&& !(rp_prefix && RectPolConv == 1)
1286:src/display.c **** #endif
1287:src/display.c **** 		&& set_x_fract(&y, p)) {
1288:src/display.c **** 	      char ltgteq;
1289:src/display.c **** 
1290:src/display.c **** 	      q = find_char(buf, '\0') - 2;
1291:src/display.c **** 	      // Replace Lt/Gt/= with </>/= in small font
1292:src/display.c **** 	      ltgteq = *q;
1293:src/display.c **** 	      switch (ltgteq) {
1294:src/display.c **** 	      case 'G':	ltgteq = '>'; break;
1295:src/display.c **** 	      case 'L':	ltgteq = '<'; break;
1296:src/display.c **** 	      }
1297:src/display.c **** 	      scopy(q, "\007\344?");
1298:src/display.c **** 	      q[2] = ltgteq;
1299:src/display.c **** 
1300:src/display.c **** 	      if (pixel_length(buf, 1) <= BW_TOP + 1) {
1301:src/display.c **** 		goto skip;
1302:src/display.c **** 	      }
1303:src/display.c **** 	      q[-1] = '\0'; // Remove </>/= if string doesn't fit in the dot matrix display
1304:src/display.c **** 	      if (pixel_length(buf, 1) <= BW_TOP + 1) {
1305:src/display.c **** 		goto skip;
1306:src/display.c **** 	      }
1307:src/display.c **** 	      xset(p, '\0', sizeof(buf) - (p - buf));
1308:src/display.c **** 	    }
1309:src/display.c **** 	  }
1310:src/display.c **** 	  for (n=DISPLAY_DIGITS; n>1; ) {
1311:src/display.c **** 	    int extra_pixels;
1312:src/display.c **** 
1313:src/display.c **** 	    set_x_dn(&y, p, &n);
1314:src/display.c **** 	    extra_pixels = pixel_length(buf, 1) - (BW_TOP + 1);
1315:src/display.c **** 	    if (extra_pixels <= 0)
1316:src/display.c **** 	      break;
1317:src/display.c **** 
1318:src/display.c **** 	    xset(p, '\0', n+10);
1319:src/display.c **** 
1320:src/display.c **** 	    n -= (extra_pixels + 3) / 4; // The maximum width of digits in the small font is 4 pixels.
1321:src/display.c **** 	  }
1322:src/display.c **** 	}
1323:src/display.c ****       }
1324:src/display.c ****       
1325:src/display.c ****     skip:	set_status_top(buf);
1326:src/display.c ****     }
ARM GAS  /tmp/cc9o0abE.s 			page 29


1327:src/display.c **** #endif //top_row
1328:src/display.c ****     static void disp_x(const char *p) {
1329:src/display.c ****       int i;
1330:src/display.c ****       int gotdot = -1;
1331:src/display.c **** #if !defined(PRETTY_FRACTION_ENTRY) || defined(FRACTION_ENTRY_OVERFLOW_LEFT)
1332:src/display.c ****       const
1333:src/display.c **** #endif
1334:src/display.c **** 	int segs_per_digit = SEGS_PER_DIGIT;
1335:src/display.c **** #if defined(PRETTY_FRACTION_ENTRY) && defined(FRACTION_ENTRY_OVERFLOW_LEFT)
1336:src/display.c ****       int overflow_to_left = 0;
1337:src/display.c **** #endif
1338:src/display.c **** 
1339:src/display.c ****       if (*p == '-') {
1340:src/display.c **** 	SET_MANT_SIGN;
1341:src/display.c **** 	p++;
1342:src/display.c ****       }
1343:src/display.c **** 
1344:src/display.c ****       if (is_intmode()) {
1345:src/display.c **** 	for (i=0; *p != '\0'; p++) {
1346:src/display.c **** 	  set_dig(i, *p);
1347:src/display.c **** 	  i += SEGS_PER_DIGIT;
1348:src/display.c **** 	}
1349:src/display.c **** 	carry_overflow();
1350:src/display.c ****       } else {
1351:src/display.c **** 	set_separator_decimal_modes();
1352:src/display.c **** 
1353:src/display.c **** 	i = 0;
1354:src/display.c **** #if defined(PRETTY_FRACTION_ENTRY) && defined(FRACTION_ENTRY_OVERFLOW_LEFT)
1355:src/display.c **** 	if ( CmdLineDot > 1 ) {
1356:src/display.c **** #  if !defined(INCLUDE_DOUBLEDOT_FRACTIONS)
1357:src/display.c **** 	  const
1358:src/display.c **** #  endif
1359:src/display.c **** 	    int double_dot = 0;
1360:src/display.c **** 	  int j;
1361:src/display.c **** 
1362:src/display.c **** 	  for (j=0; p[j] != '\0'; j++) {
1363:src/display.c **** 	    if (p[j] == '.' && gotdot < 0) {
1364:src/display.c **** 	      gotdot = j;
1365:src/display.c **** #  if defined(INCLUDE_DOUBLEDOT_FRACTIONS)
1366:src/display.c **** 	      double_dot = (p[j+1] == '.');
1367:src/display.c **** #  endif
1368:src/display.c **** 	    }
1369:src/display.c **** 	  }
1370:src/display.c **** 	  j -= DISPLAY_DIGITS + double_dot;
1371:src/display.c **** 	  if (j > 0) {
1372:src/display.c **** 	    p += j + 1;
1373:src/display.c **** 	    i = SEGS_PER_DIGIT;
1374:src/display.c **** 	    if (gotdot <= j) {
1375:src/display.c **** 	      gotdot = 0;
1376:src/display.c **** 	      if (double_dot)
1377:src/display.c **** 		p++;
1378:src/display.c **** 	    }
1379:src/display.c **** 	    else if (*p == '.') {
1380:src/display.c **** 	      gotdot = 0;
1381:src/display.c **** 	      p++;
1382:src/display.c **** 	      if (!double_dot)
1383:src/display.c **** 		i = 2*SEGS_PER_DIGIT;
ARM GAS  /tmp/cc9o0abE.s 			page 30


1384:src/display.c **** 	    }
1385:src/display.c **** 	    else gotdot = -1;
1386:src/display.c **** 	    set_dig(0, '<');
1387:src/display.c **** 	    overflow_to_left = 1;
1388:src/display.c **** 	  }
1389:src/display.c **** 	  else gotdot = -1;
1390:src/display.c **** 	}
1391:src/display.c **** #endif
1392:src/display.c **** 
1393:src/display.c **** 	for (; *p != '\0' && *p != 'E'
1394:src/display.c **** #ifdef LARGE_EXPONENT_ENTRY
1395:src/display.c **** 	       && *p != 'D'
1396:src/display.c **** #endif
1397:src/display.c **** 	       ; p++) {
1398:src/display.c **** 	  if (*p == '.') {
1399:src/display.c **** 	    if (gotdot < 0)
1400:src/display.c **** 	      gotdot = i;
1401:src/display.c **** #if defined(PRETTY_FRACTION_ENTRY)
1402:src/display.c **** #  if defined(INCLUDE_DOUBLEDOT_FRACTIONS)
1403:src/display.c **** 	    if ( *(p+1) == '.' || ( i != gotdot ) ) {
1404:src/display.c **** 	      if ( *(p+1) == '.' ) {
1405:src/display.c **** 		p++;
1406:src/display.c **** 	      }
1407:src/display.c **** #  else
1408:src/display.c **** 	      if ( i != gotdot ) {
1409:src/display.c **** #  endif
1410:src/display.c **** 		set_dig(i, '/'); // put in a fraction separator
1411:src/display.c **** 		i += segs_per_digit;
1412:src/display.c **** 	      }
1413:src/display.c **** 	      else {
1414:src/display.c **** 		if ( CmdLineDot > 1 ) {
1415:src/display.c **** 		  i += segs_per_digit;
1416:src/display.c **** 		}
1417:src/display.c **** 		else {
1418:src/display.c **** 		  set_decimal(i - SEGS_PER_DIGIT, DecimalMode, CNULL);
1419:src/display.c **** 		  //						i += SEGS_PER_DIGIT;
1420:src/display.c **** 		}
1421:src/display.c **** 	      }
1422:src/display.c **** #else
1423:src/display.c **** 	      if (i > 0)
1424:src/display.c **** 		set_decimal(i - segs_per_digit, DecimalMode, CNULL);
1425:src/display.c **** 	      else {
1426:src/display.c **** 		set_dig(i, '0');
1427:src/display.c **** 		set_decimal(i, DecimalMode, CNULL);
1428:src/display.c **** 		i += segs_per_digit;
1429:src/display.c **** 	      }
1430:src/display.c **** #endif
1431:src/display.c **** 	    } else {
1432:src/display.c **** 	      set_dig(i, *p);
1433:src/display.c **** 	      i += segs_per_digit;
1434:src/display.c **** 	    }
1435:src/display.c **** #if defined(PRETTY_FRACTION_ENTRY) && !defined(FRACTION_ENTRY_OVERFLOW_LEFT)
1436:src/display.c **** 	    if (i == SEGS_EXP_BASE)
1437:src/display.c **** 	      segs_per_digit = SEGS_PER_EXP_DIGIT;
1438:src/display.c **** #endif
1439:src/display.c **** 	  }
1440:src/display.c **** 
ARM GAS  /tmp/cc9o0abE.s 			page 31


1441:src/display.c **** 	  /* Implement a floating comma */
1442:src/display.c **** 	  if (gotdot < 0)
1443:src/display.c **** 	    gotdot = i;
1444:src/display.c **** 	  for (;;) {
1445:src/display.c **** 	    gotdot -= 3 * SEGS_PER_DIGIT;
1446:src/display.c **** 	    if (gotdot <= 0)			// MvC: was '<', caused crash
1447:src/display.c **** 	      break;
1448:src/display.c **** #if defined(PRETTY_FRACTION_ENTRY) && defined(FRACTION_ENTRY_OVERFLOW_LEFT)
1449:src/display.c **** 	    if (overflow_to_left && gotdot == SEGS_PER_DIGIT)
1450:src/display.c **** 	      break;
1451:src/display.c **** #endif
1452:src/display.c **** 	    set_separator(gotdot, SeparatorMode, CNULL);
1453:src/display.c **** 	  }
1454:src/display.c **** 
1455:src/display.c **** #ifdef LARGE_EXPONENT_ENTRY
1456:src/display.c **** 	  if (*p == 'E' || *p == 'D') {
1457:src/display.c **** #  ifdef DONT_PAD_EXPONENT_ENTRY
1458:src/display.c **** 	    int flags = 8;
1459:src/display.c **** #  else
1460:src/display.c **** 	    int flags = 12;
1461:src/display.c **** #  endif
1462:src/display.c **** 
1463:src/display.c **** 	    if (*p == 'D')
1464:src/display.c **** 	      flags |= 2;
1465:src/display.c **** 	    if (i > 10 * SEGS_PER_DIGIT)
1466:src/display.c **** 	      flags |= 16;
1467:src/display.c **** 	    set_exp(s_to_i(p+1), flags, CNULL);
1468:src/display.c **** 	  }
1469:src/display.c **** #else
1470:src/display.c **** 	  if (*p == 'E') {
1471:src/display.c **** 	    p++;
1472:src/display.c **** 	    // set_exp() takes care of setting the exponent sign
1473:src/display.c **** #  ifdef DONT_PAD_EXPONENT_ENTRY
1474:src/display.c **** 	    set_exp(s_to_i(p), 2 * (*p == '-'), CNULL);
1475:src/display.c **** #  else
1476:src/display.c **** 	    set_exp(s_to_i(p), 4 + 2 * (*p == '-'), CNULL);
1477:src/display.c **** #  endif
1478:src/display.c **** 	  } 
1479:src/display.c **** #endif
1480:src/display.c **** 	}
1481:src/display.c ****       }
1482:src/display.c **** 
1483:src/display.c ****       const char DIGITS[] = "0123456789ABCDEF";
1484:src/display.c **** 
1485:src/display.c ****       static void set_int_x(const long long int value, char *res) {
1486:src/display.c **** 	const int ws = word_size();
1487:src/display.c **** 	unsigned int b;
1488:src/display.c **** 	long long int vs = value;
1489:src/display.c **** 	unsigned long long int v;
1490:src/display.c **** 	char buf[MAX_WORD_SIZE + 1];
1491:src/display.c **** 	int i, j, k;
1492:src/display.c **** 	int sign = 0;
1493:src/display.c **** 	int dig = SEGS_PER_DIGIT * 11;
1494:src/display.c **** 
1495:src/display.c **** 	switch (State2.smode) {
1496:src/display.c **** 	case SDISP_BIN:	b = 2;		break;
1497:src/display.c **** 	case SDISP_OCT:	b = 8;		break;
ARM GAS  /tmp/cc9o0abE.s 			page 32


1498:src/display.c **** 	case SDISP_DEC:	b = 10;		break;
1499:src/display.c **** 	case SDISP_HEX:	b = 16;		break;
1500:src/display.c **** 	default:	b = int_base();	break;
1501:src/display.c **** 	}
1502:src/display.c **** 
1503:src/display.c **** 	if (!res) {
1504:src/display.c **** 	  IntMaxWindow = 0;
1505:src/display.c **** 	  carry_overflow();
1506:src/display.c **** 	}
1507:src/display.c **** 
1508:src/display.c **** 	if ((0x7f75 & (1 << (b-1))) != 0) { // excludes bases 2, 4, 8, 16
1509:src/display.c **** 	  v = extract_value(value, &sign);
1510:src/display.c **** 	  if (int_mode() == MODE_2COMP && sign == 1 && v == 0)
1511:src/display.c **** 	    v = value;
1512:src/display.c **** 	  if (v == 0) {
1513:src/display.c **** 	    if (sign)
1514:src/display.c **** 	      set_dig_s(dig-SEGS_PER_DIGIT, '-', res);
1515:src/display.c **** 	    set_dig_s(dig, '0', res);
1516:src/display.c **** 	    return;
1517:src/display.c **** 	  } else
1518:src/display.c **** 	    for (i=0; v != 0; i++) {
1519:src/display.c **** 	      const int r = v % b;
1520:src/display.c **** 	      v /= b;
1521:src/display.c **** 	      buf[i] = DIGITS[r];
1522:src/display.c **** 	    }
1523:src/display.c **** 	} else {
1524:src/display.c **** 	  // Truncate down to the current word size and then sign extend it back
1525:src/display.c **** 	  if (ws < 64) {
1526:src/display.c **** 	    const long long int mask = (1LL << ws) - 1;
1527:src/display.c **** 	    vs &= mask;
1528:src/display.c **** 	    if (b == 10 && (vs & (1LL << (ws-1))))
1529:src/display.c **** 	      vs |= ~mask;
1530:src/display.c **** 	  }
1531:src/display.c **** 
1532:src/display.c **** 	  if (!UState.leadzero && vs == 0) {
1533:src/display.c **** 	    set_dig_s(dig, '0', res);
1534:src/display.c **** 	    return;
1535:src/display.c **** 	  } else if (!UState.leadzero) {
1536:src/display.c **** 	    v = (unsigned long long int)vs;
1537:src/display.c **** 	    for (i=0; v != 0; i++) {
1538:src/display.c **** 	      const int r = v % b;
1539:src/display.c **** 	      v /= b;
1540:src/display.c **** 	      buf[i] = DIGITS[r];
1541:src/display.c **** 	    }
1542:src/display.c **** 	  } else {
1543:src/display.c **** 	    int n;
1544:src/display.c **** 	    const unsigned int b1 = b >> 1;
1545:src/display.c **** 	    const unsigned int fac = ((b1 & 0xa) != 0) | (((b1 & 0xc) != 0) << 1);
1546:src/display.c **** 	    v = (unsigned long long int)vs;
1547:src/display.c **** 
1548:src/display.c **** 	    n = (ws + fac) / (fac+1);
1549:src/display.c **** 	    for (i=0; i<n; i++) {
1550:src/display.c **** 	      const int r = v % b;
1551:src/display.c **** 	      v /= b;
1552:src/display.c **** 	      buf[i] = DIGITS[r];
1553:src/display.c **** 	    }
1554:src/display.c **** 	  }
ARM GAS  /tmp/cc9o0abE.s 			page 33


1555:src/display.c **** 	}
1556:src/display.c **** #ifdef BIGGER_DISPLAY
1557:src/display.c **** #define MAX_INT_Y_DIG 13
1558:src/display.c **** #else
1559:src/display.c **** #define MAX_INT_Y_DIG 7
1560:src/display.c **** #endif
1561:src/display.c **** 	/* At this point i is the number of digits in the output */
1562:src/display.c **** 	int nd = i;
1563:src/display.c **** 	if (res) {
1564:src/display.c **** 	  if (sign) *res++ = '-';
1565:src/display.c **** 	  if (i > MAX_INT_Y_DIG) {
1566:src/display.c **** 	    while (--i >= (nd - MAX_INT_Y_DIG))
1567:src/display.c **** 	      *res++ = buf[i];
1568:src/display.c **** 	    *res++ = '.';
1569:src/display.c **** 	    *res++ = '.';
1570:src/display.c **** 	  }
1571:src/display.c **** 	  else {
1572:src/display.c **** 	    while (--i >= 0)
1573:src/display.c **** 	      *res++ = buf[i];
1574:src/display.c **** 	  }
1575:src/display.c **** 	} else {
1576:src/display.c **** #if 0
1577:src/display.c **** 	  set_separator_decimal_modes();
1578:src/display.c **** 
1579:src/display.c **** 	  // Allows configuration of digit grouping per base
1580:src/display.c **** 	  static const char grouping[] = 
1581:src/display.c **** 	    {       0x84, 0xb3, 0xb4, 0xb3, 0xb3, 0xb3, 0xb3, 
1582:src/display.c **** 		    //	   2     3     4     5     6     7     8
1583:src/display.c **** 		    0xb3, 0xb3, 0xb3, 0xb3, 0xb3, 0xb3, 0xb3, 0xb2 };
1584:src/display.c **** 	  //     9    10    11    12    13    14    15    16
1585:src/display.c **** 	  const int shift = SeparatorMode == SEP_NONE ? 12 
1586:src/display.c **** 	    : grouping[b - 2] >> 4;
1587:src/display.c **** 	  const int group = SeparatorMode == SEP_NONE ? 16
1588:src/display.c **** 	    : (grouping[b - 2] & 0xf);
1589:src/display.c **** #else
1590:src/display.c **** 	  // Less flexible but shorter
1591:src/display.c **** 	  const int shift = b == 2 ? 8 : 12;
1592:src/display.c **** 	  const int group = (b == 2 || b == 4) ? 4
1593:src/display.c **** 	    : b == 16 ? 2 : 3;
1594:src/display.c **** 	  set_separator_decimal_modes();
1595:src/display.c **** #endif
1596:src/display.c **** 	  IntMaxWindow = (i - 1) / shift;
1597:src/display.c **** 	  if ((SMALL_INT) State2.window > IntMaxWindow)
1598:src/display.c **** 	    State2.window = 0;
1599:src/display.c **** 	  buf[i] = '\0';
1600:src/display.c **** 
1601:src/display.c **** 	  j = State2.window * shift;	// digits at a time
1602:src/display.c **** 	  for (k = 0; k < 12; k++)
1603:src/display.c **** 	    if (buf[j + k] == '\0')
1604:src/display.c **** 	      break;
1605:src/display.c **** 	  for (i=0; --k >= 0; i++) {
1606:src/display.c **** 	    int ch = buf[j++];
1607:src/display.c **** 	    if (i >= shift)
1608:src/display.c **** 	      ch -= 030;
1609:src/display.c **** 	    set_dig(dig, ch);
1610:src/display.c **** 	    if ((j % group) == 0 && k != 0)
1611:src/display.c **** 	      set_separator(dig, SeparatorMode, CNULL);
ARM GAS  /tmp/cc9o0abE.s 			page 34


1612:src/display.c **** 	    dig -= SEGS_PER_DIGIT;
1613:src/display.c **** 	  }
1614:src/display.c **** 	  if (sign) {
1615:src/display.c **** 	    if (dig >= 0)
1616:src/display.c **** 	      set_dig(dig, '-');
1617:src/display.c **** 	    else	SET_MANT_SIGN;
1618:src/display.c **** 	  }
1619:src/display.c **** 	}
1620:src/display.c ****       }
1621:src/display.c **** 
1622:src/display.c ****       /* Handle special cases.
1623:src/display.c ****        * return non-zero if the number is special.
1624:src/display.c ****        */
1625:src/display.c ****       static int check_special_dn(const decNumber *x, char *res) {
1626:src/display.c **** 	if (decNumberIsSpecial(x)) {
1627:src/display.c **** 	  if (decNumberIsNaN(x)) {
1628:src/display.c **** 	    if (res) {
1629:src/display.c **** 	      scopy(res, "NaN");
1630:src/display.c **** 	    } else {
1631:src/display.c **** 	      set_digits_string(S7_NaN, 0);
1632:src/display.c **** #if !defined(REALBUILD) && !defined(DM42)
1633:src/display.c **** 	      scopy(LastDisplayedNumber, S7_NaN_Text);
1634:src/display.c **** 	      forceDispPlot=0;
1635:src/display.c **** #endif
1636:src/display.c **** 	    }
1637:src/display.c **** 	    return 1;
1638:src/display.c **** 	  } else {
1639:src/display.c **** 	    if (decNumberIsNegative(x)) {
1640:src/display.c **** 	      if (res) *res++ = '-';
1641:src/display.c **** 	      else	set_dig(SEGS_PER_DIGIT, '-');
1642:src/display.c **** 	    }
1643:src/display.c **** 	    if (res)
1644:src/display.c **** 	      *res++ = '\237';
1645:src/display.c **** 	    else {
1646:src/display.c **** 	      set_digits_string(S7_INF, SEGS_PER_DIGIT * 2);
1647:src/display.c **** #if !defined(REALBUILD) && !defined(DM42)
1648:src/display.c **** 	      if (decNumberIsNegative(x)) {
1649:src/display.c **** 		scopy(LastDisplayedNumber, S7_NEG_INF_Text);
1650:src/display.c **** 	      }
1651:src/display.c **** 	      else {
1652:src/display.c **** 		scopy(LastDisplayedNumber, S7_INF_Text);
1653:src/display.c **** 	      }
1654:src/display.c **** 	      forceDispPlot=0;
1655:src/display.c **** #endif
1656:src/display.c **** 	    }
1657:src/display.c **** 	    return 1;
1658:src/display.c **** 	  }
1659:src/display.c **** 	}
1660:src/display.c **** 	return 0;
1661:src/display.c ****       }
1662:src/display.c **** 
1663:src/display.c **** 
1664:src/display.c ****       /* Extract the two lowest integral digits from the number
1665:src/display.c ****        */
1666:src/display.c ****       static void hms_step(decNumber *res, decNumber *x, unsigned int *v) {
1667:src/display.c **** 	decNumber n;
1668:src/display.c **** 
ARM GAS  /tmp/cc9o0abE.s 			page 35


1669:src/display.c **** 	decNumberMod(&n, x, &const_100);
1670:src/display.c **** 	*v = dn_to_int(&n);
1671:src/display.c **** 	dn_mulpow10(&n, x, -2);
1672:src/display.c **** 	decNumberTrunc(res, &n);
1673:src/display.c ****       }
1674:src/display.c **** 
1675:src/display.c ****       static char *hms_render(unsigned int v, char *str, int *jin, int n, int spaces) {
 235              		.loc 1 1675 87 is_stmt 1 view -0
 236              		.cfi_startproc
 237              		@ args = 4, pretend = 0, frame = 32
 238              		@ frame_needed = 0, uses_anonymous_args = 0
1676:src/display.c **** 	char b[32];
 239              		.loc 1 1676 2 view .LVU68
1677:src/display.c **** 	int i, j;
 240              		.loc 1 1677 2 view .LVU69
1678:src/display.c **** 
1679:src/display.c **** 	for (i=0; i<n; i++) {
 241              		.loc 1 1679 2 view .LVU70
 242              		.loc 1 1679 12 view .LVU71
1675:src/display.c **** 	char b[32];
 243              		.loc 1 1675 87 is_stmt 0 view .LVU72
 244 0000 2DE9F043 		push	{r4, r5, r6, r7, r8, r9, lr}
 245              		.cfi_def_cfa_offset 28
 246              		.cfi_offset 4, -28
 247              		.cfi_offset 5, -24
 248              		.cfi_offset 6, -20
 249              		.cfi_offset 7, -16
 250              		.cfi_offset 8, -12
 251              		.cfi_offset 9, -8
 252              		.cfi_offset 14, -4
1680:src/display.c **** 	  if (v == 0)
1681:src/display.c **** 	    b[i] = spaces?' ':'0';
1682:src/display.c **** 	  else {
1683:src/display.c **** 	    j = v % 10;
 253              		.loc 1 1683 12 view .LVU73
 254 0004 DFF89CE0 		ldr	lr, .L42
1675:src/display.c **** 	char b[32];
 255              		.loc 1 1675 87 view .LVU74
 256 0008 89B0     		sub	sp, sp, #36
 257              		.cfi_def_cfa_offset 64
1675:src/display.c **** 	char b[32];
 258              		.loc 1 1675 87 view .LVU75
 259 000a 1746     		mov	r7, r2
 260 000c EC46     		mov	ip, sp
1679:src/display.c **** 	  if (v == 0)
 261              		.loc 1 1679 8 view .LVU76
 262 000e 0026     		movs	r6, #0
 263              	.LVL13:
 264              	.L30:
1680:src/display.c **** 	  if (v == 0)
 265              		.loc 1 1680 4 is_stmt 1 view .LVU77
 266              		.loc 1 1683 6 view .LVU78
 267              		.loc 1 1683 12 is_stmt 0 view .LVU79
 268 0010 AEFB0024 		umull	r2, r4, lr, r0
 269 0014 E408     		lsrs	r4, r4, #3
 270 0016 04EB8402 		add	r2, r4, r4, lsl #2
 271 001a 2546     		mov	r5, r4
ARM GAS  /tmp/cc9o0abE.s 			page 36


 272 001c A0EB4204 		sub	r4, r0, r2, lsl #1
 273              	.LVL14:
1684:src/display.c **** 	    v /= 10;
 274              		.loc 1 1684 6 is_stmt 1 view .LVU80
1685:src/display.c **** 	    b[i] = j + '0';
 275              		.loc 1 1685 15 is_stmt 0 view .LVU81
 276 0020 3034     		adds	r4, r4, #48
 277              	.LVL15:
1679:src/display.c **** 	  if (v == 0)
 278              		.loc 1 1679 18 view .LVU82
 279 0022 721C     		adds	r2, r6, #1
1680:src/display.c **** 	    b[i] = spaces?' ':'0';
 280              		.loc 1 1680 7 view .LVU83
 281 0024 30B1     		cbz	r0, .L41
1679:src/display.c **** 	  if (v == 0)
 282              		.loc 1 1679 2 view .LVU84
 283 0026 9342     		cmp	r3, r2
 284              		.loc 1 1685 11 view .LVU85
 285 0028 0CF8014B 		strb	r4, [ip], #1
1684:src/display.c **** 	    b[i] = j + '0';
 286              		.loc 1 1684 8 view .LVU86
 287 002c 2846     		mov	r0, r5
 288              	.LVL16:
 289              		.loc 1 1685 6 is_stmt 1 view .LVU87
1679:src/display.c **** 	  if (v == 0)
 290              		.loc 1 1679 17 view .LVU88
1679:src/display.c **** 	  if (v == 0)
 291              		.loc 1 1679 12 view .LVU89
1679:src/display.c **** 	  if (v == 0)
 292              		.loc 1 1679 2 is_stmt 0 view .LVU90
 293 002e 12D0     		beq	.L31
 294 0030 1646     		mov	r6, r2
 295 0032 EDE7     		b	.L30
 296              	.LVL17:
 297              	.L41:
1679:src/display.c **** 	  if (v == 0)
 298              		.loc 1 1679 2 view .LVU91
 299 0034 109A     		ldr	r2, [sp, #64]
 300 0036 002A     		cmp	r2, #0
 301 0038 14BF     		ite	ne
 302 003a 2024     		movne	r4, #32
 303              	.LVL18:
1679:src/display.c **** 	  if (v == 0)
 304              		.loc 1 1679 2 view .LVU92
 305 003c 3024     		moveq	r4, #48
 306 003e 0DEB0600 		add	r0, sp, r6
 307              	.LVL19:
1680:src/display.c **** 	    b[i] = spaces?' ':'0';
 308              		.loc 1 1680 7 view .LVU93
 309 0042 3246     		mov	r2, r6
 310              	.LVL20:
 311              	.L28:
1681:src/display.c **** 	  else {
 312              		.loc 1 1681 6 is_stmt 1 view .LVU94
1679:src/display.c **** 	  if (v == 0)
 313              		.loc 1 1679 18 is_stmt 0 view .LVU95
 314 0044 0132     		adds	r2, r2, #1
ARM GAS  /tmp/cc9o0abE.s 			page 37


 315              	.LVL21:
1679:src/display.c **** 	  if (v == 0)
 316              		.loc 1 1679 2 view .LVU96
 317 0046 9342     		cmp	r3, r2
1681:src/display.c **** 	  else {
 318              		.loc 1 1681 11 view .LVU97
 319 0048 00F8014B 		strb	r4, [r0], #1
 320              	.LVL22:
1679:src/display.c **** 	  if (v == 0)
 321              		.loc 1 1679 17 is_stmt 1 view .LVU98
1679:src/display.c **** 	  if (v == 0)
 322              		.loc 1 1679 12 view .LVU99
1679:src/display.c **** 	  if (v == 0)
 323              		.loc 1 1679 2 is_stmt 0 view .LVU100
 324 004c FADC     		bgt	.L28
 325 004e 5A1E     		subs	r2, r3, #1
 326              	.LVL23:
1679:src/display.c **** 	  if (v == 0)
 327              		.loc 1 1679 2 view .LVU101
 328 0050 B342     		cmp	r3, r6
 329 0052 C8BF     		it	gt
 330 0054 1646     		movgt	r6, r2
 331              	.LVL24:
 332              	.L31:
1686:src/display.c **** 	  }
1687:src/display.c **** 	}
1688:src/display.c **** 	if (b[0] == ' ')
 333              		.loc 1 1688 2 is_stmt 1 view .LVU102
 334              		.loc 1 1688 5 is_stmt 0 view .LVU103
 335 0056 9DF80030 		ldrb	r3, [sp]	@ zero_extendqisi2
 336              	.LVL25:
1689:src/display.c **** 	  b[0] = '0';
1690:src/display.c **** 
1691:src/display.c **** 	/* Copy across and appropriately leading space things
1692:src/display.c **** 	 */
1693:src/display.c **** 	j = *jin;
 337              		.loc 1 1693 4 view .LVU104
 338 005a D7F80090 		ldr	r9, [r7]
1688:src/display.c **** 	  b[0] = '0';
 339              		.loc 1 1688 5 view .LVU105
 340 005e 202B     		cmp	r3, #32
1689:src/display.c **** 	  b[0] = '0';
 341              		.loc 1 1689 4 is_stmt 1 view .LVU106
1689:src/display.c **** 	  b[0] = '0';
 342              		.loc 1 1689 9 is_stmt 0 view .LVU107
 343 0060 04BF     		itt	eq
 344 0062 3023     		moveq	r3, #48
 345 0064 8DF80030 		strbeq	r3, [sp]
 346              		.loc 1 1693 2 is_stmt 1 view .LVU108
 347              	.LVL26:
1694:src/display.c **** 	while (--i >= 0) {
 348              		.loc 1 1694 2 view .LVU109
 349              		.loc 1 1694 8 view .LVU110
1693:src/display.c **** 	while (--i >= 0) {
 350              		.loc 1 1693 4 is_stmt 0 view .LVU111
 351 0068 0D46     		mov	r5, r1
 352 006a C846     		mov	r8, r9
ARM GAS  /tmp/cc9o0abE.s 			page 38


 353              		.loc 1 1694 8 view .LVU112
 354 006c 3446     		mov	r4, r6
 355              	.LVL27:
 356              	.L35:
1695:src/display.c **** 	  str = set_dig_s(j, b[i], str);
 357              		.loc 1 1695 4 is_stmt 1 view .LVU113
 358              	.LBB166:
 359              	.LBB167:
 416:src/display.c ****   else	set_dig(base, ch);
 360              		.loc 1 416 12 view .LVU114
 361              	.LBE167:
 362              	.LBE166:
 363              		.loc 1 1695 24 is_stmt 0 view .LVU115
 364 006e 1DF80410 		ldrb	r1, [sp, r4]	@ zero_extendqisi2
 365              	.LBB171:
 366              	.LBB168:
 416:src/display.c ****   else	set_dig(base, ch);
 367              		.loc 1 416 16 view .LVU116
 368 0072 2B46     		mov	r3, r5
 369              	.LVL28:
 416:src/display.c ****   else	set_dig(base, ch);
 370              		.loc 1 416 16 view .LVU117
 371              	.LBE168:
 372              	.LBI166:
 415:src/display.c ****   if (res) *res++ = ch;
 373              		.loc 1 415 14 is_stmt 1 view .LVU118
 374              	.LBB169:
 416:src/display.c ****   else	set_dig(base, ch);
 375              		.loc 1 416 3 view .LVU119
 416:src/display.c ****   else	set_dig(base, ch);
 376              		.loc 1 416 6 is_stmt 0 view .LVU120
 377 0074 95B1     		cbz	r5, .L33
 378              	.LVL29:
 416:src/display.c ****   else	set_dig(base, ch);
 379              		.loc 1 416 19 view .LVU121
 380 0076 03F8011B 		strb	r1, [r3], #1
 381              	.LVL30:
 416:src/display.c ****   else	set_dig(base, ch);
 382              		.loc 1 416 16 view .LVU122
 383 007a 1D46     		mov	r5, r3
 384              	.LVL31:
 385              	.L34:
 418:src/display.c **** }
 386              		.loc 1 418 3 is_stmt 1 view .LVU123
 418:src/display.c **** }
 387              		.loc 1 418 3 is_stmt 0 view .LVU124
 388              	.LBE169:
 389              	.LBE171:
1696:src/display.c **** 	  j += SEGS_PER_DIGIT;
 390              		.loc 1 1696 4 is_stmt 1 view .LVU125
1694:src/display.c **** 	  str = set_dig_s(j, b[i], str);
 391              		.loc 1 1694 8 is_stmt 0 view .LVU126
 392 007c 013C     		subs	r4, r4, #1
 393              	.LVL32:
 394              		.loc 1 1696 6 view .LVU127
 395 007e 08F10908 		add	r8, r8, #9
 396              	.LVL33:
ARM GAS  /tmp/cc9o0abE.s 			page 39


1694:src/display.c **** 	  str = set_dig_s(j, b[i], str);
 397              		.loc 1 1694 8 is_stmt 1 view .LVU128
 398 0082 F4D5     		bpl	.L35
1697:src/display.c **** 	}
1698:src/display.c **** 	*jin = j;
 399              		.loc 1 1698 7 is_stmt 0 view .LVU129
 400 0084 26EAE676 		bic	r6, r6, r6, asr #31
 401 0088 09F10909 		add	r9, r9, #9
 402              		.loc 1 1698 2 is_stmt 1 view .LVU130
 403              		.loc 1 1698 7 is_stmt 0 view .LVU131
 404 008c 06EBC606 		add	r6, r6, r6, lsl #3
 405 0090 4E44     		add	r6, r6, r9
1699:src/display.c **** 	return str;
1700:src/display.c ****       }
 406              		.loc 1 1700 7 view .LVU132
 407 0092 2846     		mov	r0, r5
1698:src/display.c **** 	return str;
 408              		.loc 1 1698 7 view .LVU133
 409 0094 3E60     		str	r6, [r7]
1699:src/display.c **** 	return str;
 410              		.loc 1 1699 2 is_stmt 1 view .LVU134
 411              		.loc 1 1700 7 is_stmt 0 view .LVU135
 412 0096 09B0     		add	sp, sp, #36
 413              		.cfi_remember_state
 414              		.cfi_def_cfa_offset 28
 415              		@ sp needed
 416 0098 BDE8F083 		pop	{r4, r5, r6, r7, r8, r9, pc}
 417              	.LVL34:
 418              	.L33:
 419              		.cfi_restore_state
 420              	.LBB172:
 421              	.LBB170:
 417:src/display.c ****   return res;
 422              		.loc 1 417 8 is_stmt 1 view .LVU136
 423 009c 4046     		mov	r0, r8
 424 009e FFF7FEFF 		bl	set_dig
 425              	.LVL35:
 417:src/display.c ****   return res;
 426              		.loc 1 417 8 is_stmt 0 view .LVU137
 427 00a2 EBE7     		b	.L34
 428              	.L43:
 429              		.align	2
 430              	.L42:
 431 00a4 CDCCCCCC 		.word	-858993459
 432              	.LBE170:
 433              	.LBE172:
 434              		.cfi_endproc
 435              	.LFE17:
 437              		.section	.text.set_exp_digits_string,"ax",%progbits
 438              		.align	1
 439              		.p2align 2,,3
 440              		.syntax unified
 441              		.thumb
 442              		.thumb_func
 443              		.fpu fpv4-sp-d16
 445              	set_exp_digits_string:
 446              	.LVL36:
ARM GAS  /tmp/cc9o0abE.s 			page 40


 447              	.LFB9:
 433:src/display.c ****   int i;
 448              		.loc 1 433 63 is_stmt 1 view -0
 449              		.cfi_startproc
 450              		@ args = 0, pretend = 0, frame = 0
 451              		@ frame_needed = 0, uses_anonymous_args = 0
 434:src/display.c ****   const int n = res == NULL ? 3 : 4;
 452              		.loc 1 434 3 view .LVU139
 435:src/display.c **** 
 453              		.loc 1 435 3 view .LVU140
 433:src/display.c ****   int i;
 454              		.loc 1 433 63 is_stmt 0 view .LVU141
 455 0000 F8B5     		push	{r3, r4, r5, r6, r7, lr}
 456              		.cfi_def_cfa_offset 24
 457              		.cfi_offset 3, -24
 458              		.cfi_offset 4, -20
 459              		.cfi_offset 5, -16
 460              		.cfi_offset 6, -12
 461              		.cfi_offset 7, -8
 462              		.cfi_offset 14, -4
 435:src/display.c **** 
 463              		.loc 1 435 33 view .LVU142
 464 0002 0D1E     		subs	r5, r1, #0
 465 0004 0CBF     		ite	eq
 466 0006 0326     		moveq	r6, #3
 467 0008 0426     		movne	r6, #4
 468              	.LVL37:
 437:src/display.c ****     res = set_dig_s(SEGS_EXP_BASE + i * SEGS_PER_EXP_DIGIT, msg[i], res);
 469              		.loc 1 437 3 is_stmt 1 view .LVU143
 437:src/display.c ****     res = set_dig_s(SEGS_EXP_BASE + i * SEGS_PER_EXP_DIGIT, msg[i], res);
 470              		.loc 1 437 13 view .LVU144
 471 000a A0EBC003 		sub	r3, r0, r0, lsl #3
 472 000e 0446     		mov	r4, r0
 473 0010 0644     		add	r6, r6, r0
 474              	.LVL38:
 475              	.LBB173:
 476              	.LBB174:
 417:src/display.c ****   return res;
 477              		.loc 1 417 8 is_stmt 0 view .LVU145
 478 0012 03F16507 		add	r7, r3, #101
 479 0016 04E0     		b	.L46
 480              	.LVL39:
 481              	.L54:
 416:src/display.c ****   else	set_dig(base, ch);
 482              		.loc 1 416 19 view .LVU146
 483 0018 03F8011B 		strb	r1, [r3], #1
 484              	.LVL40:
 416:src/display.c ****   else	set_dig(base, ch);
 485              		.loc 1 416 19 view .LVU147
 486              	.LBE174:
 487              	.LBE173:
 437:src/display.c ****     res = set_dig_s(SEGS_EXP_BASE + i * SEGS_PER_EXP_DIGIT, msg[i], res);
 488              		.loc 1 437 3 view .LVU148
 489 001c B442     		cmp	r4, r6
 490              	.LBB180:
 491              	.LBB175:
 416:src/display.c ****   else	set_dig(base, ch);
ARM GAS  /tmp/cc9o0abE.s 			page 41


 492              		.loc 1 416 16 view .LVU149
 493 001e 1D46     		mov	r5, r3
 494              	.LVL41:
 418:src/display.c **** }
 495              		.loc 1 418 3 is_stmt 1 view .LVU150
 418:src/display.c **** }
 496              		.loc 1 418 3 is_stmt 0 view .LVU151
 497              	.LBE175:
 498              	.LBE180:
 437:src/display.c ****     res = set_dig_s(SEGS_EXP_BASE + i * SEGS_PER_EXP_DIGIT, msg[i], res);
 499              		.loc 1 437 36 is_stmt 1 view .LVU152
 437:src/display.c ****     res = set_dig_s(SEGS_EXP_BASE + i * SEGS_PER_EXP_DIGIT, msg[i], res);
 500              		.loc 1 437 13 view .LVU153
 437:src/display.c ****     res = set_dig_s(SEGS_EXP_BASE + i * SEGS_PER_EXP_DIGIT, msg[i], res);
 501              		.loc 1 437 3 is_stmt 0 view .LVU154
 502 0020 0CD0     		beq	.L44
 503              	.LVL42:
 504              	.L46:
 438:src/display.c **** }
 505              		.loc 1 438 5 is_stmt 1 discriminator 3 view .LVU155
 506              	.LBB181:
 507              	.LBB176:
 416:src/display.c ****   else	set_dig(base, ch);
 508              		.loc 1 416 12 discriminator 3 view .LVU156
 416:src/display.c ****   else	set_dig(base, ch);
 509              		.loc 1 416 12 is_stmt 0 discriminator 3 view .LVU157
 510              	.LBE176:
 511              	.LBE181:
 437:src/display.c ****     res = set_dig_s(SEGS_EXP_BASE + i * SEGS_PER_EXP_DIGIT, msg[i], res);
 512              		.loc 1 437 23 discriminator 3 view .LVU158
 513 0022 14F8011B 		ldrb	r1, [r4], #1	@ zero_extendqisi2
 514              	.LVL43:
 515              	.LBB182:
 516              	.LBB177:
 416:src/display.c ****   else	set_dig(base, ch);
 517              		.loc 1 416 16 discriminator 3 view .LVU159
 518 0026 2B46     		mov	r3, r5
 519              	.LVL44:
 416:src/display.c ****   else	set_dig(base, ch);
 520              		.loc 1 416 16 discriminator 3 view .LVU160
 521              	.LBE177:
 522              	.LBI173:
 415:src/display.c ****   if (res) *res++ = ch;
 523              		.loc 1 415 14 is_stmt 1 discriminator 3 view .LVU161
 524              	.LBB178:
 416:src/display.c ****   else	set_dig(base, ch);
 525              		.loc 1 416 3 discriminator 3 view .LVU162
 526              	.LBE178:
 527              	.LBE182:
 437:src/display.c ****     res = set_dig_s(SEGS_EXP_BASE + i * SEGS_PER_EXP_DIGIT, msg[i], res);
 528              		.loc 1 437 17 is_stmt 0 discriminator 3 view .LVU163
 529 0028 41B1     		cbz	r1, .L44
 530              	.LVL45:
 531              	.LBB183:
 532              	.LBB179:
 416:src/display.c ****   else	set_dig(base, ch);
 533              		.loc 1 416 6 discriminator 4 view .LVU164
ARM GAS  /tmp/cc9o0abE.s 			page 42


 534 002a 002D     		cmp	r5, #0
 535 002c F4D1     		bne	.L54
 417:src/display.c ****   return res;
 536              		.loc 1 417 8 is_stmt 1 view .LVU165
 537 002e C4EBC400 		rsb	r0, r4, r4, lsl #3
 538 0032 3844     		add	r0, r0, r7
 539 0034 FFF7FEFF 		bl	set_dig
 540              	.LVL46:
 418:src/display.c **** }
 541              		.loc 1 418 3 view .LVU166
 418:src/display.c **** }
 542              		.loc 1 418 3 is_stmt 0 view .LVU167
 543              	.LBE179:
 544              	.LBE183:
 437:src/display.c ****     res = set_dig_s(SEGS_EXP_BASE + i * SEGS_PER_EXP_DIGIT, msg[i], res);
 545              		.loc 1 437 36 is_stmt 1 view .LVU168
 437:src/display.c ****     res = set_dig_s(SEGS_EXP_BASE + i * SEGS_PER_EXP_DIGIT, msg[i], res);
 546              		.loc 1 437 13 view .LVU169
 437:src/display.c ****     res = set_dig_s(SEGS_EXP_BASE + i * SEGS_PER_EXP_DIGIT, msg[i], res);
 547              		.loc 1 437 3 is_stmt 0 view .LVU170
 548 0038 B442     		cmp	r4, r6
 549 003a F2D1     		bne	.L46
 550              	.LVL47:
 551              	.L44:
 439:src/display.c **** 
 552              		.loc 1 439 1 view .LVU171
 553 003c F8BD     		pop	{r3, r4, r5, r6, r7, pc}
 439:src/display.c **** 
 554              		.loc 1 439 1 view .LVU172
 555              		.cfi_endproc
 556              	.LFE9:
 558 003e 00BF     		.section	.text.hms_step,"ax",%progbits
 559              		.align	1
 560              		.p2align 2,,3
 561              		.syntax unified
 562              		.thumb
 563              		.thumb_func
 564              		.fpu fpv4-sp-d16
 566              	hms_step:
 567              	.LVL48:
 568              	.LFB16:
1666:src/display.c **** 	decNumber n;
 569              		.loc 1 1666 75 is_stmt 1 view -0
 570              		.cfi_startproc
 571              		@ args = 0, pretend = 0, frame = 40
 572              		@ frame_needed = 0, uses_anonymous_args = 0
1667:src/display.c **** 
 573              		.loc 1 1667 2 view .LVU174
1669:src/display.c **** 	*v = dn_to_int(&n);
 574              		.loc 1 1669 2 view .LVU175
1666:src/display.c **** 	decNumber n;
 575              		.loc 1 1666 75 is_stmt 0 view .LVU176
 576 0000 70B5     		push	{r4, r5, r6, lr}
 577              		.cfi_def_cfa_offset 16
 578              		.cfi_offset 4, -16
 579              		.cfi_offset 5, -12
 580              		.cfi_offset 6, -8
ARM GAS  /tmp/cc9o0abE.s 			page 43


 581              		.cfi_offset 14, -4
 582 0002 8AB0     		sub	sp, sp, #40
 583              		.cfi_def_cfa_offset 56
1666:src/display.c **** 	decNumber n;
 584              		.loc 1 1666 75 view .LVU177
 585 0004 0446     		mov	r4, r0
 586 0006 1646     		mov	r6, r2
1669:src/display.c **** 	*v = dn_to_int(&n);
 587              		.loc 1 1669 2 view .LVU178
 588 0008 01A8     		add	r0, sp, #4
 589              	.LVL49:
1669:src/display.c **** 	*v = dn_to_int(&n);
 590              		.loc 1 1669 2 view .LVU179
 591 000a 0A4A     		ldr	r2, .L57
 592              	.LVL50:
1666:src/display.c **** 	decNumber n;
 593              		.loc 1 1666 75 view .LVU180
 594 000c 0D46     		mov	r5, r1
1669:src/display.c **** 	*v = dn_to_int(&n);
 595              		.loc 1 1669 2 view .LVU181
 596 000e FFF7FEFF 		bl	decNumberMod
 597              	.LVL51:
1670:src/display.c **** 	dn_mulpow10(&n, x, -2);
 598              		.loc 1 1670 2 is_stmt 1 view .LVU182
1670:src/display.c **** 	dn_mulpow10(&n, x, -2);
 599              		.loc 1 1670 7 is_stmt 0 view .LVU183
 600 0012 01A8     		add	r0, sp, #4
 601 0014 FFF7FEFF 		bl	dn_to_int
 602              	.LVL52:
1671:src/display.c **** 	decNumberTrunc(res, &n);
 603              		.loc 1 1671 2 view .LVU184
 604 0018 2946     		mov	r1, r5
1670:src/display.c **** 	dn_mulpow10(&n, x, -2);
 605              		.loc 1 1670 5 view .LVU185
 606 001a 3060     		str	r0, [r6]
1671:src/display.c **** 	decNumberTrunc(res, &n);
 607              		.loc 1 1671 2 is_stmt 1 view .LVU186
 608 001c 6FF00102 		mvn	r2, #1
 609 0020 01A8     		add	r0, sp, #4
 610 0022 FFF7FEFF 		bl	dn_mulpow10
 611              	.LVL53:
1672:src/display.c ****       }
 612              		.loc 1 1672 2 view .LVU187
 613 0026 01A9     		add	r1, sp, #4
 614 0028 2046     		mov	r0, r4
 615 002a FFF7FEFF 		bl	decNumberTrunc
 616              	.LVL54:
1673:src/display.c **** 
 617              		.loc 1 1673 7 is_stmt 0 view .LVU188
 618 002e 0AB0     		add	sp, sp, #40
 619              		.cfi_def_cfa_offset 16
 620              		@ sp needed
 621 0030 70BD     		pop	{r4, r5, r6, pc}
 622              	.LVL55:
 623              	.L58:
1673:src/display.c **** 
 624              		.loc 1 1673 7 view .LVU189
ARM GAS  /tmp/cc9o0abE.s 			page 44


 625 0032 00BF     		.align	2
 626              	.L57:
 627 0034 00000000 		.word	const_100
 628              		.cfi_endproc
 629              	.LFE16:
 631              		.section	.text.s_s_sized,"ax",%progbits
 632              		.align	1
 633              		.p2align 2,,3
 634              		.syntax unified
 635              		.thumb
 636              		.thumb_func
 637              		.fpu fpv4-sp-d16
 639              	s_s_sized:
 640              	.LVL56:
 641              	.LFB35:
1701:src/display.c **** 
1702:src/display.c **** 
1703:src/display.c ****       /* Display the number in H.MS mode.
1704:src/display.c ****        * HMS is hhh[degrees]mm'ss.ss" fixed formated modulo reduced to range
1705:src/display.c ****        */
1706:src/display.c ****       static void set_x_hms(const decNumber *rgx, char *res) {
1707:src/display.c **** 	decNumber x, y, a, t, u;
1708:src/display.c **** 	int j=0;
1709:src/display.c **** 	const int exp_last = SEGS_EXP_BASE + 2*SEGS_PER_EXP_DIGIT;
1710:src/display.c **** 	unsigned int hr, min, sec, fs;
1711:src/display.c **** 
1712:src/display.c **** 	if (check_special_dn(rgx, res)) {
1713:src/display.c **** 	  if (decNumberIsInfinite(rgx))
1714:src/display.c **** 	    res = set_dig_s(exp_last, 'o', res);
1715:src/display.c **** 	  return;
1716:src/display.c **** 	}
1717:src/display.c **** 
1718:src/display.c **** 	set_separator_decimal_modes();
1719:src/display.c **** 	decNumberMod(&x, rgx, &const_9000);
1720:src/display.c **** 	dn_abs(&a, rgx);
1721:src/display.c **** 	if (decNumberIsNegative(&x)) {
1722:src/display.c **** 	  if (res != NULL)
1723:src/display.c **** 	    *res++ += '-';
1724:src/display.c **** 	  else
1725:src/display.c **** 	    SET_MANT_SIGN;
1726:src/display.c **** 	  dn_minus(&x, &x);
1727:src/display.c **** 	}
1728:src/display.c **** 
1729:src/display.c **** 	decNumberHR2HMS(&y, &x);
1730:src/display.c **** 	dn_mulpow10(&t, &y, 6);
1731:src/display.c **** 	decNumberRound(&u, &t);
1732:src/display.c **** 
1733:src/display.c **** 	hms_step(&t, &u, &fs);
1734:src/display.c **** 	hms_step(&u, &t, &sec);
1735:src/display.c **** 	hms_step(&t, &u, &min);
1736:src/display.c **** 	hr = dn_to_int(&t);
1737:src/display.c **** 	if (sec >= 60) { sec -= 60; min++;	}
1738:src/display.c **** 	if (min >= 60) { min -= 60; hr++;	}
1739:src/display.c **** 
1740:src/display.c **** 	// degrees
1741:src/display.c **** 	res = hms_render(hr, res, &j, 4, 1);
1742:src/display.c **** 	res = set_dig_s(j, '@', res);
ARM GAS  /tmp/cc9o0abE.s 			page 45


1743:src/display.c **** 	j += SEGS_PER_DIGIT;
1744:src/display.c **** 
1745:src/display.c **** 	// minutes
1746:src/display.c **** 	res = hms_render(min, res, &j, 2, 1);
1747:src/display.c **** 	res = set_dig_s(j, '\'', res);
1748:src/display.c **** 	j += SEGS_PER_DIGIT;
1749:src/display.c **** 
1750:src/display.c **** 	// seconds
1751:src/display.c **** 	res = hms_render(sec, res, &j, 2, 1);
1752:src/display.c **** 	res = set_decimal(j - SEGS_PER_DIGIT, DecimalMode, res);
1753:src/display.c **** 
1754:src/display.c **** 	// Fractional seconds
1755:src/display.c **** 	res = hms_render(fs, res, &j, 2, 0);
1756:src/display.c **** 
1757:src/display.c **** 	// We're now pointing at the exponent's first digit...
1758:src/display.c **** 	res = set_dig_s(j, '"', res);
1759:src/display.c **** 	// j += SEGS_PER_EXP_DIGIT;
1760:src/display.c **** 
1761:src/display.c **** 	// Check for values too big or small
1762:src/display.c **** 	if (dn_ge(&a, &const_9000)) {
1763:src/display.c **** 	  res = set_dig_s(exp_last, 'o', res);
1764:src/display.c **** 	} else if (! dn_eq0(&a)) {
1765:src/display.c **** 	  if (dn_le(&a, &const_hms_threshold)) {
1766:src/display.c **** 	    res = set_dig_s(exp_last, 'u', res);
1767:src/display.c **** 	  }
1768:src/display.c **** 	}
1769:src/display.c ****       }
1770:src/display.c **** 
1771:src/display.c **** 
1772:src/display.c ****       static int set_x_fract(const decNumber *rgx, char *res) {
1773:src/display.c **** 	decNumber x, w, n, d, t;
1774:src/display.c **** 	char buf[32], *p = buf;
1775:src/display.c **** 	int j;
1776:src/display.c **** 
1777:src/display.c **** 	if (check_special_dn(rgx, res))
1778:src/display.c **** 	  return 1;
1779:src/display.c **** 	dn_abs(&x, rgx);
1780:src/display.c **** 	if (dn_ge(&x, &const_100000))
1781:src/display.c **** 	  return 0;
1782:src/display.c **** 	if (dn_lt(&x, &const_0_0001))
1783:src/display.c **** 	  return 0;
1784:src/display.c **** 	if (decNumberIsNegative(rgx)) {
1785:src/display.c **** 	  if (res != NULL)
1786:src/display.c **** 	    *res++ += '-';
1787:src/display.c **** 	  else
1788:src/display.c **** 	    SET_MANT_SIGN;
1789:src/display.c **** 	}
1790:src/display.c **** 	decNumberFrac(&w, &x);
1791:src/display.c **** 	decNumber2Fraction(&n, &d, &w);	/* Get the number as a numerator & denominator */
1792:src/display.c **** 
1793:src/display.c **** 	dn_divide(&t, &n, &d);
1794:src/display.c **** 	dn_compare(&t, &t, &w);
1795:src/display.c **** 	decNumberTrunc(&w, &x);		/* Extract the whole part */
1796:src/display.c **** 
1797:src/display.c **** 	if (dn_eq(&n, &d)) {
1798:src/display.c **** 	  dn_inc(&w);
1799:src/display.c **** 	  decNumberZero(&n);
ARM GAS  /tmp/cc9o0abE.s 			page 46


1800:src/display.c **** 	}
1801:src/display.c **** 
1802:src/display.c **** 	if (!UState.improperfrac) {
1803:src/display.c **** 	  if (!dn_eq0(&w)) {
1804:src/display.c **** 	    p = num_arg(p, dn_to_int(&w));
1805:src/display.c **** 	    *p++ = ' ';
1806:src/display.c **** 	  }
1807:src/display.c **** 	} else {
1808:src/display.c **** 	  dn_multiply(&x, &w, &d);
1809:src/display.c **** 	  dn_add(&n, &n, &x);
1810:src/display.c **** 	}
1811:src/display.c **** 	p = num_arg(p, dn_to_int(&n));
1812:src/display.c **** 	*p++ = '/';
1813:src/display.c **** 	p = num_arg(p, dn_to_int(&d));
1814:src/display.c **** 	*p = '\0';
1815:src/display.c **** 	if ((p - 12) > buf) {
1816:src/display.c **** 	  p -= 12;
1817:src/display.c **** 	  *p = '<';
1818:src/display.c **** 	} else	p = buf;
1819:src/display.c **** 	for (j=0; *p != '\0'; p++) {
1820:src/display.c **** 	  res = set_dig_s(j, *p, res);
1821:src/display.c **** 	  j += SEGS_PER_DIGIT;
1822:src/display.c **** 	}
1823:src/display.c **** 
1824:src/display.c **** 	if (dn_eq0(&t))
1825:src/display.c **** 	  p = (char *)S7_fract_EQ;
1826:src/display.c **** 	else if (decNumberIsNegative(&t))
1827:src/display.c **** 	  p = (char *)S7_fract_LT;
1828:src/display.c **** 	else
1829:src/display.c **** 	  p = (char *)S7_fract_GT;
1830:src/display.c **** 	for (j = SEGS_EXP_BASE; *p != '\0'; p++) {
1831:src/display.c **** 	  res = set_dig_s(j, *p, res);
1832:src/display.c **** 	  j += SEGS_PER_EXP_DIGIT;
1833:src/display.c **** 	}
1834:src/display.c **** 	return 1;
1835:src/display.c ****       }
1836:src/display.c **** 
1837:src/display.c **** #if defined(INCLUDE_SIGFIG_MODE)
1838:src/display.c ****       enum display_modes std_round_fix(const decNumber *z, int *dd, int mode, int dispdigs) {
1839:src/display.c **** 	decNumber c;
1840:src/display.c **** 	int true_exp, x=0;
1841:src/display.c **** 	int min_pos_exp, max_neg_exp;
1842:src/display.c **** 
1843:src/display.c **** 	if ( mode != MODE_STD ) {
1844:src/display.c **** 	  min_pos_exp = 9;
1845:src/display.c **** 	  max_neg_exp = -5;
1846:src/display.c **** 	}
1847:src/display.c **** 	else {
1848:src/display.c **** 	  min_pos_exp = 12;
1849:src/display.c **** 	  max_neg_exp = -1 - dispdigs;
1850:src/display.c **** 	}
1851:src/display.c **** 
1852:src/display.c **** 	dn_abs(&c, z); // c is abs(z)
1853:src/display.c **** 	true_exp = c.exponent + c.digits - 1;
1854:src/display.c **** 
1855:src/display.c **** 	if (mode == MODE_SIG0) { //trailing zeros display
1856:src/display.c **** 	  x = *dd;
ARM GAS  /tmp/cc9o0abE.s 			page 47


1857:src/display.c **** 	}
1858:src/display.c **** 
1859:src/display.c **** 	if ((true_exp < x) && (true_exp > max_neg_exp)) {
1860:src/display.c **** 	  // decimals needed; *dd adjusted to provide correct number
1861:src/display.c **** 	  *dd += -true_exp;
1862:src/display.c **** 	  return MODE_FIX;
1863:src/display.c **** 	}
1864:src/display.c **** 
1865:src/display.c **** 	if ((mode != MODE_STD) && (true_exp <= max_neg_exp || true_exp >= min_pos_exp)) {
1866:src/display.c **** 	  return UState.fixeng?MODE_ENG:MODE_SCI; // force ENG/SCI mode for big / small numbers
1867:src/display.c **** 	}
1868:src/display.c **** 	else {
1869:src/display.c **** 	  return MODE_STD;
1870:src/display.c **** 	}
1871:src/display.c ****       }
1872:src/display.c **** #else
1873:src/display.c ****       enum display_modes std_round_fix(const decNumber *z) {
1874:src/display.c **** 	decNumber b, c;
1875:src/display.c **** 
1876:src/display.c **** 	dn_1(&b);
1877:src/display.c **** 	b.exponent -= UState.dispdigs;
1878:src/display.c **** 	dn_abs(&c, z);
1879:src/display.c **** 	if (dn_gt(&c, &b) && dn_lt(&c, &const_1))
1880:src/display.c **** 	  return MODE_FIX;
1881:src/display.c **** 	return MODE_STD;
1882:src/display.c ****       }
1883:src/display.c **** #endif
1884:src/display.c **** 
1885:src/display.c ****       /* SHOW display mode
1886:src/display.c ****        * in double precision show left or right part
1887:src/display.c ****        * 4 + 12 + 3 or 6 + 10 + 4 version
1888:src/display.c ****        */
1889:src/display.c ****       static void show_x(char *x, int exp) {
1890:src/display.c **** 	const int dbl = is_dblmode();
1891:src/display.c **** 	char *p;
1892:src/display.c **** 	int i, j;
1893:src/display.c **** 	char *upper_str;
1894:src/display.c **** 	enum separator_modes separator_mode;
1895:src/display.c **** 	char decimal_mark;
1896:src/display.c **** 	char thousands_sep;
1897:src/display.c **** #if !defined(FULL_NUMBER_GROUPING)
1898:src/display.c **** 	const int grouping = 0;
1899:src/display.c **** #elif defined(FULL_NUMBER_GROUPING_TS)
1900:src/display.c **** 	const int grouping = !UState.nothousands;
1901:src/display.c **** #else
1902:src/display.c **** 	const int grouping = 1;
1903:src/display.c **** #endif
1904:src/display.c **** 	int negative;
1905:src/display.c **** 
1906:src/display.c **** 	if (x[0] == '-') {
1907:src/display.c **** #if defined(INCLUDE_FONT_ESCAPE) && defined(FULL_NUMBER_GROUPING)
1908:src/display.c **** 	  static const char small_minus[4] = { '\007', '\302', '-', '\006' };
1909:src/display.c **** 
1910:src/display.c **** 	  xcopy(x + 4, x + 1, 34);
1911:src/display.c **** 	  xcopy(x, small_minus, 4);
1912:src/display.c **** 	  x += 4;
1913:src/display.c **** 	  negative = 4;
ARM GAS  /tmp/cc9o0abE.s 			page 48


1914:src/display.c **** #else
1915:src/display.c **** 	  ++x;
1916:src/display.c **** 	  negative = 1;
1917:src/display.c **** #endif
1918:src/display.c **** 	}
1919:src/display.c **** 	else negative = 0;
1920:src/display.c **** 
1921:src/display.c **** 	p = find_char(x, '\0');
1922:src/display.c **** 	xset(p, '0', 34 - (p - x));
1923:src/display.c **** 
1924:src/display.c **** 	if (DecimalMode == DECIMAL_DOT) {
1925:src/display.c **** 	  separator_mode = SEP_COMMA;
1926:src/display.c **** 	  decimal_mark = '.';
1927:src/display.c **** 	  thousands_sep = ',';
1928:src/display.c **** 	}
1929:src/display.c **** 	else {
1930:src/display.c **** 	  separator_mode = SEP_DOT;
1931:src/display.c **** 	  decimal_mark = ',';
1932:src/display.c **** 	  thousands_sep = '.';
1933:src/display.c **** 	}
1934:src/display.c **** 
1935:src/display.c **** 	if (State2.window) { // right half in double precision mode
1936:src/display.c **** #ifdef INCLUDE_FONT_ESCAPE
1937:src/display.c **** 	  static const char small_dots[13] = { '\007', '\341', ',', '\006',
1938:src/display.c **** 	    '\007', '\341', ',', '\006', '\007', '\341', ',', '\006', '\006' };
1939:src/display.c **** 
1940:src/display.c **** 	  upper_str = x + 3;
1941:src/display.c **** 	  xcopy(upper_str, small_dots, 13);
1942:src/display.c **** 	  if (grouping) {
1943:src/display.c **** 	    xcopy(upper_str + 13 + 4, upper_str + 13 + 3, 19);
1944:src/display.c **** 	    upper_str[13 + 3] = thousands_sep;
1945:src/display.c **** 	    x += 3 + 13 + 7;
1946:src/display.c **** 	  }
1947:src/display.c **** 	  else x += 3 + 13 + 6;
1948:src/display.c **** #else
1949:src/display.c **** 	  upper_str = x + 13;
1950:src/display.c **** 	  xset(upper_str, '.', 3);
1951:src/display.c **** 	  if (grouping) {
1952:src/display.c **** 	    xcopy(upper_str + 7, upper_str + 6, 19);
1953:src/display.c **** 	    upper_str[6] = thousands_sep;
1954:src/display.c **** 	    x += 13 + 3 + 7;
1955:src/display.c **** 	  }
1956:src/display.c **** 	  else x += 13 + 3 + 6;
1957:src/display.c **** #endif
1958:src/display.c **** 	  negative = 0;
1959:src/display.c **** 	  i = 3 * SEGS_PER_DIGIT;
1960:src/display.c **** 	}
1961:src/display.c **** 	else {
1962:src/display.c **** 	  upper_str = x;
1963:src/display.c **** 	  xcopy(x + 2, x + 1, 16);
1964:src/display.c **** 	  x[1] = decimal_mark;
1965:src/display.c **** 	  if (grouping) {
1966:src/display.c **** 	    xcopy(x + 6, x + 5, 13);
1967:src/display.c **** 	    x[5] = thousands_sep;
1968:src/display.c **** 	    x += 9;
1969:src/display.c **** 	  }
1970:src/display.c **** 	  else x += 8;
ARM GAS  /tmp/cc9o0abE.s 			page 49


1971:src/display.c **** 	  if (dbl) {
1972:src/display.c **** 	    if (exp < 0) {
1973:src/display.c **** 	      x[9] = '-';
1974:src/display.c **** 	      exp = -exp;
1975:src/display.c **** 	    }
1976:src/display.c **** 	    else
1977:src/display.c **** 	      x[9] = ' ';
1978:src/display.c **** 	    j = exp / 1000;
1979:src/display.c **** 	    x[10] = '0' + j;
1980:src/display.c **** 	    exp -= 1000 * j;
1981:src/display.c **** 	  }
1982:src/display.c **** 	  else {
1983:src/display.c **** 	    x[9] = '\0';
1984:src/display.c **** 	    x[10] = '\0';
1985:src/display.c **** 	  }
1986:src/display.c **** 	  xcopy(x + 1, x, 11);
1987:src/display.c **** 	  *x = 0;
1988:src/display.c **** 	  set_exp(exp, 1, CNULL);
1989:src/display.c **** 	  i = 1 * SEGS_PER_DIGIT;
1990:src/display.c **** 	}
1991:src/display.c **** 	if (grouping) {
1992:src/display.c **** 	  for (; i <= 9 * SEGS_PER_DIGIT; i += 3 * SEGS_PER_DIGIT) {
1993:src/display.c **** 	    set_separator(i, separator_mode, CNULL);
1994:src/display.c **** 	  }
1995:src/display.c **** 	}
1996:src/display.c **** 
1997:src/display.c **** 	for (i = j = 0; i < 12; ++i, j += SEGS_PER_DIGIT)
1998:src/display.c **** 	  set_dig(j, x[i]);
1999:src/display.c **** 
2000:src/display.c **** 	*x = '\0';
2001:src/display.c **** 	set_status(upper_str - negative);
2002:src/display.c ****       }
2003:src/display.c **** 
2004:src/display.c **** 
2005:src/display.c ****       /* Display the X register in the numeric portion of the display.
2006:src/display.c ****        * We have to account for the various display modes and numbers of
2007:src/display.c ****        * digits.
2008:src/display.c ****        */
2009:src/display.c ****       static void set_x(const REGISTER *rgx, char *res, int dbl) {
2010:src/display.c **** 	decNumber z;
2011:src/display.c **** 	int digits = DISPLAY_DIGITS;
2012:src/display.c **** 
2013:src/display.c **** 	if (dbl)
2014:src/display.c **** 	  decimal128ToNumber(&(rgx->d), &z);
2015:src/display.c **** 	else
2016:src/display.c **** 	  decimal64ToNumber(&(rgx->s), &z);
2017:src/display.c **** 	set_x_dn(&z, res, &digits);
2018:src/display.c ****       }
2019:src/display.c **** 
2020:src/display.c ****       void set_x_dn(decNumber *z, char *res, int *display_digits) {
2021:src/display.c **** 	char x[50], *obp = x;
2022:src/display.c **** 	int odig = 0;
2023:src/display.c **** 	int show_exp = 0;
2024:src/display.c **** 	int j;
2025:src/display.c **** 	char mantissa[64];
2026:src/display.c **** 	int exp = 0;
2027:src/display.c **** 	char *p = mantissa;
ARM GAS  /tmp/cc9o0abE.s 			page 50


2028:src/display.c **** 	char *r;
2029:src/display.c **** 	const char *q;
2030:src/display.c **** 	int count, i;
2031:src/display.c **** 	int extra_digits = 0;
2032:src/display.c **** #ifdef INCLUDE_SIGFIG_MODE
2033:src/display.c **** 	int dd;
2034:src/display.c **** 	int dispdigs;
2035:src/display.c **** 	int mode = get_dispmode_digs(&dispdigs);
2036:src/display.c **** #else
2037:src/display.c **** 	int dd = UState.dispdigs;
2038:src/display.c **** 	int mode = UState.dispmode;
2039:src/display.c **** #endif
2040:src/display.c **** 	int c;
2041:src/display.c **** 	int negative = 0;
2042:src/display.c **** 	int trimzeros = 0;
2043:src/display.c **** #if SHOW_LARGE_EXPONENT <= 0
2044:src/display.c **** 	const int show_large_exponent = 0;
2045:src/display.c **** #elif SHOW_LARGE_EXPONENT == 3
2046:src/display.c **** 	const int show_large_exponent = !get_user_flag(regL_idx);
2047:src/display.c **** #elif SHOW_LARGE_EXPONENT == 2
2048:src/display.c **** 	const int show_large_exponent = get_user_flag(regL_idx);
2049:src/display.c **** #else
2050:src/display.c **** 	const int show_large_exponent = 1;
2051:src/display.c **** #endif
2052:src/display.c **** 
2053:src/display.c **** 	set_separator_decimal_modes();
2054:src/display.c **** #if defined(INCLUDE_YREG_CODE)
2055:src/display.c **** 	if ( !res ) { // no hms or fraction displays for the dot matrix display
2056:src/display.c **** 	  if (!State2.smode && ! State2.cmplx) {
2057:src/display.c **** 	    if (State2.hms) {
2058:src/display.c **** 	      set_x_hms(z, res);
2059:src/display.c **** 	      return;
2060:src/display.c **** 	    }
2061:src/display.c **** 	    else if (UState.fract) {
2062:src/display.c **** 	      if (set_x_fract(z, res))
2063:src/display.c **** 		return;
2064:src/display.c **** 	    }
2065:src/display.c **** 	  }
2066:src/display.c **** 	}		
2067:src/display.c **** #else
2068:src/display.c **** 	if (!State2.smode && ! State2.cmplx && ! State2.wascomplex) {
2069:src/display.c **** 	  if (State2.hms) {
2070:src/display.c **** 	    set_x_hms(z, res);
2071:src/display.c **** 	    State2.hms = 0;
2072:src/display.c **** 	    return;
2073:src/display.c **** 	  } else if (UState.fract) {
2074:src/display.c **** 	    if (set_x_fract(z, res))
2075:src/display.c **** 	      return;
2076:src/display.c **** 	  }
2077:src/display.c **** 	}
2078:src/display.c **** #endif
2079:src/display.c **** 
2080:src/display.c **** 	if (check_special_dn(z, res))
2081:src/display.c **** 	  return;
2082:src/display.c **** 
2083:src/display.c **** 	if (State2.smode == SDISP_SHOW) {
2084:src/display.c **** 	  decNumberNormalize(z, z, &Ctx);
ARM GAS  /tmp/cc9o0abE.s 			page 51


2085:src/display.c **** 	  exp = z->exponent + z->digits - 1;
2086:src/display.c **** 	  z->exponent = 0;
2087:src/display.c **** 	}
2088:src/display.c **** 
2089:src/display.c **** 	xset(x, '\0', sizeof(x));
2090:src/display.c **** 
2091:src/display.c **** 	if (dn_eq0(z)) {
2092:src/display.c **** 	  if (decNumberIsNegative(z) && get_user_flag(NAN_FLAG)) {
2093:src/display.c **** 	    x[0] = '-';
2094:src/display.c **** 	    x[1] = '0';
2095:src/display.c **** 	  } else
2096:src/display.c **** 	    x[0] = '0';
2097:src/display.c **** 	} else
2098:src/display.c **** 	  decNumberToString(z, x);
2099:src/display.c **** 
2100:src/display.c **** 	if (State2.smode == SDISP_SHOW) {
2101:src/display.c **** 	  show_x(x, exp);
2102:src/display.c **** 	  return;
2103:src/display.c **** 	}
2104:src/display.c **** 
2105:src/display.c **** #ifdef INCLUDE_SIGFIG_MODE
2106:src/display.c **** 	if (mode == MODE_STD || dispdigs >= *display_digits)
2107:src/display.c **** 	  //  ALL mode: fill the display
2108:src/display.c **** 	  dd = *display_digits - 1;
2109:src/display.c **** 	else
2110:src/display.c **** 	  dd = dispdigs;
2111:src/display.c **** 
2112:src/display.c **** 	if (mode == MODE_STD || mode == MODE_SIG || mode == MODE_SIG0) {
2113:src/display.c **** 	  int orig_mode = mode;
2114:src/display.c **** 
2115:src/display.c **** 	  mode = std_round_fix(z, &dd, mode, dispdigs); // modified function called
2116:src/display.c **** 	  if (orig_mode != MODE_SIG0)
2117:src/display.c **** 	    // allow zeros to be trimmed
2118:src/display.c **** 	    trimzeros = 1;
2119:src/display.c **** 	  if (orig_mode == MODE_STD)
2120:src/display.c **** 	    dd = *display_digits - 1;
2121:src/display.c ****  	}
2122:src/display.c **** #else
2123:src/display.c **** 	if (mode == MODE_STD) {
2124:src/display.c **** 	  mode = std_round_fix(z);
2125:src/display.c **** 	  trimzeros = 1;
2126:src/display.c **** 	  dd = *display_digits - 1;
2127:src/display.c **** 	} else if (dd >= *display_digits)
2128:src/display.c **** 	  // Do not allow non ALL modes to produce more digits than we're being asked to display.
2129:src/display.c **** 	  dd = *display_digits - 1;
2130:src/display.c **** #endif
2131:src/display.c **** 
2132:src/display.c **** 	xset(mantissa, '0', sizeof(mantissa)-1);
2133:src/display.c **** 	mantissa[sizeof(mantissa)-1] = '\0';
2134:src/display.c **** 
2135:src/display.c **** 	q = find_char(x, 'E');
2136:src/display.c **** #ifdef LARGE_EXPONENT_ENTRY
2137:src/display.c **** 	if (q == NULL) q = find_char(x, 'D');
2138:src/display.c **** 	if (q == NULL) exp = 0;
2139:src/display.c **** 	else {
2140:src/display.c **** 	  exp = s_to_i(q+1);
2141:src/display.c **** 	  if (*q == 'D') exp = -exp;
ARM GAS  /tmp/cc9o0abE.s 			page 52


2142:src/display.c **** 	}
2143:src/display.c **** #else
2144:src/display.c **** 	if (q == NULL) exp = 0;
2145:src/display.c **** 	else exp = s_to_i(q+1);
2146:src/display.c **** #endif
2147:src/display.c **** 
2148:src/display.c **** 	// Skip leading spaces and zeros.  Also grab the sign if it is there
2149:src/display.c **** 	for (q=x; *q == ' '; q++);
2150:src/display.c **** 	if (!res) {
2151:src/display.c **** 	  CLR_EXP_SIGN;
2152:src/display.c **** 	  CLR_MANT_SIGN;
2153:src/display.c **** 	}
2154:src/display.c **** 	if (*q == '-') {
2155:src/display.c **** 	  negative = 1;
2156:src/display.c **** 	  q++;
2157:src/display.c **** 	} else if (*q == '+')
2158:src/display.c **** 	  q++;
2159:src/display.c **** 	for (; *q == '0'; q++);
2160:src/display.c **** 	if (*q == '.') {
2161:src/display.c **** 	  do
2162:src/display.c **** 	    exp--;
2163:src/display.c **** 	  while (*++q == '0');
2164:src/display.c **** 	  while (*q >= '0' && *q <= '9')
2165:src/display.c **** 	    *p++ = *q++;
2166:src/display.c **** 	} else {
2167:src/display.c **** 	  if (*q >= '0' && *q <= '9')
2168:src/display.c **** 	    *p++ = *q++;
2169:src/display.c **** 	  while (*q >= '0' && *q <= '9') {
2170:src/display.c **** 	    *p++ = *q++;
2171:src/display.c **** 	    exp++;
2172:src/display.c **** 	  }
2173:src/display.c **** 	  if (*q == '.') {
2174:src/display.c **** 	    q++;
2175:src/display.c **** 	    while (*q >= '0' && *q <= '9')
2176:src/display.c **** 	      *p++ = *q++;
2177:src/display.c **** 	  }
2178:src/display.c **** 	}
2179:src/display.c **** 
2180:src/display.c **** 	if (mode == MODE_FIX) {
2181:src/display.c **** 	  if (exp > (*display_digits - 1) || exp < -dd)
2182:src/display.c **** 	    mode = UState.fixeng?MODE_ENG:MODE_SCI;
2183:src/display.c **** 	  else {
2184:src/display.c **** 	    extra_digits = exp;
2185:src/display.c **** 	    /* We might have push the fixed decimals off the
2186:src/display.c **** 	     * screen so adjust if so.
2187:src/display.c **** 	     */
2188:src/display.c **** 	    if (extra_digits + dd > (*display_digits - 1))
2189:src/display.c **** 	      dd = (*display_digits - 1) - extra_digits;
2190:src/display.c **** 	  }
2191:src/display.c **** 	}
2192:src/display.c **** 
2193:src/display.c **** 	// Round the mantissa to the number of digits desired
2194:src/display.c **** 	p = mantissa + dd + extra_digits + 1;
2195:src/display.c **** 	if (*p >= '5') {	// Round up
2196:src/display.c **** 	  *p = '0';
2197:src/display.c **** 	  for (r = mantissa; *r == '9'; r++);
2198:src/display.c **** 	  if (r == p) {   // Special case 9.9999999
ARM GAS  /tmp/cc9o0abE.s 			page 53


2199:src/display.c **** 	    for (r = mantissa; *r == '9'; *r++ = '0');
2200:src/display.c **** 	    mantissa[0] = '1';
2201:src/display.c **** 	    exp++;
2202:src/display.c **** 	    if (mode == MODE_FIX && exp > (*display_digits - 1)) {
2203:src/display.c **** 	      mode = UState.fixeng?MODE_ENG:MODE_SCI;
2204:src/display.c **** 	      extra_digits = 0;
2205:src/display.c **** 	    }
2206:src/display.c **** 	  } else {
2207:src/display.c **** 	    while (*--p == '9')
2208:src/display.c **** 	      *p = '0';
2209:src/display.c **** 	    (*p)++;
2210:src/display.c **** 	  }
2211:src/display.c **** 	}
2212:src/display.c **** 
2213:src/display.c **** 	// Zap what is left
2214:src/display.c **** 	for (p = mantissa + dd + extra_digits + 1; *p != '\0'; *p++ = '0');
2215:src/display.c **** 
2216:src/display.c **** 	p = mantissa;
2217:src/display.c **** 	switch (mode) {
2218:src/display.c **** 	default:
2219:src/display.c **** 	case MODE_STD:   
2220:src/display.c **** 	  for (count = *display_digits; mantissa[count] == '0'; count--);
2221:src/display.c **** 	  if (count != *display_digits)
2222:src/display.c **** 	    count++;
2223:src/display.c **** 	  // Too big or too small to fit on display
2224:src/display.c **** 	  if (exp >= *display_digits || exp < (count - *display_digits)) {
2225:src/display.c **** 	    switch ((exp % 3) * UState.fixeng) {
2226:src/display.c **** 	    case -1:
2227:src/display.c **** 	    case 2:
2228:src/display.c **** 	      *obp++ = *p++;
2229:src/display.c **** 	      odig++;
2230:src/display.c **** 	      dd--;
2231:src/display.c **** 	      exp--;
2232:src/display.c **** 	    case -2:
2233:src/display.c **** 	    case 1:
2234:src/display.c **** 	      *obp++ = *p++;
2235:src/display.c **** 	      odig++;
2236:src/display.c **** 	      dd--;
2237:src/display.c **** 	      exp--;
2238:src/display.c **** 	    case 0:
2239:src/display.c **** 	      ;
2240:src/display.c **** 	    };
2241:src/display.c **** 	    *obp++ = *p++;
2242:src/display.c **** 	    odig++;
2243:src/display.c **** 	    *obp++ = '.';
2244:src/display.c **** 	    for (i=1; i<count; i++) {
2245:src/display.c **** 	      *obp++ = *p++;
2246:src/display.c **** 	      odig++;
2247:src/display.c **** 	    }
2248:src/display.c **** 	    show_exp = 1;
2249:src/display.c **** 	  } else if (exp >= 0) {  // Some digits to left of decimal point
2250:src/display.c **** 	    for(i=0; i<=exp; i++) {
2251:src/display.c **** 	      if (i > 0 && (exp - i) % 3 == 2)
2252:src/display.c **** 		*obp++ = ',';
2253:src/display.c **** 	      *obp++ = *p++;
2254:src/display.c **** 	      odig++;
2255:src/display.c **** 	    }
ARM GAS  /tmp/cc9o0abE.s 			page 54


2256:src/display.c **** 	    *obp++ = '.';
2257:src/display.c **** 	    if (count > (exp + 1)) {
2258:src/display.c **** 	      for (i=exp+1; i<count; i++) {
2259:src/display.c **** 		*obp++ = *p++;
2260:src/display.c **** 		odig++;
2261:src/display.c **** 	      }
2262:src/display.c **** 	    }
2263:src/display.c **** 	  } else {		// All digits to right of decimal point
2264:src/display.c **** 	    *obp++ = '0';
2265:src/display.c **** 	    odig++;
2266:src/display.c **** 	    *obp++ = '.';
2267:src/display.c **** 	    for (i=exp+1; i<0; i++) {
2268:src/display.c **** 	      *obp++ = '0';
2269:src/display.c **** 	      odig++;
2270:src/display.c **** 	    }
2271:src/display.c **** 	    for (i=0; i<count; i++) {
2272:src/display.c **** 	      *obp++ = *p++;
2273:src/display.c **** 	      odig++;
2274:src/display.c **** 	    }
2275:src/display.c **** 	  }
2276:src/display.c **** 	  break;
2277:src/display.c **** 
2278:src/display.c **** 	case MODE_FIX:
2279:src/display.c **** 	  j = 0;
2280:src/display.c **** 	  if (exp >= 0) {		// Some digits to left of decimal point
2281:src/display.c **** 	    for (i=0; i<=exp; i++) {
2282:src/display.c **** 	      if (i > 0 && (exp - i) % 3 == 2)
2283:src/display.c **** 		*obp++ = ',';
2284:src/display.c **** 	      *obp++ = *p++;
2285:src/display.c **** 	      odig++;
2286:src/display.c **** 	    }
2287:src/display.c **** 	    *obp++ = '.';
2288:src/display.c **** 	    for (i=0; i<dd && j < SEGS_EXP_BASE; i++) {
2289:src/display.c **** 	      *obp++ = *p++;
2290:src/display.c **** 	      odig++;
2291:src/display.c **** 	    }
2292:src/display.c **** 	  } else {		// All digits to right of decimal point
2293:src/display.c **** 	    *obp++ = '0';
2294:src/display.c **** 	    odig++;
2295:src/display.c **** 	    *obp++ = '.';
2296:src/display.c **** 	    for (i=exp+1; i<0; i++) {
2297:src/display.c **** 	      *obp++ = '0';
2298:src/display.c **** 	      odig++;
2299:src/display.c **** 	      dd--;
2300:src/display.c **** 	    }
2301:src/display.c **** 	    while (dd-- > 0) {
2302:src/display.c **** 	      *obp++ = *p++;
2303:src/display.c **** 	      odig++;
2304:src/display.c **** 	    }
2305:src/display.c **** 	  }
2306:src/display.c **** #if !defined(INCLUDE_SIGFIG_MODE)
2307:src/display.c **** 	  if (trimzeros)
2308:src/display.c **** 	    while (obp > x && obp[-1] == '0') {
2309:src/display.c **** 	      obp--;
2310:src/display.c **** 	      odig--;
2311:src/display.c **** 	    }
2312:src/display.c **** #endif			
ARM GAS  /tmp/cc9o0abE.s 			page 55


2313:src/display.c **** 	  break;
2314:src/display.c **** 
2315:src/display.c **** 	case MODE_ENG:
2316:src/display.c **** 	  switch (exp % 3) {
2317:src/display.c **** 	  case -1:
2318:src/display.c **** 	  case 2:
2319:src/display.c **** 	    *obp++ = *p++;
2320:src/display.c **** 	    odig++;
2321:src/display.c **** 	    dd--;
2322:src/display.c **** 	    exp--;
2323:src/display.c **** 	  case -2:
2324:src/display.c **** 	  case 1:
2325:src/display.c **** 	    *obp++ = *p++;
2326:src/display.c **** 	    odig++;
2327:src/display.c **** 	    dd--;
2328:src/display.c **** 	    exp--;
2329:src/display.c **** 	  case 0:
2330:src/display.c **** 	    ;
2331:src/display.c **** 	  };
2332:src/display.c **** 	  // Falling through
2333:src/display.c **** 
2334:src/display.c **** 	case MODE_SCI:
2335:src/display.c **** 	  *obp++ = *p++;
2336:src/display.c **** 	  odig++;
2337:src/display.c **** 	  *obp++ = '.';
2338:src/display.c **** 	  dd--;
2339:src/display.c **** 	  while (dd-- >= 0) {
2340:src/display.c **** 	    *obp++ = *p++;
2341:src/display.c **** 	    odig++;
2342:src/display.c **** 	  }
2343:src/display.c **** 	  show_exp = 1;
2344:src/display.c **** 	}
2345:src/display.c **** #if defined(INCLUDE_SIGFIG_MODE)
2346:src/display.c **** 	if (trimzeros) // ND change: trimzeros generally available
2347:src/display.c **** 	  while (obp > x && obp[-1] == '0') {
2348:src/display.c **** 	    obp--;
2349:src/display.c **** 	    odig--;
2350:src/display.c **** 	  }
2351:src/display.c **** #endif	
2352:src/display.c **** 	if (show_large_exponent && *display_digits > 10 && !res && (exp > 999 || exp < -999)) {
2353:src/display.c **** 	  *display_digits = 10; // Make space for four-digit exponent and exponent sign
2354:src/display.c **** 	  set_x_dn(z, res, display_digits);
2355:src/display.c **** 	  return;
2356:src/display.c **** 	}
2357:src/display.c **** 	/* Finally, send the output to the display */
2358:src/display.c **** 	*obp = '\0';
2359:src/display.c **** 	if (odig > *display_digits)
2360:src/display.c **** 	  odig = *display_digits;
2361:src/display.c **** 	j = (*display_digits - odig) * SEGS_PER_DIGIT;
2362:src/display.c **** 	if (show_large_exponent && j > 0 && exp < -999)
2363:src/display.c **** 	  j -= SEGS_PER_DIGIT; // add a space before the sign of the exponent
2364:src/display.c **** 	if (negative) {
2365:src/display.c **** 	  if (res) *res++ = '-';
2366:src/display.c **** 	  else {
2367:src/display.c **** 	    if (j == 0)
2368:src/display.c **** 	      SET_MANT_SIGN;
2369:src/display.c **** 	    else
ARM GAS  /tmp/cc9o0abE.s 			page 56


2370:src/display.c **** 	      set_dig(j - SEGS_PER_DIGIT, '-');
2371:src/display.c **** 	  }
2372:src/display.c **** 	}
2373:src/display.c **** 	for (i=0; (c = x[i]) != '\0' && j < SEGS_EXP_BASE; i++) {
2374:src/display.c **** 	  if (c == '.') {
2375:src/display.c **** 	    res = set_decimal(j - SEGS_PER_DIGIT, DecimalMode, res);
2376:src/display.c **** 	  } else if (c == ',') {
2377:src/display.c **** 	    res = set_separator(j, SeparatorMode, res);
2378:src/display.c **** 	  } else {
2379:src/display.c **** 	    res = set_dig_s(j, c, res);
2380:src/display.c **** 	    j += SEGS_PER_DIGIT;
2381:src/display.c **** 	  }
2382:src/display.c **** 	}
2383:src/display.c **** #if defined(INCLUDE_RIGHT_EXP)
2384:src/display.c **** 	if (show_exp) { // ND change: leading zeros in exponent in seven-segment display
2385:src/display.c **** 	  if ( !res ) {
2386:src/display.c **** 	    set_exp(exp, 4, res);
2387:src/display.c **** 	  }
2388:src/display.c **** 	  else {
2389:src/display.c **** 	    set_exp(exp, 0, res);
2390:src/display.c **** 	  }
2391:src/display.c **** 	}
2392:src/display.c **** #else
2393:src/display.c **** 	if (show_exp)
2394:src/display.c **** 	  set_exp(exp, 0, res);
2395:src/display.c **** #endif
2396:src/display.c **** 	if (obp[-1] == '.' && res == NULL)
2397:src/display.c **** 	  set_decimal((*display_digits - 1) * SEGS_PER_DIGIT, DecimalMode, res);
2398:src/display.c **** 	*display_digits = odig;
2399:src/display.c ****       }
2400:src/display.c **** 
2401:src/display.c **** #if defined(QTGUI) || defined(IOS)
2402:src/display.c ****       void format_display(char *buf) {
2403:src/display.c **** 	if (State2.runmode && !State2.labellist && !State2.registerlist && !State2.status)
2404:src/display.c **** 	  {
2405:src/display.c **** 	    const char *p = get_cmdline();
2406:src/display.c **** 	    if (p == NULL) {
2407:src/display.c **** 	      format_reg(regX_idx, buf);
2408:src/display.c **** 	    } else {
2409:src/display.c **** 	      scopy(buf, p);
2410:src/display.c **** #  ifdef LARGE_EXPONENT_ENTRY
2411:src/display.c **** 	      if (CmdLineEex != 0 && Cmdline[CmdLineEex] == 'D') {
2412:src/display.c **** 		scopy(buf + CmdLineEex + 2, p + CmdLineEex + 1);
2413:src/display.c **** 		buf[CmdLineEex] = 'E';
2414:src/display.c **** 		buf[CmdLineEex+1] = '-';
2415:src/display.c **** 	      }
2416:src/display.c **** #  endif
2417:src/display.c **** 	    }
2418:src/display.c **** 	  }
2419:src/display.c **** 	else {
2420:src/display.c **** 	  buf[0]=0;
2421:src/display.c **** 	}
2422:src/display.c ****       }
2423:src/display.c **** #endif
2424:src/display.c **** 
2425:src/display.c ****       void format_reg(int index, char *buf) {
2426:src/display.c **** 	const REGISTER *const r = get_reg_n(index);
ARM GAS  /tmp/cc9o0abE.s 			page 57


2427:src/display.c **** 
2428:src/display.c **** 	if (is_intmode())
2429:src/display.c **** 	  set_int_x(get_reg_n_int(index), buf);
2430:src/display.c **** #ifndef HP16C_MODE_CHANGE
2431:src/display.c **** 	else if (buf == NULL && State2.smode > SDISP_SHOW) {
2432:src/display.c **** 	  decNumber x;
2433:src/display.c **** 	  int s;
2434:src/display.c **** 	  unsigned long long int v;
2435:src/display.c **** 
2436:src/display.c **** 	  getRegister(&x, index);
2437:src/display.c **** 	  v = dn_to_ull(&x, &s);
2438:src/display.c **** 	  set_int_x(build_value(v, s), CNULL);
2439:src/display.c **** 	}
2440:src/display.c **** #endif
2441:src/display.c **** 	else
2442:src/display.c **** 	  set_x(r, buf, UState.mode_double);
2443:src/display.c ****       }
2444:src/display.c **** 
2445:src/display.c ****       /* Display the status screen */
2446:src/display.c ****       static void show_status(void) {
2447:src/display.c **** 	int i, n;
2448:src/display.c **** 	int j = SEGS_EXP_BASE;
2449:src/display.c **** 	const int status = State2.status - 3;
2450:src/display.c **** 	char buf[16], *p = buf;
2451:src/display.c **** 	unsigned int pc;
2452:src/display.c **** 
2453:src/display.c **** 	if (status == -2) {
2454:src/display.c **** 	  set_status("Free:");
2455:src/display.c **** 	  p = num_arg(buf, free_mem());
2456:src/display.c **** 	  p = scopy(p, " , FL. ");
2457:src/display.c **** 	  p = num_arg(p, free_flash());
2458:src/display.c **** 	  *p = '\0';
2459:src/display.c **** 	  set_digits_string(buf, 0);
2460:src/display.c **** 	}
2461:src/display.c **** 	else if (status == -1) {
2462:src/display.c **** 	  /* Top line */
2463:src/display.c **** 	  p = scopy(buf, "Regs:");
2464:src/display.c **** 	  if (SizeStatRegs)
2465:src/display.c **** 	    p = scopy(p, " \221\006\006+");
2466:src/display.c **** 	  *p = '\0';
2467:src/display.c **** 	  set_status(buf);
2468:src/display.c **** 
2469:src/display.c **** 	  /* Bottom line */
2470:src/display.c **** 	  p = num_arg(buf, global_regs());
2471:src/display.c **** 	  if (LocalRegs < 0) {
2472:src/display.c **** 	    p = scopy(p, " , Loc. ");
2473:src/display.c **** 	    p = num_arg(p, local_regs());
2474:src/display.c **** 	  }
2475:src/display.c **** 	  *p = '\0';
2476:src/display.c **** 	  set_digits_string(buf, 0);
2477:src/display.c **** 	} else {
2478:src/display.c **** 	  int base;
2479:src/display.c **** 	  int end;
2480:src/display.c **** 	  int group = 10;
2481:src/display.c **** 	  int start = 0;
2482:src/display.c **** 		
2483:src/display.c **** 	  if (status <= 9) {
ARM GAS  /tmp/cc9o0abE.s 			page 58


2484:src/display.c **** 	    base = 10 * status;
2485:src/display.c **** 	    end = base >= 70 ? 99 : base + 29;
2486:src/display.c **** 	    p = scopy(buf, "FL ");
2487:src/display.c **** 	    p = num_arg_0(p, base, 2);
2488:src/display.c **** 	    *p++ = '-';
2489:src/display.c **** 	    p = num_arg_0(p, end, 2);
2490:src/display.c **** 	    *p = '\0';
2491:src/display.c **** 	    set_status(buf);
2492:src/display.c **** 	  }
2493:src/display.c **** 	  else if (status == 10) {
2494:src/display.c **** 	    base = regX_idx;
2495:src/display.c **** 	    end = regK_idx;
2496:src/display.c **** 	    start = 3;
2497:src/display.c **** 	    group = 4;
2498:src/display.c **** 	    set_status("XYZT\006A:D\006LIJK");
2499:src/display.c **** 	  }
2500:src/display.c **** 	  else { // status == 11
2501:src/display.c **** 	    base = LOCAL_FLAG_BASE;
2502:src/display.c **** 	    end = LOCAL_FLAG_BASE + 15;
2503:src/display.c **** 	    set_status("FL.00-.15");
2504:src/display.c **** 	  }
2505:src/display.c **** 	  j = start * SEGS_PER_DIGIT;
2506:src/display.c **** 	  set_decimal(j, DECIMAL_DOT, CNULL);
2507:src/display.c **** 	  j += SEGS_PER_DIGIT;
2508:src/display.c **** 	  for (i = start; i < group + start; i++) {
2509:src/display.c **** 	    int k = i + base - start;
2510:src/display.c **** 	    int l = get_user_flag(k);
2511:src/display.c **** 	    k += group;
2512:src/display.c **** 	    if (end >= k) {
2513:src/display.c **** 	      l |= (get_user_flag(k) << 1);
2514:src/display.c **** 	      k += group;
2515:src/display.c **** 	      if (end >= k)
2516:src/display.c **** 		l |= (get_user_flag(k) << 2);
2517:src/display.c **** 	    }
2518:src/display.c **** 	    set_dig(j, l);
2519:src/display.c **** 	    set_decimal(j, DECIMAL_DOT, CNULL);
2520:src/display.c **** 	    j += SEGS_PER_DIGIT;
2521:src/display.c **** 	    if (i == 4) {
2522:src/display.c **** 	      set_dig(j, 8);
2523:src/display.c **** 	      set_decimal(j, DECIMAL_DOT, CNULL);
2524:src/display.c **** 	      j += SEGS_PER_DIGIT;
2525:src/display.c **** 	    }
2526:src/display.c **** 	  }
2527:src/display.c **** 	}
2528:src/display.c **** 
2529:src/display.c **** 	j = SEGS_EXP_BASE;
2530:src/display.c **** 	pc = state_pc();
2531:src/display.c **** 	if (isXROM(pc))
2532:src/display.c **** 	  pc = 1;
2533:src/display.c **** 	for (n=i=0; i<4; i++) {
2534:src/display.c **** 	  if (find_label_from(pc, 100+i, FIND_OP_ENDS)) {
2535:src/display.c **** 	    if (++n == 4) {
2536:src/display.c **** 	      set_dig(SEGS_EXP_BASE + SEGS_PER_EXP_DIGIT, 'L');
2537:src/display.c **** 	      set_dig(SEGS_EXP_BASE + 2*SEGS_PER_EXP_DIGIT, 'L');
2538:src/display.c **** 	    } else {
2539:src/display.c **** 	      set_dig(j, 'A'+i);
2540:src/display.c **** 	      j += SEGS_PER_EXP_DIGIT;
ARM GAS  /tmp/cc9o0abE.s 			page 59


2541:src/display.c **** 	    }
2542:src/display.c **** 	  }
2543:src/display.c **** 	}
2544:src/display.c ****       }
2545:src/display.c **** 
2546:src/display.c **** 
2547:src/display.c ****       /* Display the list of alpha labels */
2548:src/display.c ****       static void show_label(void) {
2549:src/display.c **** 	char buf[16];
2550:src/display.c **** 	unsigned short int pc = State2.digval;
2551:src/display.c **** 	unsigned int op = getprog(pc);
2552:src/display.c **** 	int n = nLIB(pc);
2553:src/display.c **** 	unsigned short int lblpc;
2554:src/display.c **** 
2555:src/display.c **** 	set_status(prt((opcode)op, buf));
2556:src/display.c **** 	set_digits_string(libname[n], 0);
2557:src/display.c **** #if !defined(REALBUILD) && !defined(DM42)
2558:src/display.c **** 	scopy(LastDisplayedNumber, libname_text[n]);
2559:src/display.c **** #endif
2560:src/display.c **** 
2561:src/display.c **** 	if (op & OP_DBL) {
2562:src/display.c **** 	  lblpc = findmultilbl(op, 0);
2563:src/display.c **** 	  if (lblpc != pc) {
2564:src/display.c **** 	    set_digits_string("CALLS", SEGS_PER_DIGIT * 7);
2565:src/display.c **** 	    n = nLIB(lblpc);
2566:src/display.c **** 	    if (n == REGION_RAM)
2567:src/display.c **** 	      set_exp(lblpc, 1, CNULL);
2568:src/display.c **** 	    else {
2569:src/display.c **** 	      set_exp_digits_string(libname[n], CNULL);
2570:src/display.c **** #if !defined(REALBUILD) && !defined(DM42)
2571:src/display.c **** 	      scopy(LastDisplayedNumber, libname_text[n]);
2572:src/display.c **** #endif
2573:src/display.c **** 	    }
2574:src/display.c **** 	  }
2575:src/display.c **** 	}
2576:src/display.c ****       }
2577:src/display.c **** 
2578:src/display.c ****       /* Display a list of register contents */
2579:src/display.c ****       static void show_registers(void) {
2580:src/display.c **** 	char buf[16], *bp;
2581:src/display.c **** 	int n = State2.digval;
2582:src/display.c **** 	
2583:src/display.c **** #ifdef INCLUDE_FLASH_RECALL
2584:src/display.c **** 	const int reg = State2.digval2 ? FLASH_REG_BASE + n : 
2585:src/display.c **** 	  State2.local   ? LOCAL_REG_BASE + n : 
2586:src/display.c **** 	  n;
2587:src/display.c **** #else
2588:src/display.c **** 	const int reg = State2.local   ? LOCAL_REG_BASE + n : 
2589:src/display.c **** 	  n;
2590:src/display.c **** #endif
2591:src/display.c **** 
2592:src/display.c **** 	if (State2.disp_as_alpha) {
2593:src/display.c **** 	  set_status(alpha_rcl_s(reg, buf));
2594:src/display.c **** 	}
2595:src/display.c **** 	else {
2596:src/display.c **** 	  xset(buf, '\0', 16);
2597:src/display.c **** #ifdef INCLUDE_FLASH_RECALL
ARM GAS  /tmp/cc9o0abE.s 			page 60


2598:src/display.c **** 	  bp = scopy_spc(buf, State2.digval2 ? "Bkup" : "Reg ");
2599:src/display.c **** #else
2600:src/display.c **** 	  bp = scopy_spc(buf, "Reg ");
2601:src/display.c **** #endif
2602:src/display.c **** 	  if (State2.local) {
2603:src/display.c **** 	    *bp++ = '.';
2604:src/display.c **** 	    if (n >= 100) {
2605:src/display.c **** 	      *bp++ = '1';
2606:src/display.c **** 	      n -= 100;
2607:src/display.c **** 	    }
2608:src/display.c **** 	  }
2609:src/display.c **** 	  if (n < 100)
2610:src/display.c **** 	    bp = num_arg_0(bp, n, 2);
2611:src/display.c **** 	  else
2612:src/display.c **** 	    *bp++ = REGNAMES[n - regX_idx];
2613:src/display.c **** 	  set_status(buf);
2614:src/display.c **** 	}
2615:src/display.c **** 	format_reg(reg, CNULL);
2616:src/display.c ****       }
2617:src/display.c **** 
2618:src/display.c **** 
2619:src/display.c ****       static void set_annunciators(void)
2620:src/display.c ****       {
2621:src/display.c **** 	const enum trig_modes tm = get_trig_mode();
2622:src/display.c **** 
2623:src/display.c **** 	/* Turn INPUT on for alpha mode.  Turn down arrow on if we're
2624:src/display.c **** 	 * typing lower case in alpha mode.  Turn the big equals if we're
2625:src/display.c **** 	 * browsing constants.
2626:src/display.c **** 	 */
2627:src/display.c **** #ifdef MODIFY_BEG_SSIZE8
2628:src/display.c **** 	dot(BEG, UState.stack_depth && ! Running);
2629:src/display.c **** #else
2630:src/display.c **** 	dot(BEG, state_pc() <= 1 && ! Running);
2631:src/display.c **** #endif
2632:src/display.c **** #ifdef INCLUDE_C_LOCK
2633:src/display.c **** 	dot(LIT_EQ, C_LOCKED);
2634:src/display.c **** #endif
2635:src/display.c **** 
2636:src/display.c **** 	dot(INPUT, State2.catalogue || State2.alphas || State2.confirm);
2637:src/display.c **** 	dot(DOWN_ARR, (State2.alphas || State2.multi) && State2.alphashift);
2638:src/display.c **** 	dot(BIG_EQ, get_user_flag(A_FLAG));
2639:src/display.c **** 	set_IO_annunciator();
2640:src/display.c **** 
2641:src/display.c **** 	/* Set the trig mode indicator 360 or RAD.  Grad is handled elsewhere.
2642:src/display.c **** 	 */
2643:src/display.c **** 	dot(DEG, !is_intmode() && tm == TRIG_DEG);
2644:src/display.c **** 	dot(RAD, !is_intmode() && tm == TRIG_RAD);
2645:src/display.c ****       }
2646:src/display.c **** 
2647:src/display.c **** 
2648:src/display.c ****       /*
2649:src/display.c ****        *  Toggle the little "=" sign
2650:src/display.c ****        */
2651:src/display.c ****       void set_IO_annunciator(void) {
2652:src/display.c **** #ifndef DM42
2653:src/display.c **** 	int on = SerialOn
2654:src/display.c **** #endif
ARM GAS  /tmp/cc9o0abE.s 			page 61


2655:src/display.c **** #ifdef DM42
2656:src/display.c **** 	  int on = 0
2657:src/display.c **** #endif
2658:src/display.c **** #ifdef REALBUILD
2659:src/display.c **** 	  || DebugFlag
2660:src/display.c **** #endif
2661:src/display.c **** #ifdef INFRARED
2662:src/display.c **** 	  || PrinterColumn != 0
2663:src/display.c **** #endif
2664:src/display.c **** 	  ;
2665:src/display.c **** 
2666:src/display.c **** 	if (on != IoAnnunciator) {
2667:src/display.c **** 	  dot(LIT_EQ, on);
2668:src/display.c **** 	  IoAnnunciator = on;
2669:src/display.c **** 	  finish_display(); //LIT_EQ
2670:src/display.c **** 	}
2671:src/display.c ****       }
2672:src/display.c **** 
2673:src/display.c **** #ifdef TOP_ROW
2674:src/display.c ****       /*
2675:src/display.c ****        *  Update the display
2676:src/display.c ****        */
2677:src/display.c ****       void display(void) {
2678:src/display.c **** 	int i, j;
2679:src/display.c **** 	char buf[40], *bp = buf;
2680:src/display.c **** 	const char *p;
2681:src/display.c **** 	int annuc = 0;
2682:src/display.c **** 	const enum catalogues cata = (enum catalogues) State2.catalogue;
2683:src/display.c **** 	int skip = 0;
2684:src/display.c **** 	int x_disp = 0;
2685:src/display.c **** 	const int shift = cur_shift();
2686:src/display.c **** 
2687:src/display.c **** 	no_status_top = 0;
2688:src/display.c **** 	if (State2.disp_freeze) {
2689:src/display.c **** 	  State2.disp_freeze = 0;
2690:src/display.c **** 	  State2.disp_temp = 1;
2691:src/display.c **** #ifdef CONSOLE
2692:src/display.c **** 	  JustDisplayed = 1;
2693:src/display.c **** #endif
2694:src/display.c **** 	  ShowRPN = 0;
2695:src/display.c **** 	  return;
2696:src/display.c **** 	}
2697:src/display.c **** 
2698:src/display.c **** 	if (WasDataEntry) {
2699:src/display.c **** #if defined(QTGUI) || defined(IOS)
2700:src/display.c **** 	  xset(LastDisplayedNumber, ' ', NUMBER_LENGTH);
2701:src/display.c **** 	  LastDisplayedNumber[NUMBER_LENGTH]=0;
2702:src/display.c **** 	  xset(LastDisplayedExponent, ' ', EXPONENT_LENGTH);
2703:src/display.c **** 	  LastDisplayedExponent[EXPONENT_LENGTH]=0;
2704:src/display.c **** #endif
2705:src/display.c **** 	  wait_for_display(); // Normally called from reset_disp()
2706:src/display.c **** 
2707:src/display.c **** 	  // Erase 7-segment display
2708:src/display.c **** 	  for (i = 0; i <= EXP_SIGN; ++i) {
2709:src/display.c **** 	    clr_dot(i);
2710:src/display.c **** 	  }
2711:src/display.c **** 	  goto only_update_x;
ARM GAS  /tmp/cc9o0abE.s 			page 62


2712:src/display.c **** 	}
2713:src/display.c **** #ifdef INCLUDE_YREG_CODE
2714:src/display.c **** #  ifdef YREG_ALWAYS_ON
2715:src/display.c **** 	const int yreg_enabled = 1;
2716:src/display.c **** #  else
2717:src/display.c **** 	const int yreg_enabled = UState.show_y;
2718:src/display.c **** #  endif
2719:src/display.c **** #else
2720:src/display.c **** 	const int yreg_enabled = 0;
2721:src/display.c **** #endif
2722:src/display.c **** 	// Clear display
2723:src/display.c **** 	reset_disp();
2724:src/display.c **** 
2725:src/display.c **** 	
2726:src/display.c **** 	xset(buf, '\0', sizeof(buf));
2727:src/display.c **** 	// Not clear why this code is needed - "c" is done in annunciators.
2728:src/display.c **** 	/* if (State2.cmplx  && !cata) { */
2729:src/display.c **** 	/*   *bp++ = COMPLEX_PREFIX; */
2730:src/display.c **** 	/*   set_status(buf); */
2731:src/display.c **** 	/* } */
2732:src/display.c **** 	if (State2.version) {
2733:src/display.c **** 	  char vers[VERS_SVN_OFFSET + 5] = VERS_DISPLAY;
2734:src/display.c **** 	  set_digits_string("pAULI, WwALtE", 0);
2735:src/display.c **** 	  set_dig_s(SEGS_EXP_BASE, 'r', CNULL);
2736:src/display.c **** #if !defined(REALBUILD) && !defined(DM42)
2737:src/display.c **** 	  scopy(LastDisplayedNumber, " P A U L I,  W A L T E R ");
2738:src/display.c **** 	  scopy(LastDisplayedExponent, " ");
2739:src/display.c **** #endif
2740:src/display.c **** 	  xcopy( vers + VERS_SVN_OFFSET, SvnRevision, 4 );
2741:src/display.c **** 	  set_status(vers);
2742:src/display.c **** 	  skip = 1;
2743:src/display.c **** 	  goto nostk;
2744:src/display.c **** 	} else if (State2.confirm) {
2745:src/display.c **** 	  if (yreg_enabled) {
2746:src/display.c **** 	    set_status_top(S_SURE);
2747:src/display.c **** 	    no_status_top = 1;
2748:src/display.c **** 	    annuc = 1;
2749:src/display.c **** 	  }
2750:src/display.c **** 	  else {
2751:src/display.c **** 	    set_status(S_SURE);
2752:src/display.c **** 	  }
2753:src/display.c **** 	} else if (State2.hyp) {
2754:src/display.c **** 	  bp = scopy(bp, "HYP");
2755:src/display.c **** 	  if (! State2.dot)
2756:src/display.c **** 	    *bp++ = '\235';
2757:src/display.c **** 	  if (yreg_enabled) {
2758:src/display.c **** 	    set_status_top(buf);
2759:src/display.c **** 	    no_status_top = 1;
2760:src/display.c **** 	    annuc = 1;
2761:src/display.c **** 	  }
2762:src/display.c **** 	  else {
2763:src/display.c **** 	    set_status(buf);
2764:src/display.c **** 	  }
2765:src/display.c **** 	} else if (State2.gtodot) {
2766:src/display.c **** 	  // const int n = 3 + (nLIB(state_pc()) & 1); // Number of digits to display/expect
2767:src/display.c **** 	  bp = scopy_char(bp, argcmds[RARG_GTO].cmd, '.');
2768:src/display.c **** 	  if (State2.numdigit > 0)
ARM GAS  /tmp/cc9o0abE.s 			page 63


2769:src/display.c **** 	    bp = num_arg_0(bp, (unsigned int)State2.digval, (int)State2.numdigit);
2770:src/display.c **** 	  // for (i=State2.numdigit; i<n; i++)
2771:src/display.c **** 	  *bp++ = '_';
2772:src/display.c **** 	  if (yreg_enabled) {
2773:src/display.c **** 	    set_status_top(buf);
2774:src/display.c **** 	    no_status_top = 1;
2775:src/display.c **** 	    annuc = 1;
2776:src/display.c **** 	  }
2777:src/display.c **** 	  else {
2778:src/display.c **** 	    set_status(buf);
2779:src/display.c **** 	  }
2780:src/display.c **** 	} else if (State2.rarg) {
2781:src/display.c **** 	  /* Commands with arguments */
2782:src/display.c **** #ifdef INCLUDE_SIGFIG_MODE
2783:src/display.c **** 	  if (CmdBase == RARG_FIX || CmdBase == RARG_SIG || CmdBase == RARG_SIG0)
2784:src/display.c **** 	    bp = scopy(bp, "\177\006\006");
2785:src/display.c **** #endif
2786:src/display.c **** 	  bp = scopy(bp, argcmds[CmdBase].cmd);
2787:src/display.c **** 	  bp = scopy(bp, State2.ind?"\015" : "\006\006");
2788:src/display.c **** 	  if (State2.dot) {
2789:src/display.c **** 	    *bp++ = 's';
2790:src/display.c **** 	    *bp++ = '_';
2791:src/display.c **** 	  } else if (shift == SHIFT_F) {
2792:src/display.c **** 	    *bp++ = '\021';
2793:src/display.c **** 	    *bp++ = '_';
2794:src/display.c **** 	  } else {
2795:src/display.c **** 	    /* const int maxdigits = State2.shuffle ? 4 
2796:src/display.c **** 	       : State2.ind ? 2 
2797:src/display.c **** 	       : num_arg_digits(CmdBase); */
2798:src/display.c **** 	    if (State2.local)
2799:src/display.c **** 	      *bp++ = '.';
2800:src/display.c **** 	    if (State2.numdigit > 0) {
2801:src/display.c **** 	      if (State2.shuffle)
2802:src/display.c **** 		for (i = 0, j = State2.digval; i<State2.numdigit; i++, j >>= 2)
2803:src/display.c **** 		  *bp++ = REGNAMES[j & 3];
2804:src/display.c **** 	      else
2805:src/display.c **** 		bp = num_arg_0(bp, (unsigned int)State2.digval, (int)State2.numdigit);
2806:src/display.c **** 	    }
2807:src/display.c **** 	    // for (i = State2.numdigit; i < maxdigits; i++)
2808:src/display.c **** 	    *bp++ = '_';
2809:src/display.c **** 	  }
2810:src/display.c **** 	  if (yreg_enabled) {
2811:src/display.c **** 	    set_status_top(buf);
2812:src/display.c **** 	    no_status_top = 1;
2813:src/display.c **** 	    annuc = 1;
2814:src/display.c **** 	  }
2815:src/display.c **** 	  else {
2816:src/display.c **** 	    set_status(buf);
2817:src/display.c **** 	  }
2818:src/display.c **** 	} else if (State2.test != TST_NONE) {
2819:src/display.c **** 	  *bp++ = 'x';
2820:src/display.c **** 	  *bp++ = "=\013\035<\011>\012"[State2.test];
2821:src/display.c **** 	  *bp++ = '_';
2822:src/display.c **** 	  *bp++ = '?';
2823:src/display.c **** 	  if (yreg_enabled) {
2824:src/display.c **** 	    set_status_top(buf);
2825:src/display.c **** 	    no_status_top = 1;
ARM GAS  /tmp/cc9o0abE.s 			page 64


2826:src/display.c **** 	    annuc = 1;
2827:src/display.c **** 	  }
2828:src/display.c **** 	  else {
2829:src/display.c **** 	    set_status(buf);
2830:src/display.c **** 	  }
2831:src/display.c **** 	} else if (cata) {
2832:src/display.c **** 	  const opcode op = current_catalogue(State.catpos);
2833:src/display.c **** 	  char b2[16];
2834:src/display.c **** 	  const char *p;
2835:src/display.c **** 
2836:src/display.c **** 	  bp = scopy(bp, "\177\006\006");
2837:src/display.c **** 	  p = catcmd(op, b2);
2838:src/display.c **** 	  if (*p != COMPLEX_PREFIX && State2.cmplx)
2839:src/display.c **** 	    *bp++ = COMPLEX_PREFIX;
2840:src/display.c **** 	  bp = scopy(bp, p);
2841:src/display.c **** 	  if (cata == CATALOGUE_CONST || cata == CATALOGUE_COMPLEX_CONST) {
2842:src/display.c **** 	    // State2.disp_small = 1;
2843:src/display.c **** 	    if (op == RARG_BASEOP(RARG_INTNUM) || op == RARG_BASEOP(RARG_INTNUM_CMPLX))
2844:src/display.c **** 	      set_digits_string("0 to 255", 0);
2845:src/display.c **** 	    else
2846:src/display.c **** 	      set_x(get_const(op & RARG_MASK, 0), CNULL, 0);
2847:src/display.c **** 	    skip = 1;
2848:src/display.c **** 	  } else if (State2.runmode) {
2849:src/display.c **** 	    if (cata == CATALOGUE_CONV) {
2850:src/display.c **** 	      decNumber x, r;
2851:src/display.c **** 	      decimal64 z;
2852:src/display.c **** 
2853:src/display.c **** 	      getX(&x);
2854:src/display.c **** 	      if (opKIND(op) == KIND_MON) {
2855:src/display.c **** 		const unsigned int f = argKIND(op);
2856:src/display.c **** 		if (f < NUM_MONADIC && ! isNULL(monfuncs[f].mondreal)) {
2857:src/display.c **** 		  FP_MONADIC_REAL fp = (FP_MONADIC_REAL) EXPAND_ADDRESS(monfuncs[f].mondreal);
2858:src/display.c **** 		  update_speed(0);
2859:src/display.c **** 		  fp(&r, &x);
2860:src/display.c **** 		}
2861:src/display.c **** 		else
2862:src/display.c **** 		  set_NaN(&r);
2863:src/display.c **** 	      } else
2864:src/display.c **** 		do_conv(&r, op & RARG_MASK, &x);
2865:src/display.c **** 	      decNumberNormalize(&r, &r, &Ctx);
2866:src/display.c **** 	      packed_from_number(&z, &r);
2867:src/display.c **** 	      set_x((REGISTER *)&z, CNULL, 0);
2868:src/display.c **** 	      skip = 1;
2869:src/display.c **** 	    } else if (op >= (OP_NIL | OP_sigmaX2Y) && op < (OP_NIL | OP_sigmaX2Y) + NUMSTATREG) {
2870:src/display.c **** 	      REGISTER z, *const x = StackBase;
2871:src/display.c **** 	      copyreg(&z, x);
2872:src/display.c **** 	      sigma_val((enum nilop) argKIND(op));
2873:src/display.c **** 	      set_x(x, CNULL, is_dblmode());
2874:src/display.c **** 	      copyreg(x, &z);
2875:src/display.c **** 	      skip = 1;
2876:src/display.c **** 	    }
2877:src/display.c **** 	  }
2878:src/display.c **** 	  if (yreg_enabled) {
2879:src/display.c **** 	    set_status_top(buf);
2880:src/display.c **** 	    no_status_top = 1;
2881:src/display.c **** 	    annuc = 1;
2882:src/display.c **** 	  }
ARM GAS  /tmp/cc9o0abE.s 			page 65


2883:src/display.c **** 	  else {
2884:src/display.c **** 	    set_status(buf);
2885:src/display.c **** 	  }
2886:src/display.c **** 	} else if (State2.multi) {
2887:src/display.c **** 	  bp = scopy_char(bp, multicmds[CmdBase].cmd, '\'');
2888:src/display.c **** 	  if (State2.numdigit > 0) {
2889:src/display.c **** 	    *bp++ = (char) State2.digval;
2890:src/display.c **** 	    if (State2.numdigit > 1)
2891:src/display.c **** 	      *bp++ = State2.digval2;
2892:src/display.c **** 	  }
2893:src/display.c **** 	  if (yreg_enabled) {
2894:src/display.c **** 	    set_status_top(buf);
2895:src/display.c **** 	    no_status_top = 1;
2896:src/display.c **** 	    annuc = 1;
2897:src/display.c **** 	  }
2898:src/display.c **** 	  else {
2899:src/display.c **** 	    set_status(buf);
2900:src/display.c **** 	  }
2901:src/display.c **** 	} else if (State2.status) {
2902:src/display.c **** 	  show_status();
2903:src/display.c **** 	  skip = 1;
2904:src/display.c **** 	} else if (State2.labellist) {
2905:src/display.c **** 	  show_label();
2906:src/display.c **** 	  skip = 1;
2907:src/display.c **** 	} else if (State2.registerlist) {
2908:src/display.c **** 	  show_registers();
2909:src/display.c **** 	  skip = 1;
2910:src/display.c **** 	  if (shift != SHIFT_N || (State2.smode == SDISP_SHOW && is_intmode())) {
2911:src/display.c **** 	    annunciators();
2912:src/display.c **** 	  }
2913:src/display.c **** #ifdef SHIFT_HOLD_TEMPVIEW
2914:src/display.c **** 	} else if (State2.disp_as_alpha) {
2915:src/display.c **** 	  set_status(alpha_rcl_s(regX_idx, buf));
2916:src/display.c **** #endif
2917:src/display.c **** 	} else if (State2.runmode) {
2918:src/display.c **** 	  if (DispMsg) { 
2919:src/display.c **** 	    set_status(DispMsg);
2920:src/display.c **** 	  } else if (DispPlot) {
2921:src/display.c **** 	    set_status_graphic((const unsigned char *)get_reg_n(DispPlot-1));
2922:src/display.c **** 	  } else if (State2.alphas) {
2923:src/display.c **** 	    bp = scopy(buf, Alpha);
2924:src/display.c **** 	    j = State2.alpha_pos;
2925:src/display.c **** 	    if (j != 0) {
2926:src/display.c **** 	      i = slen(buf);
2927:src/display.c **** 	      j *= 6;
2928:src/display.c **** 	      if ( i - j >= ALPHA_SWITCH )
2929:src/display.c **** 		{
2930:src/display.c **** 		  buf[ (i - j) ] = '\0';
2931:src/display.c **** 		  set_status_right(buf);
2932:src/display.c **** 		}
2933:src/display.c **** 	      else {
2934:src/display.c **** 		set_status(buf);
2935:src/display.c **** 	      }
2936:src/display.c **** 	    }
2937:src/display.c **** 	    else {
2938:src/display.c **** 	      if ((shift != SHIFT_N) && !yreg_enabled) {
2939:src/display.c **** 		*bp++ = 021 + shift - SHIFT_F;
ARM GAS  /tmp/cc9o0abE.s 			page 66


2940:src/display.c **** 		*bp++ = '\0';
2941:src/display.c **** 	      }
2942:src/display.c **** 	      set_status_right(buf);
2943:src/display.c **** 	    }
2944:src/display.c **** 	    if (shift != SHIFT_N && yreg_enabled) {
2945:src/display.c **** 	      bp = buf;
2946:src/display.c **** 	      *bp++ = 021 + shift - SHIFT_F;
2947:src/display.c **** 	      *bp++ = '\0';
2948:src/display.c **** 	      set_status_top(buf);
2949:src/display.c **** 	      no_status_top = 1;
2950:src/display.c **** 	      //annuc = 1;
2951:src/display.c **** 	    }
2952:src/display.c **** 	  }
2953:src/display.c **** 	  else {
2954:src/display.c **** 	    annuc = 1;
2955:src/display.c **** 	  }
2956:src/display.c **** 	}
2957:src/display.c **** 	else {
2958:src/display.c **** #ifndef DM42
2959:src/display.c **** 	  show_progtrace(buf);
2960:src/display.c **** #endif
2961:src/display.c **** 	  i = state_pc();
2962:src/display.c **** 	  if (i > 0)
2963:src/display.c **** 	    set_status(prt(getprog(i), buf));
2964:src/display.c **** 	  else
2965:src/display.c **** 	    set_status("");
2966:src/display.c **** 	  set_dot(STO_annun);
2967:src/display.c **** 	  //	  if (cur_shift() != SHIFT_N || State2.cmplx || State2.arrow)
2968:src/display.c **** 	    annuc = 1;
2969:src/display.c **** 	  goto nostk;
2970:src/display.c **** 	}
2971:src/display.c **** 	show_stack();
2972:src/display.c ****       nostk:
2973:src/display.c **** 	show_flags();
2974:src/display.c **** 	if (!skip) {
2975:src/display.c **** 	  if (State2.runmode) {
2976:src/display.c **** 	  only_update_x:
2977:src/display.c **** 	    p = get_cmdline();
2978:src/display.c **** 	    if (p == NULL || cata) {
2979:src/display.c **** 	      if (ShowRegister != -1) {
2980:src/display.c **** #ifdef INCLUDE_C_LOCK
2981:src/display.c **** 		if ( C_LOCKED && POLAR_DISPLAY && !(REAL_FLAG || IMAG_FLAG) ) {
2982:src/display.c **** 		  if ( POLAR_FORM_NOT_READY ) {
2983:src/display.c **** 		    op_r2p(OP_NOP); // note: argument not being OP_R2P signals to function that results go to J, 
2984:src/display.c **** 		    SET_POLAR_READY;
2985:src/display.c **** 		  }
2986:src/display.c **** 		  if (State2.hms) { // no hms display for mod, only arg
2987:src/display.c **** 		    State2.hms = 0;
2988:src/display.c **** 		    format_reg(regJ_idx, CNULL);
2989:src/display.c **** 		    State2.hms = 1;
2990:src/display.c **** 		  }
2991:src/display.c **** 		  else {
2992:src/display.c **** 		    format_reg(regJ_idx, CNULL);
2993:src/display.c **** 		  }
2994:src/display.c **** 		  x_disp = 1;
2995:src/display.c **** 		}
2996:src/display.c **** 		else {
ARM GAS  /tmp/cc9o0abE.s 			page 67


2997:src/display.c **** 		  x_disp = (ShowRegister == regX_idx) && !State2.hms;
2998:src/display.c **** 		  format_reg(ShowRegister, CNULL);
2999:src/display.c **** 		}
3000:src/display.c **** #else		
3001:src/display.c **** 		x_disp = (ShowRegister == regX_idx) && !State2.hms;
3002:src/display.c **** 		format_reg(ShowRegister, CNULL);
3003:src/display.c **** #endif
3004:src/display.c **** 	      }
3005:src/display.c **** 	      else
3006:src/display.c **** 		set_digits_string(" ---", 4 * SEGS_PER_DIGIT);
3007:src/display.c **** 	    } else {
3008:src/display.c **** 	      disp_x(p);
3009:src/display.c **** 	      x_disp = 1;
3010:src/display.c **** 	    }
3011:src/display.c **** 	    if (WasDataEntry) {
3012:src/display.c **** 	      goto finish;
3013:src/display.c **** 	    }
3014:src/display.c **** 	  } else {
3015:src/display.c **** 	    unsigned int pc = state_pc();
3016:src/display.c **** 	    unsigned int upc = user_pc(pc);
3017:src/display.c **** 	    const int n = nLIB(pc);
3018:src/display.c **** 	    xset(buf, '\0', sizeof(buf));
3019:src/display.c **** 	    set_exp(ProgFree, 1, CNULL);
3020:src/display.c **** #ifdef FOUR_K
3021:src/display.c **** 	    if ((upc<1000) && n == 0) {
3022:src/display.c **** 	      num_arg_0(scopy_spc(buf, S7_STEP), upc, 3);
3023:src/display.c **** 	    }
3024:src/display.c **** 	    else {
3025:src/display.c **** 	      num_arg_0(scopy(buf, n == 0 ? S7_STEP : libname[n]), 
3026:src/display.c **** 		      upc, 4);  // 4 digits in ROM and Library
3027:src/display.c **** 	    }	      
3028:src/display.c **** #else
3029:src/display.c **** 	    num_arg_0(scopy_spc(buf, n == 0 ? S7_STEP : libname[n]), 
3030:src/display.c **** 		      upc, 3 + (n & 1));  // 4 digits in ROM and Library
3031:src/display.c **** #endif
3032:src/display.c **** 	    set_digits_string(buf, SEGS_PER_DIGIT);
3033:src/display.c **** #if !defined(REALBUILD) && !defined(DM42)
3034:src/display.c **** 	    xset(buf, '\0', sizeof(buf));
3035:src/display.c **** 	    set_exp(ProgFree, 1, CNULL);
3036:src/display.c **** 	    num_arg_0(scopy_spc(buf, n == 0 ? S7_STEP_ShortText : libname_shorttext[n]),
3037:src/display.c **** 		      upc, 3 + (n & 1));  // 4 digits in ROM and Library
3038:src/display.c **** 	    { // allow local declaration of b and l in C (not C++) on VisualStudio
3039:src/display.c **** 	      char *b=buf;
3040:src/display.c **** 	      char *l=LastDisplayedNumber;
3041:src/display.c **** 	      *l++=' ';
3042:src/display.c **** 	      while(*b) {
3043:src/display.c **** 		*l++=*b++;
3044:src/display.c **** 		*l++=' ';
3045:src/display.c **** 	      }
3046:src/display.c **** 	      *l=0;
3047:src/display.c **** 	    }
3048:src/display.c **** #endif
3049:src/display.c **** 	  }
3050:src/display.c **** 	}
3051:src/display.c **** 	set_annunciators();
3052:src/display.c **** 	if (x_disp == 0 || State2.smode != SDISP_NORMAL || DispMsg != NULL || DispPlot || State2.disp_as_a
3053:src/display.c **** 	  ShowRPN = 0;
ARM GAS  /tmp/cc9o0abE.s 			page 68


3054:src/display.c **** 	  dot(RPN, 0);
3055:src/display.c **** 	}
3056:src/display.c **** 	// disp_temp disables the <- key
3057:src/display.c **** 	State2.disp_temp = ! ShowRPN && State2.runmode 
3058:src/display.c **** 	  && (! State2.registerlist || State2.smode == SDISP_SHOW || State2.disp_as_alpha);
3059:src/display.c **** 
3060:src/display.c **** #if defined(INCLUDE_YREG_CODE)
3061:src/display.c **** 	if ((annuc && (! State2.disp_temp || State2.hms)) || State2.wascomplex) // makes sure that hms num
3062:src/display.c **** 	  annunciators();
3063:src/display.c ****  	State2.hms = 0;
3064:src/display.c **** #else
3065:src/display.c **** 	if ((annuc && ! State2.disp_temp) || State2.wascomplex)
3066:src/display.c **** 	  annunciators();
3067:src/display.c **** #endif
3068:src/display.c **** 
3069:src/display.c ****       finish:
3070:src/display.c **** 	State2.version = 0;
3071:src/display.c **** 	State2.disp_as_alpha = 0;
3072:src/display.c **** 	State2.smode = SDISP_NORMAL;
3073:src/display.c **** 	State2.invalid_disp = 0;
3074:src/display.c **** 	ShowRegister = regX_idx;
3075:src/display.c **** 	DispMsg = CNULL;
3076:src/display.c **** 	DispPlot = 0;
3077:src/display.c **** 	State2.disp_small = 0;
3078:src/display.c **** 	finish_display();
3079:src/display.c **** 	no_status_top = 0;
3080:src/display.c **** #ifdef CONSOLE
3081:src/display.c **** 	JustDisplayed = 1;
3082:src/display.c **** #endif
3083:src/display.c ****       }
3084:src/display.c **** #else
3085:src/display.c ****       /*
3086:src/display.c ****        *  Update the display
3087:src/display.c ****        */
3088:src/display.c ****       void display(void) {
3089:src/display.c **** 	int i, j;
3090:src/display.c **** 	char buf[40], *bp = buf;
3091:src/display.c **** 	const char *p;
3092:src/display.c **** 	int annuc = 0;
3093:src/display.c **** 	const enum catalogues cata = (enum catalogues) State2.catalogue;
3094:src/display.c **** 	int skip = 0;
3095:src/display.c **** 	int x_disp = 0;
3096:src/display.c **** 	const int shift = cur_shift();
3097:src/display.c **** 
3098:src/display.c **** 
3099:src/display.c **** 
3100:src/display.c **** 	if (State2.disp_freeze) {
3101:src/display.c **** 	  State2.disp_freeze = 0;
3102:src/display.c **** 	  State2.disp_temp = 1;
3103:src/display.c **** #ifdef CONSOLE
3104:src/display.c **** 	  JustDisplayed = 1;
3105:src/display.c **** #endif
3106:src/display.c **** 	  ShowRPN = 0;
3107:src/display.c **** 	  return;
3108:src/display.c **** 	}
3109:src/display.c **** 
3110:src/display.c **** 	if (WasDataEntry) {
ARM GAS  /tmp/cc9o0abE.s 			page 69


3111:src/display.c **** #if defined(QTGUI) || defined(IOS)
3112:src/display.c **** 	  xset(LastDisplayedNumber, ' ', NUMBER_LENGTH);
3113:src/display.c **** 	  LastDisplayedNumber[NUMBER_LENGTH]=0;
3114:src/display.c **** 	  xset(LastDisplayedExponent, ' ', EXPONENT_LENGTH);
3115:src/display.c **** 	  LastDisplayedExponent[EXPONENT_LENGTH]=0;
3116:src/display.c **** #endif
3117:src/display.c **** 	  wait_for_display(); // Normally called from reset_disp()
3118:src/display.c **** 
3119:src/display.c **** 	  // Erase 7-segment display
3120:src/display.c **** 	  for (i = 0; i <= EXP_SIGN; ++i) {
3121:src/display.c **** 	    clr_dot(i);
3122:src/display.c **** 	  }
3123:src/display.c **** 	  goto only_update_x;
3124:src/display.c **** 	}
3125:src/display.c **** 
3126:src/display.c **** 	// Clear display
3127:src/display.c **** 	reset_disp();
3128:src/display.c **** 
3129:src/display.c **** 	xset(buf, '\0', sizeof(buf));
3130:src/display.c **** 	if (State2.cmplx  && !cata) {
3131:src/display.c **** 	  *bp++ = COMPLEX_PREFIX;
3132:src/display.c **** 	  set_status(buf);
3133:src/display.c **** 	}
3134:src/display.c **** 	if (State2.version) {
3135:src/display.c **** 	  char vers[VERS_SVN_OFFSET + 5] = VERS_DISPLAY;
3136:src/display.c **** 	  set_digits_string("pAULI, WwALtE", 0);
3137:src/display.c **** 	  set_dig_s(SEGS_EXP_BASE, 'r', CNULL);
3138:src/display.c **** #if !defined(REALBUILD) && !defined(DM42)
3139:src/display.c **** 	  scopy(LastDisplayedNumber, " P A U L I,  W A L T E R ");
3140:src/display.c **** 	  scopy(LastDisplayedExponent, " ");
3141:src/display.c **** #endif
3142:src/display.c **** 	  xcopy( vers + VERS_SVN_OFFSET, SvnRevision, 4 );
3143:src/display.c **** 	  set_status(vers);
3144:src/display.c **** 	  skip = 1;
3145:src/display.c **** 	  goto nostk;
3146:src/display.c **** 	} else if (State2.confirm) {
3147:src/display.c **** 	  set_status(S_SURE);
3148:src/display.c **** 	} else if (State2.hyp) {
3149:src/display.c **** 	  bp = scopy(bp, "HYP");
3150:src/display.c **** 	  if (! State2.dot)
3151:src/display.c **** 	    *bp++ = '\235';
3152:src/display.c **** 	  set_status(buf);
3153:src/display.c **** 	} else if (State2.gtodot) {
3154:src/display.c **** 	  // const int n = 3 + (nLIB(state_pc()) & 1); // Number of digits to display/expect
3155:src/display.c **** 	  bp = scopy_char(bp, argcmds[RARG_GTO].cmd, '.');
3156:src/display.c **** 	  if (State2.numdigit > 0)
3157:src/display.c **** 	    bp = num_arg_0(bp, (unsigned int)State2.digval, (int)State2.numdigit);
3158:src/display.c **** 	  // for (i=State2.numdigit; i<n; i++)
3159:src/display.c **** 	  *bp++ = '_';
3160:src/display.c **** 	  set_status(buf);
3161:src/display.c **** 	} else if (State2.rarg) {
3162:src/display.c **** 	  /* Commands with arguments */
3163:src/display.c **** #ifdef INCLUDE_SIGFIG_MODE
3164:src/display.c **** 	  if (CmdBase == RARG_FIX || CmdBase == RARG_SIG || CmdBase == RARG_SIG0)
3165:src/display.c **** 	    bp = scopy(bp, "\177\006\006");
3166:src/display.c **** #endif
3167:src/display.c **** 	  bp = scopy(bp, argcmds[CmdBase].cmd);
ARM GAS  /tmp/cc9o0abE.s 			page 70


3168:src/display.c **** 	  bp = scopy(bp, State2.ind?"\015" : "\006\006");
3169:src/display.c **** 	  if (State2.dot) {
3170:src/display.c **** 	    *bp++ = 's';
3171:src/display.c **** 	    *bp++ = '_';
3172:src/display.c **** 	  } else if (shift == SHIFT_F) {
3173:src/display.c **** 	    *bp++ = '\021';
3174:src/display.c **** 	    *bp++ = '_';
3175:src/display.c **** 	  } else {
3176:src/display.c **** 	    /* const int maxdigits = State2.shuffle ? 4 
3177:src/display.c **** 	       : State2.ind ? 2 
3178:src/display.c **** 	       : num_arg_digits(CmdBase); */
3179:src/display.c **** 	    if (State2.local)
3180:src/display.c **** 	      *bp++ = '.';
3181:src/display.c **** 	    if (State2.numdigit > 0) {
3182:src/display.c **** 	      if (State2.shuffle)
3183:src/display.c **** 		for (i = 0, j = State2.digval; i<State2.numdigit; i++, j >>= 2)
3184:src/display.c **** 		  *bp++ = REGNAMES[j & 3];
3185:src/display.c **** 	      else
3186:src/display.c **** 		bp = num_arg_0(bp, (unsigned int)State2.digval, (int)State2.numdigit);
3187:src/display.c **** 	    }
3188:src/display.c **** 	    // for (i = State2.numdigit; i < maxdigits; i++)
3189:src/display.c **** 	    *bp++ = '_';
3190:src/display.c **** 	  }
3191:src/display.c **** 	  set_status(buf);
3192:src/display.c **** 	} else if (State2.test != TST_NONE) {
3193:src/display.c **** 	  *bp++ = 'x';
3194:src/display.c **** 	  *bp++ = "=\013\035<\011>\012"[State2.test];
3195:src/display.c **** 	  *bp++ = '_';
3196:src/display.c **** 	  *bp++ = '?';
3197:src/display.c **** 	  set_status(buf);
3198:src/display.c **** 	} else if (cata) {
3199:src/display.c **** 	  const opcode op = current_catalogue(State.catpos);
3200:src/display.c **** 	  char b2[16];
3201:src/display.c **** 	  const char *p;
3202:src/display.c **** 
3203:src/display.c **** 	  bp = scopy(bp, "\177\006\006");
3204:src/display.c **** 	  p = catcmd(op, b2);
3205:src/display.c **** 	  if (*p != COMPLEX_PREFIX && State2.cmplx)
3206:src/display.c **** 	    *bp++ = COMPLEX_PREFIX;
3207:src/display.c **** 	  bp = scopy(bp, p);
3208:src/display.c **** 	  if (cata == CATALOGUE_CONST || cata == CATALOGUE_COMPLEX_CONST) {
3209:src/display.c **** 	    // State2.disp_small = 1;
3210:src/display.c **** 	    if (op == RARG_BASEOP(RARG_INTNUM) || op == RARG_BASEOP(RARG_INTNUM_CMPLX))
3211:src/display.c **** 	      set_digits_string("0 to 255", 0);
3212:src/display.c **** 	    else
3213:src/display.c **** 	      set_x(get_const(op & RARG_MASK, 0), CNULL, 0);
3214:src/display.c **** 	    skip = 1;
3215:src/display.c **** 	  } else if (State2.runmode) {
3216:src/display.c **** 	    if (cata == CATALOGUE_CONV) {
3217:src/display.c **** 	      decNumber x, r;
3218:src/display.c **** 	      decimal64 z;
3219:src/display.c **** 
3220:src/display.c **** 	      getX(&x);
3221:src/display.c **** 	      if (opKIND(op) == KIND_MON) {
3222:src/display.c **** 		const unsigned int f = argKIND(op);
3223:src/display.c **** 		if (f < NUM_MONADIC && ! isNULL(monfuncs[f].mondreal)) {
3224:src/display.c **** 		  FP_MONADIC_REAL fp = (FP_MONADIC_REAL) EXPAND_ADDRESS(monfuncs[f].mondreal);
ARM GAS  /tmp/cc9o0abE.s 			page 71


3225:src/display.c **** 		  update_speed(0);
3226:src/display.c **** 		  fp(&r, &x);
3227:src/display.c **** 		}
3228:src/display.c **** 		else
3229:src/display.c **** 		  set_NaN(&r);
3230:src/display.c **** 	      } else
3231:src/display.c **** 		do_conv(&r, op & RARG_MASK, &x);
3232:src/display.c **** 	      decNumberNormalize(&r, &r, &Ctx);
3233:src/display.c **** 	      packed_from_number(&z, &r);
3234:src/display.c **** 	      set_x((REGISTER *)&z, CNULL, 0);
3235:src/display.c **** 	      skip = 1;
3236:src/display.c **** 	    } else if (op >= (OP_NIL | OP_sigmaX2Y) && op < (OP_NIL | OP_sigmaX2Y) + NUMSTATREG) {
3237:src/display.c **** 	      REGISTER z, *const x = StackBase;
3238:src/display.c **** 	      copyreg(&z, x);
3239:src/display.c **** 	      sigma_val((enum nilop) argKIND(op));
3240:src/display.c **** 	      set_x(x, CNULL, is_dblmode());
3241:src/display.c **** 	      copyreg(x, &z);
3242:src/display.c **** 	      skip = 1;
3243:src/display.c **** 	    }
3244:src/display.c **** 	  }
3245:src/display.c **** 	  set_status(buf);
3246:src/display.c **** 	} else if (State2.multi) {
3247:src/display.c **** 	  bp = scopy_char(bp, multicmds[CmdBase].cmd, '\'');
3248:src/display.c **** 	  if (State2.numdigit > 0) {
3249:src/display.c **** 	    *bp++ = (char) State2.digval;
3250:src/display.c **** 	    if (State2.numdigit > 1)
3251:src/display.c **** 	      *bp++ = State2.digval2;
3252:src/display.c **** 	  }
3253:src/display.c **** 	  set_status(buf);
3254:src/display.c **** 	} else if (State2.status) {
3255:src/display.c **** 	  show_status();
3256:src/display.c **** 	  skip = 1;
3257:src/display.c **** 	} else if (State2.labellist) {
3258:src/display.c **** 	  show_label();
3259:src/display.c **** 	  skip = 1;
3260:src/display.c **** 	} else if (State2.registerlist) {
3261:src/display.c **** 	  show_registers();
3262:src/display.c **** 	  skip = 1;
3263:src/display.c **** 	  if (shift != SHIFT_N || (State2.smode == SDISP_SHOW && is_intmode())) {
3264:src/display.c **** 	    annunciators();
3265:src/display.c **** 	  }
3266:src/display.c **** #ifdef SHIFT_HOLD_TEMPVIEW
3267:src/display.c **** 	} else if (State2.disp_as_alpha) {
3268:src/display.c **** 	  set_status(alpha_rcl_s(regX_idx, buf));
3269:src/display.c **** #endif
3270:src/display.c **** 	} else if (State2.runmode) {
3271:src/display.c **** 	  if (DispMsg) { 
3272:src/display.c **** 	    set_status(DispMsg);
3273:src/display.c **** 	  } else if (DispPlot) {
3274:src/display.c **** 	    set_status_graphic((const unsigned char *)get_reg_n(DispPlot-1));
3275:src/display.c **** 	  } else if (State2.alphas) {
3276:src/display.c **** #if 0
3277:src/display.c **** 	    set_digits_string("AlpHA", 0);
3278:src/display.c **** #endif
3279:src/display.c **** 	    bp = scopy(buf, Alpha);
3280:src/display.c **** 	    j = State2.alpha_pos;
3281:src/display.c **** 	    if (j != 0) {
ARM GAS  /tmp/cc9o0abE.s 			page 72


3282:src/display.c **** 	      i = slen(buf);
3283:src/display.c **** 	      //				
3284:src/display.c **** 	      j *= 6;
3285:src/display.c **** #ifdef BIGGER_DISPLAY
3286:src/display.c **** 	      if ( i - j >= 20 )
3287:src/display.c **** #else
3288:src/display.c **** 	      if ( i - j >= 12 )
3289:src/display.c **** #endif
3290:src/display.c **** 		{
3291:src/display.c **** 		buf[ (i - j) ] = '\0';
3292:src/display.c **** 		set_status_right(buf);
3293:src/display.c **** 		}
3294:src/display.c **** 	      else {
3295:src/display.c **** 		set_status(buf);
3296:src/display.c **** 	      }
3297:src/display.c **** 	    } else {
3298:src/display.c **** 	      if (shift != SHIFT_N) {
3299:src/display.c **** 		*bp++ = 021 + shift - SHIFT_F;
3300:src/display.c **** 		*bp++ = '\0';
3301:src/display.c **** 	      }
3302:src/display.c **** 	      set_status_right(buf);
3303:src/display.c **** 	    }
3304:src/display.c **** 	  } else {
3305:src/display.c **** 	    annuc = 1;
3306:src/display.c **** 	  }
3307:src/display.c **** 	} else {
3308:src/display.c **** #ifndef DM42
3309:src/display.c **** 	  show_progtrace(buf);
3310:src/display.c **** #endif
3311:src/display.c **** 	  i = state_pc();
3312:src/display.c **** 	  if (i > 0)
3313:src/display.c **** 	    set_status(prt(getprog(i), buf));
3314:src/display.c **** 	  else
3315:src/display.c **** 	    set_status("");
3316:src/display.c **** 	  set_dot(STO_annun);
3317:src/display.c **** #if 0
3318:src/display.c **** 	  if (State2.smode == SDISP_SHOW) {
3319:src/display.c **** 	    unsigned short int crc;
3320:src/display.c **** 	    crc = checksum_program();
3321:src/display.c **** 	    j = SEGS_PER_DIGIT * 0;
3322:src/display.c **** 	    for (i=0; i<4; i++) {
3323:src/display.c **** 	      set_dig(j, "0123456789ABCDEF"[crc & 0xf]);
3324:src/display.c **** 	      crc >>= 4;
3325:src/display.c **** 	      j += SEGS_PER_DIGIT;
3326:src/display.c **** 	    }
3327:src/display.c **** 	    skip = 1;
3328:src/display.c **** 	  }
3329:src/display.c **** 	  else
3330:src/display.c **** #endif
3331:src/display.c **** 	    if (cur_shift() != SHIFT_N || State2.cmplx || State2.arrow)
3332:src/display.c **** 	      annuc = 1;
3333:src/display.c **** 	  goto nostk;
3334:src/display.c **** 	}
3335:src/display.c **** 	show_stack();
3336:src/display.c ****       nostk:	show_flags();
3337:src/display.c **** 	if (!skip) {
3338:src/display.c **** 	  if (State2.runmode) {
ARM GAS  /tmp/cc9o0abE.s 			page 73


3339:src/display.c **** 	  only_update_x:
3340:src/display.c **** 	    p = get_cmdline();
3341:src/display.c **** 	    if (p == NULL || cata) {
3342:src/display.c **** 	      if (ShowRegister != -1) {
3343:src/display.c **** #ifdef INCLUDE_C_LOCK
3344:src/display.c **** 		if ( C_LOCKED && POLAR_DISPLAY && !(REAL_FLAG || IMAG_FLAG) ) {
3345:src/display.c **** 		  if ( POLAR_FORM_NOT_READY ) {
3346:src/display.c **** 		    op_r2p(OP_NOP); // note: argument not being OP_R2P signals to function that results go to J, 
3347:src/display.c **** 		    SET_POLAR_READY;
3348:src/display.c **** 		  }
3349:src/display.c **** 		  if (State2.hms) { // no hms display for mod, only arg
3350:src/display.c **** 		    State2.hms = 0;
3351:src/display.c **** 		    format_reg(regJ_idx, CNULL);
3352:src/display.c **** 		    State2.hms = 1;
3353:src/display.c **** 		  }
3354:src/display.c **** 		  else {
3355:src/display.c **** 		    format_reg(regJ_idx, CNULL);
3356:src/display.c **** 		  }
3357:src/display.c **** 		  x_disp = 1;
3358:src/display.c **** 		}
3359:src/display.c **** 		else {
3360:src/display.c **** 		  x_disp = (ShowRegister == regX_idx) && !State2.hms;
3361:src/display.c **** 		  format_reg(ShowRegister, CNULL);
3362:src/display.c **** 		}
3363:src/display.c **** #else
3364:src/display.c **** 
3365:src/display.c **** 		x_disp = (ShowRegister == regX_idx) && !State2.hms;
3366:src/display.c **** 		format_reg(ShowRegister, CNULL);
3367:src/display.c **** #endif
3368:src/display.c **** 	      }
3369:src/display.c **** 	      else
3370:src/display.c **** 		set_digits_string(" ---", 4 * SEGS_PER_DIGIT);
3371:src/display.c **** 	    } else {
3372:src/display.c **** 	      disp_x(p);
3373:src/display.c **** 	      x_disp = 1;
3374:src/display.c **** 	    }
3375:src/display.c **** 	    if (WasDataEntry) {
3376:src/display.c **** 	      goto finish;
3377:src/display.c **** 	    }
3378:src/display.c **** 	  } else {
3379:src/display.c **** 	    unsigned int pc = state_pc();
3380:src/display.c **** 	    unsigned int upc = user_pc(pc);
3381:src/display.c **** 	    const int n = nLIB(pc);
3382:src/display.c **** 	    xset(buf, '\0', sizeof(buf));
3383:src/display.c **** 	    set_exp(ProgFree, 1, CNULL);
3384:src/display.c **** #ifdef FOUR_K
3385:src/display.c **** 	    if ((upc<1000) && n == 0) {
3386:src/display.c **** 	      num_arg_0(scopy_spc(buf, S7_STEP), upc, 3);
3387:src/display.c **** 	    }
3388:src/display.c **** 	    else {
3389:src/display.c **** 	      num_arg_0(scopy(buf, n == 0 ? S7_STEP : libname[n]), 
3390:src/display.c **** 		      upc, 4);  // 4 digits in ROM and Library
3391:src/display.c **** 	    }	      
3392:src/display.c **** #else
3393:src/display.c **** 	    num_arg_0(scopy_spc(buf, n == 0 ? S7_STEP : libname[n]), 
3394:src/display.c **** 		      upc, 3 + (n & 1));  // 4 digits in ROM and Library
3395:src/display.c **** #endif
ARM GAS  /tmp/cc9o0abE.s 			page 74


3396:src/display.c **** 	    set_digits_string(buf, SEGS_PER_DIGIT);
3397:src/display.c **** #if !defined(REALBUILD) && !defined(DM42)
3398:src/display.c **** 	    xset(buf, '\0', sizeof(buf));
3399:src/display.c **** 	    set_exp(ProgFree, 1, CNULL);
3400:src/display.c **** 	    num_arg_0(scopy_spc(buf, n == 0 ? S7_STEP_ShortText : libname_shorttext[n]),
3401:src/display.c **** 		      upc, 3 + (n & 1));  // 4 digits in ROM and Library
3402:src/display.c **** 	    { // allow local declaration of b and l in C (not C++) on VisualStudio
3403:src/display.c **** 	      char *b=buf;
3404:src/display.c **** 	      char *l=LastDisplayedNumber;
3405:src/display.c **** 	      *l++=' ';
3406:src/display.c **** 	      while(*b) {
3407:src/display.c **** 		*l++=*b++;
3408:src/display.c **** 		*l++=' ';
3409:src/display.c **** 	      }
3410:src/display.c **** 	      *l=0;
3411:src/display.c **** 	    }
3412:src/display.c **** #endif
3413:src/display.c **** 	  }
3414:src/display.c **** 	}
3415:src/display.c **** 	set_annunciators();
3416:src/display.c **** 	if (x_disp == 0 || State2.smode != SDISP_NORMAL || DispMsg != NULL || DispPlot || State2.disp_as_a
3417:src/display.c **** 	  ShowRPN = 0;
3418:src/display.c **** 	  dot(RPN, 0);
3419:src/display.c **** 	}
3420:src/display.c **** 	// disp_temp disables the <- key
3421:src/display.c **** 	State2.disp_temp = ! ShowRPN && State2.runmode 
3422:src/display.c **** 	  && (! State2.registerlist || State2.smode == SDISP_SHOW || State2.disp_as_alpha);
3423:src/display.c **** 
3424:src/display.c **** #if defined(INCLUDE_YREG_CODE)
3425:src/display.c **** 	if ((annuc && (! State2.disp_temp || State2.hms)) || State2.wascomplex) // makes sure that hms num
3426:src/display.c **** 	  annunciators();
3427:src/display.c ****  	State2.hms = 0;
3428:src/display.c **** #else
3429:src/display.c **** 
3430:src/display.c **** 	if ((annuc && ! State2.disp_temp) || State2.wascomplex)
3431:src/display.c **** 	  annunciators();
3432:src/display.c **** 	
3433:src/display.c **** 
3434:src/display.c **** 
3435:src/display.c **** #endif
3436:src/display.c **** 
3437:src/display.c ****       finish:
3438:src/display.c **** 	State2.version = 0;
3439:src/display.c **** 	State2.disp_as_alpha = 0;
3440:src/display.c **** 	State2.smode = SDISP_NORMAL;
3441:src/display.c **** 	State2.invalid_disp = 0;
3442:src/display.c **** 	ShowRegister = regX_idx;
3443:src/display.c **** 	DispMsg = CNULL;
3444:src/display.c **** 	DispPlot = 0;
3445:src/display.c **** 	State2.disp_small = 0;
3446:src/display.c **** 	finish_display();
3447:src/display.c **** #ifdef CONSOLE
3448:src/display.c **** 	JustDisplayed = 1;
3449:src/display.c **** #endif
3450:src/display.c ****       }
3451:src/display.c **** #endif
3452:src/display.c ****       /*
ARM GAS  /tmp/cc9o0abE.s 			page 75


3453:src/display.c ****        *  Frozen display will revert to normal only after another call to display();
3454:src/display.c ****        */
3455:src/display.c ****       void frozen_display()
3456:src/display.c ****       {
3457:src/display.c **** 	State2.disp_freeze = 0;
3458:src/display.c **** 	display();
3459:src/display.c **** 	State2.disp_freeze = 1;
3460:src/display.c ****       }
3461:src/display.c **** 
3462:src/display.c ****       static void set_status_graphic(const unsigned char *graphic) {
3463:src/display.c **** 	int glen = *graphic++;
3464:src/display.c **** 	int i, j;
3465:src/display.c **** #if !defined(CONSOLE) && !defined(DM42)
3466:src/display.c **** 	unsigned long long int mat[6];
3467:src/display.c **** 
3468:src/display.c **** 	xset(mat, 0, sizeof(mat));
3469:src/display.c **** #endif
3470:src/display.c **** #if !defined(REALBUILD) && !defined(DM42)
3471:src/display.c **** 	forceDispPlot=1;
3472:src/display.c **** #endif
3473:src/display.c **** 	if (glen <= 0)			return;
3474:src/display.c **** 	if (glen > BITMAP_WIDTH)	glen = BITMAP_WIDTH;
3475:src/display.c **** 
3476:src/display.c **** 	for (i=0; i<6; i++)
3477:src/display.c **** 	  for (j=1; j<=glen; j++) {
3478:src/display.c **** #if !defined(CONSOLE) && !defined(DM42)
3479:src/display.c **** 	    if (graphic[j] & (1 << i))
3480:src/display.c **** 	      mat[i] |= 1LL << j;
3481:src/display.c **** #else
3482:src/display.c **** 	    dot(j*6+i+MATRIX_BASE, (graphic[j] & (1 << i))?1:0);
3483:src/display.c **** #endif
3484:src/display.c **** 	  }
3485:src/display.c **** #if !defined(CONSOLE) && !defined(DM42)
3486:src/display.c **** 	set_status_grob(mat);
3487:src/display.c **** #endif
3488:src/display.c ****       }
3489:src/display.c **** 
3490:src/display.c **** 
3491:src/display.c ****       /* Take the given string and display as much of it as possible on the top
3492:src/display.c ****        * line of the display.  The font size is set by the smallp parameter.
3493:src/display.c ****        * We allow character to go one pixel beyond the display since the rightmost
3494:src/display.c ****        * column is almost always blank.
3495:src/display.c ****        */
3496:src/display.c ****       static void set_status_sized(const char *str, int smallp) {
3497:src/display.c **** 	s_s_sized(str, smallp, BITMAP_WIDTH, MATRIX_BASE, MAX_DOTS);
3498:src/display.c ****       }
3499:src/display.c ****       static void set_status_sized_top(const char *str, int smallp) {
3500:src/display.c **** 	s_s_sized(str, smallp, BW_TOP, MB_TOP, TOP_DOTS);
3501:src/display.c ****       }
3502:src/display.c **** 
3503:src/display.c ****       
3504:src/display.c ****       static void s_s_sized(const char *str, int smallp, int b_w, int m_b, int m_d) {	
 642              		.loc 1 3504 85 is_stmt 1 view -0
 643              		.cfi_startproc
 644              		@ args = 4, pretend = 0, frame = 560
 645              		@ frame_needed = 0, uses_anonymous_args = 0
3505:src/display.c **** 	unsigned short int posns[257];
ARM GAS  /tmp/cc9o0abE.s 			page 76


 646              		.loc 1 3505 2 view .LVU191
3506:src/display.c **** #ifdef INCLUDE_FONT_ESCAPE
3507:src/display.c **** 	// Mark posns as uninitialized, smallp must be 0 or 1 for this to work correctly.
3508:src/display.c **** 	int posns_state = 255;
 647              		.loc 1 3508 2 view .LVU192
3509:src/display.c **** #endif
3510:src/display.c **** 	unsigned int x = 0;
 648              		.loc 1 3510 2 view .LVU193
3511:src/display.c **** 	int i, j;
 649              		.loc 1 3511 2 view .LVU194
3512:src/display.c **** 	const int offset = smallp ? 256 : 0;
 650              		.loc 1 3512 2 view .LVU195
3504:src/display.c **** 	unsigned short int posns[257];
 651              		.loc 1 3504 85 is_stmt 0 view .LVU196
 652 0000 2DE9F04F 		push	{r4, r5, r6, r7, r8, r9, r10, fp, lr}
 653              		.cfi_def_cfa_offset 36
 654              		.cfi_offset 4, -36
 655              		.cfi_offset 5, -32
 656              		.cfi_offset 6, -28
 657              		.cfi_offset 7, -24
 658              		.cfi_offset 8, -20
 659              		.cfi_offset 9, -16
 660              		.cfi_offset 10, -12
 661              		.cfi_offset 11, -8
 662              		.cfi_offset 14, -4
 663 0004 ADF50D7D 		sub	sp, sp, #564
 664              		.cfi_def_cfa_offset 600
3513:src/display.c **** #if !defined(CONSOLE) && !defined(DM42)
3514:src/display.c **** 	unsigned long long int mat[6];
3515:src/display.c **** 
3516:src/display.c **** 	xset(mat, 0, sizeof(mat));
3517:src/display.c **** #endif
3518:src/display.c **** #if !defined(REALBUILD) && !defined(DM42)
3519:src/display.c **** 	scopy(LastDisplayedText, str);
3520:src/display.c **** #ifdef INCLUDE_FONT_ESCAPE
3521:src/display.c **** 	for (i = 0; LastDisplayedText[i] != '\0'; ) { // Remove 007 escapes
3522:src/display.c **** 	  if (LastDisplayedText[i] == '\007' && LastDisplayedText[i + 1] != '\0') {
3523:src/display.c **** 	    scopy(LastDisplayedText + i, LastDisplayedText + i + 2);
3524:src/display.c **** 	    if (LastDisplayedText[i] != '\0')
3525:src/display.c **** 	      ++i;
3526:src/display.c **** 	  }
3527:src/display.c **** 	  else {
3528:src/display.c **** 	    ++i;
3529:src/display.c **** 	  }
3530:src/display.c **** 	}
3531:src/display.c **** #endif
3532:src/display.c **** 	forceDispPlot=0;
3533:src/display.c **** #endif
3534:src/display.c **** #ifdef RP_PREFIX
3535:src/display.c **** 	RectPolConv = 0;
 665              		.loc 1 3535 14 view .LVU197
 666 0008 5B4C     		ldr	r4, .L99
3504:src/display.c **** 	unsigned short int posns[257];
 667              		.loc 1 3504 85 view .LVU198
 668 000a 0390     		str	r0, [sp, #12]
 669 000c 0546     		mov	r5, r0
 670              		.loc 1 3535 14 view .LVU199
ARM GAS  /tmp/cc9o0abE.s 			page 77


 671 000e 0020     		movs	r0, #0
 672              	.LVL57:
 673              		.loc 1 3535 14 view .LVU200
 674 0010 2060     		str	r0, [r4]
3512:src/display.c **** #if !defined(CONSOLE) && !defined(DM42)
 675              		.loc 1 3512 34 view .LVU201
 676 0012 0029     		cmp	r1, #0
3536:src/display.c **** #endif
3537:src/display.c **** #ifndef INCLUDE_FONT_ESCAPE
3538:src/display.c **** 	findlengths(posns, smallp);
3539:src/display.c **** #endif
3540:src/display.c **** 	while (*str != '\0' && x <= b_w+1)  {
 677              		.loc 1 3540 9 view .LVU202
 678 0014 2E78     		ldrb	r6, [r5]	@ zero_extendqisi2
3504:src/display.c **** 	unsigned short int posns[257];
 679              		.loc 1 3504 85 view .LVU203
 680 0016 CDE90531 		strd	r3, r1, [sp, #20]
3512:src/display.c **** #if !defined(CONSOLE) && !defined(DM42)
 681              		.loc 1 3512 34 view .LVU204
 682 001a 14BF     		ite	ne
 683 001c 4FF48073 		movne	r3, #256
 684              	.LVL58:
3512:src/display.c **** #if !defined(CONSOLE) && !defined(DM42)
 685              		.loc 1 3512 34 view .LVU205
 686 0020 0346     		moveq	r3, r0
 687 0022 0793     		str	r3, [sp, #28]
 688              	.LVL59:
3535:src/display.c **** #endif
 689              		.loc 1 3535 2 is_stmt 1 view .LVU206
 690              		.loc 1 3540 2 view .LVU207
 691              		.loc 1 3540 8 view .LVU208
 692 0024 002E     		cmp	r6, #0
 693 0026 00F0A480 		beq	.L95
 694              		.loc 1 3540 33 is_stmt 0 view .LVU209
 695 002a 531C     		adds	r3, r2, #1
 696              	.LVL60:
 697              	.LBB184:
3541:src/display.c **** 	  int c;
3542:src/display.c **** 	  int width;
3543:src/display.c **** 	  unsigned char cmap[6];
3544:src/display.c **** #ifdef INCLUDE_FONT_ESCAPE
3545:src/display.c **** 	  int real_width;
3546:src/display.c **** 	  int current_smallp;
3547:src/display.c **** 
3548:src/display.c **** 	  // A 007 byte followed by a mode byte changes the way the following character is printed.
3549:src/display.c **** 	  // Bit 7 (MSB) of the mode byte is currently unused and should be set to 1.
3550:src/display.c **** 	  // Bits 6-5: 00 -> don't change font
3551:src/display.c **** 	  //           01 -> (not used)
3552:src/display.c **** 	  //           10 -> use big font
3553:src/display.c **** 	  //           11 -> use small font
3554:src/display.c **** 	  // Bits 4-0: character will be considered this wide
3555:src/display.c **** 	  if (str[0] == '\007') {
 698              		.loc 1 3555 7 view .LVU210
 699 002c 072E     		cmp	r6, #7
 700 002e 9246     		mov	r10, r2
 701              	.LBE184:
3510:src/display.c **** 	int i, j;
ARM GAS  /tmp/cc9o0abE.s 			page 78


 702              		.loc 1 3510 15 view .LVU211
 703 0030 8046     		mov	r8, r0
3540:src/display.c **** 	  int c;
 704              		.loc 1 3540 33 view .LVU212
 705 0032 0493     		str	r3, [sp, #16]
3508:src/display.c **** #endif
 706              		.loc 1 3508 6 view .LVU213
 707 0034 4FF0FF04 		mov	r4, #255
 708              	.LVL61:
 709              	.LBB193:
3541:src/display.c **** 	  int width;
 710              		.loc 1 3541 4 is_stmt 1 view .LVU214
3542:src/display.c **** 	  unsigned char cmap[6];
 711              		.loc 1 3542 4 view .LVU215
3543:src/display.c **** #ifdef INCLUDE_FONT_ESCAPE
 712              		.loc 1 3543 4 view .LVU216
3545:src/display.c **** 	  int current_smallp;
 713              		.loc 1 3545 4 view .LVU217
3546:src/display.c **** 
 714              		.loc 1 3546 4 view .LVU218
 715              		.loc 1 3555 4 view .LVU219
 716              		.loc 1 3555 7 is_stmt 0 view .LVU220
 717 0038 69D1     		bne	.L63
 718              	.LVL62:
 719              	.L97:
3556:src/display.c **** 	    width = str[1] & 0x1F;
 720              		.loc 1 3556 6 is_stmt 1 view .LVU221
 721              		.loc 1 3556 17 is_stmt 0 view .LVU222
 722 003a 039B     		ldr	r3, [sp, #12]
 723 003c 5D78     		ldrb	r5, [r3, #1]	@ zero_extendqisi2
 724 003e 05F06003 		and	r3, r5, #96
3557:src/display.c **** 	    switch (str[1] & 0x60) {
 725              		.loc 1 3557 6 view .LVU223
 726 0042 402B     		cmp	r3, #64
3556:src/display.c **** 	    width = str[1] & 0x1F;
 727              		.loc 1 3556 12 view .LVU224
 728 0044 05F01F05 		and	r5, r5, #31
 729              	.LVL63:
 730              		.loc 1 3557 6 is_stmt 1 view .LVU225
 731 0048 00F08480 		beq	.L64
 732 004c 602B     		cmp	r3, #96
 733 004e 00F08680 		beq	.L65
 734              	.LVL64:
3558:src/display.c **** 	    default:
3559:src/display.c **** 	    case 0x00:	current_smallp = smallp;
3560:src/display.c **** 	      break;
3561:src/display.c **** 	    case 0x40:	current_smallp = 0;
3562:src/display.c **** 	      break;
3563:src/display.c **** 	    case 0x60:	current_smallp = 1;
3564:src/display.c **** 	      break;
3565:src/display.c **** 	    }
3566:src/display.c **** 	    c = (unsigned char) str[2] + (current_smallp ? 256 : 0);
 735              		.loc 1 3566 6 view .LVU226
 736              		.loc 1 3566 10 is_stmt 0 view .LVU227
 737 0052 039B     		ldr	r3, [sp, #12]
 738 0054 9E78     		ldrb	r6, [r3, #2]	@ zero_extendqisi2
 739              		.loc 1 3566 57 view .LVU228
ARM GAS  /tmp/cc9o0abE.s 			page 79


 740 0056 069B     		ldr	r3, [sp, #24]
 741 0058 002B     		cmp	r3, #0
 742 005a 00F08780 		beq	.L83
 743 005e 06F58076 		add	r6, r6, #256
 744 0062 0293     		str	r3, [sp, #8]
 745              	.LVL65:
 746              	.L67:
3567:src/display.c **** 	    str += 3;
 747              		.loc 1 3567 6 is_stmt 1 discriminator 4 view .LVU229
3568:src/display.c **** 
3569:src/display.c **** 	    real_width = charlengths(c);
 748              		.loc 1 3569 19 is_stmt 0 discriminator 4 view .LVU230
 749 0064 3046     		mov	r0, r6
 750 0066 FFF7FEFF 		bl	charlengths
 751              	.LVL66:
3567:src/display.c **** 	    str += 3;
 752              		.loc 1 3567 10 discriminator 4 view .LVU231
 753 006a 039B     		ldr	r3, [sp, #12]
 754 006c 0333     		adds	r3, r3, #3
 755 006e 0393     		str	r3, [sp, #12]
 756              	.LVL67:
 757              		.loc 1 3569 6 is_stmt 1 discriminator 4 view .LVU232
3570:src/display.c **** 	  } else {
3571:src/display.c **** 	    c = (unsigned char) *str++ + offset;
3572:src/display.c **** 	    real_width = width = charlengths(c);
3573:src/display.c **** 	    current_smallp = smallp;
3574:src/display.c **** 	  }
3575:src/display.c **** 
3576:src/display.c **** 	  if (x + real_width > b_w + 1)
 758              		.loc 1 3576 4 discriminator 4 view .LVU233
 759              		.loc 1 3576 7 is_stmt 0 discriminator 4 view .LVU234
 760 0070 049B     		ldr	r3, [sp, #16]
 761              	.LVL68:
 762              		.loc 1 3576 10 discriminator 4 view .LVU235
 763 0072 4044     		add	r0, r0, r8
 764              		.loc 1 3576 7 discriminator 4 view .LVU236
 765 0074 9842     		cmp	r0, r3
 766 0076 59D8     		bhi	.L94
 767              	.L98:
3577:src/display.c **** 	    break;
3578:src/display.c **** 
3579:src/display.c **** 	  if (posns_state != current_smallp) {
 768              		.loc 1 3579 4 is_stmt 1 view .LVU237
 769              		.loc 1 3579 7 is_stmt 0 view .LVU238
 770 0078 029B     		ldr	r3, [sp, #8]
 771 007a A342     		cmp	r3, r4
3580:src/display.c **** 	    findlengths(posns, current_smallp);
 772              		.loc 1 3580 6 view .LVU239
 773 007c 0BAB     		add	r3, sp, #44
3579:src/display.c **** 	    findlengths(posns, current_smallp);
 774              		.loc 1 3579 7 view .LVU240
 775 007e 05D0     		beq	.L70
 776              		.loc 1 3580 6 is_stmt 1 view .LVU241
 777 0080 1846     		mov	r0, r3
 778 0082 0299     		ldr	r1, [sp, #8]
 779 0084 0193     		str	r3, [sp, #4]
 780 0086 FFF7FEFF 		bl	findlengths
ARM GAS  /tmp/cc9o0abE.s 			page 80


 781              	.LVL69:
 782 008a 019B     		ldr	r3, [sp, #4]
3581:src/display.c **** 	    posns_state = current_smallp;
 783              		.loc 1 3581 6 view .LVU242
 784              	.LVL70:
 785              	.L70:
3582:src/display.c **** 	  }
3583:src/display.c **** 	  unpackchar(c, cmap, current_smallp, posns);
 786              		.loc 1 3583 4 view .LVU243
 787 008c 029A     		ldr	r2, [sp, #8]
 788 008e 3046     		mov	r0, r6
 789 0090 09A9     		add	r1, sp, #36
 790 0092 FFF7FEFF 		bl	unpackchar
 791              	.LVL71:
3584:src/display.c **** #else
3585:src/display.c **** 	  c = (unsigned char) *str++ + offset; //doesn't matter if c is 256 too big;
3586:src/display.c **** 
3587:src/display.c **** 	  //cmap = &charset[c][0];
3588:src/display.c **** 	  width = charlengths(c);
3589:src/display.c **** 
3590:src/display.c **** 	  if (x + width > b_w+1)
3591:src/display.c **** 	    break;
3592:src/display.c **** 
3593:src/display.c **** 	  /* Decode the packed character bytes */
3594:src/display.c **** 	  unpackchar(c, cmap, smallp, posns);
3595:src/display.c **** #endif
3596:src/display.c **** 
3597:src/display.c **** 	  for (i=0; i<6; i++)
 792              		.loc 1 3597 4 view .LVU244
 793              		.loc 1 3597 14 view .LVU245
 794 0096 059B     		ldr	r3, [sp, #20]
 795 0098 08EB4809 		add	r9, r8, r8, lsl #1
 796 009c 03EB4903 		add	r3, r3, r9, lsl #1
 797 00a0 09AC     		add	r4, sp, #36
 798 00a2 0193     		str	r3, [sp, #4]
 799              		.loc 1 3597 10 is_stmt 0 view .LVU246
 800 00a4 0027     		movs	r7, #0
 801 00a6 AAEB0806 		sub	r6, r10, r8
 802              	.LVL72:
 803              	.L71:
3598:src/display.c **** 	    for (j=0; j<width; j++) {
 804              		.loc 1 3598 16 is_stmt 1 view .LVU247
 805              		.loc 1 3598 6 is_stmt 0 view .LVU248
 806 00aa 002D     		cmp	r5, #0
 807 00ac 20DD     		ble	.L77
3599:src/display.c **** 	      if (x+j >= b_w)
 808              		.loc 1 3599 8 is_stmt 1 view .LVU249
 809              		.loc 1 3599 11 is_stmt 0 view .LVU250
 810 00ae C245     		cmp	r10, r8
 811 00b0 1ED9     		bls	.L77
 812 00b2 019B     		ldr	r3, [sp, #4]
3598:src/display.c **** 	    for (j=0; j<width; j++) {
 813              		.loc 1 3598 12 view .LVU251
 814 00b4 4FF00009 		mov	r9, #0
 815 00b8 07EB030B 		add	fp, r7, r3
 816 00bc 09E0     		b	.L72
 817              	.LVL73:
ARM GAS  /tmp/cc9o0abE.s 			page 81


 818              	.L96:
3598:src/display.c **** 	    for (j=0; j<width; j++) {
 819              		.loc 1 3598 26 view .LVU252
 820 00be 09F10109 		add	r9, r9, #1
 821              	.LVL74:
 822              	.LBB185:
 823              	.LBB186:
 348:src/display.c ****   else	clr_dot(n);
 824              		.loc 1 348 11 view .LVU253
 825 00c2 FFF7FEFF 		bl	set_dot
 826              	.LVL75:
 348:src/display.c ****   else	clr_dot(n);
 827              		.loc 1 348 11 view .LVU254
 828              	.LBE186:
 829              	.LBE185:
 830              		.loc 1 3599 8 is_stmt 1 view .LVU255
3598:src/display.c **** 	    for (j=0; j<width; j++) {
 831              		.loc 1 3598 25 view .LVU256
3598:src/display.c **** 	    for (j=0; j<width; j++) {
 832              		.loc 1 3598 16 view .LVU257
3598:src/display.c **** 	    for (j=0; j<width; j++) {
 833              		.loc 1 3598 6 is_stmt 0 view .LVU258
 834 00c6 4D45     		cmp	r5, r9
 835 00c8 0BF1060B 		add	fp, fp, #6
 836 00cc 10D0     		beq	.L77
 837              	.L76:
 838              		.loc 1 3599 11 view .LVU259
 839 00ce 4E45     		cmp	r6, r9
 840 00d0 0ED0     		beq	.L77
 841              	.LVL76:
 842              	.L72:
3600:src/display.c **** 		break;
3601:src/display.c **** #if !defined(CONSOLE) && !defined(DM42)
3602:src/display.c **** 	      if (cmap[i] & (1 << j))
3603:src/display.c **** 		mat[i] |= 1LL << (x+j);
3604:src/display.c **** #else
3605:src/display.c **** 	      dot((x+j)*6+i+m_b, (cmap[i] & (1 << j))?1:0);
 843              		.loc 1 3605 8 is_stmt 1 discriminator 2 view .LVU260
 844              	.LBB190:
 845              	.LBI185:
 347:src/display.c ****   if (on)	set_dot(n);
 846              		.loc 1 347 6 discriminator 2 view .LVU261
 847              	.LBB187:
 348:src/display.c ****   else	clr_dot(n);
 848              		.loc 1 348 3 discriminator 2 view .LVU262
 348:src/display.c ****   else	clr_dot(n);
 849              		.loc 1 348 11 discriminator 2 view .LVU263
 349:src/display.c **** }
 850              		.loc 1 349 8 discriminator 2 view .LVU264
 851              	.LBE187:
 852              	.LBE190:
 853              		.loc 1 3605 32 is_stmt 0 discriminator 2 view .LVU265
 854 00d2 2378     		ldrb	r3, [r4]	@ zero_extendqisi2
 855              		.loc 1 3605 47 discriminator 2 view .LVU266
 856 00d4 43FA09F3 		asr	r3, r3, r9
 857              	.LBB191:
 858              	.LBB188:
ARM GAS  /tmp/cc9o0abE.s 			page 82


 348:src/display.c ****   else	clr_dot(n);
 859              		.loc 1 348 6 discriminator 2 view .LVU267
 860 00d8 13F0010F 		tst	r3, #1
 348:src/display.c ****   else	clr_dot(n);
 861              		.loc 1 348 11 discriminator 2 view .LVU268
 862 00dc 5846     		mov	r0, fp
 348:src/display.c ****   else	clr_dot(n);
 863              		.loc 1 348 6 discriminator 2 view .LVU269
 864 00de EED1     		bne	.L96
 865              	.LBE188:
 866              	.LBE191:
3598:src/display.c **** 	      if (x+j >= b_w)
 867              		.loc 1 3598 26 view .LVU270
 868 00e0 09F10109 		add	r9, r9, #1
 869              	.LVL77:
 870              	.LBB192:
 871              	.LBB189:
 349:src/display.c **** }
 872              		.loc 1 349 8 view .LVU271
 873 00e4 FFF7FEFF 		bl	clr_dot
 874              	.LVL78:
 349:src/display.c **** }
 875              		.loc 1 349 8 view .LVU272
 876              	.LBE189:
 877              	.LBE192:
3599:src/display.c **** 		break;
 878              		.loc 1 3599 8 is_stmt 1 view .LVU273
3598:src/display.c **** 	      if (x+j >= b_w)
 879              		.loc 1 3598 25 view .LVU274
3598:src/display.c **** 	      if (x+j >= b_w)
 880              		.loc 1 3598 16 view .LVU275
3598:src/display.c **** 	      if (x+j >= b_w)
 881              		.loc 1 3598 6 is_stmt 0 view .LVU276
 882 00e8 4D45     		cmp	r5, r9
 883 00ea 0BF1060B 		add	fp, fp, #6
 884 00ee EED1     		bne	.L76
 885              	.LVL79:
 886              	.L77:
3597:src/display.c **** 	    for (j=0; j<width; j++) {
 887              		.loc 1 3597 19 is_stmt 1 view .LVU277
3597:src/display.c **** 	    for (j=0; j<width; j++) {
 888              		.loc 1 3597 20 is_stmt 0 view .LVU278
 889 00f0 0137     		adds	r7, r7, #1
 890              	.LVL80:
3597:src/display.c **** 	    for (j=0; j<width; j++) {
 891              		.loc 1 3597 14 is_stmt 1 view .LVU279
3597:src/display.c **** 	    for (j=0; j<width; j++) {
 892              		.loc 1 3597 4 is_stmt 0 view .LVU280
 893 00f2 062F     		cmp	r7, #6
 894 00f4 04F10104 		add	r4, r4, #1
 895 00f8 D7D1     		bne	.L71
3606:src/display.c **** #endif
3607:src/display.c **** 	    }
3608:src/display.c **** 	  x += width;
 896              		.loc 1 3608 4 is_stmt 1 view .LVU281
 897              	.LBE193:
3540:src/display.c **** 	  int c;
ARM GAS  /tmp/cc9o0abE.s 			page 83


 898              		.loc 1 3540 9 is_stmt 0 view .LVU282
 899 00fa 039B     		ldr	r3, [sp, #12]
 900 00fc 1E78     		ldrb	r6, [r3]	@ zero_extendqisi2
 901              	.LBB194:
 902              		.loc 1 3608 6 view .LVU283
 903 00fe A844     		add	r8, r8, r5
 904              	.LVL81:
 905              		.loc 1 3608 6 view .LVU284
 906              	.LBE194:
3540:src/display.c **** 	  int c;
 907              		.loc 1 3540 8 is_stmt 1 view .LVU285
 908 0100 A6B1     		cbz	r6, .L94
3540:src/display.c **** 	  int c;
 909              		.loc 1 3540 22 is_stmt 0 discriminator 1 view .LVU286
 910 0102 049B     		ldr	r3, [sp, #16]
 911              	.LVL82:
3540:src/display.c **** 	  int c;
 912              		.loc 1 3540 22 discriminator 1 view .LVU287
 913 0104 9845     		cmp	r8, r3
 914 0106 11D8     		bhi	.L94
 915              	.LBB195:
3555:src/display.c **** 	    width = str[1] & 0x1F;
 916              		.loc 1 3555 7 view .LVU288
 917 0108 072E     		cmp	r6, #7
 918              	.LBE195:
 919 010a 029C     		ldr	r4, [sp, #8]
 920              	.LBB196:
3541:src/display.c **** 	  int width;
 921              		.loc 1 3541 4 is_stmt 1 view .LVU289
3542:src/display.c **** 	  unsigned char cmap[6];
 922              		.loc 1 3542 4 view .LVU290
3543:src/display.c **** #ifdef INCLUDE_FONT_ESCAPE
 923              		.loc 1 3543 4 view .LVU291
3545:src/display.c **** 	  int current_smallp;
 924              		.loc 1 3545 4 view .LVU292
3546:src/display.c **** 
 925              		.loc 1 3546 4 view .LVU293
3555:src/display.c **** 	    width = str[1] & 0x1F;
 926              		.loc 1 3555 4 view .LVU294
3555:src/display.c **** 	    width = str[1] & 0x1F;
 927              		.loc 1 3555 7 is_stmt 0 view .LVU295
 928 010c 95D0     		beq	.L97
 929              	.LVL83:
 930              	.L63:
3571:src/display.c **** 	    real_width = width = charlengths(c);
 931              		.loc 1 3571 6 is_stmt 1 view .LVU296
3571:src/display.c **** 	    real_width = width = charlengths(c);
 932              		.loc 1 3571 8 is_stmt 0 view .LVU297
 933 010e 079B     		ldr	r3, [sp, #28]
 934 0110 1E44     		add	r6, r6, r3
3572:src/display.c **** 	    current_smallp = smallp;
 935              		.loc 1 3572 27 view .LVU298
 936 0112 3046     		mov	r0, r6
 937 0114 FFF7FEFF 		bl	charlengths
 938              	.LVL84:
3571:src/display.c **** 	    real_width = width = charlengths(c);
 939              		.loc 1 3571 30 view .LVU299
ARM GAS  /tmp/cc9o0abE.s 			page 84


 940 0118 039B     		ldr	r3, [sp, #12]
 941 011a 0133     		adds	r3, r3, #1
 942 011c 0393     		str	r3, [sp, #12]
 943              	.LVL85:
3572:src/display.c **** 	    current_smallp = smallp;
 944              		.loc 1 3572 6 is_stmt 1 view .LVU300
3572:src/display.c **** 	    current_smallp = smallp;
 945              		.loc 1 3572 25 is_stmt 0 view .LVU301
 946 011e 069B     		ldr	r3, [sp, #24]
 947              	.LVL86:
3572:src/display.c **** 	    current_smallp = smallp;
 948              		.loc 1 3572 25 view .LVU302
 949 0120 0293     		str	r3, [sp, #8]
3576:src/display.c **** 	    break;
 950              		.loc 1 3576 7 view .LVU303
 951 0122 049B     		ldr	r3, [sp, #16]
3572:src/display.c **** 	    current_smallp = smallp;
 952              		.loc 1 3572 25 view .LVU304
 953 0124 0546     		mov	r5, r0
 954              	.LVL87:
3573:src/display.c **** 	  }
 955              		.loc 1 3573 6 is_stmt 1 view .LVU305
3576:src/display.c **** 	    break;
 956              		.loc 1 3576 4 view .LVU306
3576:src/display.c **** 	    break;
 957              		.loc 1 3576 10 is_stmt 0 view .LVU307
 958 0126 4044     		add	r0, r0, r8
 959              	.LVL88:
3576:src/display.c **** 	    break;
 960              		.loc 1 3576 7 view .LVU308
 961 0128 9842     		cmp	r0, r3
 962 012a A5D9     		bls	.L98
 963              	.LVL89:
 964              	.L94:
3576:src/display.c **** 	    break;
 965              		.loc 1 3576 7 view .LVU309
 966 012c 059B     		ldr	r3, [sp, #20]
 967 012e 08EB4808 		add	r8, r8, r8, lsl #1
 968              	.LVL90:
3576:src/display.c **** 	    break;
 969              		.loc 1 3576 7 view .LVU310
 970 0132 03EB4808 		add	r8, r3, r8, lsl #1
 971              	.LVL91:
 972              	.L62:
3576:src/display.c **** 	    break;
 973              		.loc 1 3576 7 view .LVU311
 974              	.LBE196:
3609:src/display.c **** 	}
3610:src/display.c **** 
3611:src/display.c **** 
3612:src/display.c **** #if !defined(CONSOLE) && !defined(DM42)
3613:src/display.c **** 	set_status_grob(mat);
3614:src/display.c **** #else
3615:src/display.c **** 	for (i=m_b + 6*x; i<m_d; i++)
 975              		.loc 1 3615 2 is_stmt 1 view .LVU312
 976              		.loc 1 3615 20 view .LVU313
 977              		.loc 1 3615 2 is_stmt 0 view .LVU314
ARM GAS  /tmp/cc9o0abE.s 			page 85


 978 0136 969B     		ldr	r3, [sp, #600]
 979 0138 9845     		cmp	r8, r3
 980 013a 07DA     		bge	.L59
 981 013c 1C46     		mov	r4, r3
 982              	.L80:
3616:src/display.c **** 	  clr_dot(i);
 983              		.loc 1 3616 4 is_stmt 1 discriminator 3 view .LVU315
 984 013e 4046     		mov	r0, r8
3615:src/display.c **** 	  clr_dot(i);
 985              		.loc 1 3615 28 is_stmt 0 discriminator 3 view .LVU316
 986 0140 08F10108 		add	r8, r8, #1
 987              	.LVL92:
 988              		.loc 1 3616 4 discriminator 3 view .LVU317
 989 0144 FFF7FEFF 		bl	clr_dot
 990              	.LVL93:
3615:src/display.c **** 	  clr_dot(i);
 991              		.loc 1 3615 27 is_stmt 1 discriminator 3 view .LVU318
3615:src/display.c **** 	  clr_dot(i);
 992              		.loc 1 3615 20 discriminator 3 view .LVU319
3615:src/display.c **** 	  clr_dot(i);
 993              		.loc 1 3615 2 is_stmt 0 discriminator 3 view .LVU320
 994 0148 4445     		cmp	r4, r8
 995 014a F8D1     		bne	.L80
 996              	.L59:
3617:src/display.c **** #endif
3618:src/display.c ****       }
 997              		.loc 1 3618 7 view .LVU321
 998 014c 0DF50D7D 		add	sp, sp, #564
 999              		.cfi_remember_state
 1000              		.cfi_def_cfa_offset 36
 1001              		@ sp needed
 1002 0150 BDE8F08F 		pop	{r4, r5, r6, r7, r8, r9, r10, fp, pc}
 1003              	.LVL94:
 1004              	.L64:
 1005              		.cfi_restore_state
 1006              	.LBB197:
3561:src/display.c **** 	      break;
 1007              		.loc 1 3561 17 is_stmt 1 view .LVU322
3562:src/display.c **** 	    case 0x60:	current_smallp = 1;
 1008              		.loc 1 3562 8 view .LVU323
3566:src/display.c **** 	    str += 3;
 1009              		.loc 1 3566 6 view .LVU324
3566:src/display.c **** 	    str += 3;
 1010              		.loc 1 3566 10 is_stmt 0 view .LVU325
 1011 0154 039B     		ldr	r3, [sp, #12]
 1012 0156 9E78     		ldrb	r6, [r3, #2]	@ zero_extendqisi2
3561:src/display.c **** 	      break;
 1013              		.loc 1 3561 32 view .LVU326
 1014 0158 0023     		movs	r3, #0
 1015 015a 0293     		str	r3, [sp, #8]
 1016 015c 82E7     		b	.L67
 1017              	.LVL95:
 1018              	.L65:
3563:src/display.c **** 	      break;
 1019              		.loc 1 3563 17 is_stmt 1 view .LVU327
3564:src/display.c **** 	    }
 1020              		.loc 1 3564 8 view .LVU328
ARM GAS  /tmp/cc9o0abE.s 			page 86


3566:src/display.c **** 	    str += 3;
 1021              		.loc 1 3566 6 view .LVU329
3566:src/display.c **** 	    str += 3;
 1022              		.loc 1 3566 10 is_stmt 0 view .LVU330
 1023 015e 039B     		ldr	r3, [sp, #12]
 1024 0160 9E78     		ldrb	r6, [r3, #2]	@ zero_extendqisi2
3563:src/display.c **** 	      break;
 1025              		.loc 1 3563 32 view .LVU331
 1026 0162 0123     		movs	r3, #1
 1027 0164 0293     		str	r3, [sp, #8]
 1028 0166 06F58076 		add	r6, r6, #256
 1029 016a 7BE7     		b	.L67
 1030              	.LVL96:
 1031              	.L83:
3563:src/display.c **** 	      break;
 1032              		.loc 1 3563 32 view .LVU332
 1033 016c 069B     		ldr	r3, [sp, #24]
 1034              	.LVL97:
3563:src/display.c **** 	      break;
 1035              		.loc 1 3563 32 view .LVU333
 1036 016e 0293     		str	r3, [sp, #8]
 1037 0170 78E7     		b	.L67
 1038              	.LVL98:
 1039              	.L95:
3563:src/display.c **** 	      break;
 1040              		.loc 1 3563 32 view .LVU334
 1041 0172 DDF81480 		ldr	r8, [sp, #20]
 1042 0176 DEE7     		b	.L62
 1043              	.L100:
 1044              		.align	2
 1045              	.L99:
 1046 0178 00000000 		.word	RectPolConv
 1047              	.LBE197:
 1048              		.cfi_endproc
 1049              	.LFE35:
 1051              		.section	.text.set_exp,"ax",%progbits
 1052              		.align	1
 1053              		.p2align 2,,3
 1054              		.syntax unified
 1055              		.thumb
 1056              		.thumb_func
 1057              		.fpu fpv4-sp-d16
 1059              	set_exp:
 1060              	.LVL99:
 1061              	.LFB10:
 450:src/display.c ****   union {
 1062              		.loc 1 450 52 is_stmt 1 view -0
 1063              		.cfi_startproc
 1064              		@ args = 0, pretend = 0, frame = 8
 1065              		@ frame_needed = 0, uses_anonymous_args = 0
 451:src/display.c ****     char buf[4];
 1066              		.loc 1 451 3 view .LVU336
 455:src/display.c **** #if SHOW_LARGE_EXPONENT > 0
 1067              		.loc 1 455 3 view .LVU337
 457:src/display.c **** #  if SHOW_LARGE_EXPONENT == 3
 1068              		.loc 1 457 3 view .LVU338
 463:src/display.c **** #  endif
ARM GAS  /tmp/cc9o0abE.s 			page 87


 1069              		.loc 1 463 3 view .LVU339
 472:src/display.c ****   if (exp < 0) {
 1070              		.loc 1 472 3 view .LVU340
 450:src/display.c ****   union {
 1071              		.loc 1 450 52 is_stmt 0 view .LVU341
 1072 0000 F0B5     		push	{r4, r5, r6, r7, lr}
 1073              		.cfi_def_cfa_offset 20
 1074              		.cfi_offset 4, -20
 1075              		.cfi_offset 5, -16
 1076              		.cfi_offset 6, -12
 1077              		.cfi_offset 7, -8
 1078              		.cfi_offset 14, -4
 473:src/display.c ****     negative = 1;
 1079              		.loc 1 473 6 view .LVU342
 1080 0002 051E     		subs	r5, r0, #0
 450:src/display.c ****   union {
 1081              		.loc 1 450 52 view .LVU343
 1082 0004 83B0     		sub	sp, sp, #12
 1083              		.cfi_def_cfa_offset 32
 450:src/display.c ****   union {
 1084              		.loc 1 450 52 view .LVU344
 1085 0006 0E46     		mov	r6, r1
 1086              	.LVL100:
 473:src/display.c ****     negative = 1;
 1087              		.loc 1 473 3 is_stmt 1 view .LVU345
 473:src/display.c ****     negative = 1;
 1088              		.loc 1 473 6 is_stmt 0 view .LVU346
 1089 0008 5BDB     		blt	.L133
 478:src/display.c **** #endif
 1090              		.loc 1 478 13 view .LVU347
 1091 000a 3B4B     		ldr	r3, .L135
 1092 000c EC17     		asrs	r4, r5, #31
 1093 000e 83FB0513 		smull	r1, r3, r3, r5
 1094              	.LVL101:
 478:src/display.c **** #endif
 1095              		.loc 1 478 13 view .LVU348
 1096 0012 C4EBA314 		rsb	r4, r4, r3, asr #6
 472:src/display.c ****   if (exp < 0) {
 1097              		.loc 1 472 12 view .LVU349
 1098 0016 06F00207 		and	r7, r6, #2
 1099              	.LVL102:
 478:src/display.c **** #endif
 1100              		.loc 1 478 3 is_stmt 1 view .LVU350
 480:src/display.c **** #ifdef INCLUDE_YREG_CODE
 1101              		.loc 1 480 3 view .LVU351
 480:src/display.c **** #ifdef INCLUDE_YREG_CODE
 1102              		.loc 1 480 6 is_stmt 0 view .LVU352
 1103 001a 002A     		cmp	r2, #0
 1104 001c 60D0     		beq	.L106
 483:src/display.c **** #else
 1105              		.loc 1 483 5 is_stmt 1 view .LVU353
 483:src/display.c **** #else
 1106              		.loc 1 483 8 is_stmt 0 view .LVU354
 1107 001e 2CB1     		cbz	r4, .L107
 487:src/display.c **** 	// No exponent separator for large -ve exponents
 1108              		.loc 1 487 2 is_stmt 1 view .LVU355
 487:src/display.c **** 	// No exponent separator for large -ve exponents
ARM GAS  /tmp/cc9o0abE.s 			page 88


 1109              		.loc 1 487 5 is_stmt 0 view .LVU356
 1110 0020 57B9     		cbnz	r7, .L104
 487:src/display.c **** 	// No exponent separator for large -ve exponents
 1111              		.loc 1 487 17 is_stmt 1 discriminator 1 view .LVU357
 487:src/display.c **** 	// No exponent separator for large -ve exponents
 1112              		.loc 1 487 21 is_stmt 0 discriminator 1 view .LVU358
 1113 0022 1446     		mov	r4, r2
 1114              	.LVL103:
 487:src/display.c **** 	// No exponent separator for large -ve exponents
 1115              		.loc 1 487 24 discriminator 1 view .LVU359
 1116 0024 3A23     		movs	r3, #58
 1117              	.LVL104:
 487:src/display.c **** 	// No exponent separator for large -ve exponents
 1118              		.loc 1 487 24 discriminator 1 view .LVU360
 1119 0026 04F8013B 		strb	r3, [r4], #1
 1120              	.LVL105:
 494:src/display.c ****     }
 1121              		.loc 1 494 7 is_stmt 1 discriminator 1 view .LVU361
 1122 002a 09E0     		b	.L108
 1123              	.LVL106:
 1124              	.L107:
 490:src/display.c **** #else
 1125              		.loc 1 490 12 view .LVU362
 490:src/display.c **** #else
 1126              		.loc 1 490 16 is_stmt 0 view .LVU363
 1127 002c 1446     		mov	r4, r2
 1128              	.LVL107:
 490:src/display.c **** #else
 1129              		.loc 1 490 19 view .LVU364
 1130 002e 6523     		movs	r3, #101
 1131              	.LVL108:
 490:src/display.c **** #else
 1132              		.loc 1 490 19 view .LVU365
 1133 0030 04F8013B 		strb	r3, [r4], #1
 1134              	.LVL109:
 494:src/display.c ****     }
 1135              		.loc 1 494 7 is_stmt 1 view .LVU366
 494:src/display.c ****     }
 1136              		.loc 1 494 10 is_stmt 0 view .LVU367
 1137 0034 27B1     		cbz	r7, .L108
 490:src/display.c **** #else
 1138              		.loc 1 490 16 view .LVU368
 1139 0036 2246     		mov	r2, r4
 1140              	.LVL110:
 1141              	.L104:
 494:src/display.c ****     }
 1142              		.loc 1 494 21 is_stmt 1 discriminator 1 view .LVU369
 494:src/display.c ****     }
 1143              		.loc 1 494 25 is_stmt 0 discriminator 1 view .LVU370
 1144 0038 1446     		mov	r4, r2
 1145              	.LVL111:
 494:src/display.c ****     }
 1146              		.loc 1 494 28 discriminator 1 view .LVU371
 1147 003a 2D23     		movs	r3, #45
 1148 003c 04F8013B 		strb	r3, [r4], #1
 1149              	.LVL112:
 1150              	.L108:
ARM GAS  /tmp/cc9o0abE.s 			page 89


 542:src/display.c **** #endif
 1151              		.loc 1 542 7 is_stmt 1 view .LVU372
 1152 0040 01AF     		add	r7, sp, #4
 1153 0042 3846     		mov	r0, r7
 1154 0044 0422     		movs	r2, #4
 1155 0046 0021     		movs	r1, #0
 1156 0048 FFF7FEFF 		bl	xset
 1157              	.LVL113:
 544:src/display.c **** 	num_arg_0(u.buf, exp, 3);
 1158              		.loc 1 544 7 view .LVU373
 544:src/display.c **** 	num_arg_0(u.buf, exp, 3);
 1159              		.loc 1 544 10 is_stmt 0 view .LVU374
 1160 004c 16F0050F 		tst	r6, #5
 1161 0050 2CD1     		bne	.L113
 1162              	.L115:
 565:src/display.c ****     no_number:
 1163              		.loc 1 565 2 is_stmt 1 view .LVU375
 1164 0052 2946     		mov	r1, r5
 1165 0054 3846     		mov	r0, r7
 1166 0056 FFF7FEFF 		bl	num_arg
 1167              	.LVL114:
 567:src/display.c ****     }
 1168              		.loc 1 567 7 view .LVU376
 1169 005a 2146     		mov	r1, r4
 1170 005c 3846     		mov	r0, r7
 1171 005e FFF7FEFF 		bl	set_exp_digits_string
 1172              	.LVL115:
 568:src/display.c **** 
 1173              		.loc 1 568 5 is_stmt 0 view .LVU377
 1174 0062 03B0     		add	sp, sp, #12
 1175              		.cfi_remember_state
 1176              		.cfi_def_cfa_offset 20
 1177              		@ sp needed
 1178 0064 F0BD     		pop	{r4, r5, r6, r7, pc}
 1179              	.LVL116:
 1180              	.L116:
 1181              		.cfi_restore_state
 474:src/display.c ****     exp = -exp;
 1182              		.loc 1 474 14 view .LVU378
 1183 0066 0127     		movs	r7, #1
 1184              	.LVL117:
 1185              	.L103:
 497:src/display.c **** #if SHOW_LARGE_EXPONENT > 0 || defined(LARGE_EXPONENT_ENTRY)
 1186              		.loc 1 497 21 is_stmt 1 discriminator 1 view .LVU379
 1187 0068 8220     		movs	r0, #130
 1188 006a FFF7FEFF 		bl	set_dot
 1189              	.LVL118:
 1190              	.L109:
 499:src/display.c **** #else
 1191              		.loc 1 499 7 view .LVU380
 499:src/display.c **** #else
 1192              		.loc 1 499 10 is_stmt 0 view .LVU381
 1193 006e 002C     		cmp	r4, #0
 1194 0070 E6D0     		beq	.L108
 503:src/display.c **** #ifdef LARGE_EXPONENT_ENTRY
 1195              		.loc 1 503 4 is_stmt 1 view .LVU382
 517:src/display.c **** #  ifdef LARGE_EXPONENT_ENTRY
ARM GAS  /tmp/cc9o0abE.s 			page 90


 1196              		.loc 1 517 6 view .LVU383
 517:src/display.c **** #  ifdef LARGE_EXPONENT_ENTRY
 1197              		.loc 1 517 23 is_stmt 0 view .LVU384
 1198 0072 224B     		ldr	r3, .L135+4
 517:src/display.c **** #  ifdef LARGE_EXPONENT_ENTRY
 1199              		.loc 1 517 10 view .LVU385
 1200 0074 03FB0455 		mla	r5, r3, r4, r5
 1201              	.LVL119:
 519:src/display.c **** 	      // Cut off the last three digits of the mantissa.
 1202              		.loc 1 519 6 is_stmt 1 view .LVU386
 519:src/display.c **** 	      // Cut off the last three digits of the mantissa.
 1203              		.loc 1 519 9 is_stmt 0 view .LVU387
 1204 0078 F306     		lsls	r3, r6, #27
 1205 007a 0AD5     		bpl	.L110
 1206              	.LBB198:
 523:src/display.c **** 		// Clear digits and separators
 1207              		.loc 1 523 15 view .LVU388
 1208 007c 4F26     		movs	r6, #79
 1209              	.LVL120:
 1210              	.L111:
 525:src/display.c **** 	      set_dig(9 * SEGS_PER_DIGIT, '>');
 1211              		.loc 1 525 3 is_stmt 1 discriminator 3 view .LVU389
 1212 007e 3046     		mov	r0, r6
 523:src/display.c **** 		// Clear digits and separators
 1213              		.loc 1 523 66 is_stmt 0 discriminator 3 view .LVU390
 1214 0080 0136     		adds	r6, r6, #1
 1215              	.LVL121:
 525:src/display.c **** 	      set_dig(9 * SEGS_PER_DIGIT, '>');
 1216              		.loc 1 525 3 discriminator 3 view .LVU391
 1217 0082 FFF7FEFF 		bl	clr_dot
 1218              	.LVL122:
 523:src/display.c **** 		// Clear digits and separators
 1219              		.loc 1 523 66 is_stmt 1 discriminator 3 view .LVU392
 523:src/display.c **** 		// Clear digits and separators
 1220              		.loc 1 523 41 discriminator 3 view .LVU393
 523:src/display.c **** 		// Clear digits and separators
 1221              		.loc 1 523 8 is_stmt 0 discriminator 3 view .LVU394
 1222 0086 632E     		cmp	r6, #99
 1223 0088 F9D1     		bne	.L111
 526:src/display.c **** 	    }
 1224              		.loc 1 526 8 is_stmt 1 view .LVU395
 1225 008a 3E21     		movs	r1, #62
 1226 008c 5120     		movs	r0, #81
 1227 008e FFF7FEFF 		bl	set_dig
 1228              	.LVL123:
 1229              	.L110:
 526:src/display.c **** 	    }
 1230              		.loc 1 526 8 is_stmt 0 view .LVU396
 1231              	.LBE198:
 529:src/display.c **** 	      CLR_EXP_SIGN;
 1232              		.loc 1 529 6 is_stmt 1 view .LVU397
 529:src/display.c **** 	      CLR_EXP_SIGN;
 1233              		.loc 1 529 9 is_stmt 0 view .LVU398
 1234 0092 47BB     		cbnz	r7, .L134
 1235              	.L112:
 533:src/display.c **** 	    flags = 1;
 1236              		.loc 1 533 6 is_stmt 1 view .LVU399
ARM GAS  /tmp/cc9o0abE.s 			page 91


 1237 0094 04F13001 		add	r1, r4, #48
 1238 0098 6320     		movs	r0, #99
 542:src/display.c **** #endif
 1239              		.loc 1 542 7 is_stmt 0 view .LVU400
 1240 009a 01AF     		add	r7, sp, #4
 533:src/display.c **** 	    flags = 1;
 1241              		.loc 1 533 6 view .LVU401
 1242 009c FFF7FEFF 		bl	set_dig
 1243              	.LVL124:
 534:src/display.c **** 	  }
 1244              		.loc 1 534 6 is_stmt 1 view .LVU402
 542:src/display.c **** #endif
 1245              		.loc 1 542 7 view .LVU403
 1246 00a0 3846     		mov	r0, r7
 1247 00a2 0422     		movs	r2, #4
 1248 00a4 0021     		movs	r1, #0
 1249 00a6 FFF7FEFF 		bl	xset
 1250              	.LVL125:
 544:src/display.c **** 	num_arg_0(u.buf, exp, 3);
 1251              		.loc 1 544 7 view .LVU404
 542:src/display.c **** #endif
 1252              		.loc 1 542 7 is_stmt 0 view .LVU405
 1253 00aa 0024     		movs	r4, #0
 1254              	.LVL126:
 1255              	.L113:
 545:src/display.c **** #if defined(PAD_EXPONENTS_WITH_SPACES) && !defined(DONT_PAD_EXPONENT_ENTRY)
 1256              		.loc 1 545 2 is_stmt 1 view .LVU406
 1257 00ac 2946     		mov	r1, r5
 1258 00ae 0322     		movs	r2, #3
 1259 00b0 3846     		mov	r0, r7
 1260 00b2 FFF7FEFF 		bl	num_arg_0
 1261              	.LVL127:
 567:src/display.c ****     }
 1262              		.loc 1 567 7 view .LVU407
 1263 00b6 2146     		mov	r1, r4
 1264 00b8 3846     		mov	r0, r7
 1265 00ba FFF7FEFF 		bl	set_exp_digits_string
 1266              	.LVL128:
 568:src/display.c **** 
 1267              		.loc 1 568 5 is_stmt 0 view .LVU408
 1268 00be 03B0     		add	sp, sp, #12
 1269              		.cfi_remember_state
 1270              		.cfi_def_cfa_offset 20
 1271              		@ sp needed
 1272 00c0 F0BD     		pop	{r4, r5, r6, r7, pc}
 1273              	.LVL129:
 1274              	.L133:
 1275              		.cfi_restore_state
 474:src/display.c ****     exp = -exp;
 1276              		.loc 1 474 5 is_stmt 1 view .LVU409
 475:src/display.c ****   }
 1277              		.loc 1 475 5 view .LVU410
 478:src/display.c **** #endif
 1278              		.loc 1 478 13 is_stmt 0 view .LVU411
 1279 00c2 0D4C     		ldr	r4, .L135
 475:src/display.c ****   }
 1280              		.loc 1 475 9 view .LVU412
ARM GAS  /tmp/cc9o0abE.s 			page 92


 1281 00c4 6D42     		rsbs	r5, r5, #0
 1282              	.LVL130:
 478:src/display.c **** #endif
 1283              		.loc 1 478 3 is_stmt 1 view .LVU413
 478:src/display.c **** #endif
 1284              		.loc 1 478 13 is_stmt 0 view .LVU414
 1285 00c6 A4FB0534 		umull	r3, r4, r4, r5
 1286 00ca A409     		lsrs	r4, r4, #6
 1287              	.LVL131:
 480:src/display.c **** #ifdef INCLUDE_YREG_CODE
 1288              		.loc 1 480 3 is_stmt 1 view .LVU415
 480:src/display.c **** #ifdef INCLUDE_YREG_CODE
 1289              		.loc 1 480 6 is_stmt 0 view .LVU416
 1290 00cc 002A     		cmp	r2, #0
 1291 00ce CAD0     		beq	.L116
 483:src/display.c **** #else
 1292              		.loc 1 483 5 is_stmt 1 view .LVU417
 483:src/display.c **** #else
 1293              		.loc 1 483 8 is_stmt 0 view .LVU418
 1294 00d0 002C     		cmp	r4, #0
 1295 00d2 B1D1     		bne	.L104
 490:src/display.c **** #else
 1296              		.loc 1 490 12 is_stmt 1 view .LVU419
 490:src/display.c **** #else
 1297              		.loc 1 490 16 is_stmt 0 view .LVU420
 1298 00d4 1446     		mov	r4, r2
 1299              	.LVL132:
 490:src/display.c **** #else
 1300              		.loc 1 490 19 view .LVU421
 1301 00d6 6523     		movs	r3, #101
 1302 00d8 04F8013B 		strb	r3, [r4], #1
 1303              	.LVL133:
 494:src/display.c ****     }
 1304              		.loc 1 494 7 is_stmt 1 view .LVU422
 490:src/display.c **** #else
 1305              		.loc 1 490 16 is_stmt 0 view .LVU423
 1306 00dc 2246     		mov	r2, r4
 1307 00de ABE7     		b	.L104
 1308              	.LVL134:
 1309              	.L106:
 497:src/display.c **** #if SHOW_LARGE_EXPONENT > 0 || defined(LARGE_EXPONENT_ENTRY)
 1310              		.loc 1 497 7 is_stmt 1 view .LVU424
 497:src/display.c **** #if SHOW_LARGE_EXPONENT > 0 || defined(LARGE_EXPONENT_ENTRY)
 1311              		.loc 1 497 10 is_stmt 0 view .LVU425
 1312 00e0 002F     		cmp	r7, #0
 1313 00e2 C4D0     		beq	.L109
 1314 00e4 C0E7     		b	.L103
 1315              	.LVL135:
 1316              	.L134:
 530:src/display.c **** 	      set_dig(10 * SEGS_PER_DIGIT, '-');
 1317              		.loc 1 530 8 is_stmt 1 view .LVU426
 1318 00e6 8220     		movs	r0, #130
 1319 00e8 FFF7FEFF 		bl	clr_dot
 1320              	.LVL136:
 531:src/display.c **** 	    }
 1321              		.loc 1 531 8 view .LVU427
 1322 00ec 2D21     		movs	r1, #45
ARM GAS  /tmp/cc9o0abE.s 			page 93


 1323 00ee 5A20     		movs	r0, #90
 1324 00f0 FFF7FEFF 		bl	set_dig
 1325              	.LVL137:
 1326 00f4 CEE7     		b	.L112
 1327              	.L136:
 1328 00f6 00BF     		.align	2
 1329              	.L135:
 1330 00f8 D34D6210 		.word	274877907
 1331 00fc 18FCFFFF 		.word	-1000
 1332              		.cfi_endproc
 1333              	.LFE10:
 1335              		.section	.text.set_separator.part.0,"ax",%progbits
 1336              		.align	1
 1337              		.p2align 2,,3
 1338              		.syntax unified
 1339              		.thumb
 1340              		.thumb_func
 1341              		.fpu fpv4-sp-d16
 1343              	set_separator.part.0:
 1344              	.LVL138:
 1345              	.LFB46:
 375:src/display.c ****   if (sep == SEP_NONE)
 1346              		.loc 1 375 14 view -0
 1347              		.cfi_startproc
 1348              		@ args = 0, pretend = 0, frame = 0
 1349              		@ frame_needed = 0, uses_anonymous_args = 0
 382:src/display.c ****     set_dot(posn+7);
 1350              		.loc 1 382 5 view .LVU429
 375:src/display.c ****   if (sep == SEP_NONE)
 1351              		.loc 1 375 14 is_stmt 0 view .LVU430
 1352 0000 38B5     		push	{r3, r4, r5, lr}
 1353              		.cfi_def_cfa_offset 16
 1354              		.cfi_offset 3, -16
 1355              		.cfi_offset 4, -12
 1356              		.cfi_offset 5, -8
 1357              		.cfi_offset 14, -4
 375:src/display.c ****   if (sep == SEP_NONE)
 1358              		.loc 1 375 14 view .LVU431
 1359 0002 0D46     		mov	r5, r1
 1360 0004 0446     		mov	r4, r0
 1361              	.LVL139:
 383:src/display.c ****     if (sep == SEP_COMMA)
 1362              		.loc 1 383 5 is_stmt 1 view .LVU432
 1363 0006 0238     		subs	r0, r0, #2
 1364              	.LVL140:
 383:src/display.c ****     if (sep == SEP_COMMA)
 1365              		.loc 1 383 5 is_stmt 0 view .LVU433
 1366 0008 FFF7FEFF 		bl	set_dot
 1367              	.LVL141:
 384:src/display.c ****       set_dot(posn+8);
 1368              		.loc 1 384 5 is_stmt 1 view .LVU434
 384:src/display.c ****       set_dot(posn+8);
 1369              		.loc 1 384 8 is_stmt 0 view .LVU435
 1370 000c 012D     		cmp	r5, #1
 1371 000e 01D0     		beq	.L140
 1372              	.LVL142:
 391:src/display.c **** 
ARM GAS  /tmp/cc9o0abE.s 			page 94


 1373              		.loc 1 391 1 view .LVU436
 1374 0010 0020     		movs	r0, #0
 1375 0012 38BD     		pop	{r3, r4, r5, pc}
 1376              	.LVL143:
 1377              	.L140:
 385:src/display.c **** #if !defined(REALBUILD) && !defined(DM42)
 1378              		.loc 1 385 7 is_stmt 1 view .LVU437
 1379 0014 601E     		subs	r0, r4, #1
 1380 0016 FFF7FEFF 		bl	set_dot
 1381              	.LVL144:
 391:src/display.c **** 
 1382              		.loc 1 391 1 is_stmt 0 view .LVU438
 1383 001a 0020     		movs	r0, #0
 1384 001c 38BD     		pop	{r3, r4, r5, pc}
 391:src/display.c **** 
 1385              		.loc 1 391 1 view .LVU439
 1386              		.cfi_endproc
 1387              	.LFE46:
 1389 001e 00BF     		.section	.text.set_decimal.part.0,"ax",%progbits
 1390              		.align	1
 1391              		.p2align 2,,3
 1392              		.syntax unified
 1393              		.thumb
 1394              		.thumb_func
 1395              		.fpu fpv4-sp-d16
 1397              	set_decimal.part.0:
 1398              	.LVL145:
 1399              	.LFB47:
 357:src/display.c ****   if (res) {
 1400              		.loc 1 357 14 is_stmt 1 view -0
 1401              		.cfi_startproc
 1402              		@ args = 0, pretend = 0, frame = 0
 1403              		@ frame_needed = 0, uses_anonymous_args = 0
 361:src/display.c ****     if (decimal != DECIMAL_DOT)
 1404              		.loc 1 361 5 view .LVU441
 357:src/display.c ****   if (res) {
 1405              		.loc 1 357 14 is_stmt 0 view .LVU442
