ARM GAS  /tmp/cceyv6gL.s 			page 1


   1              		.arch armv7e-m
   2              		.eabi_attribute 27, 1
   3              		.eabi_attribute 28, 1
   4              		.eabi_attribute 20, 1
   5              		.eabi_attribute 21, 1
   6              		.eabi_attribute 23, 3
   7              		.eabi_attribute 24, 1
   8              		.eabi_attribute 25, 1
   9              		.eabi_attribute 26, 1
  10              		.eabi_attribute 30, 2
  11              		.eabi_attribute 34, 1
  12              		.eabi_attribute 18, 4
  13              		.file	"keys.c"
  14              		.text
  15              	.Ltext0:
  16              		.cfi_sections	.debug_frame
  17              		.section	.text.gtodot_digit,"ax",%progbits
  18              		.align	1
  19              		.p2align 2,,3
  20              		.arch armv7e-m
  21              		.syntax unified
  22              		.thumb
  23              		.thumb_func
  24              		.fpu fpv4-sp-d16
  26              	gtodot_digit:
  27              	.LVL0:
  28              	.LFB30:
  29              		.file 1 "src/keys.c"
   1:src/keys.c    **** /* This file is part of 34S.
   2:src/keys.c    ****  * 
   3:src/keys.c    ****  * 34S is free software: you can redistribute it and/or modify
   4:src/keys.c    ****  * it under the terms of the GNU General Public License as published by
   5:src/keys.c    ****  * the Free Software Foundation, either version 3 of the License, or
   6:src/keys.c    ****  * (at your option) any later version.
   7:src/keys.c    ****  * 
   8:src/keys.c    ****  * 34S is distributed in the hope that it will be useful,
   9:src/keys.c    ****  * but WITHOUT ANY WARRANTY; without even the implied warranty of
  10:src/keys.c    ****  * MERCHANTABILITY or FITNESS FOR A PARTICULAR PURPOSE.  See the
  11:src/keys.c    ****  * GNU General Public License for more details.
  12:src/keys.c    ****  * 
  13:src/keys.c    ****  * You should have received a copy of the GNU General Public License
  14:src/keys.c    ****  * along with 34S.  If not, see <http://www.gnu.org/licenses/>.
  15:src/keys.c    ****  */
  16:src/keys.c    **** 
  17:src/keys.c    **** 
  18:src/keys.c    **** #ifdef DM42
  19:src/keys.c    **** #include "dmcp.h"
  20:src/keys.c    **** #endif
  21:src/keys.c    **** 
  22:src/keys.c    **** #define DM42SAFE
  23:src/keys.c    **** 
  24:src/keys.c    **** #include "features.h"
  25:src/keys.c    **** #include "xeq.h"
  26:src/keys.c    **** #include "keys.h"
  27:src/keys.c    **** #include "display.h"
  28:src/keys.c    **** #include "lcd.h"
  29:src/keys.c    **** #include "int.h"
ARM GAS  /tmp/cceyv6gL.s 			page 2


  30:src/keys.c    **** #include "consts.h"
  31:src/keys.c    **** #include "storage.h"
  32:src/keys.c    **** #include "stats.h"
  33:src/keys.c    **** #include "catalogues.h"
  34:src/keys.c    **** #ifndef DM42
  35:src/keys.c    **** #include "printer.h"
  36:src/keys.c    **** #endif
  37:src/keys.c    **** #ifdef INCLUDE_C_LOCK
  38:src/keys.c    **** #include "decn.h"
  39:src/keys.c    **** #endif
  40:src/keys.c    **** #undef DM42SAFE
  41:src/keys.c    **** 
  42:src/keys.c    **** #if defined(QTGUI) || defined(IOS)
  43:src/keys.c    **** extern void changed_catalog_state();
  44:src/keys.c    **** #endif
  45:src/keys.c    **** 
  46:src/keys.c    **** #ifdef INCLUDE_C_LOCK
  47:src/keys.c    **** void finish_cpx_entry ( int );
  48:src/keys.c    **** void stack_begin ( int ); 
  49:src/keys.c    **** static int process_cmplx ( const keycode );
  50:src/keys.c    **** static void stack_restore ( void );
  51:src/keys.c    **** #endif
  52:src/keys.c    **** 
  53:src/keys.c    **** #define STATE_UNFINISHED	(OP_SPEC | OP_UNFINISHED)
  54:src/keys.c    **** #define STATE_BACKSPACE		(OP_SPEC | OP_BACKSPACE)
  55:src/keys.c    **** #define STATE_SST		(OP_SPEC | OP_SST)
  56:src/keys.c    **** #define STATE_BST		(OP_SPEC | OP_BST)
  57:src/keys.c    **** #define STATE_RUNNING		(OP_SPEC | OP_RUNNING)
  58:src/keys.c    **** #define STATE_IGNORE		(OP_SPEC | OP_IGNORE)
  59:src/keys.c    **** #define STATE_WINDOWLEFT	(OP_SPEC | OP_WINDOWLEFT)
  60:src/keys.c    **** #define STATE_WINDOWRIGHT	(OP_SPEC | OP_WINDOWRIGHT)
  61:src/keys.c    **** //#define STATE_SHOW		(OP_SPEC | OP_SHOW)
  62:src/keys.c    **** 
  63:src/keys.c    **** /* Define this if the key codes map rows sequentially */
  64:src/keys.c    **** 
  65:src/keys.c    **** #define TEST_EQ		0
  66:src/keys.c    **** #define TEST_NE		1
  67:src/keys.c    **** #define TEST_LT		2
  68:src/keys.c    **** #define TEST_LE		3
  69:src/keys.c    **** #define TEST_GT		4
  70:src/keys.c    **** #define TEST_GE		5
  71:src/keys.c    **** 
  72:src/keys.c    **** enum confirmations {
  73:src/keys.c    **** 	// Apart from the first of these, these must be in the same
  74:src/keys.c    **** 	// order as the opcodes in xeq.h: OP_CLALL, OP_RESET, OP_CLPROG, OP_CLPALL
  75:src/keys.c    **** 	confirm_none=0, confirm_clall, confirm_reset, confirm_clprog, confirm_clpall
  76:src/keys.c    **** };
  77:src/keys.c    **** 
  78:src/keys.c    **** FLAG WasDataEntry;
  79:src/keys.c    **** 
  80:src/keys.c    **** /* Local data to this module */
  81:src/keys.c    **** unsigned int OpCode;
  82:src/keys.c    **** FLAG OpCodeDisplayPending;
  83:src/keys.c    **** FLAG GoFast;
  84:src/keys.c    **** FLAG NonProgrammable;
  85:src/keys.c    **** 
  86:src/keys.c    **** /*
ARM GAS  /tmp/cceyv6gL.s 			page 3


  87:src/keys.c    ****  *  Needed before definition
  88:src/keys.c    ****  */ 
  89:src/keys.c    **** static unsigned int advance_to_next_label(unsigned int pc, int inc, int search_end);
  90:src/keys.c    **** 
  91:src/keys.c    **** unsigned int nd_opcode;
  92:src/keys.c    **** 
  93:src/keys.c    **** /*
  94:src/keys.c    ****  *  Return the shift state
  95:src/keys.c    ****  */
  96:src/keys.c    **** enum shifts cur_shift(void) {
  97:src/keys.c    **** 	enum shifts s = shift_down();
  98:src/keys.c    **** 	return s == SHIFT_N ? (enum shifts) State2.shifts : s;
  99:src/keys.c    **** }
 100:src/keys.c    **** 
 101:src/keys.c    **** /*
 102:src/keys.c    ****  *  Set new shift state, return previous state
 103:src/keys.c    ****  */
 104:src/keys.c    **** static enum shifts set_shift(enum shifts shift) {
 105:src/keys.c    **** 	enum shifts r = cur_shift();
 106:src/keys.c    **** 	State2.shifts = shift;
 107:src/keys.c    **** 	//	State2.alpha_pos = 0;
 108:src/keys.c    **** 	return r;
 109:src/keys.c    **** }
 110:src/keys.c    **** 
 111:src/keys.c    **** /*
 112:src/keys.c    ****  *  Clear shift state and return previous state
 113:src/keys.c    ****  */
 114:src/keys.c    **** enum shifts reset_shift(void) {
 115:src/keys.c    **** 	return set_shift(SHIFT_N);
 116:src/keys.c    **** }
 117:src/keys.c    **** 
 118:src/keys.c    **** /*
 119:src/keys.c    ****  *  Toggle shift state
 120:src/keys.c    ****  */
 121:src/keys.c    **** static void toggle_shift(enum shifts shift) {
 122:src/keys.c    **** 	State2.shifts = State2.shifts == shift ? SHIFT_N : shift;
 123:src/keys.c    **** }
 124:src/keys.c    **** 
 125:src/keys.c    **** 
 126:src/keys.c    **** /*
 127:src/keys.c    ****  * Mapping from the key code to a linear index
 128:src/keys.c    ****  * The trick is to move the shifts and the holes in the map out of the way
 129:src/keys.c    ****  */
 130:src/keys.c    **** #ifdef DM42
 131:src/keys.c    **** static int keycode_to_linear_for_alpha(const keycode c)
 132:src/keys.c    **** {
 133:src/keys.c    **** 	static const unsigned char linear_key_map[ 7 * 6 - 1 + 6 ] = {
 134:src/keys.c    **** 		 0,  1,  2,  3,  4,  5,   // K00 - K05
 135:src/keys.c    **** 		 6,  7,  8,  9, 10, 11,   // K10 - K15
 136:src/keys.c    **** 		 12, 13, 14, 15, 16,  0,   // K20 - K24
 137:src/keys.c    **** 		17, 18, 19, 20, 21,  0,   // K30 - K34
 138:src/keys.c    **** 		22, 23, 24, 25, 26,  0,   // K40 - K44
 139:src/keys.c    **** 		27, 28, 29, 30, 31,  0,   // K50 - K54
 140:src/keys.c    **** 		32, 33, 34, 35, 36,       // K60 - K64
 141:src/keys.c    **** 		37, 37, 37, 37, 37, 37       // K_F, G, H, ARROW, CMPLX, NOP
 142:src/keys.c    **** 	};
 143:src/keys.c    **** 	return linear_key_map[c];
ARM GAS  /tmp/cceyv6gL.s 			page 4


 144:src/keys.c    **** }
 145:src/keys.c    **** 
 146:src/keys.c    **** static int keycode_to_linear(const keycode c)
 147:src/keys.c    **** {
 148:src/keys.c    **** 	static const unsigned char linear_key_map[ 7 * 6 - 1 + 6 ] = {
 149:src/keys.c    **** 		 0,  1,  2,  3,  4,  5,   // K00 - K05
 150:src/keys.c    **** 		 6,  7,  8, 34, 34, 34,   // K10 - K15
 151:src/keys.c    **** 		 9, 10, 11, 12, 13,  0,   // K20 - K24
 152:src/keys.c    **** 		14, 15, 16, 17, 18,  0,   // K30 - K34
 153:src/keys.c    **** 		19, 20, 21, 22, 23,  0,   // K40 - K44
 154:src/keys.c    **** 		24, 25, 26, 27, 28,  0,   // K50 - K54
 155:src/keys.c    **** 		29, 30, 31, 32, 33,       // K60 - K64
 156:src/keys.c    **** 		34, 34, 34,  4,  5, 34,        // K_F, G, H, ARROW, CMPLX, NOP
 157:src/keys.c    **** 	};
 158:src/keys.c    **** 	return linear_key_map[c];
 159:src/keys.c    **** }
 160:src/keys.c    **** #else
 161:src/keys.c    **** static int keycode_to_linear(const keycode c)
 162:src/keys.c    **** {
 163:src/keys.c    **** 	static const unsigned char linear_key_map[ 7 * 6 - 1 ] = {
 164:src/keys.c    **** 		 0,  1,  2,  3,  4,  5,   // K00 - K05
 165:src/keys.c    **** 		 6,  7,  8, 34, 34, 34,   // K10 - K15
 166:src/keys.c    **** 		 9, 10, 11, 12, 13,  0,   // K20 - K24
 167:src/keys.c    **** 		14, 15, 16, 17, 18,  0,   // K30 - K34
 168:src/keys.c    **** 		19, 20, 21, 22, 23,  0,   // K40 - K44
 169:src/keys.c    **** 		24, 25, 26, 27, 28,  0,   // K50 - K54
 170:src/keys.c    **** 		29, 30, 31, 32, 33        // K60 - K64
 171:src/keys.c    **** 	};
 172:src/keys.c    **** 	return linear_key_map[c];
 173:src/keys.c    **** }
 174:src/keys.c    **** #endif
 175:src/keys.c    **** /*
 176:src/keys.c    ****  * Mapping from the key code to a row column code ('A'=11 to '+'=75)
 177:src/keys.c    ****  * Used in KEY? and for shorthand addressing
 178:src/keys.c    ****  */
 179:src/keys.c    **** int keycode_to_row_column(const int c)
 180:src/keys.c    **** {
 181:src/keys.c    **** 	return 11 + ( c / 6 ) * 10 + c % 6;
 182:src/keys.c    **** }
 183:src/keys.c    **** 
 184:src/keys.c    **** /*
 185:src/keys.c    ****  * Mapping from a row column code ('A'=11 to '+'=75) to the key code
 186:src/keys.c    ****  * Used in PUTK and KTYPE.
 187:src/keys.c    ****  */
 188:src/keys.c    **** 
 189:src/keys.c    **** int row_column_to_keycode(const int c)
 190:src/keys.c    **** {
 191:src/keys.c    **** 	int row = c / 10 - 1;
 192:src/keys.c    **** 	int col = c % 10 - 1;
 193:src/keys.c    **** 
 194:src/keys.c    **** 	if (row < 0 || row > 6 || col > 5 - (row >= 2))
 195:src/keys.c    **** 		return -1;
 196:src/keys.c    **** 	return row * 6 + col;
 197:src/keys.c    **** }
 198:src/keys.c    **** 
 199:src/keys.c    **** /*
 200:src/keys.c    ****  *  Mapping from a key code to a digit from 0 to 9 or to a register address
ARM GAS  /tmp/cceyv6gL.s 			page 5


 201:src/keys.c    ****  *  Bit seven is set if the key cannot be used as a label shortcut
 202:src/keys.c    ****  */
 203:src/keys.c    **** // Decision to make here about whether the top row can be used as shortcuts.
 204:src/keys.c    **** // Also, which other keys can / can't be used as shortcuts?
 205:src/keys.c    **** // Registers I, j, K, L will move with the new alpha layout.
 206:src/keys.c    **** 
 207:src/keys.c    **** #define NO_REG 0x7f
 208:src/keys.c    **** #define NO_SHORT 0x80
 209:src/keys.c    **** #ifdef DM42
 210:src/keys.c    **** unsigned int keycode_to_digit_or_register(const keycode c)
 211:src/keys.c    **** {
 212:src/keys.c    ****   static const unsigned char map[] = {
 213:src/keys.c    ****     // K00 - K05
 214:src/keys.c    ****     NO_SHORT | regA_idx, NO_SHORT | regB_idx,
 215:src/keys.c    ****     NO_SHORT | regC_idx, NO_SHORT | regD_idx,
 216:src/keys.c    ****     NO_SHORT | NO_REG,   NO_REG,
 217:src/keys.c    ****     // K10 - K15
 218:src/keys.c    ****     NO_REG, NO_REG, regI_idx, regJ_idx, regK_idx, regL_idx, 
 219:src/keys.c    ****     // K20 - K24
 220:src/keys.c    ****     NO_SHORT | NO_REG, NO_SHORT | NO_REG, NO_SHORT | NO_REG, NO_SHORT | NO_REG, NO_SHORT | NO_REG,
 221:src/keys.c    ****     // K30 - K34
 222:src/keys.c    ****     NO_REG, 7, 8, 9, NO_REG,
 223:src/keys.c    ****     // K40 - K44
 224:src/keys.c    ****     NO_REG, NO_SHORT | regT_idx, 5, 6, NO_REG,
 225:src/keys.c    ****     // K50 - K54
 226:src/keys.c    ****     NO_REG, NO_SHORT | regX_idx, NO_SHORT | regY_idx, NO_SHORT | regZ_idx, NO_REG,
 227:src/keys.c    ****     // K60 - K64
 228:src/keys.c    ****     NO_SHORT | NO_REG, 0, NO_SHORT | LOCAL_REG_BASE, NO_REG, NO_REG,
 229:src/keys.c    ****     // Shifts etc. - K_F, K_G, K_H, K_ARROW, K_CMPLX. K_NOP
 230:src/keys.c    ****     NO_SHORT | NO_REG, NO_SHORT | NO_REG, NO_SHORT | NO_REG,
 231:src/keys.c    ****     NO_SHORT | NO_REG, NO_SHORT | NO_REG, NO_SHORT | NO_REG, 
 232:src/keys.c    ****   };
 233:src/keys.c    **** 
 234:src/keys.c    ****   return (unsigned int) map[keycode_to_linear_for_alpha(c)];
 235:src/keys.c    **** }
 236:src/keys.c    **** #else
 237:src/keys.c    **** unsigned int keycode_to_digit_or_register(const keycode c)
 238:src/keys.c    **** {
 239:src/keys.c    ****   static const unsigned char map[] = {
 240:src/keys.c    **** 		// K00 - K05
 241:src/keys.c    **** 		NO_SHORT | regA_idx, NO_SHORT | regB_idx,
 242:src/keys.c    **** 		NO_SHORT | regC_idx, NO_SHORT | regD_idx,
 243:src/keys.c    **** 		NO_SHORT | NO_REG,   NO_REG,
 244:src/keys.c    **** 		// K10 - K12
 245:src/keys.c    **** 		NO_REG, NO_REG, regI_idx, 
 246:src/keys.c    **** 		// K20 - K24
 247:src/keys.c    **** 		NO_SHORT | NO_REG, regJ_idx, regK_idx, regL_idx, NO_SHORT | NO_REG,
 248:src/keys.c    **** 		// K30 - K34
 249:src/keys.c    **** 		NO_REG, 7, 8, 9, NO_REG,
 250:src/keys.c    **** 		// K40 - K44
 251:src/keys.c    **** 		NO_REG, 4, 5, 6, regT_idx,
 252:src/keys.c    **** 		// K50 - K54
 253:src/keys.c    **** 		NO_REG, 1, 2, 3, NO_REG,
 254:src/keys.c    **** 		// K60 - K63
 255:src/keys.c    **** 		NO_SHORT | NO_REG, 0, NO_SHORT | LOCAL_REG_BASE,
 256:src/keys.c    **** 		regY_idx, regZ_idx,
 257:src/keys.c    **** 		// Shifts, etc
ARM GAS  /tmp/cceyv6gL.s 			page 6


 258:src/keys.c    **** 		NO_REG
 259:src/keys.c    **** 	};
 260:src/keys.c    **** 
 261:src/keys.c    **** 	return (unsigned int) map[keycode_to_linear(c)];
 262:src/keys.c    **** }
 263:src/keys.c    **** #endif
 264:src/keys.c    **** /*
 265:src/keys.c    ****  *  Mapping of a keycode and shift state to a catalogue number
 266:src/keys.c    ****  */
 267:src/keys.c    **** static enum catalogues keycode_to_cat(const keycode c, enum shifts shift)
 268:src/keys.c    **** {
 269:src/keys.c    ****   enum catalogues cat = CATALOGUE_NONE;
 270:src/keys.c    ****   int i, col, max;
 271:src/keys.c    ****   const struct _map {
 272:src/keys.c    ****     unsigned char key, cat[3];
 273:src/keys.c    ****   } *cp;
 274:src/keys.c    **** 
 275:src/keys.c    **** #ifdef INCLUDE_C_LOCK
 276:src/keys.c    **** 	if (C_LOCKED) { // Limited set of catalogues available in complex lock mode - all listed here
 277:src/keys.c    **** 		if (shift == SHIFT_H) {
 278:src/keys.c    **** 			switch (c) {
 279:src/keys.c    **** 				case K53:
 280:src/keys.c    **** 					return CATALOGUE_COMPLEX;
 281:src/keys.c    **** 				case K04:
 282:src/keys.c    **** 					return CATALOGUE_CONV;
 283:src/keys.c    **** 				case K05:
 284:src/keys.c    **** 					return CATALOGUE_MODE;
 285:src/keys.c    **** 				case K20:
 286:src/keys.c    **** 					if ( (REAL_FLAG || IMAG_FLAG) ) { // number being entered
 287:src/keys.c    **** 						finish_cpx_entry(1);
 288:src/keys.c    **** 					}
 289:src/keys.c    **** 					return CATALOGUE_COMPLEX_CONST;
 290:src/keys.c    **** 				default:
 291:src/keys.c    **** 					return CATALOGUE_NONE;
 292:src/keys.c    **** 			}
 293:src/keys.c    **** 		}
 294:src/keys.c    **** 		if ( (shift == SHIFT_G) && (c == K60) )
 295:src/keys.c    **** 			return CATALOGUE_REGISTERS;
 296:src/keys.c    **** 		if ( (shift == SHIFT_F) && (c == K20) ) {
 297:src/keys.c    **** 			if ( !(REAL_FLAG || IMAG_FLAG) ) {
 298:src/keys.c    **** 				SET_REAL;
 299:src/keys.c    **** 				stack_begin (1);
 300:src/keys.c    **** 			}
 301:src/keys.c    **** 			else if (CmdLineLength) {
 302:src/keys.c    **** 				CmdLineLength = 0;
 303:src/keys.c    **** 				CmdLineEex = 0;
 304:src/keys.c    **** 				CmdLineDot = 0;
 305:src/keys.c    **** 			}
 306:src/keys.c    **** 			return CATALOGUE_CONST;
 307:src/keys.c    **** 		}
 308:src/keys.c    **** 		return CATALOGUE_NONE;
 309:src/keys.c    **** 	}
 310:src/keys.c    **** #endif
 311:src/keys.c    ****   // Common to both alpha mode and normal mode is the programming X.FCN catalogue
 312:src/keys.c    ****   if (c == K53 && shift == SHIFT_H && ! State2.runmode && ! State2.cmplx && ! State2.multi)
 313:src/keys.c    ****     return CATALOGUE_PROGXFCN;
 314:src/keys.c    **** 
ARM GAS  /tmp/cceyv6gL.s 			page 7


 315:src/keys.c    ****   if (! State2.alphas && ! State2.multi) {
 316:src/keys.c    ****     /*
 317:src/keys.c    ****      *  Normal processing - Not alpha mode
 318:src/keys.c    ****      */
 319:src/keys.c    ****     static const struct _map cmap[] = {
 320:src/keys.c    **** #ifdef DM42
 321:src/keys.c    ****       { K04, { CATALOGUE_CONV,      CATALOGUE_NONE,      CATALOGUE_CONV          } },
 322:src/keys.c    **** #else
 323:src/keys.c    ****       { K_ARROW, { CATALOGUE_CONV,      CATALOGUE_NONE,      CATALOGUE_CONV          } },
 324:src/keys.c    **** #endif
 325:src/keys.c    ****       { K05,     { CATALOGUE_MODE,      CATALOGUE_MODE,      CATALOGUE_MODE          } },
 326:src/keys.c    **** #ifdef INCLUDE_USER_CATALOGUE
 327:src/keys.c    ****       { K10,     { CATALOGUE_LABELS,    CATALOGUE_LABELS,    CATALOGUE_USER          } },
 328:src/keys.c    **** #else
 329:src/keys.c    ****       { K10,     { CATALOGUE_LABELS,    CATALOGUE_LABELS,    CATALOGUE_LABELS        } },
 330:src/keys.c    **** #endif
 331:src/keys.c    ****       { K20,     { CATALOGUE_CONST,     CATALOGUE_NONE,      CATALOGUE_COMPLEX_CONST } },
 332:src/keys.c    ****       { K41,     { CATALOGUE_PROB,      CATALOGUE_NONE,      CATALOGUE_PROB          } },
 333:src/keys.c    ****       { K42,     { CATALOGUE_STATS,     CATALOGUE_NONE,      CATALOGUE_STATS         } },
 334:src/keys.c    ****       { K43,     { CATALOGUE_SUMS,      CATALOGUE_NONE,      CATALOGUE_SUMS          } },
 335:src/keys.c    ****       { K44,     { CATALOGUE_MATRIX,    CATALOGUE_NONE,      CATALOGUE_MATRIX        } },
 336:src/keys.c    ****       { K50,     { CATALOGUE_STATUS,    CATALOGUE_STATUS,    CATALOGUE_STATUS        } },
 337:src/keys.c    ****       { K51,     { CATALOGUE_TEST,      CATALOGUE_TEST,      CATALOGUE_TEST          } },
 338:src/keys.c    **** #ifdef INCLUDE_INTERNAL_CATALOGUE
 339:src/keys.c    ****       { K52,     { CATALOGUE_PROG,      CATALOGUE_PROG,      CATALOGUE_INTERNAL      } },
 340:src/keys.c    **** #else
 341:src/keys.c    ****       { K52,     { CATALOGUE_PROG,      CATALOGUE_PROG,      CATALOGUE_PROG          } },
 342:src/keys.c    **** #endif
 343:src/keys.c    ****       { K53,     { CATALOGUE_NORMAL,    CATALOGUE_INT,       CATALOGUE_COMPLEX       } },
 344:src/keys.c    ****     };
 345:src/keys.c    **** 
 346:src/keys.c    ****     if (c == K60 && shift == SHIFT_G) {
 347:src/keys.c    ****       /*
 348:src/keys.c    ****        *  SHOW starts register browser
 349:src/keys.c    ****        */
 350:src/keys.c    ****       return CATALOGUE_REGISTERS;
 351:src/keys.c    ****     }
 352:src/keys.c    **** #if 0
 353:src/keys.c    ****     // conflicts with c# 002 and c# 003
 354:src/keys.c    ****     if ((c == K52 || c == K53) && shift == SHIFT_N && State2.cmplx && State2.catalogue == CATALOGUE
 355:src/keys.c    ****       /*
 356:src/keys.c    ****        *  Shorthand to complex P.FCN & X.FCN - h may be omitted
 357:src/keys.c    ****        */
 358:src/keys.c    ****       shift = SHIFT_H;
 359:src/keys.c    ****     }
 360:src/keys.c    **** #endif
 361:src/keys.c    ****     if (shift != SHIFT_H) {
 362:src/keys.c    ****       /*
 363:src/keys.c    ****        *  All standard catalogues are on h-shifted keys
 364:src/keys.c    ****        */
 365:src/keys.c    ****       return CATALOGUE_NONE;
 366:src/keys.c    ****     }
 367:src/keys.c    **** 
 368:src/keys.c    ****     /*
 369:src/keys.c    ****      *  Prepare search
 370:src/keys.c    ****      */
 371:src/keys.c    ****     cp = cmap;
ARM GAS  /tmp/cceyv6gL.s 			page 8


 372:src/keys.c    **** #ifndef WINGUI
 373:src/keys.c    ****     col = UState.intm ? 1 : State2.cmplx || shift_down() == SHIFT_H ? 2 : 0;
 374:src/keys.c    **** #else
 375:src/keys.c    ****     col = UState.intm ? 1 : State2.cmplx ? 2 : 0;
 376:src/keys.c    **** #endif
 377:src/keys.c    ****     max = sizeof(cmap) / sizeof(cmap[0]);
 378:src/keys.c    ****   }
 379:src/keys.c    ****   else {
 380:src/keys.c    ****     /*
 381:src/keys.c    ****      *  All the alpha catalogues go here
 382:src/keys.c    ****      */
 383:src/keys.c    **** #ifdef DM42
 384:src/keys.c    ****     static const struct _map amap[] = {
 385:src/keys.c    ****       { K04, { CATALOGUE_NONE, CATALOGUE_ALPHA_ARROWS,  CATALOGUE_NONE              } },
 386:src/keys.c    ****       { K05, { CATALOGUE_NONE, CATALOGUE_ALPHA_LETTERS, CATALOGUE_MODE              } },
 387:src/keys.c    ****       { K_ARROW, { CATALOGUE_NONE, CATALOGUE_ALPHA_ARROWS,  CATALOGUE_NONE              } },
 388:src/keys.c    ****       { K_CMPLX, { CATALOGUE_NONE, CATALOGUE_ALPHA_LETTERS, CATALOGUE_MODE              } },
 389:src/keys.c    ****       //	{ K10,     { CATALOGUE_NONE, CATALOGUE_NONE,          CATALOGUE_LABELS            } },
 390:src/keys.c    ****       { K12,     { CATALOGUE_NONE, CATALOGUE_NONE,	      CATALOGUE_ALPHA_SUBSCRIPTS  } },
 391:src/keys.c    ****       //	{ K50,     { CATALOGUE_NONE, CATALOGUE_NONE,          CATALOGUE_STATUS            } },
 392:src/keys.c    ****       { K51,     { CATALOGUE_NONE, CATALOGUE_NONE,          CATALOGUE_ALPHA_COMPARES    } },
 393:src/keys.c    ****       { K53,     { CATALOGUE_NONE, CATALOGUE_NONE,          CATALOGUE_ALPHA             } },
 394:src/keys.c    ****       { K62,     { CATALOGUE_NONE, CATALOGUE_NONE,          CATALOGUE_ALPHA_SYMBOLS     } },
 395:src/keys.c    ****     };
 396:src/keys.c    **** #else
 397:src/keys.c    ****     static const struct _map amap[] = {
 398:src/keys.c    ****       { K_ARROW, { CATALOGUE_NONE, CATALOGUE_ALPHA_ARROWS,  CATALOGUE_NONE              } },
 399:src/keys.c    ****       { K_CMPLX, { CATALOGUE_NONE, CATALOGUE_ALPHA_LETTERS, CATALOGUE_MODE              } },
 400:src/keys.c    ****       //	{ K10,     { CATALOGUE_NONE, CATALOGUE_NONE,          CATALOGUE_LABELS            } },
 401:src/keys.c    ****       { K12,     { CATALOGUE_NONE, CATALOGUE_NONE,	      CATALOGUE_ALPHA_SUBSCRIPTS  } },
 402:src/keys.c    ****       //	{ K50,     { CATALOGUE_NONE, CATALOGUE_NONE,          CATALOGUE_STATUS            } },
 403:src/keys.c    ****       { K51,     { CATALOGUE_NONE, CATALOGUE_NONE,          CATALOGUE_ALPHA_COMPARES    } },
 404:src/keys.c    ****       { K53,     { CATALOGUE_NONE, CATALOGUE_NONE,          CATALOGUE_ALPHA             } },
 405:src/keys.c    ****       { K62,     { CATALOGUE_NONE, CATALOGUE_NONE,          CATALOGUE_ALPHA_SYMBOLS     } },
 406:src/keys.c    ****     };
 407:src/keys.c    **** #endif
 408:src/keys.c    ****     static const char smap[] = { 0, 1, 0, 2 }; // Map shifts to columns;
 409:src/keys.c    **** 
 410:src/keys.c    ****     /*
 411:src/keys.c    ****      *  Prepare search
 412:src/keys.c    ****      */
 413:src/keys.c    ****     cp = amap;
 414:src/keys.c    ****     col = smap[shift];
 415:src/keys.c    ****     max = sizeof(amap) / sizeof(amap[0]);
 416:src/keys.c    ****   }
 417:src/keys.c    **** 
 418:src/keys.c    ****   /*
 419:src/keys.c    ****    *  Search the key in one of the tables
 420:src/keys.c    ****    */
 421:src/keys.c    ****   for (i = 0; i < max; ++i, ++cp) {
 422:src/keys.c    ****     if (cp->key == c) {
 423:src/keys.c    ****       cat = (enum catalogues) cp->cat[col];
 424:src/keys.c    ****       break;
 425:src/keys.c    ****     }
 426:src/keys.c    ****   }
 427:src/keys.c    ****   if (State2.multi && (cat < CATALOGUE_ALPHA_SYMBOLS || cat > CATALOGUE_ALPHA_SUBSCRIPTS)) {
 428:src/keys.c    ****     // Ignore the non character catalogues in multi character mode
ARM GAS  /tmp/cceyv6gL.s 			page 9


 429:src/keys.c    ****     cat = CATALOGUE_NONE;
 430:src/keys.c    ****   }
 431:src/keys.c    ****   return cat;
 432:src/keys.c    **** }
 433:src/keys.c    **** 
 434:src/keys.c    **** #ifdef DM42
 435:src/keys.c    **** static int keycode_to_alpha(const keycode c, unsigned int shift)
 436:src/keys.c    **** {
 437:src/keys.c    **** 	static const unsigned char alphamap[][6] = {
 438:src/keys.c    **** 		/*upper f-sft g-sft h-sft lower g-lower */
 439:src/keys.c    **** 		{ 'A',  0000, 'A',  0000, 'a',  0240,  },  // K00
 440:src/keys.c    **** 		{ 'B',  0000, 'B',  0000, 'b',  0241,  },  // K01
 441:src/keys.c    **** 		{ 'C',  0000, 0202, 0000, 'c',  0242,  },  // K02
 442:src/keys.c    **** 		{ 'D',  0000, 0203, 0000, 'd',  0243,  },  // K03
 443:src/keys.c    **** 		{ 'E',  0015, 'E',  0000, 'e',  0244,  },  // K04 ->
 444:src/keys.c    **** 		{ 'F',  0000, 0224, 0000, 'f',  0264,  },  // K05
 445:src/keys.c    **** 
 446:src/keys.c    **** 		{ 'G',  0000, 0202, 0000, 'g',  0242,  },  // K10
 447:src/keys.c    **** 		{ 'H',  0000, 'X',  0000, 'h',  0265,  },  // K11
 448:src/keys.c    **** 		{ 'I',  0000, 'I',  0000, 'i',  0250,  },  // K12
 449:src/keys.c    **** 		{ 'J',  0257, 0000, 0000, 'j',  0000,  },  // K13
 450:src/keys.c    **** 		{ 'K',  0000, 'K',  0000, 'k',  0251,  },  // K14
 451:src/keys.c    **** 		{ 'L',  0000, 0212, 0000, 'l',  0252,  },  // K15
 452:src/keys.c    **** 
 453:src/keys.c    **** 		{ 0000, 0000, 'H',  0000, 0000, 0246,  },  // K20 ENTER
 454:src/keys.c    **** 		{ 'M',  0000, 0253, 0027, 'm',  0253,  },  // K21
 455:src/keys.c    **** 		{ 'N',  0010, 'N',  0225, 'n',  0254,  },  // K22
 456:src/keys.c    **** 		{ 'O',  0000, 0227, 0257, 'o',  0267,  },  // K23
 457:src/keys.c    **** 		{ 0000, 0000, 0000, 0000, 0000, 0000   },  // K24 <-
 458:src/keys.c    **** 
 459:src/keys.c    **** 		{ 0000, 0000, 0000, 0000, 0000, 0000,  },  // K30
 460:src/keys.c    **** 		{ 'P',  '7',  0217, '&',  'p',  0257,  },  // K31
 461:src/keys.c    **** 		{ 'Q',  '8',  0000, '|',  'q',  0000,  },  // K32
 462:src/keys.c    **** 		{ 'R',  '9',  'R',  0013, 'r',  0260,  },  // K33
 463:src/keys.c    **** 		{ 'S',  '/',  0221, '\\', 's',  0261,  },  // K34
 464:src/keys.c    **** 
 465:src/keys.c    **** 		{ 0000, 0000, 0000, '!',  0000, 0000,  },  // K40
 466:src/keys.c    **** 		{ 'T',  '4',  'T',  0000, 't',  0262,  },  // K41
 467:src/keys.c    **** 		{ 'U',  '5',  0000, 0000, 'u',  0000,  },  // K42
 468:src/keys.c    **** 		{ 'V',  '6',  0000, 0000, 'v',  0000,  },  // K43
 469:src/keys.c    **** 		{ 'W', 0034,  0000, 0000, 'w',  0000,  },  // K44
 470:src/keys.c    **** 
 471:src/keys.c    **** 		{ 0000, 0000, 0000, '?',  0000, 0000,  },  // K50
 472:src/keys.c    **** 		{ 'X',  '1',  0215, 0000, 'x',  0255,  },  // K51
 473:src/keys.c    **** 		{ 'Y',  '2',  'Y',  0000, 'y',  0263,  },  // K52
 474:src/keys.c    **** 		{ 'Z',  '3',  'Z',  0000, 'z',  0245,  },  // K53
 475:src/keys.c    **** 		{ '-',  '(',  ')',  0000, 0000, 0000,  },  // K54
 476:src/keys.c    **** 
 477:src/keys.c    **** 		{ 0000, 0000, 0000, 0000, 0000, 0000,  },  // K60
 478:src/keys.c    **** 		{ ':',  '0',  0207, ' ',  ';',  0247,  },  // K61
 479:src/keys.c    **** 		{ '.',  '.',  0226, 0000, '.',  0266,  },  // K62
 480:src/keys.c    **** 		{ '?',  0000, 0041, 0000, '?',  0000,  },  // K63
 481:src/keys.c    **** 		{ ' ',  '+',  '=',  0000, ' ',  ' ',   },  // K64
 482:src/keys.c    **** 
 483:src/keys.c    **** 		{ 0000, 0000, 0000, 0000, 0000, 0000   },  // shifts etc.
 484:src/keys.c    **** 	};
 485:src/keys.c    **** 	if (State2.alphashift) {
ARM GAS  /tmp/cceyv6gL.s 			page 10


 486:src/keys.c    **** 		if (shift == SHIFT_N)
 487:src/keys.c    **** 			shift = SHIFT_LC_N;
 488:src/keys.c    **** 		else if (shift == SHIFT_G)
 489:src/keys.c    **** 			shift = SHIFT_LC_G;
 490:src/keys.c    **** 	}
 491:src/keys.c    **** 	return alphamap[keycode_to_linear_for_alpha(c)][shift];
 492:src/keys.c    **** }
 493:src/keys.c    **** #else
 494:src/keys.c    **** /*
 495:src/keys.c    ****  * Mapping from key position to alpha in the four key planes plus
 496:src/keys.c    ****  * the two lower case planes.
 497:src/keys.c    ****  */
 498:src/keys.c    **** static int keycode_to_alpha(const keycode c, unsigned int shift)
 499:src/keys.c    **** {
 500:src/keys.c    **** 	static const unsigned char alphamap[][6] = {
 501:src/keys.c    **** 		/*upper f-sft g-sft h-sft lower g-lower */
 502:src/keys.c    **** 		{ 'A',  0000, 'A',  0000, 'a',  0240,  },  // K00
 503:src/keys.c    **** 		{ 'B',  0000, 'B',  0000, 'b',  0241,  },  // K01
 504:src/keys.c    **** 		{ 'C',  0000, 0202, 0000, 'c',  0242,  },  // K02
 505:src/keys.c    **** 		{ 'D',  0000, 0203, 0000, 'd',  0243,  },  // K03
 506:src/keys.c    **** 		{ 'E',  0015, 'E',  0000, 'e',  0244,  },  // K04 ->
 507:src/keys.c    **** 		{ 'F',  0000, 0224, 0000, 'f',  0264,  },  // K05
 508:src/keys.c    **** 
 509:src/keys.c    **** 		{ 'G',  0000, 0202, 0000, 'g',  0242,  },  // K10
 510:src/keys.c    **** 		{ 'H',  0000, 'X',  0000, 'h',  0265,  },  // K11
 511:src/keys.c    **** 		{ 'I',  0000, 'I',  0000, 'i',  0250,  },  // K12
 512:src/keys.c    **** 
 513:src/keys.c    **** 		{ 0000, 0000, 'H',  0000, 0000, 0246,  },  // K20 ENTER
 514:src/keys.c    **** 		{ 'J',  '(',  ')',  0027, 'j',  ')',   },  // K21
 515:src/keys.c    **** 		{ 'K',  0010, 'K',  0225, 'k',  0251,  },  // K22
 516:src/keys.c    **** 		{ 'L',  0000, 0212, 0257, 'l',  0252,  },  // K23
 517:src/keys.c    **** 		{ 0000, 0000, 0000, 0000, 0000, 0000   },  // K24 <-
 518:src/keys.c    **** 
 519:src/keys.c    **** 		{ 0000, 0000, 0000, 0000, 0000, 0000,  },  // K30
 520:src/keys.c    **** 		{ 'M',  '7',  'M',  '&',  'm',  0253,  },  // K31
 521:src/keys.c    **** 		{ 'N',  '8',  'N',  '|',  'n',  0254,  },  // K32
 522:src/keys.c    **** 		{ 'O',  '9',  0227, 0013, 'o',  0267,  },  // K33
 523:src/keys.c    **** 		{ 'P',  '/',  0217, '\\', 'p',  0257,  },  // K34
 524:src/keys.c    **** 
 525:src/keys.c    **** 		{ 0000, 0000, 0000, '!',  0000, 0000,  },  // K40
 526:src/keys.c    **** 		{ 'Q',  '4',  0000, 0000, 'q',  0000,  },  // K41
 527:src/keys.c    **** 		{ 'R',  '5',  'R',  0000, 'r',  0260,  },  // K42
 528:src/keys.c    **** 		{ 'S',  '6',  0221, 0000, 's',  0261,  },  // K43
 529:src/keys.c    **** 		{ 'T',  0034, 'T',  0000, 't',  0262,  },  // K44
 530:src/keys.c    **** 
 531:src/keys.c    **** 		{ 0000, 0000, 0000, '?',  0000, 0000,  },  // K50
 532:src/keys.c    **** 		{ '1',  '1',  0207, 0000, '1',  0247,  },  // K51
 533:src/keys.c    **** 		{ 'U',  '2',  0000, 0000, 'u',  0000,  },  // K52
 534:src/keys.c    **** 		{ 'V',  '3',  0000, 0000, 'v',  0000,  },  // K53
 535:src/keys.c    **** 		{ 'W',  0034, 0000, 0000, 'w',  0000,  },  // K54
 536:src/keys.c    **** 
 537:src/keys.c    **** 		{ 0000, 0222, 0000, 0000, 0000, 0000,  },  // K60
 538:src/keys.c    **** 		{ '0',  '0',  0226, ' ',  '0',  0266,  },  // K61
 539:src/keys.c    **** 		{ 'X',  '.',  0215, 0000, 'x',  0255,  },  // K62
 540:src/keys.c    **** 		{ 'Y',  0000, 'Y',  0000, 'y',  0263,  },  // K63
 541:src/keys.c    **** 		{ 'Z',  '+',  'Z',  0000, 'z',  0245,  },  // K64
 542:src/keys.c    **** 	};
ARM GAS  /tmp/cceyv6gL.s 			page 11


 543:src/keys.c    **** 	if (State2.alphashift) {
 544:src/keys.c    **** 		if (shift == SHIFT_N)
 545:src/keys.c    **** 			shift = SHIFT_LC_N;
 546:src/keys.c    **** 		else if (shift == SHIFT_G)
 547:src/keys.c    **** 			shift = SHIFT_LC_G;
 548:src/keys.c    **** 	}
 549:src/keys.c    **** 	return alphamap[keycode_to_linear(c)][shift];
 550:src/keys.c    **** }
 551:src/keys.c    **** #endif
 552:src/keys.c    **** static void init_arg(const enum rarg base) {
 553:src/keys.c    **** 	if (is_bad_cmdline())
 554:src/keys.c    **** 		return;
 555:src/keys.c    **** 	CmdBase = base;
 556:src/keys.c    **** 	State2.ind = 0;
 557:src/keys.c    **** 	State2.digval = 0;
 558:src/keys.c    **** 	State2.numdigit = 0;
 559:src/keys.c    **** 	State2.rarg = 1;
 560:src/keys.c    **** 	State2.dot = 0;
 561:src/keys.c    **** 	State2.local = 0;
 562:src/keys.c    **** 	State2.shuffle = (base == RARG_SHUFFLE);
 563:src/keys.c    **** }
 564:src/keys.c    **** 
 565:src/keys.c    **** static void init_cat(enum catalogues cat) {
 566:src/keys.c    **** 	if (cat == CATALOGUE_NONE && State2.catalogue != CATALOGUE_NONE) {
 567:src/keys.c    **** 		// Save last catalogue for a later restore
 568:src/keys.c    **** 		State.last_cat = State2.catalogue;
 569:src/keys.c    **** 		CmdLineLength = 0;
 570:src/keys.c    **** 	}
 571:src/keys.c    **** 	process_cmdline();
 572:src/keys.c    **** 
 573:src/keys.c    **** 	State2.labellist = 0;
 574:src/keys.c    **** 	State2.registerlist = 0;
 575:src/keys.c    **** 	State2.status = 0;
 576:src/keys.c    **** 	State2.catalogue = CATALOGUE_NONE;
 577:src/keys.c    **** 
 578:src/keys.c    **** 	switch (cat) {
 579:src/keys.c    **** 	case CATALOGUE_LABELS:
 580:src/keys.c    **** 		// Label browser
 581:src/keys.c    **** 		State2.labellist = 1;
 582:src/keys.c    **** 		State2.digval = advance_to_next_label(ProgBegin, 0, 0);
 583:src/keys.c    **** 		break;
 584:src/keys.c    **** 	
 585:src/keys.c    **** 	case CATALOGUE_REGISTERS:
 586:src/keys.c    **** 		// Register browser
 587:src/keys.c    **** 		State2.registerlist = 1;
 588:src/keys.c    **** 		State2.digval = regX_idx;
 589:src/keys.c    **** 		State2.digval2 = 0;
 590:src/keys.c    **** 		break;
 591:src/keys.c    **** 
 592:src/keys.c    **** 	case CATALOGUE_STATUS:
 593:src/keys.c    **** 		// Flag browser
 594:src/keys.c    **** 		State2.status = 1;
 595:src/keys.c    **** 		break;
 596:src/keys.c    **** 
 597:src/keys.c    **** 	default:
 598:src/keys.c    **** 		// Normal catalogue
 599:src/keys.c    **** 		State2.catalogue = cat;
ARM GAS  /tmp/cceyv6gL.s 			page 12


 600:src/keys.c    **** 		State2.cmplx = (cat == CATALOGUE_COMPLEX || cat == CATALOGUE_COMPLEX_CONST);
 601:src/keys.c    **** 		if (cat != CATALOGUE_NONE && State.last_cat != cat) {
 602:src/keys.c    **** 			// Different catalogue, reset position
 603:src/keys.c    **** 			State.catpos = 0;
 604:src/keys.c    **** 		}
 605:src/keys.c    **** 	}
 606:src/keys.c    **** 	reset_shift();
 607:src/keys.c    **** #if defined(QTGUI) || defined(IOS)
 608:src/keys.c    **** 	changed_catalog_state();
 609:src/keys.c    **** #endif
 610:src/keys.c    **** }
 611:src/keys.c    **** 
 612:src/keys.c    **** /*
 613:src/keys.c    ****  *  Reset the internal state to a sane default
 614:src/keys.c    ****  */
 615:src/keys.c    **** void init_state(void) {
 616:src/keys.c    **** #ifndef REALBUILD
 617:src/keys.c    **** 	unsigned int a = State2.flags;
 618:src/keys.c    **** 	unsigned int b = State2.trace;
 619:src/keys.c    **** #else
 620:src/keys.c    **** 	FLAG t = TestFlag;
 621:src/keys.c    **** #endif
 622:src/keys.c    **** 	int v = Voltage;
 623:src/keys.c    **** 	int k = LastKey;
 624:src/keys.c    **** 
 625:src/keys.c    **** 	CmdBase = 0;
 626:src/keys.c    **** 	// Removed: will clear any locals on power off
 627:src/keys.c    **** 	// clrretstk(0);
 628:src/keys.c    **** 
 629:src/keys.c    **** 	xset(&State2, 0, sizeof(State2));
 630:src/keys.c    **** #ifdef INCLUDE_C_LOCK
 631:src/keys.c    **** 
 632:src/keys.c    **** #ifdef DEFAULT_TO_SSIZE8 							//JM3
 633:src/keys.c    **** 	INIT_8; 								//JM3
 634:src/keys.c    **** 	UState.stack_depth = 1; // set stack size to 8 	//JM3
 635:src/keys.c    **** #endif  									//JM3
 636:src/keys.c    **** 
 637:src/keys.c    **** #ifdef DEFAULT_DATE_YMD			//JM5
 638:src/keys.c    **** 	UState.date_mode = 1;		//JM5
 639:src/keys.c    **** #endif							//JM5
 640:src/keys.c    **** 
 641:src/keys.c    **** #ifdef DEFAULT_DATE_MDY			//JM5
 642:src/keys.c    **** 	UState.date_mode = 2;		//JM5
 643:src/keys.c    **** #endif							//JM5
 644:src/keys.c    **** 
 645:src/keys.c    **** #ifdef YREG_ON_BY_DEFAULT
 646:src/keys.c    **** 	UState.show_y = 1;
 647:src/keys.c    **** #endif
 648:src/keys.c    **** 
 649:src/keys.c    **** #ifdef DEFAULT_TO_J
 650:src/keys.c    **** 	SET_CPX_J;
 651:src/keys.c    **** #endif
 652:src/keys.c    **** 
 653:src/keys.c    **** #ifdef DEFAULT_TO_CPX_YES
 654:src/keys.c    **** 	cpx_nop(OP_CYES);
 655:src/keys.c    **** #endif
 656:src/keys.c    **** 
ARM GAS  /tmp/cceyv6gL.s 			page 13


 657:src/keys.c    **** #ifdef DEFAULT_TO_C_LOCK
 658:src/keys.c    **** 	cpx_nop(OP_CYES);
 659:src/keys.c    **** 	cpx_nop(OP_C_ON);
 660:src/keys.c    **** #endif
 661:src/keys.c    **** 
 662:src/keys.c    **** #ifdef ENTRY_RPN
 663:src/keys.c    **** 
 664:src/keys.c    **** #ifdef DEFAULT_TO_ENTRY_RPN
 665:src/keys.c    **** 	ENTRY_RPN_ON;
 666:src/keys.c    **** #else
 667:src/keys.c    **** 	ENTRY_RPN_OFF;
 668:src/keys.c    **** #endif
 669:src/keys.c    **** 
 670:src/keys.c    **** #endif
 671:src/keys.c    **** 	
 672:src/keys.c    **** #endif
 673:src/keys.c    **** 
 674:src/keys.c    **** 	State2.test = TST_NONE;
 675:src/keys.c    **** 	State2.runmode = 1;
 676:src/keys.c    **** 	update_program_bounds(1);
 677:src/keys.c    **** 	set_lift();
 678:src/keys.c    **** 
 679:src/keys.c    **** 	// Restore stuff that has been moved to State2 for space reasons
 680:src/keys.c    **** 	// but must not be cleared.
 681:src/keys.c    **** 	Voltage = v;
 682:src/keys.c    **** 	LastKey = k;
 683:src/keys.c    **** #ifndef REALBUILD
 684:src/keys.c    **** 	State2.trace = b;
 685:src/keys.c    **** 	State2.flags = a;
 686:src/keys.c    **** #else
 687:src/keys.c    **** 	TestFlag = t;
 688:src/keys.c    **** #endif
 689:src/keys.c    **** 	ShowRegister = regX_idx;
 690:src/keys.c    **** }
 691:src/keys.c    **** 
 692:src/keys.c    **** void soft_init_state(void) {
 693:src/keys.c    **** 	int soft;
 694:src/keys.c    **** 	unsigned int runmode;
 695:src/keys.c    **** 	unsigned int alphas;
 696:src/keys.c    **** 
 697:src/keys.c    **** 	if (CmdLineLength) {
 698:src/keys.c    **** 		CmdLineLength = 0;
 699:src/keys.c    **** 		CmdLineEex = 0;
 700:src/keys.c    **** 		CmdLineDot = 0;
 701:src/keys.c    **** 		return;
 702:src/keys.c    **** 	}
 703:src/keys.c    **** 	soft = State2.multi || State2.rarg || State2.hyp || State2.gtodot || State2.labellist ||
 704:src/keys.c    **** 			State2.cmplx || State2.arrow || State2.test != TST_NONE || State2.status;
 705:src/keys.c    **** 	runmode = State2.runmode;
 706:src/keys.c    **** 	alphas = State2.alphas;
 707:src/keys.c    **** 	init_state();
 708:src/keys.c    **** 	if (soft) {
 709:src/keys.c    **** 		State2.runmode = runmode;
 710:src/keys.c    **** 		State2.alphas = alphas;
 711:src/keys.c    **** 	}
 712:src/keys.c    **** }
 713:src/keys.c    **** 
ARM GAS  /tmp/cceyv6gL.s 			page 14


 714:src/keys.c    **** static int check_confirm(int op) {
 715:src/keys.c    **** 	if (opKIND(op) == KIND_NIL) {
 716:src/keys.c    **** 		const int nilop = argKIND(op);
 717:src/keys.c    **** 		if (nilop >= OP_CLALL && nilop <= OP_CLPALL) {
 718:src/keys.c    **** 			State2.confirm = confirm_clall + (nilop - OP_CLALL);
 719:src/keys.c    **** 			return STATE_UNFINISHED;
 720:src/keys.c    **** 		}
 721:src/keys.c    **** #ifndef DM42		
 722:src/keys.c    **** 		if ((nilop >= OP_RECV && nilop <= OP_PSTO)
 723:src/keys.c    **** #endif
 724:src/keys.c    **** #ifdef DM42
 725:src/keys.c    **** 		    if ((nilop >= OP_SAVE && nilop <= OP_PSTO) // no recv in DM42
 726:src/keys.c    **** #endif
 727:src/keys.c    **** #ifdef INFRARED
 728:src/keys.c    **** 			|| nilop == OP_PRINT_PGM
 729:src/keys.c    **** #endif
 730:src/keys.c    **** #ifdef INCLUDE_STOPWATCH
 731:src/keys.c    **** 			|| nilop == OP_STOPWATCH
 732:src/keys.c    **** #endif
 733:src/keys.c    **** 		) {
 734:src/keys.c    **** 			// These commands are not programmable
 735:src/keys.c    **** 			NonProgrammable = 1;
 736:src/keys.c    **** 		}
 737:src/keys.c    **** 	}
 738:src/keys.c    **** 	return op;
 739:src/keys.c    **** }
 740:src/keys.c    **** 
 741:src/keys.c    **** static void set_smode(const enum single_disp d) {
 742:src/keys.c    **** 	State2.smode = (State2.smode == d)?SDISP_NORMAL:d;
 743:src/keys.c    **** }
 744:src/keys.c    **** 
 745:src/keys.c    **** static int check_f_key(int n, const int dflt) {
 746:src/keys.c    **** 	const int code = 100 + n;
 747:src/keys.c    **** 	unsigned int pc = state_pc();
 748:src/keys.c    **** 
 749:src/keys.c    **** 	if (State2.runmode) {
 750:src/keys.c    **** 		if (isXROM(pc))
 751:src/keys.c    **** 			pc = 1;
 752:src/keys.c    **** 		if (find_label_from(pc, code, FIND_OP_ENDS))
 753:src/keys.c    **** 			return RARG(RARG_XEQ, code);
 754:src/keys.c    **** 	}
 755:src/keys.c    **** 	return dflt;
 756:src/keys.c    **** }
 757:src/keys.c    **** 
 758:src/keys.c    **** /* Return non-zero if the current mode is integer and we accept letters
 759:src/keys.c    ****  * as digits.
 760:src/keys.c    ****  */
 761:src/keys.c    **** static int intltr(int d) {
 762:src/keys.c    **** 	return (UState.intm && (! State2.runmode || (int) int_base() > d));
 763:src/keys.c    **** }
 764:src/keys.c    **** 
 765:src/keys.c    **** /*
 766:src/keys.c    ****  *  Process a key code in the unshifted mode.
 767:src/keys.c    ****  */
 768:src/keys.c    **** static int process_normal(const keycode c)
 769:src/keys.c    **** {
 770:src/keys.c    **** 	static const unsigned short int op_map[] = {
ARM GAS  /tmp/cceyv6gL.s 			page 15


 771:src/keys.c    **** 		// Row 1
 772:src/keys.c    **** 		OP_SPEC | OP_SIGMAPLUS, // A to D
 773:src/keys.c    **** 		OP_MON  | OP_RECIP,
 774:src/keys.c    **** 		OP_DYA  | OP_POW,
 775:src/keys.c    **** 		OP_MON  | OP_SQRT,
 776:src/keys.c    **** 		OP_SPEC | OP_E,		// ->
 777:src/keys.c    **** 		OP_SPEC | OP_F,		// CPX
 778:src/keys.c    **** 		// Row 2
 779:src/keys.c    **** 		RARG_STO,
 780:src/keys.c    **** 		RARG_RCL,
 781:src/keys.c    **** 		OP_NIL  | OP_RDOWN,
 782:src/keys.c    **** 		// Row 3
 783:src/keys.c    **** 		OP_SPEC | OP_ENTER,
 784:src/keys.c    **** 		RARG(RARG_SWAPX, regY_idx),
 785:src/keys.c    **** 		OP_SPEC | OP_CHS,	// CHS
 786:src/keys.c    **** 		OP_SPEC | OP_EEX,	// EEX
 787:src/keys.c    **** 		OP_SPEC | OP_CLX,	// <-
 788:src/keys.c    **** 		// Row 4
 789:src/keys.c    **** 		RARG_XEQ,
 790:src/keys.c    **** 		OP_SPEC | OP_7,
 791:src/keys.c    **** 		OP_SPEC | OP_8,
 792:src/keys.c    **** 		OP_SPEC | OP_9,
 793:src/keys.c    **** 		OP_DYA  | OP_DIV,
 794:src/keys.c    **** 		// Row 5
 795:src/keys.c    **** 		STATE_BST,
 796:src/keys.c    **** 		OP_SPEC | OP_4,
 797:src/keys.c    **** 		OP_SPEC | OP_5,
 798:src/keys.c    **** 		OP_SPEC | OP_6,
 799:src/keys.c    **** 		OP_DYA  | OP_MUL,
 800:src/keys.c    **** 		// Row 6
 801:src/keys.c    **** 		STATE_SST,		// SST
 802:src/keys.c    **** 		OP_SPEC | OP_1,
 803:src/keys.c    **** 		OP_SPEC | OP_2,
 804:src/keys.c    **** 		OP_SPEC | OP_3,
 805:src/keys.c    **** 		OP_DYA  | OP_SUB,
 806:src/keys.c    **** 		// Row 7
 807:src/keys.c    **** 		STATE_UNFINISHED,	// ON/C
 808:src/keys.c    **** 		OP_SPEC | OP_0,
 809:src/keys.c    **** 		OP_SPEC | OP_DOT,
 810:src/keys.c    **** 		OP_NIL  | OP_RS,	// R/S
 811:src/keys.c    **** 		OP_DYA  | OP_ADD,
 812:src/keys.c    **** #ifdef DM42
 813:src/keys.c    **** 		OP_NIL  | OP_NOP,  // shifts etc.
 814:src/keys.c    **** #endif
 815:src/keys.c    **** 	};
 816:src/keys.c    **** 
 817:src/keys.c    **** 	int lc = keycode_to_linear(c);
 818:src/keys.c    **** 	int op = op_map[lc];
 819:src/keys.c    **** 	
 820:src/keys.c    **** 	// The switch handles all the special cases
 821:src/keys.c    **** #ifdef DM42
 822:src/keys.c    **** 	int op_int;
 823:src/keys.c    **** 	if (UState.intm) {
 824:src/keys.c    **** 	  switch (c) {
 825:src/keys.c    **** 	  case K00:
 826:src/keys.c    **** 	    op = OP_SPEC | OP_A;
 827:src/keys.c    **** 	    if (intltr(10)) {
ARM GAS  /tmp/cceyv6gL.s 			page 16


 828:src/keys.c    **** 	      return op;
 829:src/keys.c    **** 	    }
 830:src/keys.c    **** 	    else {
 831:src/keys.c    **** 	      return check_f_key(0, op);
 832:src/keys.c    **** 	    }
 833:src/keys.c    **** 	  case K01:
 834:src/keys.c    **** 	    op = OP_SPEC | OP_B;
 835:src/keys.c    **** 	    if (intltr(11)) {
 836:src/keys.c    **** 	      return op;
 837:src/keys.c    **** 	    }
 838:src/keys.c    **** 	    else {
 839:src/keys.c    **** 	      return check_f_key(1, op);
 840:src/keys.c    **** 	    }
 841:src/keys.c    **** 	  case K03:
 842:src/keys.c    **** 	    op_int = OP_SPEC | OP_C;
 843:src/keys.c    **** 	    if (intltr(12)) {
 844:src/keys.c    **** 	      return op_int;
 845:src/keys.c    **** 	    }
 846:src/keys.c    **** 	    else {
 847:src/keys.c    **** 	      return check_f_key(2, op);
 848:src/keys.c    **** 	    }
 849:src/keys.c    **** 	  case K30:
 850:src/keys.c    **** 	    op_int = OP_SPEC | OP_F;
 851:src/keys.c    **** 	    if (intltr(15)) {
 852:src/keys.c    **** 	      return op_int;
 853:src/keys.c    **** 	    }
 854:src/keys.c    **** 	  default:;
 855:src/keys.c    **** 	  }
 856:src/keys.c    **** 	}
 857:src/keys.c    **** #endif  
 858:src/keys.c    **** 
 859:src/keys.c    **** 	switch (c) {
 860:src/keys.c    **** #ifdef DM42
 861:src/keys.c    **** 	case K00:
 862:src/keys.c    **** 		return check_f_key(0, op);
 863:src/keys.c    **** 	case K01:
 864:src/keys.c    **** 		return check_f_key(1, op);
 865:src/keys.c    **** 	case K03:
 866:src/keys.c    **** 		return check_f_key(2, op);
 867:src/keys.c    **** #else
 868:src/keys.c    **** 	case K00:
 869:src/keys.c    **** 	case K01:
 870:src/keys.c    **** 		if (UState.intm)
 871:src/keys.c    **** 			op = OP_SPEC | (OP_A + lc);
 872:src/keys.c    **** 	case K02:
 873:src/keys.c    **** 	case K03:
 874:src/keys.c    **** 		if (intltr(lc + 10)) {
 875:src/keys.c    **** 			op = OP_SPEC | (OP_A + lc);
 876:src/keys.c    **** 			return op;
 877:src/keys.c    **** 		}
 878:src/keys.c    **** 		return check_f_key(lc, op);
 879:src/keys.c    **** #endif		
 880:src/keys.c    **** 	case K_ARROW:
 881:src/keys.c    **** #ifndef DM42
 882:src/keys.c    **** #ifdef INT_MODE_TEMPVIEW
 883:src/keys.c    **** 		if (intltr(14))
 884:src/keys.c    **** 			return op;
ARM GAS  /tmp/cceyv6gL.s 			page 17


 885:src/keys.c    **** #else
 886:src/keys.c    **** 		if (UState.intm)
 887:src/keys.c    **** 			return op;
 888:src/keys.c    **** #endif
 889:src/keys.c    **** #endif		
 890:src/keys.c    **** 		if (is_bad_cmdline())
 891:src/keys.c    **** 			return STATE_UNFINISHED;
 892:src/keys.c    **** 		process_cmdline_set_lift();
 893:src/keys.c    **** 		State2.arrow = 1;
 894:src/keys.c    **** #ifdef DM42
 895:src/keys.c    **** 		set_menu (M_Arrow); // arrow menu
 896:src/keys.c    **** 		display_current_menu ();
 897:src/keys.c    **** 		lcd_refresh ();
 898:src/keys.c    **** #else
 899:src/keys.c    **** 		set_shift(SHIFT_G);
 900:src/keys.c    **** #endif
 901:src/keys.c    **** 		break;
 902:src/keys.c    **** 
 903:src/keys.c    **** 	case K_CMPLX:
 904:src/keys.c    **** #ifdef DM42
 905:src/keys.c    **** 	  if (UState.intm)
 906:src/keys.c    **** 	    break; // return nothing
 907:src/keys.c    **** 	  State2.cmplx = 1;
 908:src/keys.c    **** #else
 909:src/keys.c    **** 	  if (UState.intm)
 910:src/keys.c    **** 	    return op;
 911:src/keys.c    **** 	  State2.cmplx = 1;
 912:src/keys.c    **** #endif
 913:src/keys.c    **** 	  break;
 914:src/keys.c    **** 
 915:src/keys.c    **** 	case K24:				// <-
 916:src/keys.c    **** 		if (State2.disp_temp)
 917:src/keys.c    **** 			return STATE_UNFINISHED;
 918:src/keys.c    **** 		if (State2.runmode)
 919:src/keys.c    **** 			return op;
 920:src/keys.c    **** 		return STATE_BACKSPACE;
 921:src/keys.c    **** 
 922:src/keys.c    **** 	case K10:				// STO
 923:src/keys.c    **** 	case K11:				// RCL
 924:src/keys.c    **** 	case K30:				// XEQ
 925:src/keys.c    **** 		init_arg((enum rarg)op);
 926:src/keys.c    **** 		break;
 927:src/keys.c    **** 
 928:src/keys.c    **** 	default:
 929:src/keys.c    **** 		return op;			// Keys handled by table
 930:src/keys.c    **** 	}
 931:src/keys.c    **** 	return STATE_UNFINISHED;
 932:src/keys.c    **** }
 933:src/keys.c    **** 
 934:src/keys.c    **** 
 935:src/keys.c    **** /*
 936:src/keys.c    ****  *  Process a key code after f or g shift
 937:src/keys.c    ****  */
 938:src/keys.c    **** static int process_fg_shifted(const keycode c) {
 939:src/keys.c    **** 
 940:src/keys.c    **** #define NO_INT 0xf000
 941:src/keys.c    **** 	static const unsigned short int op_map[][2] = {
ARM GAS  /tmp/cceyv6gL.s 			page 18


 942:src/keys.c    **** 		// Row 1
 943:src/keys.c    **** 		{ 1,                               0                           }, // HYP
 944:src/keys.c    **** 		{ OP_MON | OP_SIN      | NO_INT,   OP_MON | OP_ASIN   | NO_INT },
 945:src/keys.c    **** 		{ OP_MON | OP_COS      | NO_INT,   OP_MON | OP_ACOS   | NO_INT },
 946:src/keys.c    **** 		{ OP_MON | OP_TAN      | NO_INT,   OP_MON | OP_ATAN   | NO_INT },
 947:src/keys.c    **** 		{ OP_NIL | OP_P2R      | NO_INT,   OP_NIL | OP_R2P    | NO_INT },
 948:src/keys.c    **** 		{ OP_NIL | OP_FRACPROPER,	   OP_NIL | OP_FRACIMPROPER    }, // CPX
 949:src/keys.c    **** 		// Row 2
 950:src/keys.c    **** 		{ OP_NIL | OP_HMS,                 OP_NIL | OP_DEG    | NO_INT },
 951:src/keys.c    **** 		{ OP_NIL | OP_FLOAT,               OP_NIL | OP_RAD    | NO_INT },
 952:src/keys.c    **** 		{ OP_NIL | OP_RANDOM,              OP_NIL | OP_GRAD   | NO_INT },
 953:src/keys.c    **** 		// Row 3
 954:src/keys.c    **** 		{ STATE_UNFINISHED,		   OP_NIL | OP_FILL            }, // ENTER
 955:src/keys.c    **** 		{ STATE_WINDOWLEFT,   		   STATE_WINDOWRIGHT   	       },
 956:src/keys.c    **** 		{ RARG(RARG_BASE, 2),		   RARG(RARG_BASE, 8)          },
 957:src/keys.c    **** 		{ RARG(RARG_BASE, 10),		   RARG(RARG_BASE, 16)         },
 958:src/keys.c    **** 		{ OP_NIL | OP_CLPROG,		   OP_NIL | OP_SIGMACLEAR      },
 959:src/keys.c    **** 		// Row 4
 960:src/keys.c    **** 		{ OP_MON | OP_EXP,                 OP_MON | OP_LN              },
 961:src/keys.c    **** 		{ OP_MON | OP_10POWX,		   OP_MON | OP_LOG             },
 962:src/keys.c    **** 		{ OP_MON | OP_2POWX,		   OP_MON | OP_LG2             },
 963:src/keys.c    **** 		{ OP_DYA | OP_POW,                 OP_DYA | OP_LOGXY           },
 964:src/keys.c    **** 		{ OP_MON | OP_RECIP    | NO_INT,   OP_DYA | OP_PARAL	       },
 965:src/keys.c    **** 		// Row 5
 966:src/keys.c    **** 		{ OP_DYA | OP_COMB,                OP_DYA | OP_PERM            },
 967:src/keys.c    **** 		{ OP_MON | OP_cdf_Q    | NO_INT,   OP_MON | OP_qf_Q   | NO_INT },
 968:src/keys.c    **** 		{ OP_NIL | OP_statMEAN | NO_INT,   OP_NIL | OP_statS  | NO_INT },
 969:src/keys.c    **** 		{ OP_MON | OP_yhat     | NO_INT,   OP_NIL | OP_statR  | NO_INT },
 970:src/keys.c    **** 		{ OP_MON | OP_SQRT,		   OP_MON | OP_SQR             },
 971:src/keys.c    **** 		// Row 6
 972:src/keys.c    **** 		{ RARG_SF,                         RARG_CF                     },
 973:src/keys.c    **** 		{ TST_EQ,                          TST_NE                      }, // tests
 974:src/keys.c    **** 		{ RARG_SOLVE           | NO_INT,   RARG_INTG          | NO_INT },
 975:src/keys.c    **** 		{ RARG_PROD            | NO_INT,   RARG_SUM           | NO_INT },
 976:src/keys.c    **** 		{ OP_MON | OP_PERCNT   | NO_INT,   OP_MON | OP_PERCHG | NO_INT },
 977:src/keys.c    **** 		// Row 7
 978:src/keys.c    **** #ifdef INFRARED
 979:src/keys.c    **** 		{ RARG(RARG_PRINT_REG,regX_idx),   STATE_UNFINISHED	       },
 980:src/keys.c    **** #else
 981:src/keys.c    **** 		{ STATE_UNFINISHED,		   STATE_UNFINISHED	       },
 982:src/keys.c    **** #endif
 983:src/keys.c    **** 		{ OP_MON | OP_ABS,		   OP_MON | OP_RND             },
 984:src/keys.c    **** 		{ OP_MON | OP_TRUNC,		   OP_MON | OP_FRAC            },
 985:src/keys.c    **** 		{ RARG_LBL,			   OP_NIL | OP_RTN             },
 986:src/keys.c    **** 		{ RARG_DSE,			   RARG_ISG                    },
 987:src/keys.c    **** #ifdef DM42
 988:src/keys.c    **** 		{ OP_NIL | OP_NOP,		   OP_NIL |OP_NOP              },
 989:src/keys.c    **** #endif
 990:src/keys.c    **** 	};
 991:src/keys.c    **** 
 992:src/keys.c    **** 	static const unsigned short int op_map2[] = {
 993:src/keys.c    **** 		STATE_UNFINISHED,
 994:src/keys.c    **** 		STATE_UNFINISHED,
 995:src/keys.c    **** 		OP_DYA  | OP_POW,
 996:src/keys.c    **** 		OP_MON  | OP_SQRT
 997:src/keys.c    **** 	};
 998:src/keys.c    **** 
ARM GAS  /tmp/cceyv6gL.s 			page 19


 999:src/keys.c    **** 	enum shifts shift = reset_shift();
1000:src/keys.c    **** 	int lc = keycode_to_linear(c);
1001:src/keys.c    **** 	int op = op_map[lc][shift == SHIFT_G];
1002:src/keys.c    **** 	int no_int = ((op & NO_INT) == NO_INT);
1003:src/keys.c    **** 	if (no_int)
1004:src/keys.c    **** 		op &= ~NO_INT;
1005:src/keys.c    **** 
1006:src/keys.c    **** 	switch (c) {
1007:src/keys.c    **** 	case K00:
1008:src/keys.c    **** 	  if (! UState.intm) {
1009:src/keys.c    **** 	    //	    print_debug(100,0);
1010:src/keys.c    **** 	    State2.hyp = 1;
1011:src/keys.c    **** 	    State2.dot = op;
1012:src/keys.c    **** 	    // State2.cmplx = 0;
1013:src/keys.c    **** 	    return STATE_UNFINISHED;
1014:src/keys.c    **** 	  }
1015:src/keys.c    **** 	  // fall through
1016:src/keys.c    **** 	case K01:
1017:src/keys.c    **** #ifdef DM42
1018:src/keys.c    **** 	  if (UState.intm && shift == SHIFT_F) {
1019:src/keys.c    **** 	    return check_f_key(lc, op_map2[lc]);
1020:src/keys.c    **** 	  }
1021:src/keys.c    **** 	  break;
1022:src/keys.c    **** #endif
1023:src/keys.c    **** #ifndef DM42
1024:src/keys.c    **** 	case K02:
1025:src/keys.c    **** #endif
1026:src/keys.c    **** 	case K03:
1027:src/keys.c    **** #ifdef DM42
1028:src/keys.c    **** 	  if (UState.intm && shift == SHIFT_F) {
1029:src/keys.c    **** 			return check_f_key(lc, op_map2[lc]);
1030:src/keys.c    **** 		}
1031:src/keys.c    **** 		break;
1032:src/keys.c    **** #else
1033:src/keys.c    **** 	  if (UState.intm && shift == SHIFT_F) {
1034:src/keys.c    **** 			return check_f_key(2, op_map2[lc]);
1035:src/keys.c    **** 		}
1036:src/keys.c    **** 		break;
1037:src/keys.c    **** #endif
1038:src/keys.c    **** 	case K20:				// Alpha
1039:src/keys.c    **** 		if (shift == SHIFT_F) {
1040:src/keys.c    **** 			if (is_bad_cmdline())
1041:src/keys.c    **** 				return STATE_UNFINISHED;
1042:src/keys.c    **** 			process_cmdline_set_lift();
1043:src/keys.c    **** 			State2.alphas = 1;
1044:src/keys.c    **** #ifdef DM42
1045:src/keys.c    **** 			set_menu(M_Alpha);
1046:src/keys.c    **** 			display_current_menu();
1047:src/keys.c    **** #endif
1048:src/keys.c    **** 		}
1049:src/keys.c    **** 		break;
1050:src/keys.c    **** #ifdef DM42
1051:src/keys.c    **** 	case K31:
1052:src/keys.c    **** 	  if ((shift == SHIFT_G) && UState.intm && intltr(13)) {// Log - so D key
1053:src/keys.c    **** 	    return OP_SPEC | OP_D;
1054:src/keys.c    **** 	  }
1055:src/keys.c    **** 	  break;
ARM GAS  /tmp/cceyv6gL.s 			page 20


1056:src/keys.c    **** 	case K30:
1057:src/keys.c    **** 	  if ((shift == SHIFT_G) && UState.intm && intltr(14)) {// Ln - so E key
1058:src/keys.c    **** 	    return OP_SPEC | OP_E;
1059:src/keys.c    **** 	  }
1060:src/keys.c    **** 	  break;
1061:src/keys.c    **** #endif
1062:src/keys.c    **** 	case K51:
1063:src/keys.c    **** 		if (is_bad_cmdline())
1064:src/keys.c    **** 			return STATE_UNFINISHED;
1065:src/keys.c    **** 		process_cmdline_set_lift();
1066:src/keys.c    **** 		State2.test = op;
1067:src/keys.c    **** 		return STATE_UNFINISHED;
1068:src/keys.c    **** 
1069:src/keys.c    **** 	case K50:
1070:src/keys.c    **** #ifndef REALBUILD
1071:src/keys.c    **** 		if (SHIFT_N != shift_down()) {
1072:src/keys.c    **** 			State2.trace = (shift == SHIFT_F);
1073:src/keys.c    **** 			return STATE_UNFINISHED;
1074:src/keys.c    **** 		}
1075:src/keys.c    **** #endif
1076:src/keys.c    **** 	case K52:
1077:src/keys.c    **** 	case K53:
1078:src/keys.c    **** 	case K63:
1079:src/keys.c    **** 	case K64:
1080:src/keys.c    **** 		if (op != (OP_NIL | OP_RTN)) {
1081:src/keys.c    **** 			if (! (no_int && UState.intm)) {
1082:src/keys.c    **** 				init_arg((enum rarg) op);
1083:src/keys.c    **** 			}
1084:src/keys.c    **** 			return STATE_UNFINISHED;
1085:src/keys.c    **** 		}
1086:src/keys.c    **** 		break;
1087:src/keys.c    **** 
1088:src/keys.c    **** 	default:
1089:src/keys.c    **** 		break;
1090:src/keys.c    **** 	}
1091:src/keys.c    **** 	if (no_int && UState.intm)
1092:src/keys.c    **** 		return STATE_UNFINISHED;
1093:src/keys.c    **** 
1094:src/keys.c    **** 	return check_confirm(op);
1095:src/keys.c    **** #undef NO_INT
1096:src/keys.c    **** }
1097:src/keys.c    **** 
1098:src/keys.c    **** /*
1099:src/keys.c    ****  *  Process a key code after h shift
1100:src/keys.c    ****  */
1101:src/keys.c    **** static int process_h_shifted(const keycode c) {
1102:src/keys.c    **** #define _RARG    0x8000	// Must not interfere with existing opcode markers
1103:src/keys.c    **** #define NO_INT   0x4000
1104:src/keys.c    **** 	static const unsigned short int op_map[] = {
1105:src/keys.c    **** 		// Row 1
1106:src/keys.c    **** 		_RARG   | RARG_STD,
1107:src/keys.c    **** 		_RARG   | RARG_FIX,
1108:src/keys.c    **** 		_RARG   | RARG_SCI,
1109:src/keys.c    **** 		_RARG   | RARG_ENG,
1110:src/keys.c    **** 		STATE_UNFINISHED,	// CONV
1111:src/keys.c    **** 		STATE_UNFINISHED,	// MODE
1112:src/keys.c    **** 		// Row 2
ARM GAS  /tmp/cceyv6gL.s 			page 21


1113:src/keys.c    **** 		STATE_UNFINISHED,	// CAT
1114:src/keys.c    **** 		_RARG   | RARG_VIEW,
1115:src/keys.c    **** 		OP_NIL  | OP_RUP,
1116:src/keys.c    **** 		// Row 3
1117:src/keys.c    **** 		_RARG	| RARG_INTNUM,	// CONST, will be emitted in integer mode only
1118:src/keys.c    **** 		_RARG   | RARG_SWAPX,
1119:src/keys.c    **** 		OP_MON  | OP_NOT,
1120:src/keys.c    **** 		CONST(OP_PI) | NO_INT,
1121:src/keys.c    **** 		OP_NIL  | OP_rCLX,
1122:src/keys.c    **** 		// Row 4
1123:src/keys.c    **** 		_RARG   | RARG_GTO,
1124:src/keys.c    **** 		OP_DYA  | OP_LAND,
1125:src/keys.c    **** 		OP_DYA  | OP_LOR,
1126:src/keys.c    **** 		OP_DYA  | OP_LXOR,
1127:src/keys.c    **** 		OP_DYA  | OP_MOD,
1128:src/keys.c    **** 		// Row 5
1129:src/keys.c    **** 		OP_MON  | OP_FACT,
1130:src/keys.c    **** 		STATE_UNFINISHED,	// PROB
1131:src/keys.c    **** 		STATE_UNFINISHED,	// STAT
1132:src/keys.c    **** 		STATE_UNFINISHED,	// CFIT
1133:src/keys.c    **** 		STATE_UNFINISHED,	// MATRIX
1134:src/keys.c    **** 		// Row 6
1135:src/keys.c    **** 		STATE_UNFINISHED,	// STATUS
1136:src/keys.c    **** 		STATE_UNFINISHED,	// TEST
1137:src/keys.c    **** 		STATE_UNFINISHED,	// P.FCN
1138:src/keys.c    **** 		STATE_UNFINISHED,	// X.FCN
1139:src/keys.c    **** 		OP_SPEC | OP_SIGMAMINUS | NO_INT,
1140:src/keys.c    **** 		// Row 7
1141:src/keys.c    **** 		OP_NIL | OP_OFF,
1142:src/keys.c    **** 		_RARG   | RARG_PAUSE,
1143:src/keys.c    **** #ifdef MODIFY_K62_E3_SWITCH
1144:src/keys.c    **** 		OP_NIL  | OP_THOUS_OFF,
1145:src/keys.c    **** #else
1146:src/keys.c    ****  		OP_NIL  | OP_RADCOM,
1147:src/keys.c    **** #endif
1148:src/keys.c    **** 		STATE_UNFINISHED,	// P/R
1149:src/keys.c    **** 		OP_SPEC | OP_SIGMAPLUS | NO_INT,
1150:src/keys.c    **** #ifdef DM42
1151:src/keys.c    **** 		OP_NIL | OP_NOP,       // shifts etc.
1152:src/keys.c    **** #endif
1153:src/keys.c    **** 	};
1154:src/keys.c    **** 
1155:src/keys.c    **** 	int lc = keycode_to_linear(c);
1156:src/keys.c    **** 	int op = op_map[lc];
1157:src/keys.c    **** 	reset_shift();
1158:src/keys.c    **** 
1159:src/keys.c    **** 	// The switch handles all the special cases
1160:src/keys.c    **** 	switch (c) {
1161:src/keys.c    **** 	case K62:
1162:src/keys.c    **** 		if (UState.intm)
1163:src/keys.c    **** 			op = UState.nointseparator ? (OP_NIL | OP_INTSEP_ON) : (OP_NIL | OP_INTSEP_OFF);
1164:src/keys.c    **** 		else
1165:src/keys.c    **** #ifdef MODIFY_K62_E3_SWITCH
1166:src/keys.c    **** 			if (UState.nothousands) op = OP_NIL | OP_THOUS_ON;
1167:src/keys.c    **** #else
1168:src/keys.c    **** 			if (UState.fraccomma) op = OP_NIL | OP_RADDOT;
1169:src/keys.c    **** #endif
ARM GAS  /tmp/cceyv6gL.s 			page 22


1170:src/keys.c    **** 		break;
1171:src/keys.c    **** 
1172:src/keys.c    **** 	case K63:					// Program<->Run mode
1173:src/keys.c    **** 		if (is_bad_cmdline())
1174:src/keys.c    **** 			return STATE_UNFINISHED;
1175:src/keys.c    **** 		State2.runmode = 1 - State2.runmode;
1176:src/keys.c    **** 		process_cmdline_set_lift();
1177:src/keys.c    **** 		update_program_bounds(1);
1178:src/keys.c    **** 		if (! State2.runmode && state_pc() == 1 && ProgEnd == 1)
1179:src/keys.c    **** 			set_pc(0);
1180:src/keys.c    **** 		break;
1181:src/keys.c    **** 
1182:src/keys.c    **** 	default:
1183:src/keys.c    **** 		break;
1184:src/keys.c    **** 	}
1185:src/keys.c    **** 
1186:src/keys.c    **** 	if (op != STATE_UNFINISHED) {
1187:src/keys.c    **** 		if (op & _RARG) {
1188:src/keys.c    **** 			init_arg((enum rarg) (op & ~(_RARG | NO_INT)));
1189:src/keys.c    **** 			op = STATE_UNFINISHED;
1190:src/keys.c    **** 		}
1191:src/keys.c    **** 	}
1192:src/keys.c    **** 	return UState.intm && (op & NO_INT) ? STATE_UNFINISHED : op & ~NO_INT;
1193:src/keys.c    **** #undef _RARG
1194:src/keys.c    **** #undef NO_INT
1195:src/keys.c    **** }
1196:src/keys.c    **** #ifdef INCLUDE_C_LOCK
1197:src/keys.c    **** 
1198:src/keys.c    **** // Big section here - lots of functions that help with processing keys in complex lock mode
1199:src/keys.c    **** 
1200:src/keys.c    **** static void do_command_line ( void ) {
1201:src/keys.c    **** 	if (CmdLineLength) {
1202:src/keys.c    **** 		State2.state_lift = 0;
1203:src/keys.c    **** 		process_cmdline();
1204:src/keys.c    **** 	}
1205:src/keys.c    **** }
1206:src/keys.c    **** 
1207:src/keys.c    **** void finish_cpx_entry ( int lift ) {
1208:src/keys.c    **** // called to terminate digit entry before calling a function; an extended version of process_cmdlin
1209:src/keys.c    **** // The argument sets the lift state after entry is finished.
1210:src/keys.c    **** // It also converts entered polar form into rectangular coordinates, if needed.
1211:src/keys.c    **** // Note: does nothing to stack or lift state if number not being entered.
1212:src/keys.c    **** 	if ( !( REAL_FLAG || IMAG_FLAG ) ) return;
1213:src/keys.c    **** 
1214:src/keys.c    **** /*	if (REAL_FLAG) { // real part being entered
1215:src/keys.c    **** 		CLEAR_REAL;
1216:src/keys.c    **** 		do_command_line();
1217:src/keys.c    **** 	}
1218:src/keys.c    **** 	else if (IMAG_FLAG) {
1219:src/keys.c    **** 		CLEAR_IMAG;
1220:src/keys.c    **** 		do_command_line();
1221:src/keys.c    **** 		swap_reg(get_reg_n(regX_idx), get_reg_n(regY_idx));
1222:src/keys.c    **** 	}
1223:src/keys.c    **** */
1224:src/keys.c    **** 	do_command_line();
1225:src/keys.c    **** 	if (IMAG_FLAG) swap_reg(get_reg_n(regX_idx), get_reg_n(regY_idx));
1226:src/keys.c    **** 	CLEAR_REAL;
ARM GAS  /tmp/cceyv6gL.s 			page 23


1227:src/keys.c    **** 	CLEAR_IMAG;
1228:src/keys.c    **** 
1229:src/keys.c    **** 	State2.state_lift = lift;
1230:src/keys.c    **** 
1231:src/keys.c    **** 	if ( POLAR_DISPLAY && POLAR_FORM_NOT_READY ) {
1232:src/keys.c    **** 		//copy x, y into j, k - now contain polar form
1233:src/keys.c    **** 		copyreg (get_reg_n(regJ_idx), get_reg_n(regX_idx));
1234:src/keys.c    **** 		copyreg (get_reg_n(regK_idx), get_reg_n(regY_idx));
1235:src/keys.c    **** 		//call p2r
1236:src/keys.c    **** 		update_speed(0);
1237:src/keys.c    **** 		op_p2r(OP_NOP); // x, y now contain rectangular form
1238:src/keys.c    **** #ifdef RP_PREFIX
1239:src/keys.c    **** 		RectPolConv = 1; // stop "y" display
1240:src/keys.c    **** #endif
1241:src/keys.c    **** 		SET_POLAR_READY;
1242:src/keys.c    **** 	}
1243:src/keys.c    **** }
1244:src/keys.c    **** 
1245:src/keys.c    **** static void stack_restore ( void ) { 
1246:src/keys.c    **** 	// called if number entry terminated by EXIT key
1247:src/keys.c    **** 	// uses J and K registers to store the two stack registers displaced by the new entry
1248:src/keys.c    **** 	// tried declaring some static variables to hold the numbers but didn't work on real calculator
1249:src/keys.c    **** 	if ( !REAL_FLAG && !IMAG_FLAG  ) return; // number entry already over; no restore
1250:src/keys.c    **** 	if ( INIT_LIFT ) { // C, D gone off the top
1251:src/keys.c    **** 		drop ( OP_DROPXY );
1252:src/keys.c    **** 		copyreg (get_reg_n(regC_idx), get_reg_n(regJ_idx));
1253:src/keys.c    **** 		copyreg (get_reg_n(regD_idx), get_reg_n(regK_idx));
1254:src/keys.c    **** 	}
1255:src/keys.c    **** 	else { // X, Y have been overwritten
1256:src/keys.c    **** 		copyreg (get_reg_n(regX_idx), get_reg_n(regJ_idx));
1257:src/keys.c    **** 		copyreg (get_reg_n(regY_idx), get_reg_n(regK_idx));
1258:src/keys.c    **** 	}
1259:src/keys.c    **** 	State2.state_lift = INIT_LIFT; // restore lift status too
1260:src/keys.c    **** 	CLEAR_INIT_LIFT;
1261:src/keys.c    **** 	CLEAR_POLAR_READY;
1262:src/keys.c    **** }
1263:src/keys.c    **** 
1264:src/keys.c    **** void stack_begin ( int zero_y ) { 
1265:src/keys.c    **** 	// Lifts stack if required and stores displaced registers; 
1266:src/keys.c    **** 	// zeros y if requested. 
1267:src/keys.c    **** 	CLEAR_POLAR_READY;
1268:src/keys.c    **** 	if ( State2.state_lift ){
1269:src/keys.c    **** 		SET_INIT_LIFT;
1270:src/keys.c    **** 		copyreg (get_reg_n(regJ_idx), get_reg_n(regC_idx));
1271:src/keys.c    **** 		copyreg (get_reg_n(regK_idx), get_reg_n(regD_idx));
1272:src/keys.c    **** 		lift();
1273:src/keys.c    **** 		zero_X();
1274:src/keys.c    **** 		lift();
1275:src/keys.c    **** 		State2.state_lift = 0;
1276:src/keys.c    **** 	}
1277:src/keys.c    **** 	else {
1278:src/keys.c    **** 		CLEAR_INIT_LIFT;
1279:src/keys.c    **** 		copyreg (get_reg_n(regJ_idx), get_reg_n(regX_idx));
1280:src/keys.c    **** 		copyreg (get_reg_n(regK_idx), get_reg_n(regY_idx));
1281:src/keys.c    **** 		zero_X();
1282:src/keys.c    **** 		if ( zero_y ) zero_Y();
1283:src/keys.c    **** 	}
ARM GAS  /tmp/cceyv6gL.s 			page 24


1284:src/keys.c    **** }
1285:src/keys.c    **** 
1286:src/keys.c    ****  static int process_c_lock ( const keycode c ) { // main function - called from process (c) functio
1287:src/keys.c    **** 
1288:src/keys.c    ****    enum shifts shift = cur_shift();
1289:src/keys.c    **** 
1290:src/keys.c    ****    // Individual keys needing special treatment
1291:src/keys.c    **** 
1292:src/keys.c    ****    if ( (c < K05) && shift == SHIFT_H ){ // display modes
1293:src/keys.c    ****      return process_h_shifted (c);
1294:src/keys.c    ****    }
1295:src/keys.c    **** 
1296:src/keys.c    **** 
1297:src/keys.c    ****    if ( (shift == SHIFT_G) && (c >= K10) && (c <= K12) ) { // angle mode change; needed because oth
1298:src/keys.c    ****      convert_regK ((enum trig_modes) (c-K10));
1299:src/keys.c    ****    }
1300:src/keys.c    ****    if ( (c >= K05) && (c <= K12) && (shift == SHIFT_F || shift == SHIFT_G) ) { // Deg, rad, grad, H
1301:src/keys.c    ****      return process_fg_shifted (c);
1302:src/keys.c    ****    }
1303:src/keys.c    **** 
1304:src/keys.c    ****    if (c==K23) { // pi key - needs to be separate from what follows as it doesn't want entry comple
1305:src/keys.c    ****      if (shift == SHIFT_F) { // special pi processing
1306:src/keys.c    ****        reset_shift();
1307:src/keys.c    ****        if ( CmdLineLength ) {
1308:src/keys.c    **** 	 State2.state_lift = 0;
1309:src/keys.c    **** 	 return OP_NIL | OP_PIB;
1310:src/keys.c    ****        }
1311:src/keys.c    ****        else {
1312:src/keys.c    **** 	 return OP_NIL | OP_PIA;
1313:src/keys.c    ****        }
1314:src/keys.c    ****      }
1315:src/keys.c    ****      else {
1316:src/keys.c    **** #if INCLUDE_EEX_PI == 2
1317:src/keys.c    ****        const int eex_pi = 1;
1318:src/keys.c    **** #elif INCLUDE_EEX_PI == 1
1319:src/keys.c    ****        const int eex_pi = get_user_flag(regL_idx);
1320:src/keys.c    **** #else
1321:src/keys.c    ****        const int eex_pi = 0;
1322:src/keys.c    **** #endif
1323:src/keys.c    ****        if ( (shift == SHIFT_H) || (eex_pi && (shift == SHIFT_N) && CmdLineLength == 0) ) { // norma
1324:src/keys.c    **** 	 finish_cpx_entry(1);
1325:src/keys.c    **** 	 return process_cmplx(c);
1326:src/keys.c    ****        }
1327:src/keys.c    ****      }
1328:src/keys.c    ****    }
1329:src/keys.c    **** 
1330:src/keys.c    ****    if (shift != SHIFT_N) { // other shifted keys - special cases first.
1331:src/keys.c    ****      finish_cpx_entry(0); // finish entry for all of them - no lift
1332:src/keys.c    ****      switch (c) {
1333:src/keys.c    ****      case (K60):
1334:src/keys.c    ****        reset_shift();
1335:src/keys.c    ****        if (shift == SHIFT_H) return (OP_NIL | OP_OFF);
1336:src/keys.c    ****      case (K21): // x<->y key
1337:src/keys.c    ****        if (shift == SHIFT_F || shift == SHIFT_G) { // exchanges real and imag parts with either shi
1338:src/keys.c    **** 	 reset_shift();
1339:src/keys.c    **** 	 CLEAR_POLAR_READY;
1340:src/keys.c    **** 	 return RARG(RARG_SWAPX, regY_idx);
ARM GAS  /tmp/cceyv6gL.s 			page 25


1341:src/keys.c    ****        }
1342:src/keys.c    ****        else if (shift == SHIFT_H) {
1343:src/keys.c    **** 	 return process_cmplx(c); // complex exchange of (x,y) with register
1344:src/keys.c    ****        }
1345:src/keys.c    ****        break;
1346:src/keys.c    ****      case (K40): // up-arrow key
1347:src/keys.c    ****        if (shift == SHIFT_F) {
1348:src/keys.c    **** 	 SET_RECTANGULAR_DISPLAY;
1349:src/keys.c    ****        }
1350:src/keys.c    ****        else if (shift == SHIFT_G) {
1351:src/keys.c    **** 	 SET_POLAR_DISPLAY;
1352:src/keys.c    **** 	 CLEAR_POLAR_READY;
1353:src/keys.c    **** 	 update_speed(0); // new polar display calculated from keyboard needs a speed boost
1354:src/keys.c    ****        }
1355:src/keys.c    ****        else if (shift == SHIFT_H) { // ND addition on DM42 - should work on ordinary calculator too
1356:src/keys.c    **** 	 return process_cmplx (c);
1357:src/keys.c    ****        }
1358:src/keys.c    ****        break;
1359:src/keys.c    ****      case (K22): // +/- key
1360:src/keys.c    ****        reset_shift();
1361:src/keys.c    ****        if (shift == SHIFT_F ) {
1362:src/keys.c    **** 	 return OP_NIL | OP_C_MIM;
1363:src/keys.c    ****        }
1364:src/keys.c    ****        else if (shift == SHIFT_H) {
1365:src/keys.c    **** 	 return OP_NIL | OP_C_MRE;
1366:src/keys.c    ****        }
1367:src/keys.c    ****        break;
1368:src/keys.c    ****      case (K62): // IP/FP key
1369:src/keys.c    ****        reset_shift();
1370:src/keys.c    ****        if (shift == SHIFT_F) {
1371:src/keys.c    **** 	 return OP_NIL | OP_C_IM;
1372:src/keys.c    ****        }
1373:src/keys.c    ****        else if (shift == SHIFT_G) {
1374:src/keys.c    **** 	 return OP_NIL | OP_C_RE;
1375:src/keys.c    ****        }
1376:src/keys.c    ****        break;
1377:src/keys.c    ****      case (K44): // x (times) key
1378:src/keys.c    ****        if (shift == SHIFT_H) { // real*real + i imag*imag
1379:src/keys.c    **** 	 reset_shift();
1380:src/keys.c    **** 	 return OP_CDYA | OP_CDOT;
1381:src/keys.c    ****        }
1382:src/keys.c    ****        else {
1383:src/keys.c    **** 	 return process_cmplx(c);
1384:src/keys.c    ****        }
1385:src/keys.c    ****        break;
1386:src/keys.c    ****      case (K34): // divide key
1387:src/keys.c    ****        if (shift == SHIFT_H) { // real/real + i imag/imag
1388:src/keys.c    **** 	 reset_shift();
1389:src/keys.c    **** 	 return OP_CDYA | OP_CDOTDIV;
1390:src/keys.c    ****        }
1391:src/keys.c    ****        else {
1392:src/keys.c    **** 	 return process_cmplx(c);
1393:src/keys.c    ****        }
1394:src/keys.c    ****        break;
1395:src/keys.c    ****      case (K24): // <- key
1396:src/keys.c    ****        if (POLAR_DISPLAY) break;
1397:src/keys.c    ****        if (shift == SHIFT_H) { // adds the rather strange ability to delete and replace the real pa
ARM GAS  /tmp/cceyv6gL.s 			page 26


1398:src/keys.c    **** 	 zero_X ();
1399:src/keys.c    **** 	 State2.state_lift = 0;
1400:src/keys.c    **** 	 SET_REAL;
1401:src/keys.c    **** 	 stack_begin (0);
1402:src/keys.c    ****        }
1403:src/keys.c    ****        break;
1404:src/keys.c    ****      default:
1405:src/keys.c    ****        return process_cmplx(c); // for shifted keys not listed above
1406:src/keys.c    ****      }
1407:src/keys.c    ****      reset_shift(); // for the keys listed above; functions complete
1408:src/keys.c    ****      return STATE_UNFINISHED;
1409:src/keys.c    ****    }
1410:src/keys.c    **** 
1411:src/keys.c    ****    switch (c) { // non-shifted keys including numbers - in general, keys to be processed normally n
1412:src/keys.c    ****    case (K61):
1413:src/keys.c    ****    case (K62):
1414:src/keys.c    ****    case (K51):
1415:src/keys.c    ****    case (K52):
1416:src/keys.c    ****    case (K53):
1417:src/keys.c    ****    case (K41):
1418:src/keys.c    ****    case (K42):
1419:src/keys.c    ****    case (K43):
1420:src/keys.c    ****    case (K31):
1421:src/keys.c    ****    case (K32):
1422:src/keys.c    ****    case (K33):
1423:src/keys.c    ****    case (K23): // 0.123456789EEX
1424:src/keys.c    ****      if (!REAL_FLAG && !IMAG_FLAG) {
1425:src/keys.c    ****        SET_REAL; // start and continuation of real entry
1426:src/keys.c    ****        stack_begin (1);
1427:src/keys.c    ****      }
1428:src/keys.c    ****      return process_normal(c);
1429:src/keys.c    ****    case (K22): // CHS
1430:src/keys.c    ****      //	case (K23): // EEX
1431:src/keys.c    ****      if (!REAL_FLAG && !IMAG_FLAG) {
1432:src/keys.c    ****        return process_cmplx(c);
1433:src/keys.c    ****      }
1434:src/keys.c    ****      else {
1435:src/keys.c    ****        return process_normal(c);
1436:src/keys.c    ****      }
1437:src/keys.c    ****    case (K24): // backspace
1438:src/keys.c    ****    case (K04): // arrow
1439:src/keys.c    ****    case (K_ARROW):
1440:src/keys.c    ****      return process_normal(c);
1441:src/keys.c    ****    case (K_CMPLX):
1442:src/keys.c    ****      if (REAL_FLAG) { // Something - at least one digit - has been entered; real part now complete
1443:src/keys.c    ****        CLEAR_REAL;
1444:src/keys.c    ****        SET_IMAG;
1445:src/keys.c    ****        do_command_line();
1446:src/keys.c    ****        State2.state_lift = 0;
1447:src/keys.c    ****        swap_reg(get_reg_n(regX_idx), get_reg_n(regY_idx));
1448:src/keys.c    ****      }
1449:src/keys.c    ****      else if (IMAG_FLAG) { // finishing off imag part; nothing has necessarily been entered
1450:src/keys.c    ****        finish_cpx_entry (1);
1451:src/keys.c    ****      }
1452:src/keys.c    ****      else { // down here we need a part that deals with CPX being pressed without a real part being
1453:src/keys.c    ****        SET_IMAG;
1454:src/keys.c    ****        stack_begin (1);
ARM GAS  /tmp/cceyv6gL.s 			page 27


1455:src/keys.c    ****      }
1456:src/keys.c    ****      return STATE_UNFINISHED;
1457:src/keys.c    ****    default:;
1458:src/keys.c    ****    }
1459:src/keys.c    ****    finish_cpx_entry(0);
1460:src/keys.c    ****    return process_cmplx(c);
1461:src/keys.c    **** 
1462:src/keys.c    ****  }
1463:src/keys.c    **** 
1464:src/keys.c    **** #endif
1465:src/keys.c    **** 
1466:src/keys.c    **** /*
1467:src/keys.c    ****  *  Process a key code after CPX
1468:src/keys.c    ****  */
1469:src/keys.c    **** static int process_cmplx(const keycode c) {
1470:src/keys.c    **** #define _RARG   0xFF00
1471:src/keys.c    **** #define CSWAPXZ RARG(RARG_CSWAPX, regZ_idx)
1472:src/keys.c    **** #define CNUM(n) RARG(RARG_INTNUM_CMPLX, n)
1473:src/keys.c    **** 
1474:src/keys.c    **** 	static const unsigned short int op_map[][4] = {
1475:src/keys.c    **** 		// Row 1
1476:src/keys.c    **** 		{ 1,			1,                   0,                   0		      }, // HYP
1477:src/keys.c    **** 		{ OP_CMON | OP_RECIP,	OP_CMON | OP_SIN,    OP_CMON | OP_ASIN,   STATE_UNFINISHED    },
1478:src/keys.c    **** 		{ OP_CDYA | OP_POW,	OP_CMON | OP_COS,    OP_CMON | OP_ACOS,   STATE_UNFINISHED    },
1479:src/keys.c    **** 		{ OP_CMON | OP_SQRT,	OP_CMON | OP_TAN,    OP_CMON | OP_ATAN,   STATE_UNFINISHED    },
1480:src/keys.c    **** 		{ STATE_UNFINISHED,	OP_NIL | OP_P2R,     OP_NIL | OP_R2P,     STATE_UNFINISHED    },
1481:src/keys.c    **** 		{ STATE_UNFINISHED,	STATE_UNFINISHED,    STATE_UNFINISHED,    STATE_UNFINISHED    }, // CPX
1482:src/keys.c    **** 		// Row 2
1483:src/keys.c    **** 		{ _RARG | RARG_CSTO,	STATE_UNFINISHED,    STATE_UNFINISHED,    STATE_UNFINISHED    },
1484:src/keys.c    **** 		{ _RARG | RARG_CRCL,	STATE_UNFINISHED,    STATE_UNFINISHED,    _RARG | RARG_CVIEW  },
1485:src/keys.c    **** 		{ OP_NIL | OP_CRDOWN,	STATE_UNFINISHED,    STATE_UNFINISHED,    OP_NIL | OP_CRUP    }, // R^
1486:src/keys.c    **** 		// Row 3
1487:src/keys.c    **** 		{ OP_NIL | OP_CENTER,	STATE_UNFINISHED,    OP_NIL | OP_CFILL,   OP_NIL | OP_CFILL   }, // ENTER
1488:src/keys.c    **** 		{ CSWAPXZ,		STATE_UNFINISHED,    STATE_UNFINISHED,    _RARG | RARG_CSWAPX },
1489:src/keys.c    **** 		{ OP_CMON | OP_CCHS,	STATE_UNFINISHED,    STATE_UNFINISHED,    OP_CMON | OP_CCONJ  },
1490:src/keys.c    **** 		{ CONST_CMPLX(OP_PI),	STATE_UNFINISHED,    STATE_UNFINISHED,    CONST_CMPLX(OP_PI)  },
1491:src/keys.c    **** 		{ STATE_UNFINISHED,	STATE_UNFINISHED,    STATE_UNFINISHED,    STATE_UNFINISHED    },
1492:src/keys.c    **** 		// Row 4
1493:src/keys.c    **** 		{ STATE_UNFINISHED,	OP_CMON | OP_EXP,    OP_CMON | OP_LN,     STATE_UNFINISHED    },
1494:src/keys.c    **** 		{ CNUM(7),		OP_CMON | OP_10POWX, OP_CMON | OP_LOG,    STATE_UNFINISHED    },
1495:src/keys.c    **** 		{ CNUM(8),		OP_CMON | OP_2POWX,  OP_CMON | OP_LG2,    STATE_UNFINISHED    },
1496:src/keys.c    **** 		{ CNUM(9),		OP_CDYA | OP_POW,    OP_CDYA | OP_LOGXY,  STATE_UNFINISHED    },
1497:src/keys.c    **** 		{ OP_CDYA | OP_DIV,	OP_CMON | OP_RECIP,  OP_CDYA | OP_PARAL,  STATE_UNFINISHED    },
1498:src/keys.c    **** 		// Row 5
1499:src/keys.c    **** 		{ STATE_UNFINISHED,	OP_CDYA | OP_COMB,   OP_CDYA | OP_PERM,   OP_CMON | OP_FACT   },
1500:src/keys.c    **** 		{ CNUM(4),		STATE_UNFINISHED,    STATE_UNFINISHED,    STATE_UNFINISHED    },
1501:src/keys.c    **** 		{ CNUM(5),		STATE_UNFINISHED,    STATE_UNFINISHED,    STATE_UNFINISHED    },
1502:src/keys.c    **** 		{ CNUM(6),		STATE_UNFINISHED,    STATE_UNFINISHED,    STATE_UNFINISHED    },
1503:src/keys.c    **** 		{ OP_CDYA | OP_MUL,	OP_CMON | OP_SQRT,   OP_CMON | OP_SQR,    OP_CMON | OP_SQR    },
1504:src/keys.c    **** 		// Row 6
1505:src/keys.c    **** 		{ STATE_UNFINISHED,	STATE_UNFINISHED,    STATE_UNFINISHED,    STATE_UNFINISHED    },
1506:src/keys.c    **** 		{ CNUM(1),		TST_EQ,              TST_NE,              STATE_UNFINISHED    }, // tests
1507:src/keys.c    **** 		{ CNUM(2),		STATE_UNFINISHED,    STATE_UNFINISHED,    STATE_UNFINISHED    },
1508:src/keys.c    **** 		{ CNUM(3),		STATE_UNFINISHED,    STATE_UNFINISHED,    STATE_UNFINISHED    },
1509:src/keys.c    **** 		{ OP_CDYA | OP_SUB,	STATE_UNFINISHED,    STATE_UNFINISHED,    STATE_UNFINISHED    },
1510:src/keys.c    **** 		// Row 7
1511:src/keys.c    **** 		{ STATE_UNFINISHED,	STATE_UNFINISHED,    STATE_UNFINISHED,    OP_NIL | OP_OFF     },
ARM GAS  /tmp/cceyv6gL.s 			page 28


1512:src/keys.c    **** 		{ CNUM(0),		OP_CMON | OP_ABS,    OP_CMON | OP_RND,    STATE_UNFINISHED    },
1513:src/keys.c    **** 		{ OP_NIL | OP_cmplxI,	OP_CMON | OP_TRUNC,  OP_CMON | OP_FRAC,   STATE_UNFINISHED    },
1514:src/keys.c    **** #ifdef INCLUDE_STOPWATCH
1515:src/keys.c    **** 		{ OP_NIL | OP_STOPWATCH, STATE_UNFINISHED,   STATE_UNFINISHED,    STATE_UNFINISHED    },
1516:src/keys.c    **** #else
1517:src/keys.c    **** 		{ STATE_UNFINISHED,	STATE_UNFINISHED,    STATE_UNFINISHED,    STATE_UNFINISHED    },
1518:src/keys.c    **** #endif
1519:src/keys.c    **** 		{ OP_CDYA | OP_ADD,	STATE_UNFINISHED,    STATE_UNFINISHED,    STATE_UNFINISHED    },
1520:src/keys.c    **** #ifdef DM42
1521:src/keys.c    **** 		{ OP_NIL | OP_NOP,	OP_NIL | OP_NOP,    OP_NIL | OP_NOP,    OP_NIL | OP_NOP    }
1522:src/keys.c    **** #endif
1523:src/keys.c    **** 	};
1524:src/keys.c    **** 
1525:src/keys.c    **** 	enum shifts shift = reset_shift();
1526:src/keys.c    **** 	int lc = keycode_to_linear(c);
1527:src/keys.c    **** 	int op = op_map[lc][shift];
1528:src/keys.c    **** 	State2.cmplx = 0;
1529:src/keys.c    **** 
1530:src/keys.c    **** 	if ((op & _RARG) == _RARG) {
1531:src/keys.c    **** 		init_arg((enum rarg) (op & ~_RARG));
1532:src/keys.c    **** 		return STATE_UNFINISHED;
1533:src/keys.c    **** 	}
1534:src/keys.c    **** 	if (c == K00) {
1535:src/keys.c    **** 		// HYP
1536:src/keys.c    **** 		process_cmdline_set_lift();
1537:src/keys.c    **** 		//		print_debug(100,1);
1538:src/keys.c    **** 		State2.hyp = 1;
1539:src/keys.c    **** 		State2.dot = op;
1540:src/keys.c    **** 		State2.cmplx = 1;
1541:src/keys.c    **** 		return STATE_UNFINISHED;
1542:src/keys.c    **** 	}
1543:src/keys.c    **** 
1544:src/keys.c    **** 	if (shift != SHIFT_N) {
1545:src/keys.c    **** 		switch (c) {
1546:src/keys.c    **** 		case K_CMPLX:
1547:src/keys.c    **** 			set_shift(shift);
1548:src/keys.c    **** 			break;
1549:src/keys.c    **** 
1550:src/keys.c    **** 		case K51:
1551:src/keys.c    **** 			if (op != STATE_UNFINISHED) {
1552:src/keys.c    **** 				if (is_bad_cmdline())
1553:src/keys.c    **** 					return STATE_UNFINISHED;
1554:src/keys.c    **** 				process_cmdline_set_lift();
1555:src/keys.c    **** 				State2.cmplx = 1;
1556:src/keys.c    **** 				State2.test = op;
1557:src/keys.c    **** 			}
1558:src/keys.c    **** 			return STATE_UNFINISHED;
1559:src/keys.c    **** 
1560:src/keys.c    **** 		case K60:
1561:src/keys.c    **** 			init_state();
1562:src/keys.c    **** 			break;
1563:src/keys.c    **** 
1564:src/keys.c    **** 		default:
1565:src/keys.c    **** 			break;
1566:src/keys.c    **** 		}
1567:src/keys.c    **** 	}
1568:src/keys.c    **** #ifdef INCLUDE_STOPWATCH
ARM GAS  /tmp/cceyv6gL.s 			page 29


1569:src/keys.c    **** 	return check_confirm(op);
1570:src/keys.c    **** #else
1571:src/keys.c    **** 	return op;
1572:src/keys.c    **** #endif
1573:src/keys.c    **** 
1574:src/keys.c    **** #undef _RARG
1575:src/keys.c    **** #undef CSWAPXZ
1576:src/keys.c    **** #undef CNUM
1577:src/keys.c    **** }
1578:src/keys.c    **** 
1579:src/keys.c    **** 
1580:src/keys.c    **** 
1581:src/keys.c    **** /*
1582:src/keys.c    ****  * Fairly simple routine for dealing with the HYP prefix.
1583:src/keys.c    ****  * This setting can only be followed by 4, 5, or 6 to specify
1584:src/keys.c    ****  * the function.  The inverse routines use the code too, the State2.dot
1585:src/keys.c    ****  * is 1 for normal and 0 for inverse hyperbolic.  We also have to
1586:src/keys.c    ****  * deal with the complex versions and the handling of that key and
1587:src/keys.c    ****  * the ON key are dealt with by our caller.
1588:src/keys.c    ****  */
1589:src/keys.c    **** static int process_hyp(const keycode c) {
1590:src/keys.c    **** 	static const unsigned char op_map[][2] = {
1591:src/keys.c    **** 		{ OP_ASINH, OP_SINH },
1592:src/keys.c    **** 		{ OP_ACOSH, OP_COSH },
1593:src/keys.c    **** 		{ OP_ATANH, OP_TANH }
1594:src/keys.c    **** 	};
1595:src/keys.c    **** 	int cmplx = State2.cmplx;
1596:src/keys.c    **** 	int f = State2.dot;
1597:src/keys.c    **** 
1598:src/keys.c    **** 	State2.hyp = 0;
1599:src/keys.c    **** 	State2.cmplx = 0;
1600:src/keys.c    **** 	State2.dot = 0;
1601:src/keys.c    **** #ifdef DM42
1602:src/keys.c    **** 	reset_shift();
1603:src/keys.c    **** #endif
1604:src/keys.c    **** 	switch ((int)c) {
1605:src/keys.c    **** 
1606:src/keys.c    **** 	case K01:
1607:src/keys.c    **** 	case K02:
1608:src/keys.c    **** 	case K03:
1609:src/keys.c    **** 		return (cmplx ? OP_CMON : OP_MON) | op_map[c - K01][f];
1610:src/keys.c    **** 
1611:src/keys.c    **** 	case K_CMPLX:
1612:src/keys.c    **** 		cmplx = ! cmplx;
1613:src/keys.c    **** 		goto stay;
1614:src/keys.c    **** 
1615:src/keys.c    **** #ifndef DM42
1616:src/keys.c    **** 	case K_F: 
1617:src/keys.c    **** 	case K_G:
1618:src/keys.c    **** 		f = (c == K_F);
1619:src/keys.c    **** 		// fall through
1620:src/keys.c    **** #else
1621:src/keys.c    **** 	case K_F:
1622:src/keys.c    **** 	  if (c == K_F) f = 1 - f;
1623:src/keys.c    **** #endif
1624:src/keys.c    **** 	stay:
1625:src/keys.c    **** 		// process_cmdline_set_lift();
ARM GAS  /tmp/cceyv6gL.s 			page 30


1626:src/keys.c    **** 	  //	  print_debug(100,2);
1627:src/keys.c    **** 	  
1628:src/keys.c    **** 	  State2.hyp = 1;
1629:src/keys.c    **** 		State2.cmplx = cmplx;
1630:src/keys.c    **** 		State2.dot = f;
1631:src/keys.c    **** 		break;
1632:src/keys.c    **** 
1633:src/keys.c    **** 	default:
1634:src/keys.c    **** 		break;
1635:src/keys.c    **** 	}
1636:src/keys.c    **** 	return STATE_UNFINISHED;
1637:src/keys.c    **** }
1638:src/keys.c    **** 
1639:src/keys.c    **** 
1640:src/keys.c    **** /*
1641:src/keys.c    ****  *  Process a key code after ->
1642:src/keys.c    ****  */
1643:src/keys.c    **** static int process_arrow(const keycode c) {
1644:src/keys.c    **** 	static const unsigned short int op_map[][2] = {
1645:src/keys.c    **** 		{ OP_MON | OP_2DEG,  OP_MON | OP_2HMS },
1646:src/keys.c    **** 		{ OP_MON | OP_2RAD,  OP_MON | OP_HMS2 },
1647:src/keys.c    **** 		{ OP_MON | OP_2GRAD, STATE_UNFINISHED }
1648:src/keys.c    **** 	};
1649:src/keys.c    **** 	static const enum single_disp disp[][2] = {
1650:src/keys.c    **** 		{ SDISP_OCT, SDISP_BIN },
1651:src/keys.c    **** 		{ SDISP_HEX, SDISP_DEC }
1652:src/keys.c    **** 	};
1653:src/keys.c    **** 	const int shift = reset_shift();
1654:src/keys.c    **** 	const int f = (shift == SHIFT_F);
1655:src/keys.c    **** 
1656:src/keys.c    **** 	State2.arrow = 0;
1657:src/keys.c    **** #ifdef DM42
1658:src/keys.c    **** 	set_last_menu ();
1659:src/keys.c    **** 	display_current_menu ();
1660:src/keys.c    **** #endif
1661:src/keys.c    **** #ifdef INCLUDE_C_LOCK
1662:src/keys.c    **** 	if (c == K_CMPLX && CPX_ENABLED) { // need this before the SHIFT_N test
1663:src/keys.c    **** 	  if (!C_LOCK_ON) {
1664:src/keys.c    **** 	    return OP_NIL | OP_C_ON;
1665:src/keys.c    **** 	  }
1666:src/keys.c    **** 	  else {
1667:src/keys.c    **** 	    return OP_NIL | OP_C_OFF;
1668:src/keys.c    **** 	  }
1669:src/keys.c    **** 	}
1670:src/keys.c    **** #endif
1671:src/keys.c    **** 	if (shift == SHIFT_N) return STATE_UNFINISHED;
1672:src/keys.c    **** 	
1673:src/keys.c    **** 	if (c >= K10 && c <= K12)
1674:src/keys.c    **** 		return op_map[c - K10][f];
1675:src/keys.c    **** 
1676:src/keys.c    **** 	if (c == K22 || c == K23)
1677:src/keys.c    **** 		set_smode(disp[c - K22][f]);
1678:src/keys.c    **** 
1679:src/keys.c    **** 	return STATE_UNFINISHED;
1680:src/keys.c    **** }
1681:src/keys.c    **** 
1682:src/keys.c    **** 
ARM GAS  /tmp/cceyv6gL.s 			page 31


1683:src/keys.c    **** /* Process a GTO . sequence
1684:src/keys.c    ****  */
1685:src/keys.c    **** static int gtodot_digit(const int n) {
  30              		.loc 1 1685 38 view -0
  31              		.cfi_startproc
  32              		@ args = 0, pretend = 0, frame = 0
  33              		@ frame_needed = 0, uses_anonymous_args = 0
1686:src/keys.c    **** 	const int val = State2.digval * 10 + n;
  34              		.loc 1 1686 2 view .LVU1
1687:src/keys.c    **** 	const int lib = nLIB(state_pc());
  35              		.loc 1 1687 18 is_stmt 0 view .LVU2
  36 0000 144B     		ldr	r3, .L5
  37 0002 1A68     		ldr	r2, [r3]
1685:src/keys.c    **** 	const int val = State2.digval * 10 + n;
  38              		.loc 1 1685 38 view .LVU3
  39 0004 70B5     		push	{r4, r5, r6, lr}
  40              		.cfi_def_cfa_offset 16
  41              		.cfi_offset 4, -16
  42              		.cfi_offset 5, -12
  43              		.cfi_offset 6, -8
  44              		.cfi_offset 14, -4
1686:src/keys.c    **** 	const int val = State2.digval * 10 + n;
  45              		.loc 1 1686 24 view .LVU4
  46 0006 144E     		ldr	r6, .L5+4
  47              		.loc 1 1687 18 view .LVU5
  48 0008 B2F8E057 		ldrh	r5, [r2, #2016]
1686:src/keys.c    **** 	const int val = State2.digval * 10 + n;
  49              		.loc 1 1686 24 view .LVU6
  50 000c 3389     		ldrh	r3, [r6, #8]
  51              		.loc 1 1687 18 view .LVU7
  52 000e AD0B     		lsrs	r5, r5, #14
1686:src/keys.c    **** 	const int val = State2.digval * 10 + n;
  53              		.loc 1 1686 32 view .LVU8
  54 0010 03EB8303 		add	r3, r3, r3, lsl #2
1685:src/keys.c    **** 	const int val = State2.digval * 10 + n;
  55              		.loc 1 1685 38 view .LVU9
  56 0014 0446     		mov	r4, r0
1688:src/keys.c    **** 
1689:src/keys.c    **** 	if (val > sizeLIB(lib) / 10)
  57              		.loc 1 1689 12 view .LVU10
  58 0016 2846     		mov	r0, r5
  59              	.LVL1:
1686:src/keys.c    **** 	const int lib = nLIB(state_pc());
  60              		.loc 1 1686 12 view .LVU11
  61 0018 04EB4304 		add	r4, r4, r3, lsl #1
  62              	.LVL2:
1687:src/keys.c    **** 
  63              		.loc 1 1687 2 is_stmt 1 view .LVU12
  64              		.loc 1 1689 2 view .LVU13
  65              		.loc 1 1689 12 is_stmt 0 view .LVU14
  66 001c FFF7FEFF 		bl	sizeLIB
  67              	.LVL3:
  68              		.loc 1 1689 25 view .LVU15
  69 0020 0E4A     		ldr	r2, .L5+8
  70 0022 82FB0032 		smull	r3, r2, r2, r0
  71 0026 C317     		asrs	r3, r0, #31
  72 0028 C3EBA203 		rsb	r3, r3, r2, asr #2
ARM GAS  /tmp/cceyv6gL.s 			page 32


  73              		.loc 1 1689 5 view .LVU16
  74 002c A342     		cmp	r3, r4
  75 002e 0FDB     		blt	.L1
1690:src/keys.c    **** 		return val;
1691:src/keys.c    **** 	if (++State2.numdigit == 3 + (lib & 1))
  76              		.loc 1 1691 2 is_stmt 1 view .LVU17
  77              		.loc 1 1691 6 is_stmt 0 view .LVU18
  78 0030 F37A     		ldrb	r3, [r6, #11]	@ zero_extendqisi2
  79              		.loc 1 1691 29 view .LVU19
  80 0032 15F0010F 		tst	r5, #1
  81              		.loc 1 1691 6 view .LVU20
  82 0036 03F10103 		add	r3, r3, #1
  83 003a DBB2     		uxtb	r3, r3
  84              		.loc 1 1691 29 view .LVU21
  85 003c 0CBF     		ite	eq
  86 003e 0322     		moveq	r2, #3
  87 0040 0422     		movne	r2, #4
  88              		.loc 1 1691 5 view .LVU22
  89 0042 9342     		cmp	r3, r2
1692:src/keys.c    **** 		return val;
1693:src/keys.c    **** 	State2.digval = val;
  90              		.loc 1 1693 2 is_stmt 1 view .LVU23
  91              		.loc 1 1693 16 is_stmt 0 view .LVU24
  92 0044 18BF     		it	ne
  93 0046 3481     		strhne	r4, [r6, #8]	@ movhi
1694:src/keys.c    **** 	return -1;
  94              		.loc 1 1694 2 is_stmt 1 view .LVU25
1691:src/keys.c    **** 		return val;
  95              		.loc 1 1691 5 is_stmt 0 view .LVU26
  96 0048 F372     		strb	r3, [r6, #11]
  97              		.loc 1 1694 9 view .LVU27
  98 004a 18BF     		it	ne
  99 004c 4FF0FF34 		movne	r4, #-1
 100              	.LVL4:
 101              	.L1:
1695:src/keys.c    **** }
 102              		.loc 1 1695 1 view .LVU28
 103 0050 2046     		mov	r0, r4
 104 0052 70BD     		pop	{r4, r5, r6, pc}
 105              	.LVL5:
 106              	.L6:
 107              		.loc 1 1695 1 view .LVU29
 108              		.align	2
 109              	.L5:
 110 0054 00000000 		.word	main_ram
 111 0058 00000000 		.word	StateWhileOn
 112 005c 67666666 		.word	1717986919
 113              		.cfi_endproc
 114              	.LFE30:
 116              		.section	.text.check_f_key,"ax",%progbits
 117              		.align	1
 118              		.p2align 2,,3
 119              		.syntax unified
 120              		.thumb
 121              		.thumb_func
 122              		.fpu fpv4-sp-d16
 124              	check_f_key:
ARM GAS  /tmp/cceyv6gL.s 			page 33


 125              	.LVL6:
 126              	.LFB17:
 745:src/keys.c    **** 	const int code = 100 + n;
 127              		.loc 1 745 47 is_stmt 1 view -0
 128              		.cfi_startproc
 129              		@ args = 0, pretend = 0, frame = 0
 130              		@ frame_needed = 0, uses_anonymous_args = 0
 746:src/keys.c    **** 	unsigned int pc = state_pc();
 131              		.loc 1 746 2 view .LVU31
 745:src/keys.c    **** 	const int code = 100 + n;
 132              		.loc 1 745 47 is_stmt 0 view .LVU32
 133 0000 38B5     		push	{r3, r4, r5, lr}
 134              		.cfi_def_cfa_offset 16
 135              		.cfi_offset 3, -16
 136              		.cfi_offset 4, -12
 137              		.cfi_offset 5, -8
 138              		.cfi_offset 14, -4
 749:src/keys.c    **** 		if (isXROM(pc))
 139              		.loc 1 749 6 view .LVU33
 140 0002 0D4B     		ldr	r3, .L17
 141 0004 9B7D     		ldrb	r3, [r3, #22]	@ zero_extendqisi2
 142              	.LVL7:
 747:src/keys.c    **** 
 143              		.loc 1 747 2 is_stmt 1 view .LVU34
 749:src/keys.c    **** 		if (isXROM(pc))
 144              		.loc 1 749 2 view .LVU35
 749:src/keys.c    **** 		if (isXROM(pc))
 145              		.loc 1 749 5 is_stmt 0 view .LVU36
 146 0006 5B06     		lsls	r3, r3, #25
 745:src/keys.c    **** 	const int code = 100 + n;
 147              		.loc 1 745 47 view .LVU37
 148 0008 0C46     		mov	r4, r1
 749:src/keys.c    **** 		if (isXROM(pc))
 149              		.loc 1 749 5 view .LVU38
 150 000a 0FD5     		bpl	.L11
 747:src/keys.c    **** 
 151              		.loc 1 747 20 view .LVU39
 152 000c 0B4B     		ldr	r3, .L17+4
 153              	.LVL8:
 747:src/keys.c    **** 
 154              		.loc 1 747 20 view .LVU40
 155 000e 1B68     		ldr	r3, [r3]
 156              	.LVL9:
 747:src/keys.c    **** 
 157              		.loc 1 747 15 view .LVU41
 158 0010 B3F8E037 		ldrh	r3, [r3, #2016]
 159              	.LVL10:
 750:src/keys.c    **** 			pc = 1;
 160              		.loc 1 750 3 is_stmt 1 view .LVU42
 750:src/keys.c    **** 			pc = 1;
 161              		.loc 1 750 7 is_stmt 0 view .LVU43
 162 0014 9A0B     		lsrs	r2, r3, #14
 751:src/keys.c    **** 		if (find_label_from(pc, code, FIND_OP_ENDS))
 163              		.loc 1 751 7 view .LVU44
 164 0016 032A     		cmp	r2, #3
 165              	.LVL11:
 752:src/keys.c    **** 			return RARG(RARG_XEQ, code);
ARM GAS  /tmp/cceyv6gL.s 			page 34


 166              		.loc 1 752 3 is_stmt 1 view .LVU45
 746:src/keys.c    **** 	unsigned int pc = state_pc();
 167              		.loc 1 746 12 is_stmt 0 view .LVU46
 168 0018 00F16405 		add	r5, r0, #100
 169              	.LVL12:
 752:src/keys.c    **** 			return RARG(RARG_XEQ, code);
 170              		.loc 1 752 7 view .LVU47
 171 001c 2946     		mov	r1, r5
 172              	.LVL13:
 752:src/keys.c    **** 			return RARG(RARG_XEQ, code);
 173              		.loc 1 752 7 view .LVU48
 174 001e 14BF     		ite	ne
 175 0020 1846     		movne	r0, r3
 176              	.LVL14:
 752:src/keys.c    **** 			return RARG(RARG_XEQ, code);
 177              		.loc 1 752 7 view .LVU49
 178 0022 0120     		moveq	r0, #1
 179 0024 0222     		movs	r2, #2
 180 0026 FFF7FEFF 		bl	find_label_from
 181              	.LVL15:
 752:src/keys.c    **** 			return RARG(RARG_XEQ, code);
 182              		.loc 1 752 6 view .LVU50
 183 002a 08B9     		cbnz	r0, .L16
 184              	.LVL16:
 185              	.L11:
 755:src/keys.c    **** }
 186              		.loc 1 755 9 view .LVU51
 187 002c 2046     		mov	r0, r4
 756:src/keys.c    **** 
 188              		.loc 1 756 1 view .LVU52
 189 002e 38BD     		pop	{r3, r4, r5, pc}
 190              	.LVL17:
 191              	.L16:
 753:src/keys.c    **** 	}
 192              		.loc 1 753 4 is_stmt 1 view .LVU53
 753:src/keys.c    **** 	}
 193              		.loc 1 753 11 is_stmt 0 view .LVU54
 194 0030 45F4C840 		orr	r0, r5, #25600
 756:src/keys.c    **** 
 195              		.loc 1 756 1 view .LVU55
 196 0034 38BD     		pop	{r3, r4, r5, pc}
 197              	.LVL18:
 198              	.L18:
 756:src/keys.c    **** 
 199              		.loc 1 756 1 view .LVU56
 200 0036 00BF     		.align	2
 201              	.L17:
 202 0038 00000000 		.word	StateWhileOn
 203 003c 00000000 		.word	main_ram
 204              		.cfi_endproc
 205              	.LFE17:
 207              		.section	.text.is_label_or_end_at,"ax",%progbits
 208              		.align	1
 209              		.p2align 2,,3
 210              		.syntax unified
 211              		.thumb
 212              		.thumb_func
ARM GAS  /tmp/cceyv6gL.s 			page 35


 213              		.fpu fpv4-sp-d16
 215              	is_label_or_end_at:
 216              	.LVL19:
 217              	.LFB54:
1696:src/keys.c    **** 
1697:src/keys.c    **** static int gtodot_fkey(int n) {
1698:src/keys.c    **** 	const int code = 100 + n;
1699:src/keys.c    **** 	unsigned int pc = state_pc();
1700:src/keys.c    **** 
1701:src/keys.c    **** 	if(isXROM(pc))
1702:src/keys.c    **** 		pc = 1;
1703:src/keys.c    **** 	pc = find_label_from(pc, code, FIND_OP_ERROR | FIND_OP_ENDS);
1704:src/keys.c    **** 	if (pc > 0)
1705:src/keys.c    **** 		return pc;
1706:src/keys.c    **** 	return state_pc();
1707:src/keys.c    **** }
1708:src/keys.c    **** 
1709:src/keys.c    **** static int process_gtodot(const keycode c) {
1710:src/keys.c    **** 	int pc = -1;
1711:src/keys.c    **** 	unsigned int rawpc = keycode_to_digit_or_register(c);
1712:src/keys.c    **** 
1713:src/keys.c    **** 	if (rawpc <= 9) {
1714:src/keys.c    **** 		// Digit 0 - 9
1715:src/keys.c    **** 		pc = gtodot_digit(rawpc);
1716:src/keys.c    **** 	}
1717:src/keys.c    **** #ifdef DM42
1718:src/keys.c    **** 	else if ((rawpc & ~NO_SHORT) == regX_idx) rawpc = gtodot_digit(1); 
1719:src/keys.c    **** 	else if ((rawpc & ~NO_SHORT) == regY_idx) rawpc = gtodot_digit(2); 
1720:src/keys.c    **** 	else if ((rawpc & ~NO_SHORT) == regZ_idx) rawpc = gtodot_digit(3); 
1721:src/keys.c    **** 	else if ((rawpc & ~NO_SHORT) == regT_idx) rawpc = gtodot_digit(4); 
1722:src/keys.c    **** #endif
1723:src/keys.c    **** 	else if (c >= K00 && c <= K03) {
1724:src/keys.c    **** 		// A - D
1725:src/keys.c    **** 		rawpc = gtodot_fkey(c - K00);
1726:src/keys.c    **** 		goto fin;
1727:src/keys.c    **** 	}
1728:src/keys.c    **** 	else if (c == K62) {
1729:src/keys.c    **** 		// .
1730:src/keys.c    **** 		rawpc = ProgSize;
1731:src/keys.c    **** 		goto fin;
1732:src/keys.c    **** 	}
1733:src/keys.c    **** 	else if (c == K20) {
1734:src/keys.c    **** 		// ENTER - short circuit processing
1735:src/keys.c    **** 		pc = State2.digval;
1736:src/keys.c    **** 	}
1737:src/keys.c    **** 	else if (c == K24) {
1738:src/keys.c    **** 		// backspace
1739:src/keys.c    **** 		if (State2.numdigit == 0) {
1740:src/keys.c    **** 			goto fin2;
1741:src/keys.c    **** 		} else {
1742:src/keys.c    **** 			State2.numdigit--;
1743:src/keys.c    **** 			State2.digval /= 10;
1744:src/keys.c    **** 		}
1745:src/keys.c    **** 	}
1746:src/keys.c    **** 	else if (c == K_UP) {
1747:src/keys.c    **** 		// up
1748:src/keys.c    **** 		rawpc = state_pc();
ARM GAS  /tmp/cceyv6gL.s 			page 36


1749:src/keys.c    **** 		if (rawpc == 1)
1750:src/keys.c    **** 			rawpc = 0;
1751:src/keys.c    **** 		set_pc(do_dec(rawpc, 0));
1752:src/keys.c    **** 		update_program_bounds(1);
1753:src/keys.c    **** 		rawpc = ProgBegin;
1754:src/keys.c    **** 		goto fin;
1755:src/keys.c    **** 	}
1756:src/keys.c    **** 	else if (c == K_DOWN) {
1757:src/keys.c    **** 		// down
1758:src/keys.c    **** 		update_program_bounds(1);
1759:src/keys.c    **** 		rawpc = do_inc(ProgEnd, 0);
1760:src/keys.c    **** 		if (rawpc == 0 && ProgSize > 0)
1761:src/keys.c    **** 			rawpc = 1;
1762:src/keys.c    **** 		goto fin;
1763:src/keys.c    **** 	}
1764:src/keys.c    **** 	if (pc >= 0) {
1765:src/keys.c    **** 		rawpc = find_user_pc(pc);
1766:src/keys.c    **** fin:		set_pc(rawpc);
1767:src/keys.c    **** fin2:		State2.gtodot = 0;
1768:src/keys.c    **** 		State2.digval = 0;
1769:src/keys.c    **** 		State2.numdigit = 0;
1770:src/keys.c    **** 	}
1771:src/keys.c    **** 	return STATE_UNFINISHED;
1772:src/keys.c    **** }
1773:src/keys.c    **** 
1774:src/keys.c    **** 
1775:src/keys.c    **** /* Process a keystroke in alpha mode
1776:src/keys.c    ****  */
1777:src/keys.c    **** static int process_alpha(const keycode c) {
1778:src/keys.c    **** 	unsigned int alpha_pos = State2.alpha_pos;
1779:src/keys.c    ****         int op = STATE_UNFINISHED;
1780:src/keys.c    **** 	const enum shifts shift = reset_shift();
1781:src/keys.c    **** 	int ch = keycode_to_alpha(c, shift);
1782:src/keys.c    **** 	State2.alpha_pos = 0;
1783:src/keys.c    **** 
1784:src/keys.c    **** 	switch (c) {
1785:src/keys.c    **** 	case K10:	// STO
1786:src/keys.c    **** 		if (shift == SHIFT_F) {
1787:src/keys.c    **** 			init_arg(RARG_ASTO);
1788:src/keys.c    **** 			return STATE_UNFINISHED;
1789:src/keys.c    **** 		}
1790:src/keys.c    **** 		break;
1791:src/keys.c    **** 
1792:src/keys.c    **** 	case K11:	// RCL - maybe view
1793:src/keys.c    **** 		if (shift == SHIFT_F) {
1794:src/keys.c    **** 			init_arg(RARG_ARCL);
1795:src/keys.c    **** 			return STATE_UNFINISHED;
1796:src/keys.c    **** 		} else if (shift == SHIFT_H) {
1797:src/keys.c    **** 			init_arg(RARG_VIEW_REG);
1798:src/keys.c    **** 			return STATE_UNFINISHED;
1799:src/keys.c    **** 		}
1800:src/keys.c    **** 		break;
1801:src/keys.c    **** 
1802:src/keys.c    **** 	case K20:	// Enter - maybe exit alpha mode
1803:src/keys.c    **** 		if (shift == SHIFT_G || shift == SHIFT_H)
1804:src/keys.c    **** 			break;
1805:src/keys.c    **** 		if (shift == SHIFT_F && ! State2.runmode) {
ARM GAS  /tmp/cceyv6gL.s 			page 37


1806:src/keys.c    **** 			State2.multi = 1;
1807:src/keys.c    **** 			State2.numdigit = 0;
1808:src/keys.c    **** 			CmdBase = DBL_ALPHA;
1809:src/keys.c    **** 			return STATE_UNFINISHED;
1810:src/keys.c    **** 		}
1811:src/keys.c    **** 		State2.alphas = 0;
1812:src/keys.c    **** 		State2.alphashift = 0;
1813:src/keys.c    **** #ifdef DM42
1814:src/keys.c    **** 		set_menu(M_Last);
1815:src/keys.c    **** 		display_current_menu();
1816:src/keys.c    **** #endif
1817:src/keys.c    **** 		return op;
1818:src/keys.c    **** 
1819:src/keys.c    **** 	case K24:	// Clx - backspace, clear Alpha
1820:src/keys.c    **** 		if (shift == SHIFT_N)
1821:src/keys.c    **** 			return STATE_BACKSPACE;
1822:src/keys.c    **** 		if (shift == SHIFT_H)
1823:src/keys.c    **** 			return OP_NIL | OP_CLRALPHA;
1824:src/keys.c    **** 		break;
1825:src/keys.c    **** 
1826:src/keys.c    **** 	case K_UP:
1827:src/keys.c    **** 	  if (shift == SHIFT_N) {
1828:src/keys.c    **** 	    if ( State2.runmode ) {
1829:src/keys.c    **** 	      // Alpha scroll left
1830:src/keys.c    **** #ifdef DM42
1831:src/keys.c    **** 	      /* 
1832:src/keys.c    **** 	       * The numbers 20 and 12 below should match the same 
1833:src/keys.c    **** 	       * numbers in display.c, lines 2414 and 2416.
1834:src/keys.c    **** 	       */
1835:src/keys.c    **** #ifdef BIGGER_DISPLAY
1836:src/keys.c    **** 	      if ((alpha_pos == 0) || (alen()-6*alpha_pos >= 20)) {
1837:src/keys.c    **** 		alpha_pos += 1;
1838:src/keys.c    **** 	      }
1839:src/keys.c    **** #else
1840:src/keys.c    **** 	      if ((alpha_pos == 0) || (alen()-6*alpha_pos >= 12)) {
1841:src/keys.c    **** 		alpha_pos += 1;
1842:src/keys.c    **** 	      }
1843:src/keys.c    **** #endif
1844:src/keys.c    **** 	      State2.alpha_pos = alpha_pos;
1845:src/keys.c    **** #else
1846:src/keys.c    **** 	      int n = alpha_pos + 1;
1847:src/keys.c    **** 	      State2.alpha_pos = ( n < ( alen() + 5 ) / 6 ) ? n : alpha_pos;
1848:src/keys.c    **** #endif
1849:src/keys.c    **** 	      return STATE_UNFINISHED;
1850:src/keys.c    **** 	    }
1851:src/keys.c    **** 	    return STATE_BST;
1852:src/keys.c    **** 	  }
1853:src/keys.c    **** 	  break;
1854:src/keys.c    **** 
1855:src/keys.c    **** 	case K_DOWN:
1856:src/keys.c    **** 	  if (shift == SHIFT_N) {
1857:src/keys.c    **** 	    if ( State2.runmode ) {
1858:src/keys.c    **** 	      // Alpha scroll right
1859:src/keys.c    **** 	      if (alpha_pos > 0)
1860:src/keys.c    **** 		State2.alpha_pos = alpha_pos-1;
1861:src/keys.c    **** 	      return STATE_UNFINISHED;
1862:src/keys.c    **** 	    }
ARM GAS  /tmp/cceyv6gL.s 			page 38


1863:src/keys.c    **** 	    return STATE_SST;
1864:src/keys.c    **** 	  }
1865:src/keys.c    **** 	  break;
1866:src/keys.c    **** 
1867:src/keys.c    **** 	case K60:	// EXIT/ON maybe case switch, otherwise exit alpha
1868:src/keys.c    **** 		if (shift == SHIFT_F)
1869:src/keys.c    **** 			State2.alphashift = 1 - State2.alphashift;
1870:src/keys.c    **** 		else if (shift == SHIFT_H)
1871:src/keys.c    **** 			return OP_NIL | OP_OFF;
1872:src/keys.c    **** 		else if (shift == SHIFT_N) {
1873:src/keys.c    **** #ifdef DM42
1874:src/keys.c    **** 		  set_menu(M_Last);
1875:src/keys.c    **** 		  display_current_menu();
1876:src/keys.c    **** #endif
1877:src/keys.c    **** 		  init_state();
1878:src/keys.c    **** 		}
1879:src/keys.c    **** 		return STATE_UNFINISHED;
1880:src/keys.c    **** 
1881:src/keys.c    **** 	case K63:
1882:src/keys.c    **** 		if (shift == SHIFT_F)
1883:src/keys.c    **** 			return OP_NIL | OP_RS;		// R/S
1884:src/keys.c    **** 		break;
1885:src/keys.c    **** 
1886:src/keys.c    **** 	default:
1887:src/keys.c    **** 		break;
1888:src/keys.c    **** 	}
1889:src/keys.c    **** 
1890:src/keys.c    **** 	/* Look up the character and return an alpha code if okay */
1891:src/keys.c    **** 	if (ch == 0)
1892:src/keys.c    **** 		return STATE_UNFINISHED;
1893:src/keys.c    **** 	return RARG(RARG_ALPHA, ch);
1894:src/keys.c    **** }
1895:src/keys.c    **** 
1896:src/keys.c    **** /*
1897:src/keys.c    ****  *  Code to handle all commands with arguments
1898:src/keys.c    ****  */
1899:src/keys.c    **** static void reset_arg(void) {
1900:src/keys.c    **** 	init_arg((enum rarg) 0);
1901:src/keys.c    **** 	State2.rarg = 0;
1902:src/keys.c    **** }
1903:src/keys.c    **** 
1904:src/keys.c    ****  static int arg_eval(unsigned int val) {
1905:src/keys.c    ****    const unsigned int base = CmdBase;
1906:src/keys.c    ****    int r = RARG(base, val 
1907:src/keys.c    **** 		+ (State2.ind ? RARG_IND : 0) 
1908:src/keys.c    **** 		+ (State2.local ? LOCAL_REG_BASE : 0));
1909:src/keys.c    ****    const unsigned int ssize = (! UState.stack_depth || ! State2.runmode ) ? 4 : 8;
1910:src/keys.c    **** 
1911:src/keys.c    ****    if (! State2.ind) {
1912:src/keys.c    ****      /*
1913:src/keys.c    ****       *  Central argument checking for some commands
1914:src/keys.c    ****       */
1915:src/keys.c    **** #ifdef SHOW_COMPLEX_REGS
1916:src/keys.c    ****      if (argcmds[base].cmplx && val > TOPREALREG - 2 ) {
1917:src/keys.c    ****        // remap complex registers cY->T, cZ->A, cT->C
1918:src/keys.c    ****        // 99,   X,   Y,   Z,   T,   A,   B,   C,   D,   L,   I,   J,   K
1919:src/keys.c    ****        static char remap[] = {  0, 100, 102, 104, 106,   0,   0,   0,   0, 108,   0, 110,   0 };
ARM GAS  /tmp/cceyv6gL.s 			page 39


1920:src/keys.c    ****        val = (unsigned int) remap[ val - (TOPREALREG - 1) ];
1921:src/keys.c    ****        if ( val == 0 )
1922:src/keys.c    **** 	 return STATE_UNFINISHED;
1923:src/keys.c    ****        r = RARG(base, val);
1924:src/keys.c    ****      }
1925:src/keys.c    **** #endif
1926:src/keys.c    **** #ifdef INCLUDE_C_LOCK
1927:src/keys.c    ****      if (argcmds[base].cmplx && (val > (unsigned int)(C_LOCKED ? 0 : TOPREALREG - 2) && (val & 1)))
1928:src/keys.c    ****        if (C_LOCKED) {
1929:src/keys.c    **** 	 error_message(ERR_ODD_REG); // shows error message
1930:src/keys.c    **** 	 return STATE_UNFINISHED; // either leaves arg blank (if EXIT pressed) or with one digit in (STO)
1931:src/keys.c    ****        }
1932:src/keys.c    ****        else {
1933:src/keys.c    **** 	 return STATE_UNFINISHED;
1934:src/keys.c    ****        }
1935:src/keys.c    ****      }
1936:src/keys.c    **** #else
1937:src/keys.c    ****      if (argcmds[base].cmplx && (val > TOPREALREG - 2 && (val & 1)))
1938:src/keys.c    ****        // Disallow odd complex register > 98
1939:src/keys.c    ****        return STATE_UNFINISHED;
1940:src/keys.c    **** #endif
1941:src/keys.c    ****      if ((base == RARG_STOSTK || base == RARG_RCLSTK) && (val > TOPREALREG - ssize))
1942:src/keys.c    ****        // Avoid stack clash for STOS/RCLS
1943:src/keys.c    ****        return STATE_UNFINISHED;
1944:src/keys.c    ****    }
1945:src/keys.c    ****    // Build op-code
1946:src/keys.c    ****    reset_arg();
1947:src/keys.c    ****    return r;
1948:src/keys.c    ****  }
1949:src/keys.c    **** 
1950:src/keys.c    **** static int arg_digit(int n) {
1951:src/keys.c    **** 	int lim;
1952:src/keys.c    **** #ifdef INCLUDE_SIGFIG_MODE
1953:src/keys.c    **** 	int dispmode = get_dispmode_digs(&lim);
1954:src/keys.c    **** 	const unsigned int base = (State2.runmode && CmdBase == RARG_DISP && (dispmode == MODE_SIG || disp
1955:src/keys.c    **** #else
1956:src/keys.c    **** 	const unsigned int base = CmdBase;
1957:src/keys.c    **** #endif
1958:src/keys.c    **** 	const unsigned int val = State2.digval * 10 + n;
1959:src/keys.c    **** 	const int is_reg = argcmds[base].reg || State2.ind;
1960:src/keys.c    **** 	
1961:src/keys.c    **** 	if (State2.local) {
1962:src/keys.c    **** 		// Handle local registers and flags
1963:src/keys.c    **** 		lim = MAX_LOCAL_DIRECT - 1;				// default
1964:src/keys.c    **** 		if (State2.runmode) {
1965:src/keys.c    **** 			if (LocalRegs == 0)
1966:src/keys.c    **** 				return STATE_UNFINISHED;		// no local flags or registers
1967:src/keys.c    **** 			if (is_reg) {
1968:src/keys.c    **** 				lim = local_regs_rarg((enum rarg) base) - 1;
1969:src/keys.c    **** 				if (lim >= MAX_LOCAL_DIRECT)
1970:src/keys.c    **** 					lim = MAX_LOCAL_DIRECT - 1;	// in case of more than 16 locals
1971:src/keys.c    **** 			}
1972:src/keys.c    **** 		}
1973:src/keys.c    **** 	}
1974:src/keys.c    **** 	else if (is_reg)						// normal register
1975:src/keys.c    **** 		lim = State2.runmode ? global_regs_rarg((enum rarg) base) - 1 : TOPREALREG - 1;
1976:src/keys.c    **** 	else {
ARM GAS  /tmp/cceyv6gL.s 			page 40


1977:src/keys.c    **** 		lim = (int) argcmds[base].lim;				// any other command
1978:src/keys.c    **** 		if (lim >= RARG_IND && argcmds[base].indirectokay)
1979:src/keys.c    **** 			lim = RARG_IND - 1;
1980:src/keys.c    **** 	}
1981:src/keys.c    **** 	if ((int) val > lim)
1982:src/keys.c    **** 		return STATE_UNFINISHED;
1983:src/keys.c    **** 
1984:src/keys.c    **** 	State2.digval = val;
1985:src/keys.c    **** 	++State2.numdigit;
1986:src/keys.c    **** 	if ((int) val * 10 > lim || State2.numdigit >= num_arg_digits(base)) {
1987:src/keys.c    **** 		int result = arg_eval(val);
1988:src/keys.c    **** 		if ( result == STATE_UNFINISHED ) {
1989:src/keys.c    **** 			--State2.numdigit;
1990:src/keys.c    **** 			State2.digval /= 10;
1991:src/keys.c    **** 		}
1992:src/keys.c    **** 		return result;
1993:src/keys.c    **** 	}
1994:src/keys.c    **** 	return STATE_UNFINISHED;
1995:src/keys.c    **** }
1996:src/keys.c    **** 
1997:src/keys.c    **** static int arg_fkey(int n) {
1998:src/keys.c    **** 	const unsigned int b = CmdBase;
1999:src/keys.c    **** 
2000:src/keys.c    **** 	if (argcmds[b].label || (b >= RARG_SF && b <= RARG_FCF))
2001:src/keys.c    **** 	{
2002:src/keys.c    **** 		if (State2.ind || State2.numdigit > 0)
2003:src/keys.c    **** 			return STATE_UNFINISHED;
2004:src/keys.c    **** 		if (argcmds[b].lim < 100)
2005:src/keys.c    **** 			return STATE_UNFINISHED;
2006:src/keys.c    **** 		return arg_eval(n + 100);
2007:src/keys.c    **** 	}
2008:src/keys.c    **** 	return STATE_UNFINISHED;
2009:src/keys.c    **** }
2010:src/keys.c    **** 
2011:src/keys.c    **** static int arg_storcl_check(const unsigned int b, const int cmplx) {
2012:src/keys.c    **** #ifdef INCLUDE_FLASH_RECALL
2013:src/keys.c    **** 	return (b == RARG_STO || b == RARG_RCL || b == RARG_FLRCL ||
2014:src/keys.c    **** 			(cmplx && (b == RARG_CSTO || b == RARG_CRCL || b == RARG_FLCRCL)));
2015:src/keys.c    **** #else
2016:src/keys.c    **** 	return (b == RARG_STO || b == RARG_RCL || (cmplx && (b == RARG_CSTO || b == RARG_CRCL )));
2017:src/keys.c    **** #endif
2018:src/keys.c    **** }
2019:src/keys.c    **** 
2020:src/keys.c    **** static int arg_storcl(const unsigned int n, int cmplx) {
2021:src/keys.c    **** 	unsigned int b = CmdBase;
2022:src/keys.c    **** 
2023:src/keys.c    **** 	if (arg_storcl_check(b, cmplx)) {
2024:src/keys.c    **** 		CmdBase += n;
2025:src/keys.c    **** 		return 1;
2026:src/keys.c    **** 	}
2027:src/keys.c    **** 	/* And we can turn off the operation too */
2028:src/keys.c    **** 	if (b >= n) {
2029:src/keys.c    **** 		b -= n;
2030:src/keys.c    **** 		if (arg_storcl_check(b, cmplx)) {
2031:src/keys.c    **** 			CmdBase = b;
2032:src/keys.c    **** 			return 1;
2033:src/keys.c    **** 		}
ARM GAS  /tmp/cceyv6gL.s 			page 41


2034:src/keys.c    **** 	}
2035:src/keys.c    **** 	return 0;
2036:src/keys.c    **** }
2037:src/keys.c    **** 
2038:src/keys.c    **** static int process_arg_dot(const unsigned int base) {
2039:src/keys.c    **** 
2040:src/keys.c    **** 	if (State2.numdigit == 0) {
2041:src/keys.c    **** 		// Only valid at beginning of entry
2042:src/keys.c    **** 		if (State2.dot || State2.local) {
2043:src/keys.c    **** 			// '..' or ENTER '.' = X
2044:src/keys.c    **** 			State2.local = 0;
2045:src/keys.c    **** 			return arg_eval(regX_idx);
2046:src/keys.c    **** 		}
2047:src/keys.c    **** 		if (argcmds[base].local || State2.ind) {
2048:src/keys.c    **** 			// local register or flag select
2049:src/keys.c    **** 			State2.local = 1;
2050:src/keys.c    **** 		}
2051:src/keys.c    **** 		else if (base == RARG_GTO || base == RARG_XEQ) {
2052:src/keys.c    **** 			// Special GTO . sequence
2053:src/keys.c    **** 			if (! State2.ind) {
2054:src/keys.c    **** 				State2.gtodot = 1;
2055:src/keys.c    **** 				reset_arg();
2056:src/keys.c    **** 			}
2057:src/keys.c    **** 		}
2058:src/keys.c    **** 	}
2059:src/keys.c    **** 	return STATE_UNFINISHED;
2060:src/keys.c    **** }
2061:src/keys.c    **** 
2062:src/keys.c    **** static int process_arg_shuffle(int r) {
2063:src/keys.c    **** 	State2.digval += r << (State2.numdigit++ << 1);
2064:src/keys.c    **** 	if (State2.numdigit < 4)
2065:src/keys.c    **** 		return STATE_UNFINISHED;
2066:src/keys.c    **** 	return arg_eval(State2.digval);
2067:src/keys.c    **** }
2068:src/keys.c    **** 
2069:src/keys.c    **** 
2070:src/keys.c    **** static int process_arg(const keycode c) {
2071:src/keys.c    **** 	unsigned int base = CmdBase;
2072:src/keys.c    **** 	unsigned int n = keycode_to_digit_or_register(c);
2073:src/keys.c    **** 	int stack_reg = argcmds[base].stckreg || State2.ind;
2074:src/keys.c    **** 	const enum shifts previous_shift = (enum shifts) State2.shifts;
2075:src/keys.c    **** 	const enum shifts shift = reset_shift();
2076:src/keys.c    **** 	int label_addressing = argcmds[base].label && ! State2.ind && ! State2.dot;
2077:src/keys.c    **** 	int shorthand = label_addressing && c != K_F 
2078:src/keys.c    **** 		        && (shift == SHIFT_F || (n > 9 && !(n & NO_SHORT)));
2079:src/keys.c    **** 
2080:src/keys.c    **** 	n &= ~NO_SHORT;
2081:src/keys.c    **** 	if (base >= NUM_RARG) {
2082:src/keys.c    **** 		reset_arg();
2083:src/keys.c    **** 		return STATE_UNFINISHED;
2084:src/keys.c    **** 	}
2085:src/keys.c    **** #ifdef DM42
2086:src/keys.c    **** 	if ( ! shorthand && ! State2.dot && ! State2.shuffle ) {
2087:src/keys.c    **** 	  switch (n) {
2088:src/keys.c    **** 	  case regX_idx:
2089:src/keys.c    **** 	    return arg_digit(1);
2090:src/keys.c    **** 	  case regY_idx:
ARM GAS  /tmp/cceyv6gL.s 			page 42


2091:src/keys.c    **** 	    return arg_digit(2);
2092:src/keys.c    **** 	  case regZ_idx:
2093:src/keys.c    **** 	    return arg_digit(3);
2094:src/keys.c    **** 	  case regT_idx:
2095:src/keys.c    **** 	    return arg_digit(4);
2096:src/keys.c    **** 	  case 5:
2097:src/keys.c    **** 	  case 6:
2098:src/keys.c    **** 	  case 7:
2099:src/keys.c    **** 	  case 8:
2100:src/keys.c    **** 	  case 9:
2101:src/keys.c    **** 	  case 0:
2102:src/keys.c    **** 	    return arg_digit(n);
2103:src/keys.c    **** 	  }
2104:src/keys.c    **** 	}
2105:src/keys.c    **** #else
2106:src/keys.c    **** 	if (n <= 9 && ! shorthand && ! State2.dot && ! State2.shuffle)
2107:src/keys.c    **** 		return arg_digit(n);
2108:src/keys.c    **** #endif	
2109:src/keys.c    **** 	if (shorthand)
2110:src/keys.c    **** 		// row column shorthand addressing
2111:src/keys.c    **** 		return arg_eval(keycode_to_row_column(c));
2112:src/keys.c    **** 
2113:src/keys.c    **** #ifdef INCLUDE_SIGFIG_MODE
2114:src/keys.c    **** #ifdef DM42
2115:src/keys.c    **** 	if (base == RARG_FIX || base == RARG_SIG || base == RARG_SIG0) {
2116:src/keys.c    **** 		switch ((int)c) {
2117:src/keys.c    **** 		case K_UP:	// up arrow
2118:src/keys.c    **** 		  if (base == RARG_FIX) {
2119:src/keys.c    **** 		    base = RARG_SIG;
2120:src/keys.c    **** 		    break;
2121:src/keys.c    **** 		  }
2122:src/keys.c    **** 		  if (base == RARG_SIG) {
2123:src/keys.c    **** 		    base = RARG_SIG0;
2124:src/keys.c    **** 		    break;
2125:src/keys.c    **** 		  }
2126:src/keys.c    **** 		  if (base == RARG_SIG0) {
2127:src/keys.c    **** 		    base = RARG_FIX;
2128:src/keys.c    **** 		    break;
2129:src/keys.c    **** 		  }
2130:src/keys.c    **** 		case K_DOWN:	// down arrow
2131:src/keys.c    **** 		case K01:	// B
2132:src/keys.c    **** 		  if (base == RARG_FIX) {
2133:src/keys.c    **** 		    base = RARG_SIG0;
2134:src/keys.c    **** 		    break;
2135:src/keys.c    **** 		  }
2136:src/keys.c    **** 		  if (base == RARG_SIG) {
2137:src/keys.c    **** 		    base = RARG_FIX;
2138:src/keys.c    **** 		    break;
2139:src/keys.c    **** 		  }
2140:src/keys.c    **** 		  if (base == RARG_SIG0) {
2141:src/keys.c    **** 		    base = RARG_SIG;
2142:src/keys.c    **** 		    break;
2143:src/keys.c    **** 		  }
2144:src/keys.c    **** 		}
2145:src/keys.c    **** 	}
2146:src/keys.c    **** 		CmdBase = base;
2147:src/keys.c    **** #else
ARM GAS  /tmp/cceyv6gL.s 			page 43


2148:src/keys.c    **** 	if (base >= RARG_FIX && base <= RARG_SIG0) {
2149:src/keys.c    **** 		switch ((int)c) {
2150:src/keys.c    **** 		case K_UP:	// up arrow
2151:src/keys.c    **** 			if (--base < RARG_FIX)
2152:src/keys.c    **** 				base = RARG_SIG0;
2153:src/keys.c    **** 			break;
2154:src/keys.c    **** 
2155:src/keys.c    **** 		case K_DOWN:	// down arrow
2156:src/keys.c    **** 		case K01:	// B
2157:src/keys.c    **** 			if (++base > RARG_SIG0)
2158:src/keys.c    **** 				base = RARG_FIX;
2159:src/keys.c    **** 			break;
2160:src/keys.c    **** 		}
2161:src/keys.c    **** 		CmdBase = base;
2162:src/keys.c    **** 	}
2163:src/keys.c    **** #endif
2164:src/keys.c    **** #endif
2165:src/keys.c    **** 	/*
2166:src/keys.c    **** 	 *  So far, we've got the digits and some special label addressing keys
2167:src/keys.c    **** 	 *  Handle the rest here.
2168:src/keys.c    **** 	 */
2169:src/keys.c    **** 	switch ((int)c) {
2170:src/keys.c    **** 	case K_F:
2171:src/keys.c    **** 		if (label_addressing)
2172:src/keys.c    **** 			set_shift(previous_shift == SHIFT_F ? SHIFT_N : SHIFT_F);
2173:src/keys.c    **** 		break;
2174:src/keys.c    **** 
2175:src/keys.c    **** 	case K_ARROW:		// arrow
2176:src/keys.c    **** 		if (!State2.dot && argcmds[base].indirectokay) {
2177:src/keys.c    **** 			State2.ind = ! State2.ind;
2178:src/keys.c    **** 			if (! stack_reg)
2179:src/keys.c    **** 				State2.dot = 0;
2180:src/keys.c    **** 		}
2181:src/keys.c    **** 		break;
2182:src/keys.c    **** 
2183:src/keys.c    **** 	case K_CMPLX:
2184:src/keys.c    **** 		if (State2.ind || State2.dot)
2185:src/keys.c    **** 			break;
2186:src/keys.c    **** 		if (base == RARG_STO)
2187:src/keys.c    **** 			CmdBase = RARG_STOM;
2188:src/keys.c    **** 		else if (base == RARG_RCL)
2189:src/keys.c    **** 			CmdBase = RARG_RCLM;
2190:src/keys.c    **** 		break;
2191:src/keys.c    **** #ifdef DM42
2192:src/keys.c    **** 	case K41:       // T
2193:src/keys.c    **** 	  if (State2.shuffle)
2194:src/keys.c    **** 	    return process_arg_shuffle(3);
2195:src/keys.c    **** 	case K51:       // X
2196:src/keys.c    **** 	  if (State2.shuffle)
2197:src/keys.c    **** 	    return process_arg_shuffle(0);
2198:src/keys.c    **** 	case K52:	// Y
2199:src/keys.c    **** 	  if (State2.shuffle)
2200:src/keys.c    **** 	    return process_arg_shuffle(1);
2201:src/keys.c    **** 	case K53:       // Z
2202:src/keys.c    **** 	  if (State2.shuffle)
2203:src/keys.c    **** 	    return process_arg_shuffle(2);
2204:src/keys.c    **** #else
ARM GAS  /tmp/cceyv6gL.s 			page 44


2205:src/keys.c    **** 	case K63:	// Y
2206:src/keys.c    **** 	  if (State2.shuffle)
2207:src/keys.c    **** 	    return process_arg_shuffle(1);
2208:src/keys.c    **** #endif
2209:src/keys.c    **** 	case K00:	// A
2210:src/keys.c    **** 	case K01:	// B
2211:src/keys.c    **** 	case K02:	// C
2212:src/keys.c    **** 	case K03:	// D
2213:src/keys.c    **** #ifdef DM42
2214:src/keys.c    **** 	case K12:	// I (lastY)
2215:src/keys.c    **** 	case K13:	// J
2216:src/keys.c    **** 	case K14:	// K
2217:src/keys.c    **** 	case K15:	// L (lastX)
2218:src/keys.c    **** #else
2219:src/keys.c    **** 	case K12:	// I (lastY)
2220:src/keys.c    **** 	case K21:	// J
2221:src/keys.c    **** 	case K22:	// K
2222:src/keys.c    **** 	case K23:	// L (lastX)
2223:src/keys.c    **** #endif
2224:src/keys.c    **** 	  if (State2.dot || stack_reg)
2225:src/keys.c    **** 			return arg_eval(n);
2226:src/keys.c    **** 		if ( c <= K03 )
2227:src/keys.c    **** 			return arg_fkey(c - K00);		// Labels or flags A to D
2228:src/keys.c    **** 		break;
2229:src/keys.c    **** #ifdef DM42
2230:src/keys.c    **** 	case K62:	// '.'
2231:src/keys.c    **** 		return process_arg_dot(base);
2232:src/keys.c    **** 
2233:src/keys.c    **** 	/* STO and RCL can take an arithmetic argument */
2234:src/keys.c    **** 	case K64:		// plus
2235:src/keys.c    **** 		if (State2.dot || ( ! arg_storcl(RARG_STO_PL - RARG_STO, 1) && stack_reg))
2236:src/keys.c    **** 			return arg_eval(n);
2237:src/keys.c    **** 		break;
2238:src/keys.c    **** 	case K54:               // minus
2239:src/keys.c    **** 		if (base == RARG_VIEW || base == RARG_VIEW_REG) {
2240:src/keys.c    **** 			reset_arg();
2241:src/keys.c    **** 			return OP_NIL | OP_VIEWALPHA;
2242:src/keys.c    **** 		}
2243:src/keys.c    **** 		arg_storcl(RARG_STO_MI - RARG_STO, 1);
2244:src/keys.c    **** 		break;
2245:src/keys.c    **** 	case K44:		// multiply
2246:src/keys.c    **** 		if (State2.dot || ( ! arg_storcl(RARG_STO_MU - RARG_STO, 1) && stack_reg))
2247:src/keys.c    **** 			return arg_eval(n);
2248:src/keys.c    **** 		break;
2249:src/keys.c    **** 	case K34:
2250:src/keys.c    **** 		arg_storcl(RARG_STO_DV - RARG_STO, 1);
2251:src/keys.c    **** 		break;
2252:src/keys.c    **** #else
2253:src/keys.c    **** 	case K62:	// X, '.'
2254:src/keys.c    **** 		if (State2.shuffle)
2255:src/keys.c    **** 			return process_arg_shuffle(0);
2256:src/keys.c    **** 		return process_arg_dot(base);
2257:src/keys.c    **** 
2258:src/keys.c    **** 	/* STO and RCL can take an arithmetic argument */
2259:src/keys.c    **** 	case K64:		// Z register
2260:src/keys.c    **** 		if (State2.shuffle)
2261:src/keys.c    **** 			return process_arg_shuffle(2);
ARM GAS  /tmp/cceyv6gL.s 			page 45


2262:src/keys.c    **** 		if (State2.dot || ( ! arg_storcl(RARG_STO_PL - RARG_STO, 1) && stack_reg))
2263:src/keys.c    **** 			return arg_eval(n);
2264:src/keys.c    **** 		break;
2265:src/keys.c    **** 
2266:src/keys.c    **** 	case K54:
2267:src/keys.c    **** 		if (base == RARG_VIEW || base == RARG_VIEW_REG) {
2268:src/keys.c    **** 			reset_arg();
2269:src/keys.c    **** 			return OP_NIL | OP_VIEWALPHA;
2270:src/keys.c    **** 		}
2271:src/keys.c    **** 		arg_storcl(RARG_STO_MI - RARG_STO, 1);
2272:src/keys.c    **** 		break;
2273:src/keys.c    **** 
2274:src/keys.c    **** 	case K44:		// T register
2275:src/keys.c    **** 		if (State2.shuffle)
2276:src/keys.c    **** 			return process_arg_shuffle(3);
2277:src/keys.c    **** 		if (State2.dot || ( ! arg_storcl(RARG_STO_MU - RARG_STO, 1) && stack_reg))
2278:src/keys.c    **** 			return arg_eval(n);
2279:src/keys.c    **** 		break;
2280:src/keys.c    **** 
2281:src/keys.c    **** 	case K34:
2282:src/keys.c    **** 		arg_storcl(RARG_STO_DV - RARG_STO, 1);
2283:src/keys.c    **** 		break;
2284:src/keys.c    **** #endif
2285:src/keys.c    **** 	case K_UP:
2286:src/keys.c    **** 		arg_storcl(RARG_STO_MAX - RARG_STO, 0);
2287:src/keys.c    **** 		break;
2288:src/keys.c    **** 
2289:src/keys.c    **** 	case K_DOWN:
2290:src/keys.c    **** 		arg_storcl(RARG_STO_MIN - RARG_STO, 0);
2291:src/keys.c    **** 		break;
2292:src/keys.c    **** 
2293:src/keys.c    **** 	case K20:				// Enter is a short cut finisher but it also changes a few commands if it is first up
2294:src/keys.c    **** 		if (State2.numdigit == 0 && !State2.ind && !State2.dot) {
2295:src/keys.c    **** 			if (argcmds[base].label) {
2296:src/keys.c    **** 				init_arg((enum rarg)(base - RARG_LBL));
2297:src/keys.c    **** 				State2.multi = 1;
2298:src/keys.c    **** 				State2.alphashift = 0;
2299:src/keys.c    **** 				State2.rarg = 0;
2300:src/keys.c    **** 			} else if (base == RARG_SCI) {
2301:src/keys.c    **** 				reset_arg();
2302:src/keys.c    **** 				return OP_NIL | OP_FIXSCI;
2303:src/keys.c    **** 			} else if (base == RARG_ENG) {
2304:src/keys.c    **** 				reset_arg();
2305:src/keys.c    **** 				return OP_NIL | OP_FIXENG;
2306:src/keys.c    **** 			} else if (argcmds[base].stckreg)
2307:src/keys.c    **** 				State2.dot = 1;
2308:src/keys.c    **** 		} else if (State2.numdigit > 0)
2309:src/keys.c    **** 			return arg_eval(State2.digval);
2310:src/keys.c    **** 		else if (stack_reg)
2311:src/keys.c    **** 			State2.dot = 1 - State2.dot;
2312:src/keys.c    **** 		break;
2313:src/keys.c    **** 
2314:src/keys.c    **** 	case K24:	// <-
2315:src/keys.c    **** 		if (State2.numdigit == 0) {
2316:src/keys.c    **** 			if (State2.dot)
2317:src/keys.c    **** 				State2.dot = 0;
2318:src/keys.c    **** 			else if (State2.local)
ARM GAS  /tmp/cceyv6gL.s 			page 46


2319:src/keys.c    **** 				State2.local = 0;
2320:src/keys.c    **** 			else if (State2.ind)
2321:src/keys.c    **** 				State2.ind = 0;
2322:src/keys.c    **** 			else
2323:src/keys.c    **** 				goto reset;
2324:src/keys.c    **** 		}
2325:src/keys.c    **** 		else {
2326:src/keys.c    **** 			--State2.numdigit;
2327:src/keys.c    **** 			if (State2.shuffle)
2328:src/keys.c    **** 				State2.digval &= ~(3 << (State2.numdigit << 1));
2329:src/keys.c    **** 			else
2330:src/keys.c    **** 				State2.digval /= 10;
2331:src/keys.c    **** 		}
2332:src/keys.c    **** 		break;
2333:src/keys.c    **** 
2334:src/keys.c    **** 	case K60:
2335:src/keys.c    **** 	reset:
2336:src/keys.c    **** 		reset_arg();
2337:src/keys.c    **** 	default:
2338:src/keys.c    **** 		break;
2339:src/keys.c    **** 	}
2340:src/keys.c    **** 	return STATE_UNFINISHED;
2341:src/keys.c    **** }
2342:src/keys.c    **** 
2343:src/keys.c    **** 
2344:src/keys.c    **** /*
2345:src/keys.c    ****  *  Process arguments to the diverse test commands
2346:src/keys.c    ****  */
2347:src/keys.c    **** static int process_test(const keycode c) {
2348:src/keys.c    **** 	int r = State2.test;
2349:src/keys.c    **** 	int cmpx = State2.cmplx;
2350:src/keys.c    **** 	unsigned int n = keycode_to_digit_or_register(c) & ~NO_SHORT;
2351:src/keys.c    **** 	unsigned int base = (cmpx ? RARG_TEST_ZEQ : RARG_TEST_EQ) + r;
2352:src/keys.c    **** 
2353:src/keys.c    **** 	State2.test = TST_NONE;
2354:src/keys.c    **** 	State2.cmplx = 0;
2355:src/keys.c    **** 	if (n == regX_idx) n = 1; //don't want x-reg
2356:src/keys.c    **** 	if (n != NO_REG && n >= TOPREALREG && n < LOCAL_REG_BASE ) {
2357:src/keys.c    **** 		// Lettered register
2358:src/keys.c    **** 		if (cmpx && (n & 1)) {
2359:src/keys.c    **** 			if (n == regI_idx)
2360:src/keys.c    **** 				return OP_SPEC + OP_Zeqi + r;
2361:src/keys.c    **** 			// Disallow odd complex registers > A
2362:src/keys.c    **** 			goto again;
2363:src/keys.c    **** 		}
2364:src/keys.c    **** 		// Return the command with the register completed
2365:src/keys.c    **** 		return RARG(base, n);
2366:src/keys.c    **** 	}
2367:src/keys.c    **** 	else if ( n == 0 ) {
2368:src/keys.c    **** 		// Special 0
2369:src/keys.c    **** 		return OP_SPEC + (cmpx ? OP_Zeq0 : OP_Xeq0) + r;
2370:src/keys.c    **** 	}
2371:src/keys.c    **** 	else if ( n == 1 ) {
2372:src/keys.c    **** 		// Special 1
2373:src/keys.c    **** 		return OP_SPEC + (cmpx ? OP_Zeq1 : OP_Xeq1) + r;
2374:src/keys.c    **** 	}
2375:src/keys.c    **** 	else if ( n <= 9 || c == K_ARROW || c == K62 ) {
ARM GAS  /tmp/cceyv6gL.s 			page 47


2376:src/keys.c    **** 		// digit 2..9, -> or .
2377:src/keys.c    **** 		init_arg((enum rarg)base);
2378:src/keys.c    **** 		return process_arg(c);
2379:src/keys.c    **** 	}
2380:src/keys.c    **** 
2381:src/keys.c    **** 	switch (c) {
2382:src/keys.c    **** 	case K11:					// tests vs register
2383:src/keys.c    **** 	case K20:
2384:src/keys.c    **** 		init_arg((enum rarg)base);
2385:src/keys.c    **** 		return STATE_UNFINISHED;
2386:src/keys.c    **** 
2387:src/keys.c    **** 	//case K60:
2388:src/keys.c    **** 	case K24:
2389:src/keys.c    **** 		return STATE_UNFINISHED;
2390:src/keys.c    **** 
2391:src/keys.c    **** 	default:
2392:src/keys.c    **** 		break;
2393:src/keys.c    **** 	}
2394:src/keys.c    **** again:
2395:src/keys.c    **** 	State2.test = r;
2396:src/keys.c    **** 	State2.cmplx = cmpx;
2397:src/keys.c    **** 	return STATE_UNFINISHED;
2398:src/keys.c    **** }
2399:src/keys.c    **** 
2400:src/keys.c    **** #ifdef INCLUDE_USER_CATALOGUE
2401:src/keys.c    **** /*
2402:src/keys.c    ****  *  Build the user catalogue on the fly in RAM and return the number of entries
2403:src/keys.c    ****  */
2404:src/keys.c    **** #define USER_CAT_MAX 100
2405:src/keys.c    **** s_opcode UserCat[USER_CAT_MAX];
2406:src/keys.c    **** 
2407:src/keys.c    **** static int build_user_cat(void)
2408:src/keys.c    **** {
2409:src/keys.c    **** 	// find the label 'CAT'
2410:src/keys.c    **** 	const int lbl = OP_DBL + (DBL_LBL << DBL_SHIFT) + 'C' + ('A' << 16) + ('T' << 24);
2411:src/keys.c    **** 	unsigned int pc = findmultilbl(lbl, 0);
2412:src/keys.c    **** 	int len = 0;
2413:src/keys.c    **** 	while (pc && len < USER_CAT_MAX) {
2414:src/keys.c    **** 		// do a simnple insert-sort to sort the entries
2415:src/keys.c    **** 		char buf1[16];
2416:src/keys.c    **** 		int i;
2417:src/keys.c    **** 		s_opcode op;
2418:src/keys.c    **** 	next:
2419:src/keys.c    **** 		pc = do_inc(pc, 0);
2420:src/keys.c    **** 		op = (s_opcode) getprog(pc);
2421:src/keys.c    **** 		if (op == (OP_NIL | OP_END))
2422:src/keys.c    **** 			break;
2423:src/keys.c    **** 		if (isDBL(op))
2424:src/keys.c    **** 			continue;
2425:src/keys.c    **** 		if (isRARG(op)) {
2426:src/keys.c    **** 			const s_opcode rarg = RARG_CMD(op);
2427:src/keys.c    **** 			if (rarg != RARG_ALPHA && rarg != RARG_CONV
2428:src/keys.c    **** 			    && rarg != RARG_CONST && rarg != RARG_CONST_CMPLX)
2429:src/keys.c    **** 				op = op & 0xff00;	// remove argument
2430:src/keys.c    **** 		}
2431:src/keys.c    **** 		catcmd(op, buf1);
2432:src/keys.c    **** 		for (i = 0; i < len; ++i) {
ARM GAS  /tmp/cceyv6gL.s 			page 48


2433:src/keys.c    **** 			// Find a position in the table to insert the new entry
2434:src/keys.c    **** 			char buf2[16];
2435:src/keys.c    **** 			const char *p, *q;
2436:src/keys.c    **** 			int diff = 0;
2437:src/keys.c    **** 			if (op == UserCat[i]) {
2438:src/keys.c    **** 				// duplicate entry - ignore
2439:src/keys.c    **** 				goto next;
2440:src/keys.c    **** 			}
2441:src/keys.c    **** 			p = buf1;
2442:src/keys.c    **** 			if (*p == COMPLEX_PREFIX)
2443:src/keys.c    **** 				++p;
2444:src/keys.c    **** 			q = catcmd(UserCat[i], buf2);
2445:src/keys.c    **** 			if (*q == COMPLEX_PREFIX)
2446:src/keys.c    **** 				++q;
2447:src/keys.c    **** 			diff = 0;
2448:src/keys.c    **** 			while (*p != '\0' && diff == 0) {
2449:src/keys.c    **** 				diff = remap_chars(*q++) - remap_chars(*p++);
2450:src/keys.c    **** 			}
2451:src/keys.c    **** 			if ((diff == 0 && *q == 0) ) {
2452:src/keys.c    **** 				// identical according to sort order, insert after
2453:src/keys.c    **** 				++i;
2454:src/keys.c    **** 				break;
2455:src/keys.c    **** 			}
2456:src/keys.c    **** 			if (diff > 0) {
2457:src/keys.c    **** 				// insert new entry before the one found because this is greater
2458:src/keys.c    **** 				break;
2459:src/keys.c    **** 			}
2460:src/keys.c    **** 		}
2461:src/keys.c    **** 		if (i < len) {
2462:src/keys.c    **** 			// Make room
2463:src/keys.c    **** 			xcopy(UserCat + i + 1, UserCat + i, (len - i) << 1);
2464:src/keys.c    **** 		}
2465:src/keys.c    **** 		UserCat[i] = op;
2466:src/keys.c    **** 		++len;
2467:src/keys.c    **** 	}
2468:src/keys.c    **** 	// return the number of entries
2469:src/keys.c    **** 	return len;
2470:src/keys.c    **** }
2471:src/keys.c    **** #endif
2472:src/keys.c    **** 
2473:src/keys.c    **** /* Return the number of entries in the current catalogue.
2474:src/keys.c    ****  * These are all fixed size known at compile time so a table lookup will
2475:src/keys.c    ****  * likely be the most space efficient method.
2476:src/keys.c    ****  */
2477:src/keys.c    **** int current_catalogue_max(void) {
2478:src/keys.c    **** 	// A quick table of catalogue sizes
2479:src/keys.c    **** 	// NB: the order here MUST match that in `enum catalogues' 
2480:src/keys.c    **** 	static const unsigned char catalogue_sizes[] = 
2481:src/keys.c    **** 	{
2482:src/keys.c    **** 		0, // NONE
2483:src/keys.c    **** 		SIZE_catalogue,
2484:src/keys.c    **** 		SIZE_cplx_catalogue,
2485:src/keys.c    **** 		SIZE_stats_catalogue,
2486:src/keys.c    **** 		SIZE_prob_catalogue,
2487:src/keys.c    **** 		SIZE_int_catalogue,
2488:src/keys.c    **** 		SIZE_prog_catalogue,
2489:src/keys.c    **** 		SIZE_program_xfcn,
ARM GAS  /tmp/cceyv6gL.s 			page 49


2490:src/keys.c    **** 		SIZE_test_catalogue,
2491:src/keys.c    **** 		SIZE_mode_catalogue,
2492:src/keys.c    **** 		SIZE_alpha_catalogue,
2493:src/keys.c    **** 		SIZE_alpha_symbols,
2494:src/keys.c    **** 		SIZE_alpha_compares,
2495:src/keys.c    **** 		SIZE_alpha_arrows,
2496:src/keys.c    **** 		SIZE_alpha_letters,
2497:src/keys.c    **** 		SIZE_alpha_subscripts,
2498:src/keys.c    **** 		NUM_CONSTS_CAT,
2499:src/keys.c    **** 		NUM_CONSTS_CAT,
2500:src/keys.c    **** 		SIZE_conv_catalogue,
2501:src/keys.c    **** 		SIZE_sums_catalogue,
2502:src/keys.c    **** 		SIZE_matrix_catalogue,
2503:src/keys.c    **** #ifdef INCLUDE_INTERNAL_CATALOGUE
2504:src/keys.c    **** 		SIZE_internal_catalogue,
2505:src/keys.c    **** #endif
2506:src/keys.c    **** 	};
2507:src/keys.c    **** #ifdef INCLUDE_USER_CATALOGUE
2508:src/keys.c    **** 	const int cat = State2.catalogue;
2509:src/keys.c    **** 	return cat == CATALOGUE_USER ? build_user_cat() : catalogue_sizes[cat];
2510:src/keys.c    **** #else
2511:src/keys.c    **** 	return catalogue_sizes[State2.catalogue];
2512:src/keys.c    **** #endif
2513:src/keys.c    **** }
2514:src/keys.c    **** 
2515:src/keys.c    **** 
2516:src/keys.c    **** /* Look up the character position in the given byte array and
2517:src/keys.c    ****  * build the alpha op-code for it.
2518:src/keys.c    ****  */
2519:src/keys.c    **** static opcode alpha_code(int n, const char tbl[]) {
2520:src/keys.c    **** 	return RARG(RARG_ALPHA, tbl[n] & 0xff);
2521:src/keys.c    **** }
2522:src/keys.c    **** 
2523:src/keys.c    **** 
2524:src/keys.c    **** /* Return the opcode for entry n from the current catalogue
2525:src/keys.c    ****  */
2526:src/keys.c    **** opcode current_catalogue(int n) {
2527:src/keys.c    **** 	// A quick table of catalogue tables
2528:src/keys.c    **** 	// NB: the order here MUST match that in `enum catalogues'
2529:src/keys.c    **** 	static const void *catalogues[] =
2530:src/keys.c    **** 	{
2531:src/keys.c    **** 		NULL, // NONE
2532:src/keys.c    **** 		catalogue,
2533:src/keys.c    **** 		cplx_catalogue,
2534:src/keys.c    **** 		stats_catalogue,
2535:src/keys.c    **** 		prob_catalogue,
2536:src/keys.c    **** 		int_catalogue,
2537:src/keys.c    **** 		prog_catalogue,
2538:src/keys.c    **** 		program_xfcn,
2539:src/keys.c    **** 		test_catalogue,
2540:src/keys.c    **** 		mode_catalogue,
2541:src/keys.c    **** 		alpha_catalogue,
2542:src/keys.c    **** 		alpha_symbols,
2543:src/keys.c    **** 		alpha_compares,
2544:src/keys.c    **** 		alpha_arrows,
2545:src/keys.c    **** 		alpha_letters,
2546:src/keys.c    **** 		alpha_subscripts,
ARM GAS  /tmp/cceyv6gL.s 			page 50


2547:src/keys.c    **** 		NULL,
2548:src/keys.c    **** 		NULL,
2549:src/keys.c    **** 		NULL, //CONV
2550:src/keys.c    **** 		sums_catalogue,
2551:src/keys.c    **** 		matrix_catalogue,
2552:src/keys.c    **** #ifdef INCLUDE_INTERNAL_CATALOGUE
2553:src/keys.c    **** 		internal_catalogue,
2554:src/keys.c    **** #endif
2555:src/keys.c    **** 	};
2556:src/keys.c    **** 	const unsigned char *cat;
2557:src/keys.c    **** 	unsigned int c = State2.catalogue;
2558:src/keys.c    **** 	int m, i;
2559:src/keys.c    **** 	unsigned p, q;
2560:src/keys.c    **** 
2561:src/keys.c    **** 	if (c == CATALOGUE_CONST) {
2562:src/keys.c    **** 		if (n == OP_ZERO)
2563:src/keys.c    **** 			return RARG_BASEOP(RARG_INTNUM);
2564:src/keys.c    **** 		return CONST(n);
2565:src/keys.c    **** 	}
2566:src/keys.c    **** 	if (c == CATALOGUE_COMPLEX_CONST) {
2567:src/keys.c    **** 		if (n == OP_ZERO)
2568:src/keys.c    **** 			return RARG_BASEOP(RARG_INTNUM_CMPLX);
2569:src/keys.c    **** 		return CONST_CMPLX(n);
2570:src/keys.c    **** 	}
2571:src/keys.c    **** 	if (c == CATALOGUE_CONV) {
2572:src/keys.c    **** 		const int cnv = conv_catalogue[n];
2573:src/keys.c    **** 		if (cnv >= SIZE_conv_catalogue)
2574:src/keys.c    **** 			// Monadic conversion routine
2575:src/keys.c    **** 			return OP_MON | (cnv - SIZE_conv_catalogue);
2576:src/keys.c    **** 		else
2577:src/keys.c    **** 			return RARG(RARG_CONV, cnv);
2578:src/keys.c    **** 	}
2579:src/keys.c    **** #ifdef INCLUDE_USER_CATALOGUE
2580:src/keys.c    **** 	if (c == CATALOGUE_USER)
2581:src/keys.c    **** 		return build_user_cat() ? UserCat[n] : STATE_IGNORE;
2582:src/keys.c    **** #endif
2583:src/keys.c    **** 
2584:src/keys.c    **** 	if (c == CATALOGUE_ALPHA_LETTERS && State2.alphashift)
2585:src/keys.c    **** 		cat = (const unsigned char *) alpha_letters_lower;
2586:src/keys.c    **** 	else
2587:src/keys.c    **** 		cat = (const unsigned char *) catalogues[c];
2588:src/keys.c    **** 
2589:src/keys.c    **** 	if (c >= CATALOGUE_ALPHA_SYMBOLS && c <= CATALOGUE_ALPHA_SUBSCRIPTS) {
2590:src/keys.c    **** 		return alpha_code(n, (const char *) cat);
2591:src/keys.c    **** 	}
2592:src/keys.c    **** 	if (c >= sizeof(catalogues) / sizeof(void *))
2593:src/keys.c    **** 		return OP_NIL | OP_NOP;
2594:src/keys.c    **** 
2595:src/keys.c    **** 	/* Unpack the opcode */
2596:src/keys.c    **** 	cat += n + (n >> 2);
2597:src/keys.c    **** 	p = cat[0];
2598:src/keys.c    **** 	q = cat[1];
2599:src/keys.c    **** 	m = 0x3ff & ((p << (2 + ((n & 3) << 1))) | (q >> (6 - ((n & 3) << 1))));
2600:src/keys.c    **** 
2601:src/keys.c    **** 	/* Now figure out which opcode it really is */
2602:src/keys.c    **** 	for (i=0; i<KIND_MAX; i++) {
2603:src/keys.c    **** 		if (m < opcode_breaks[i])
ARM GAS  /tmp/cceyv6gL.s 			page 51


2604:src/keys.c    **** 			return (i << KIND_SHIFT) + m;
2605:src/keys.c    **** 		m -= opcode_breaks[i];
2606:src/keys.c    **** 	}
2607:src/keys.c    **** 	return RARG_BASEOP(m);
2608:src/keys.c    **** }
2609:src/keys.c    **** 
2610:src/keys.c    **** 
2611:src/keys.c    **** /*
2612:src/keys.c    ****  *  Helper for navigation in alpha catalogues. Some charaters are not allowed
2613:src/keys.c    ****  *  in multi character commands.
2614:src/keys.c    ****  */
2615:src/keys.c    **** static int forbidden_alpha(int pos) {
2616:src/keys.c    **** 	return (current_catalogue(pos) & 0xf0) == 0xf0;
2617:src/keys.c    **** }
2618:src/keys.c    **** 
2619:src/keys.c    **** /*
2620:src/keys.c    ****  *  Catalogue navigation
2621:src/keys.c    ****  */
2622:src/keys.c    ****  static int process_catalogue(const keycode c, const enum shifts shift, const int is_multi) {
2623:src/keys.c    ****    int pos = State.catpos;
2624:src/keys.c    ****    int ch;
2625:src/keys.c    ****    const int ctmax = current_catalogue_max();
2626:src/keys.c    ****    const enum catalogues cat = (enum catalogues) State2.catalogue;
2627:src/keys.c    **** 
2628:src/keys.c    ****    if (shift == SHIFT_N) {
2629:src/keys.c    ****      switch (c) {
2630:src/keys.c    **** #ifdef DM42
2631:src/keys.c    ****      case K05:			// XEQ accepts command
2632:src/keys.c    **** #else	  
2633:src/keys.c    ****      case K30:			// XEQ accepts command
2634:src/keys.c    **** #endif						  
2635:src/keys.c    ****      case K20:			// Enter accepts command
2636:src/keys.c    ****        if (pos < ctmax && !(is_multi && forbidden_alpha(pos))) {
2637:src/keys.c    **** 	 const opcode op = current_catalogue(pos);
2638:src/keys.c    **** 
2639:src/keys.c    **** 	 init_cat(CATALOGUE_NONE);
2640:src/keys.c    **** 
2641:src/keys.c    **** 	 if (isRARG(op)) {
2642:src/keys.c    **** 	   const unsigned int rarg = RARG_CMD(op);
2643:src/keys.c    **** 	   if (rarg == RARG_CONST || rarg == RARG_CONST_CMPLX || rarg == RARG_CONV || rarg == RARG_ALPHA)
2644:src/keys.c    **** 	     return op;
2645:src/keys.c    **** 	   if (rarg >= RARG_TEST_EQ && rarg <= RARG_TEST_GE)
2646:src/keys.c    **** 	     State2.test = TST_EQ + (RARG_CMD(op) - RARG_TEST_EQ);
2647:src/keys.c    **** 	   else
2648:src/keys.c    **** 	     init_arg(RARG_CMD(op));
2649:src/keys.c    **** 	 }
2650:src/keys.c    **** 	 else {
2651:src/keys.c    **** 	   return check_confirm(op);
2652:src/keys.c    **** 	 }
2653:src/keys.c    ****        } else
2654:src/keys.c    **** 	 init_cat(CATALOGUE_NONE);
2655:src/keys.c    ****        return STATE_UNFINISHED;
2656:src/keys.c    **** 
2657:src/keys.c    ****      case K24:			// backspace
2658:src/keys.c    ****        if (CmdLineLength > 0 && Keyticks < 30) {
2659:src/keys.c    **** 	 if (--CmdLineLength > 0)
2660:src/keys.c    **** 	   goto search;
ARM GAS  /tmp/cceyv6gL.s 			page 52


2661:src/keys.c    **** 	 pos = 0;
2662:src/keys.c    **** 	 goto set_pos;
2663:src/keys.c    ****        } else
2664:src/keys.c    **** 	 init_cat(CATALOGUE_NONE);
2665:src/keys.c    ****        return STATE_UNFINISHED;
2666:src/keys.c    **** 
2667:src/keys.c    ****      case K60:
2668:src/keys.c    ****        init_cat(CATALOGUE_NONE);
2669:src/keys.c    ****        return STATE_UNFINISHED;
2670:src/keys.c    **** 
2671:src/keys.c    ****      case K_UP:
2672:src/keys.c    ****        CmdLineLength = 0;
2673:src/keys.c    ****        if (pos == 0)
2674:src/keys.c    **** 	 goto set_max;
2675:src/keys.c    ****        else
2676:src/keys.c    **** 	 --pos;
2677:src/keys.c    ****        goto set_pos;
2678:src/keys.c    **** 
2679:src/keys.c    ****      case K_DOWN:
2680:src/keys.c    ****        CmdLineLength = 0;
2681:src/keys.c    ****        while (++pos < ctmax && is_multi && forbidden_alpha(pos));
2682:src/keys.c    ****        if (pos >= ctmax)
2683:src/keys.c    **** 	 pos = 0;
2684:src/keys.c    ****        goto set_pos;
2685:src/keys.c    **** 
2686:src/keys.c    ****      default:
2687:src/keys.c    ****        break;
2688:src/keys.c    ****      }
2689:src/keys.c    ****    } else if (shift == SHIFT_F) {
2690:src/keys.c    ****      if (cat == CATALOGUE_CONV && c == K01) {
2691:src/keys.c    ****        /*
2692:src/keys.c    **** 	* f 1/x in conversion catalogue
2693:src/keys.c    **** 	*/
2694:src/keys.c    ****        /* A small table of commands in pairs containing inverse commands.
2695:src/keys.c    **** 	* This table could be unsigned characters only storing the monadic kind.
2696:src/keys.c    **** 	* this saves twelve bytes in the table at a cost of some bytes in the code below.
2697:src/keys.c    **** 	* Not worth it since the maximum saving will be less than twelve bytes.
2698:src/keys.c    **** 	*/
2699:src/keys.c    ****        static const unsigned short int conv_mapping[] = {
2700:src/keys.c    **** 	 OP_MON | OP_AR_DB,	OP_MON | OP_DB_AR,
2701:src/keys.c    **** 	 OP_MON | OP_DB_PR,	OP_MON | OP_PR_DB,
2702:src/keys.c    **** 	 OP_MON | OP_DEGC_F,	OP_MON | OP_DEGF_C,
2703:src/keys.c    **** 	 OP_MON | OP_DEG2RAD,	OP_MON | OP_RAD2DEG,
2704:src/keys.c    **** 	 OP_MON | OP_DEG2GRD,	OP_MON | OP_GRD2DEG,
2705:src/keys.c    **** 	 OP_MON | OP_RAD2GRD,	OP_MON | OP_GRD2RAD,
2706:src/keys.c    ****        };
2707:src/keys.c    ****        const opcode op = current_catalogue(pos);
2708:src/keys.c    ****        int i;
2709:src/keys.c    **** 
2710:src/keys.c    ****        init_cat(CATALOGUE_NONE);
2711:src/keys.c    ****        if (isRARG(op))
2712:src/keys.c    **** 	 return op ^ 1;
2713:src/keys.c    ****        for (i = 0; i < sizeof(conv_mapping) / sizeof(conv_mapping[0]); ++i)
2714:src/keys.c    **** 	 if (op == conv_mapping[i])
2715:src/keys.c    **** 	   return conv_mapping[i^1];
2716:src/keys.c    ****        return STATE_UNFINISHED;		// Unreached
2717:src/keys.c    ****      }
ARM GAS  /tmp/cceyv6gL.s 			page 53


2718:src/keys.c    ****      else if (c == K60 && (State2.alphas || State2.multi)) {
2719:src/keys.c    ****        // Handle alpha shift in alpha character catalogues
2720:src/keys.c    ****        State2.alphashift = 1 - State2.alphashift;
2721:src/keys.c    ****        return STATE_UNFINISHED;
2722:src/keys.c    ****      }
2723:src/keys.c    ****    } else if (shift == SHIFT_G) {
2724:src/keys.c    ****      if (c == K24 && cat == CATALOGUE_SUMS) {
2725:src/keys.c    ****        init_cat(CATALOGUE_NONE);
2726:src/keys.c    ****        return OP_NIL | OP_SIGMACLEAR;
2727:src/keys.c    ****      }
2728:src/keys.c    ****    }
2729:src/keys.c    **** 
2730:src/keys.c    ****    /* We've got a key press, map it to a character and try to
2731:src/keys.c    ****     * jump to the appropriate catalogue entry.
2732:src/keys.c    ****     */
2733:src/keys.c    ****    ch = remap_chars(keycode_to_alpha(c, shift == SHIFT_G ? SHIFT_LC_G : shift));
2734:src/keys.c    ****    reset_shift();
2735:src/keys.c    ****    if (ch == '\0')
2736:src/keys.c    ****      return STATE_UNFINISHED;
2737:src/keys.c    ****    if (cat > CATALOGUE_ALPHA && cat < CATALOGUE_CONST) {
2738:src/keys.c    ****      // No multi character search in alpha catalogues
2739:src/keys.c    ****      CmdLineLength = 0;
2740:src/keys.c    ****    }
2741:src/keys.c    ****    if (CmdLineLength < 10)
2742:src/keys.c    ****      Cmdline[CmdLineLength++] = ch;
2743:src/keys.c    ****    /* Search for the current buffer in the catalogue */
2744:src/keys.c    **** 
2745:src/keys.c    ****  search:
2746:src/keys.c    ****    Cmdline[CmdLineLength] = '\0';
2747:src/keys.c    ****    for (pos = 0; pos < ctmax; ++pos) {
2748:src/keys.c    ****      char buf[16];
2749:src/keys.c    ****      const char *cmd = catcmd(current_catalogue(pos), buf);
2750:src/keys.c    ****      int i;
2751:src/keys.c    **** 
2752:src/keys.c    ****      if (*cmd == COMPLEX_PREFIX)
2753:src/keys.c    ****        cmd++;
2754:src/keys.c    ****      for (i=0; cmd[i] != '\0'; i++) {
2755:src/keys.c    ****        const int c = remap_chars(cmd[i]);
2756:src/keys.c    ****        const int cl = (unsigned char) Cmdline[i];
2757:src/keys.c    ****        if (c > cl)
2758:src/keys.c    **** 	 goto set_pos;
2759:src/keys.c    ****        else if (c < cl)
2760:src/keys.c    **** 	 break;
2761:src/keys.c    ****      }
2762:src/keys.c    ****      if (Cmdline[i] == '\0')
2763:src/keys.c    ****        goto set_pos;
2764:src/keys.c    ****    }
2765:src/keys.c    ****  set_max:
2766:src/keys.c    ****    pos = ctmax - 1;
2767:src/keys.c    ****  set_pos:
2768:src/keys.c    ****    while (is_multi && pos && forbidden_alpha(pos))
2769:src/keys.c    ****      --pos;
2770:src/keys.c    ****    State.catpos = pos;
2771:src/keys.c    ****    return STATE_UNFINISHED;
2772:src/keys.c    ****  }
2773:src/keys.c    **** 
2774:src/keys.c    **** #ifndef REALBUILD
ARM GAS  /tmp/cceyv6gL.s 			page 54


2775:src/keys.c    **** int find_pos(const char* text) {
2776:src/keys.c    **** 	int pos;
2777:src/keys.c    **** 	const int ctmax = current_catalogue_max();
2778:src/keys.c    **** 	for (pos = 0; pos < ctmax; ++pos) {
2779:src/keys.c    **** 		char buf[16];
2780:src/keys.c    **** 		const char *cmd = catcmd(current_catalogue(pos), buf);
2781:src/keys.c    **** 		int i;
2782:src/keys.c    **** 
2783:src/keys.c    **** 		if (*cmd == COMPLEX_PREFIX)
2784:src/keys.c    **** 			cmd++;
2785:src/keys.c    **** 		for (i=0; cmd[i] != '\0'; i++) {
2786:src/keys.c    **** 			const int c = remap_chars(cmd[i]);
2787:src/keys.c    **** 			const int cl = remap_chars(text[i]);
2788:src/keys.c    **** 			if (c > cl)
2789:src/keys.c    **** 				return pos;
2790:src/keys.c    **** 			else if (c < cl)
2791:src/keys.c    **** 				break;
2792:src/keys.c    **** 		}
2793:src/keys.c    **** 		if (text[i] == '\0')
2794:src/keys.c    **** 			return pos;
2795:src/keys.c    **** 	}
2796:src/keys.c    **** 	return pos;
2797:src/keys.c    **** }
2798:src/keys.c    **** 
2799:src/keys.c    **** #endif
2800:src/keys.c    **** 
2801:src/keys.c    **** /* Multi (2) word instruction entry
2802:src/keys.c    ****  */
2803:src/keys.c    **** static void reset_multi(void) {
2804:src/keys.c    **** 	// Reset the multi flag and clear lowercase flag if not called from alpha mode
2805:src/keys.c    **** 	State2.multi = 0;
2806:src/keys.c    **** 	if (! State2.alphas )
2807:src/keys.c    **** 		State2.alphashift = 0;
2808:src/keys.c    **** }
2809:src/keys.c    **** 
2810:src/keys.c    **** static int process_multi(const keycode c) {
2811:src/keys.c    **** 	enum shifts shift = reset_shift();
2812:src/keys.c    **** 	unsigned int ch = 0;
2813:src/keys.c    **** 	unsigned int opcode;
2814:src/keys.c    **** 
2815:src/keys.c    **** 	if (State2.catalogue) {
2816:src/keys.c    **** 		// Alpha catalogue from within multi character command
2817:src/keys.c    **** 		opcode = process_catalogue((const keycode)c, shift, State2.numdigit == 2);
2818:src/keys.c    **** 		if (opcode == STATE_UNFINISHED)
2819:src/keys.c    **** 			return opcode;
2820:src/keys.c    **** 		ch = (unsigned char) opcode;
2821:src/keys.c    **** 		goto add_char;
2822:src/keys.c    **** 	}
2823:src/keys.c    **** 
2824:src/keys.c    **** 	switch (c) {
2825:src/keys.c    **** 	case K20:	// Enter - exit multi mode, maybe return a result
2826:src/keys.c    **** 		if (shift != SHIFT_N)
2827:src/keys.c    **** 				break;
2828:src/keys.c    **** 		reset_multi();
2829:src/keys.c    **** 		if (State2.numdigit == 0)
2830:src/keys.c    **** 			return STATE_UNFINISHED;
2831:src/keys.c    **** 		else if (State2.numdigit == 1)
ARM GAS  /tmp/cceyv6gL.s 			page 55


2832:src/keys.c    **** 			State2.digval2 = 0;
2833:src/keys.c    **** 		goto fin;
2834:src/keys.c    **** 
2835:src/keys.c    **** 	case K24:	// Clx - backspace, clear alpha
2836:src/keys.c    **** 		if (shift != SHIFT_H) {
2837:src/keys.c    **** 			if (State2.numdigit == 0)
2838:src/keys.c    **** 				reset_multi();
2839:src/keys.c    **** 			else
2840:src/keys.c    **** 				State2.numdigit--;
2841:src/keys.c    **** 			return STATE_UNFINISHED;
2842:src/keys.c    **** 		}
2843:src/keys.c    **** 		break;
2844:src/keys.c    **** 
2845:src/keys.c    **** 	case K60:	// EXIT/ON maybe case switch, otherwise exit alpha
2846:src/keys.c    **** 		if (shift == SHIFT_F)
2847:src/keys.c    **** 			State2.alphashift = 1 - State2.alphashift;
2848:src/keys.c    **** 		else
2849:src/keys.c    **** 			reset_multi();
2850:src/keys.c    **** 		return STATE_UNFINISHED;
2851:src/keys.c    **** 
2852:src/keys.c    **** 	default:
2853:src/keys.c    **** 		break;
2854:src/keys.c    **** 		}
2855:src/keys.c    **** 
2856:src/keys.c    **** 	/* Look up the character and return an alpha code if okay */
2857:src/keys.c    **** 	ch = keycode_to_alpha(c, shift);
2858:src/keys.c    **** 	if (ch == 0)
2859:src/keys.c    **** 		return STATE_UNFINISHED;
2860:src/keys.c    **** add_char:
2861:src/keys.c    **** 	if (State2.numdigit == 0) {
2862:src/keys.c    **** 		State2.digval = ch;
2863:src/keys.c    **** 		State2.numdigit = 1;
2864:src/keys.c    **** 		return STATE_UNFINISHED;
2865:src/keys.c    **** 	} else if (State2.numdigit == 1) {
2866:src/keys.c    **** 		State2.digval2 = ch;
2867:src/keys.c    **** 		State2.numdigit = 2;
2868:src/keys.c    **** 		return STATE_UNFINISHED;
2869:src/keys.c    **** 	}
2870:src/keys.c    **** 	reset_multi();
2871:src/keys.c    **** 
2872:src/keys.c    **** fin:
2873:src/keys.c    **** 	opcode = OP_DBL + (CmdBase << DBL_SHIFT) 
2874:src/keys.c    **** 	       + State2.digval + (State2.digval2 << 16) + (ch << 24);
2875:src/keys.c    **** 	return opcode;
2876:src/keys.c    **** }
2877:src/keys.c    **** 
2878:src/keys.c    **** 
2879:src/keys.c    **** /* Handle YES/NO confirmations
2880:src/keys.c    ****  */
2881:src/keys.c    **** static int process_confirm(const keycode c) {
2882:src/keys.c    **** 	// Optimization hint: a switch is shorter then a table of function pointers!
2883:src/keys.c    **** 	switch (c) {
2884:src/keys.c    **** #ifdef DM42
2885:src/keys.c    **** 	case K52:
2886:src/keys.c    **** #endif
2887:src/keys.c    **** 	case K63:			// Yes
2888:src/keys.c    **** 	  switch (State2.confirm) {
ARM GAS  /tmp/cceyv6gL.s 			page 56


2889:src/keys.c    **** 	  case confirm_clall:	 clrall();	break;
2890:src/keys.c    **** 	  case confirm_reset:	 reset();	break;
2891:src/keys.c    **** 	  case confirm_clprog:	 clrprog();	break;
2892:src/keys.c    **** 	  case confirm_clpall:	 clpall();	break;
2893:src/keys.c    **** 	  }
2894:src/keys.c    **** 	case K24:
2895:src/keys.c    **** #ifdef DM42
2896:src/keys.c    **** 	case K22:
2897:src/keys.c    **** #else
2898:src/keys.c    **** 	case K32:
2899:src/keys.c    **** #endif
2900:src/keys.c    **** 	  // No
2901:src/keys.c    **** 	  State2.confirm = 0;
2902:src/keys.c    **** 	  State2.digval = 0;
2903:src/keys.c    **** 	  break;
2904:src/keys.c    **** 	default:			// No state change
2905:src/keys.c    **** 	  break;
2906:src/keys.c    **** 	}
2907:src/keys.c    **** 	return STATE_UNFINISHED;
2908:src/keys.c    **** }
2909:src/keys.c    **** 
2910:src/keys.c    **** 
2911:src/keys.c    **** /*
2912:src/keys.c    ****  *  STATUS
2913:src/keys.c    ****  */
2914:src/keys.c    **** static int process_status(const keycode c) {
2915:src/keys.c    **** 	int n = ((int)State2.status) - 3;
2916:src/keys.c    **** 	int max = LocalRegs < 0 ? 11 : 10;
2917:src/keys.c    **** 
2918:src/keys.c    **** 	if (c == K_UP) {
2919:src/keys.c    **** 		if (--n < -2)
2920:src/keys.c    **** 			n = max;
2921:src/keys.c    **** 	}
2922:src/keys.c    **** 	else if (c == K_DOWN) {
2923:src/keys.c    **** 		if (++n > max)
2924:src/keys.c    **** 			n = -2;
2925:src/keys.c    **** 	}
2926:src/keys.c    **** 	else if (c == K24 /* || c == K60 */) {
2927:src/keys.c    **** 		State2.status = 0;
2928:src/keys.c    **** 		return STATE_UNFINISHED;
2929:src/keys.c    **** 	} 
2930:src/keys.c    **** 	else {
2931:src/keys.c    **** 		int nn = keycode_to_digit_or_register(c) & 0x7f;
2932:src/keys.c    **** 		if (nn <= 9)
2933:src/keys.c    **** 			n = nn;
2934:src/keys.c    **** 		else if (nn == LOCAL_REG_BASE)
2935:src/keys.c    **** 			n = n == max ? 10 : max;
2936:src/keys.c    **** 		else if (nn != NO_REG)
2937:src/keys.c    **** 			n = 10; 
2938:src/keys.c    **** 	}
2939:src/keys.c    **** 	State2.status = n + 3;
2940:src/keys.c    **** 
2941:src/keys.c    **** 	return STATE_UNFINISHED;
2942:src/keys.c    **** }
2943:src/keys.c    **** 
2944:src/keys.c    **** 
2945:src/keys.c    **** /*
ARM GAS  /tmp/cceyv6gL.s 			page 57


2946:src/keys.c    ****  *  CAT helper
2947:src/keys.c    ****  */
2948:src/keys.c    **** static int is_label_or_end_at(unsigned int pc, int search_end) {
 218              		.loc 1 2948 64 is_stmt 1 view -0
 219              		.cfi_startproc
 220              		@ args = 0, pretend = 0, frame = 0
 221              		@ frame_needed = 0, uses_anonymous_args = 0
2949:src/keys.c    **** 	const unsigned int op = getprog(pc);
 222              		.loc 1 2949 2 view .LVU58
2948:src/keys.c    **** 	const unsigned int op = getprog(pc);
 223              		.loc 1 2948 64 is_stmt 0 view .LVU59
 224 0000 10B5     		push	{r4, lr}
 225              		.cfi_def_cfa_offset 8
 226              		.cfi_offset 4, -8
 227              		.cfi_offset 14, -4
2948:src/keys.c    **** 	const unsigned int op = getprog(pc);
 228              		.loc 1 2948 64 view .LVU60
 229 0002 0C46     		mov	r4, r1
 230              		.loc 1 2949 26 view .LVU61
 231 0004 FFF7FEFF 		bl	getprog
 232              	.LVL20:
2950:src/keys.c    **** 
2951:src/keys.c    **** 	return op == (OP_NIL | OP_END) || (!search_end && (isDBL(op) && opDBL(op) == DBL_LBL));
 233              		.loc 1 2951 2 is_stmt 1 view .LVU62
 234              		.loc 1 2951 33 is_stmt 0 view .LVU63
 235 0008 B0F59D7F 		cmp	r0, #314
 236 000c 06D0     		beq	.L21
 237              		.loc 1 2951 53 discriminator 3 view .LVU64
 238 000e 00F47043 		and	r3, r0, #61440
 239              		.loc 1 2951 49 discriminator 3 view .LVU65
 240 0012 B3F5704F 		cmp	r3, #61440
 241 0016 03D0     		beq	.L24
 242              		.loc 1 2951 33 view .LVU66
 243 0018 0020     		movs	r0, #0
 244              	.LVL21:
2952:src/keys.c    **** }
 245              		.loc 1 2952 1 view .LVU67
 246 001a 10BD     		pop	{r4, pc}
 247              	.LVL22:
 248              	.L21:
2951:src/keys.c    **** }
 249              		.loc 1 2951 33 view .LVU68
 250 001c 0120     		movs	r0, #1
 251              	.LVL23:
 252              		.loc 1 2952 1 view .LVU69
 253 001e 10BD     		pop	{r4, pc}
 254              	.LVL24:
 255              	.L24:
2951:src/keys.c    **** }
 256              		.loc 1 2951 66 discriminator 5 view .LVU70
 257 0020 C0F30320 		ubfx	r0, r0, #8, #4
 258              	.LVL25:
2951:src/keys.c    **** }
 259              		.loc 1 2951 63 discriminator 5 view .LVU71
 260 0024 50EA0403 		orrs	r3, r0, r4
 261 0028 0CBF     		ite	eq
 262 002a 0120     		moveq	r0, #1
ARM GAS  /tmp/cceyv6gL.s 			page 58


 263 002c 0020     		movne	r0, #0
 264              		.loc 1 2952 1 discriminator 5 view .LVU72
 265 002e 10BD     		pop	{r4, pc}
 266              		.loc 1 2952 1 discriminator 5 view .LVU73
 267              		.cfi_endproc
 268              	.LFE54:
 270              		.section	.text.advance_to_next_label,"ax",%progbits
 271              		.align	1
 272              		.p2align 2,,3
 273              		.syntax unified
 274              		.thumb
 275              		.thumb_func
 276              		.fpu fpv4-sp-d16
 278              	advance_to_next_label:
 279              	.LVL26:
 280              	.LFB55:
2953:src/keys.c    **** 
2954:src/keys.c    **** static unsigned int advance_to_next_label(unsigned int pc, int inc, int search_end) {
 281              		.loc 1 2954 85 is_stmt 1 view -0
 282              		.cfi_startproc
 283              		@ args = 0, pretend = 0, frame = 0
 284              		@ frame_needed = 0, uses_anonymous_args = 0
 285              		.loc 1 2954 85 is_stmt 0 view .LVU75
 286 0000 70B5     		push	{r4, r5, r6, lr}
 287              		.cfi_def_cfa_offset 16
 288              		.cfi_offset 4, -16
 289              		.cfi_offset 5, -12
 290              		.cfi_offset 6, -8
 291              		.cfi_offset 14, -4
 292              		.loc 1 2954 85 view .LVU76
 293 0002 0446     		mov	r4, r0
2955:src/keys.c    **** 	do {
 294              		.loc 1 2955 2 is_stmt 1 view .LVU77
2956:src/keys.c    **** 		for (;;) {
 295              		.loc 1 2956 3 view .LVU78
2957:src/keys.c    **** 			if (inc) {
 296              		.loc 1 2957 4 view .LVU79
2954:src/keys.c    **** 	do {
 297              		.loc 1 2954 85 is_stmt 0 view .LVU80
 298 0004 1646     		mov	r6, r2
 299              		.loc 1 2957 7 view .LVU81
 300 0006 21B9     		cbnz	r1, .L29
 301              	.LVL27:
 302              	.L26:
2958:src/keys.c    **** 				pc = do_inc(pc, 0);
2959:src/keys.c    **** 				if (PcWrapped)
2960:src/keys.c    **** 					break;
2961:src/keys.c    **** 			}
2962:src/keys.c    **** 			else
2963:src/keys.c    **** 				inc = 1;
2964:src/keys.c    **** 			if (is_label_or_end_at(pc, search_end)) {
 303              		.loc 1 2964 4 is_stmt 1 view .LVU82
 304              		.loc 1 2964 8 is_stmt 0 view .LVU83
 305 0008 3146     		mov	r1, r6
 306 000a 2046     		mov	r0, r4
 307              		.loc 1 2964 8 view .LVU84
 308 000c FFF7FEFF 		bl	is_label_or_end_at
ARM GAS  /tmp/cceyv6gL.s 			page 59


 309              	.LVL28:
 310              		.loc 1 2964 7 view .LVU85
 311 0010 B8B9     		cbnz	r0, .L28
 312              	.LVL29:
 313              	.L29:
 314              		.loc 1 2964 7 view .LVU86
 315 0012 0D4D     		ldr	r5, .L37
 316              	.L30:
2958:src/keys.c    **** 				pc = do_inc(pc, 0);
 317              		.loc 1 2958 5 is_stmt 1 view .LVU87
2958:src/keys.c    **** 				pc = do_inc(pc, 0);
 318              		.loc 1 2958 10 is_stmt 0 view .LVU88
 319 0014 2046     		mov	r0, r4
 320 0016 0021     		movs	r1, #0
 321 0018 FFF7FEFF 		bl	do_inc
 322              	.LVL30:
2959:src/keys.c    **** 					break;
 323              		.loc 1 2959 8 view .LVU89
 324 001c 2B68     		ldr	r3, [r5]
2958:src/keys.c    **** 				pc = do_inc(pc, 0);
 325              		.loc 1 2958 10 view .LVU90
 326 001e 0446     		mov	r4, r0
 327              	.LVL31:
2959:src/keys.c    **** 					break;
 328              		.loc 1 2959 5 is_stmt 1 view .LVU91
2959:src/keys.c    **** 					break;
 329              		.loc 1 2959 8 is_stmt 0 view .LVU92
 330 0020 002B     		cmp	r3, #0
 331 0022 F1D0     		beq	.L26
2965:src/keys.c    **** 				return pc;
2966:src/keys.c    **** 			}
2967:src/keys.c    **** 		}
2968:src/keys.c    **** 		pc = addrLIB(1, (nLIB(pc) + 1) & 3);
 332              		.loc 1 2968 3 is_stmt 1 view .LVU93
 333              		.loc 1 2968 8 is_stmt 0 view .LVU94
 334 0024 20F47F54 		bic	r4, r0, #16320
 335 0028 24F03F04 		bic	r4, r4, #63
 336 002c 04F58044 		add	r4, r4, #16384
 337 0030 A4B2     		uxth	r4, r4
 338              		.loc 1 2968 6 view .LVU95
 339 0032 44F00104 		orr	r4, r4, #1
 340              	.LVL32:
2969:src/keys.c    **** 	} while (! is_label_or_end_at(pc, search_end));
 341              		.loc 1 2969 10 is_stmt 1 view .LVU96
 342              		.loc 1 2969 13 is_stmt 0 view .LVU97
 343 0036 2046     		mov	r0, r4
 344 0038 3146     		mov	r1, r6
 345 003a FFF7FEFF 		bl	is_label_or_end_at
 346              	.LVL33:
 347              		.loc 1 2969 2 view .LVU98
 348 003e 0028     		cmp	r0, #0
 349 0040 E8D0     		beq	.L30
 350              	.L28:
2970:src/keys.c    **** 	return pc;
2971:src/keys.c    **** }
 351              		.loc 1 2971 1 view .LVU99
 352 0042 2046     		mov	r0, r4
ARM GAS  /tmp/cceyv6gL.s 			page 60


 353 0044 70BD     		pop	{r4, r5, r6, pc}
 354              	.LVL34:
 355              	.L38:
 356              		.loc 1 2971 1 view .LVU100
 357 0046 00BF     		.align	2
 358              	.L37:
 359 0048 00000000 		.word	PcWrapped
 360              		.cfi_endproc
 361              	.LFE55:
 363              		.section	.text.init_cat,"ax",%progbits
 364              		.align	1
 365              		.p2align 2,,3
 366              		.syntax unified
 367              		.thumb
 368              		.thumb_func
 369              		.fpu fpv4-sp-d16
 371              	init_cat:
 372              	.LVL35:
 373              	.LFB12:
 565:src/keys.c    **** 	if (cat == CATALOGUE_NONE && State2.catalogue != CATALOGUE_NONE) {
 374              		.loc 1 565 43 is_stmt 1 view -0
 375              		.cfi_startproc
 376              		@ args = 0, pretend = 0, frame = 0
 377              		@ frame_needed = 0, uses_anonymous_args = 0
 566:src/keys.c    **** 		// Save last catalogue for a later restore
 378              		.loc 1 566 2 view .LVU102
 565:src/keys.c    **** 	if (cat == CATALOGUE_NONE && State2.catalogue != CATALOGUE_NONE) {
 379              		.loc 1 565 43 is_stmt 0 view .LVU103
 380 0000 38B5     		push	{r3, r4, r5, lr}
 381              		.cfi_def_cfa_offset 16
 382              		.cfi_offset 3, -16
 383              		.cfi_offset 4, -12
 384              		.cfi_offset 5, -8
 385              		.cfi_offset 14, -4
 566:src/keys.c    **** 		// Save last catalogue for a later restore
 386              		.loc 1 566 37 view .LVU104
 387 0002 384C     		ldr	r4, .L58
 566:src/keys.c    **** 		// Save last catalogue for a later restore
 388              		.loc 1 566 5 view .LVU105
 389 0004 0546     		mov	r5, r0
 390 0006 D0B9     		cbnz	r0, .L40
 566:src/keys.c    **** 		// Save last catalogue for a later restore
 391              		.loc 1 566 37 discriminator 1 view .LVU106
 392 0008 A37B     		ldrb	r3, [r4, #14]	@ zero_extendqisi2
 566:src/keys.c    **** 		// Save last catalogue for a later restore
 393              		.loc 1 566 28 discriminator 1 view .LVU107
 394 000a 43B1     		cbz	r3, .L41
 568:src/keys.c    **** 		CmdLineLength = 0;
 395              		.loc 1 568 3 is_stmt 1 view .LVU108
 568:src/keys.c    **** 		CmdLineLength = 0;
 396              		.loc 1 568 18 is_stmt 0 view .LVU109
 397 000c 364A     		ldr	r2, .L58+4
 569:src/keys.c    **** 	}
 398              		.loc 1 569 17 view .LVU110
 399 000e 2077     		strb	r0, [r4, #28]
 568:src/keys.c    **** 		CmdLineLength = 0;
 400              		.loc 1 568 18 view .LVU111
ARM GAS  /tmp/cceyv6gL.s 			page 61


 401 0010 1268     		ldr	r2, [r2]
 402 0012 92F8DC17 		ldrb	r1, [r2, #2012]	@ zero_extendqisi2
 403 0016 63F30401 		bfi	r1, r3, #0, #5
 404 001a 82F8DC17 		strb	r1, [r2, #2012]
 569:src/keys.c    **** 	}
 405              		.loc 1 569 3 is_stmt 1 view .LVU112
 406              	.L41:
 571:src/keys.c    **** 
 407              		.loc 1 571 2 view .LVU113
 408 001e FFF7FEFF 		bl	process_cmdline
 409              	.LVL36:
 573:src/keys.c    **** 	State2.registerlist = 0;
 410              		.loc 1 573 2 view .LVU114
 574:src/keys.c    **** 	State2.status = 0;
 411              		.loc 1 574 2 view .LVU115
 575:src/keys.c    **** 	State2.catalogue = CATALOGUE_NONE;
 412              		.loc 1 575 2 view .LVU116
 600:src/keys.c    **** 		if (cat != CATALOGUE_NONE && State.last_cat != cat) {
 413              		.loc 1 600 16 is_stmt 0 view .LVU117
 414 0022 6369     		ldr	r3, [r4, #20]
 415 0024 23F04063 		bic	r3, r3, #201326592
 416 0028 23F40073 		bic	r3, r3, #512
 575:src/keys.c    **** 	State2.catalogue = CATALOGUE_NONE;
 417              		.loc 1 575 16 view .LVU118
 418 002c 0022     		movs	r2, #0
 600:src/keys.c    **** 		if (cat != CATALOGUE_NONE && State.last_cat != cat) {
 419              		.loc 1 600 16 view .LVU119
 420 002e 6361     		str	r3, [r4, #20]
 575:src/keys.c    **** 	State2.catalogue = CATALOGUE_NONE;
 421              		.loc 1 575 16 view .LVU120
 422 0030 2273     		strb	r2, [r4, #12]
 576:src/keys.c    **** 
 423              		.loc 1 576 2 is_stmt 1 view .LVU121
 578:src/keys.c    **** 	case CATALOGUE_LABELS:
 424              		.loc 1 578 2 view .LVU122
 599:src/keys.c    **** 		State2.cmplx = (cat == CATALOGUE_COMPLEX || cat == CATALOGUE_COMPLEX_CONST);
 425              		.loc 1 599 3 view .LVU123
 599:src/keys.c    **** 		State2.cmplx = (cat == CATALOGUE_COMPLEX || cat == CATALOGUE_COMPLEX_CONST);
 426              		.loc 1 599 20 is_stmt 0 view .LVU124
 427 0032 A273     		strb	r2, [r4, #14]
 600:src/keys.c    **** 		if (cat != CATALOGUE_NONE && State.last_cat != cat) {
 428              		.loc 1 600 3 is_stmt 1 view .LVU125
 601:src/keys.c    **** 			// Different catalogue, reset position
 429              		.loc 1 601 3 view .LVU126
 606:src/keys.c    **** #if defined(QTGUI) || defined(IOS)
 430              		.loc 1 606 2 view .LVU127
 431              	.LBB301:
 432              	.LBI301:
 114:src/keys.c    **** 	return set_shift(SHIFT_N);
 433              		.loc 1 114 13 view .LVU128
 434              	.LBE301:
 115:src/keys.c    **** }
 435              		.loc 1 115 2 view .LVU129
 436              	.LVL37:
 437              	.LBB318:
 438              	.LBB302:
 439              	.LBI302:
ARM GAS  /tmp/cceyv6gL.s 			page 62


 104:src/keys.c    **** 	enum shifts r = cur_shift();
 440              		.loc 1 104 20 view .LVU130
 441              	.LBB303:
 105:src/keys.c    **** 	State2.shifts = shift;
 442              		.loc 1 105 2 view .LVU131
 443              	.LBB304:
 444              	.LBI304:
  96:src/keys.c    **** 	enum shifts s = shift_down();
 445              		.loc 1 96 13 view .LVU132
 446              	.LBB305:
  97:src/keys.c    **** 	return s == SHIFT_N ? (enum shifts) State2.shifts : s;
 447              		.loc 1 97 2 view .LVU133
  97:src/keys.c    **** 	return s == SHIFT_N ? (enum shifts) State2.shifts : s;
 448              		.loc 1 97 18 is_stmt 0 view .LVU134
 449 0034 FFF7FEFF 		bl	shift_down
 450              	.LVL38:
  98:src/keys.c    **** }
 451              		.loc 1 98 2 is_stmt 1 view .LVU135
 452              	.LBE305:
 453              	.LBE304:
 106:src/keys.c    **** 	//	State2.alpha_pos = 0;
 454              		.loc 1 106 2 view .LVU136
 106:src/keys.c    **** 	//	State2.alpha_pos = 0;
 455              		.loc 1 106 16 is_stmt 0 view .LVU137
 456 0038 0023     		movs	r3, #0
 457 003a 2374     		strb	r3, [r4, #16]
 108:src/keys.c    **** }
 458              		.loc 1 108 2 is_stmt 1 view .LVU138
 459              	.LVL39:
 108:src/keys.c    **** }
 460              		.loc 1 108 2 is_stmt 0 view .LVU139
 461              	.LBE303:
 462              	.LBE302:
 463              	.LBE318:
 610:src/keys.c    **** 
 464              		.loc 1 610 1 view .LVU140
 465 003c 38BD     		pop	{r3, r4, r5, pc}
 466              	.LVL40:
 467              	.L40:
 571:src/keys.c    **** 
 468              		.loc 1 571 2 is_stmt 1 view .LVU141
 469 003e FFF7FEFF 		bl	process_cmdline
 470              	.LVL41:
 573:src/keys.c    **** 	State2.registerlist = 0;
 471              		.loc 1 573 2 view .LVU142
 574:src/keys.c    **** 	State2.status = 0;
 472              		.loc 1 574 2 view .LVU143
 573:src/keys.c    **** 	State2.registerlist = 0;
 473              		.loc 1 573 19 is_stmt 0 view .LVU144
 474 0042 E37D     		ldrb	r3, [r4, #23]	@ zero_extendqisi2
 575:src/keys.c    **** 	State2.catalogue = CATALOGUE_NONE;
 475              		.loc 1 575 16 view .LVU145
 476 0044 0022     		movs	r2, #0
 573:src/keys.c    **** 	State2.registerlist = 0;
 477              		.loc 1 573 19 view .LVU146
 478 0046 23F00C03 		bic	r3, r3, #12
 578:src/keys.c    **** 	case CATALOGUE_LABELS:
ARM GAS  /tmp/cceyv6gL.s 			page 63


 479              		.loc 1 578 2 view .LVU147
 480 004a 162D     		cmp	r5, #22
 573:src/keys.c    **** 	State2.registerlist = 0;
 481              		.loc 1 573 19 view .LVU148
 482 004c E375     		strb	r3, [r4, #23]
 575:src/keys.c    **** 	State2.catalogue = CATALOGUE_NONE;
 483              		.loc 1 575 2 is_stmt 1 view .LVU149
 575:src/keys.c    **** 	State2.catalogue = CATALOGUE_NONE;
 484              		.loc 1 575 16 is_stmt 0 view .LVU150
 485 004e 2273     		strb	r2, [r4, #12]
 576:src/keys.c    **** 
 486              		.loc 1 576 2 is_stmt 1 view .LVU151
 576:src/keys.c    **** 
 487              		.loc 1 576 19 is_stmt 0 view .LVU152
 488 0050 A273     		strb	r2, [r4, #14]
 578:src/keys.c    **** 	case CATALOGUE_LABELS:
 489              		.loc 1 578 2 is_stmt 1 view .LVU153
 490 0052 1BD0     		beq	.L42
 491 0054 172D     		cmp	r5, #23
 492 0056 06D1     		bne	.L56
 594:src/keys.c    **** 		break;
 493              		.loc 1 594 3 view .LVU154
 594:src/keys.c    **** 		break;
 494              		.loc 1 594 17 is_stmt 0 view .LVU155
 495 0058 0123     		movs	r3, #1
 496 005a 2373     		strb	r3, [r4, #12]
 595:src/keys.c    **** 
 497              		.loc 1 595 3 is_stmt 1 view .LVU156
 606:src/keys.c    **** #if defined(QTGUI) || defined(IOS)
 498              		.loc 1 606 2 view .LVU157
 499              	.LBB319:
 114:src/keys.c    **** 	return set_shift(SHIFT_N);
 500              		.loc 1 114 13 view .LVU158
 501              	.LBE319:
 115:src/keys.c    **** }
 502              		.loc 1 115 2 view .LVU159
 503              	.LVL42:
 504              	.LBB320:
 505              	.LBB315:
 104:src/keys.c    **** 	enum shifts r = cur_shift();
 506              		.loc 1 104 20 view .LVU160
 507              	.LBB312:
 105:src/keys.c    **** 	State2.shifts = shift;
 508              		.loc 1 105 2 view .LVU161
 509              	.LBB309:
  96:src/keys.c    **** 	enum shifts s = shift_down();
 510              		.loc 1 96 13 view .LVU162
 511              	.LBB306:
  97:src/keys.c    **** 	return s == SHIFT_N ? (enum shifts) State2.shifts : s;
 512              		.loc 1 97 2 view .LVU163
  97:src/keys.c    **** 	return s == SHIFT_N ? (enum shifts) State2.shifts : s;
 513              		.loc 1 97 18 is_stmt 0 view .LVU164
 514 005c FFF7FEFF 		bl	shift_down
 515              	.LVL43:
  98:src/keys.c    **** }
 516              		.loc 1 98 2 is_stmt 1 view .LVU165
 517              	.LBE306:
ARM GAS  /tmp/cceyv6gL.s 			page 64


 518              	.LBE309:
 106:src/keys.c    **** 	//	State2.alpha_pos = 0;
 519              		.loc 1 106 2 view .LVU166
 106:src/keys.c    **** 	//	State2.alpha_pos = 0;
 520              		.loc 1 106 16 is_stmt 0 view .LVU167
 521 0060 0023     		movs	r3, #0
 522 0062 2374     		strb	r3, [r4, #16]
 108:src/keys.c    **** }
 523              		.loc 1 108 2 is_stmt 1 view .LVU168
 524              	.LVL44:
 108:src/keys.c    **** }
 525              		.loc 1 108 2 is_stmt 0 view .LVU169
 526              	.LBE312:
 527              	.LBE315:
 528              	.LBE320:
 610:src/keys.c    **** 
 529              		.loc 1 610 1 view .LVU170
 530 0064 38BD     		pop	{r3, r4, r5, pc}
 531              	.L56:
 578:src/keys.c    **** 	case CATALOGUE_LABELS:
 532              		.loc 1 578 2 view .LVU171
 533 0066 152D     		cmp	r5, #21
 534 0068 1CD1     		bne	.L44
 581:src/keys.c    **** 		State2.digval = advance_to_next_label(ProgBegin, 0, 0);
 535              		.loc 1 581 3 is_stmt 1 view .LVU172
 582:src/keys.c    **** 		break;
 536              		.loc 1 582 41 is_stmt 0 view .LVU173
 537 006a 1F49     		ldr	r1, .L58+4
 581:src/keys.c    **** 		State2.digval = advance_to_next_label(ProgBegin, 0, 0);
 538              		.loc 1 581 20 view .LVU174
 539 006c DBB2     		uxtb	r3, r3
 582:src/keys.c    **** 		break;
 540              		.loc 1 582 41 view .LVU175
 541 006e 0968     		ldr	r1, [r1]
 581:src/keys.c    **** 		State2.digval = advance_to_next_label(ProgBegin, 0, 0);
 542              		.loc 1 581 20 view .LVU176
 543 0070 43F00403 		orr	r3, r3, #4
 544 0074 E375     		strb	r3, [r4, #23]
 582:src/keys.c    **** 		break;
 545              		.loc 1 582 3 is_stmt 1 view .LVU177
 582:src/keys.c    **** 		break;
 546              		.loc 1 582 19 is_stmt 0 view .LVU178
 547 0076 B1F8EC07 		ldrh	r0, [r1, #2028]
 548 007a 1146     		mov	r1, r2
 549 007c FFF7FEFF 		bl	advance_to_next_label
 550              	.LVL45:
 582:src/keys.c    **** 		break;
 551              		.loc 1 582 17 view .LVU179
 552 0080 2081     		strh	r0, [r4, #8]	@ movhi
 583:src/keys.c    **** 	
 553              		.loc 1 583 3 is_stmt 1 view .LVU180
 554              	.L45:
 606:src/keys.c    **** #if defined(QTGUI) || defined(IOS)
 555              		.loc 1 606 2 view .LVU181
 556              	.LBB321:
 114:src/keys.c    **** 	return set_shift(SHIFT_N);
 557              		.loc 1 114 13 view .LVU182
ARM GAS  /tmp/cceyv6gL.s 			page 65


 558              	.LBE321:
 115:src/keys.c    **** }
 559              		.loc 1 115 2 view .LVU183
 560              	.LVL46:
 561              	.LBB322:
 562              	.LBB316:
 104:src/keys.c    **** 	enum shifts r = cur_shift();
 563              		.loc 1 104 20 view .LVU184
 564              	.LBB313:
 105:src/keys.c    **** 	State2.shifts = shift;
 565              		.loc 1 105 2 view .LVU185
 566              	.LBB310:
  96:src/keys.c    **** 	enum shifts s = shift_down();
 567              		.loc 1 96 13 view .LVU186
 568              	.LBB307:
  97:src/keys.c    **** 	return s == SHIFT_N ? (enum shifts) State2.shifts : s;
 569              		.loc 1 97 2 view .LVU187
  97:src/keys.c    **** 	return s == SHIFT_N ? (enum shifts) State2.shifts : s;
 570              		.loc 1 97 18 is_stmt 0 view .LVU188
 571 0082 FFF7FEFF 		bl	shift_down
 572              	.LVL47:
  98:src/keys.c    **** }
 573              		.loc 1 98 2 is_stmt 1 view .LVU189
 574              	.LBE307:
 575              	.LBE310:
 106:src/keys.c    **** 	//	State2.alpha_pos = 0;
 576              		.loc 1 106 2 view .LVU190
 106:src/keys.c    **** 	//	State2.alpha_pos = 0;
 577              		.loc 1 106 16 is_stmt 0 view .LVU191
 578 0086 0023     		movs	r3, #0
 579 0088 2374     		strb	r3, [r4, #16]
 108:src/keys.c    **** }
 580              		.loc 1 108 2 is_stmt 1 view .LVU192
 581              	.LVL48:
 108:src/keys.c    **** }
 582              		.loc 1 108 2 is_stmt 0 view .LVU193
 583              	.LBE313:
 584              	.LBE316:
 585              	.LBE322:
 610:src/keys.c    **** 
 586              		.loc 1 610 1 view .LVU194
 587 008a 38BD     		pop	{r3, r4, r5, pc}
 588              	.L42:
 587:src/keys.c    **** 		State2.digval = regX_idx;
 589              		.loc 1 587 3 is_stmt 1 view .LVU195
 587:src/keys.c    **** 		State2.digval = regX_idx;
 590              		.loc 1 587 23 is_stmt 0 view .LVU196
 591 008c E37D     		ldrb	r3, [r4, #23]	@ zero_extendqisi2
 589:src/keys.c    **** 		break;
 592              		.loc 1 589 18 view .LVU197
 593 008e A272     		strb	r2, [r4, #10]
 587:src/keys.c    **** 		State2.digval = regX_idx;
 594              		.loc 1 587 23 view .LVU198
 595 0090 43F00803 		orr	r3, r3, #8
 588:src/keys.c    **** 		State2.digval2 = 0;
 596              		.loc 1 588 17 view .LVU199
 597 0094 6422     		movs	r2, #100
ARM GAS  /tmp/cceyv6gL.s 			page 66


 587:src/keys.c    **** 		State2.digval = regX_idx;
 598              		.loc 1 587 23 view .LVU200
 599 0096 E375     		strb	r3, [r4, #23]
 588:src/keys.c    **** 		State2.digval2 = 0;
 600              		.loc 1 588 3 is_stmt 1 view .LVU201
 588:src/keys.c    **** 		State2.digval2 = 0;
 601              		.loc 1 588 17 is_stmt 0 view .LVU202
 602 0098 2281     		strh	r2, [r4, #8]	@ movhi
 589:src/keys.c    **** 		break;
 603              		.loc 1 589 3 is_stmt 1 view .LVU203
 590:src/keys.c    **** 
 604              		.loc 1 590 3 view .LVU204
 606:src/keys.c    **** #if defined(QTGUI) || defined(IOS)
 605              		.loc 1 606 2 view .LVU205
 606              	.LBB323:
 114:src/keys.c    **** 	return set_shift(SHIFT_N);
 607              		.loc 1 114 13 view .LVU206
 608              	.LBE323:
 115:src/keys.c    **** }
 609              		.loc 1 115 2 view .LVU207
 610              	.LVL49:
 611              	.LBB324:
 612              	.LBB317:
 104:src/keys.c    **** 	enum shifts r = cur_shift();
 613              		.loc 1 104 20 view .LVU208
 614              	.LBB314:
 105:src/keys.c    **** 	State2.shifts = shift;
 615              		.loc 1 105 2 view .LVU209
 616              	.LBB311:
  96:src/keys.c    **** 	enum shifts s = shift_down();
 617              		.loc 1 96 13 view .LVU210
 618              	.LBB308:
  97:src/keys.c    **** 	return s == SHIFT_N ? (enum shifts) State2.shifts : s;
 619              		.loc 1 97 2 view .LVU211
  97:src/keys.c    **** 	return s == SHIFT_N ? (enum shifts) State2.shifts : s;
 620              		.loc 1 97 18 is_stmt 0 view .LVU212
 621 009a FFF7FEFF 		bl	shift_down
 622              	.LVL50:
  98:src/keys.c    **** }
 623              		.loc 1 98 2 is_stmt 1 view .LVU213
 624              	.LBE308:
 625              	.LBE311:
 106:src/keys.c    **** 	//	State2.alpha_pos = 0;
 626              		.loc 1 106 2 view .LVU214
 106:src/keys.c    **** 	//	State2.alpha_pos = 0;
 627              		.loc 1 106 16 is_stmt 0 view .LVU215
 628 009e 0023     		movs	r3, #0
 629 00a0 2374     		strb	r3, [r4, #16]
 108:src/keys.c    **** }
 630              		.loc 1 108 2 is_stmt 1 view .LVU216
 631              	.LVL51:
 108:src/keys.c    **** }
 632              		.loc 1 108 2 is_stmt 0 view .LVU217
 633              	.LBE314:
 634              	.LBE317:
 635              	.LBE324:
 610:src/keys.c    **** 
ARM GAS  /tmp/cceyv6gL.s 			page 67


 636              		.loc 1 610 1 view .LVU218
 637 00a2 38BD     		pop	{r3, r4, r5, pc}
 638              	.L44:
 599:src/keys.c    **** 		State2.cmplx = (cat == CATALOGUE_COMPLEX || cat == CATALOGUE_COMPLEX_CONST);
 639              		.loc 1 599 3 is_stmt 1 view .LVU219
 600:src/keys.c    **** 		if (cat != CATALOGUE_NONE && State.last_cat != cat) {
 640              		.loc 1 600 44 is_stmt 0 view .LVU220
 641 00a4 022D     		cmp	r5, #2
 599:src/keys.c    **** 		State2.cmplx = (cat == CATALOGUE_COMPLEX || cat == CATALOGUE_COMPLEX_CONST);
 642              		.loc 1 599 20 view .LVU221
 643 00a6 A573     		strb	r5, [r4, #14]
 600:src/keys.c    **** 		if (cat != CATALOGUE_NONE && State.last_cat != cat) {
 644              		.loc 1 600 3 is_stmt 1 view .LVU222
 600:src/keys.c    **** 		if (cat != CATALOGUE_NONE && State.last_cat != cat) {
 645              		.loc 1 600 44 is_stmt 0 view .LVU223
 646 00a8 12D1     		bne	.L57
 600:src/keys.c    **** 		if (cat != CATALOGUE_NONE && State.last_cat != cat) {
 647              		.loc 1 600 16 view .LVU224
 648 00aa 637D     		ldrb	r3, [r4, #21]	@ zero_extendqisi2
 649 00ac 43F00203 		orr	r3, r3, #2
 650 00b0 6375     		strb	r3, [r4, #21]
 601:src/keys.c    **** 			// Different catalogue, reset position
 651              		.loc 1 601 3 is_stmt 1 view .LVU225
 652              	.L49:
 601:src/keys.c    **** 			// Different catalogue, reset position
 653              		.loc 1 601 32 is_stmt 0 discriminator 1 view .LVU226
 654 00b2 0D4B     		ldr	r3, .L58+4
 655 00b4 1A68     		ldr	r2, [r3]
 601:src/keys.c    **** 			// Different catalogue, reset position
 656              		.loc 1 601 37 discriminator 1 view .LVU227
 657 00b6 92F8DC37 		ldrb	r3, [r2, #2012]	@ zero_extendqisi2
 601:src/keys.c    **** 			// Different catalogue, reset position
 658              		.loc 1 601 29 discriminator 1 view .LVU228
 659 00ba 03F01F03 		and	r3, r3, #31
 660 00be AB42     		cmp	r3, r5
 661 00c0 DFD0     		beq	.L45
 603:src/keys.c    **** 		}
 662              		.loc 1 603 4 is_stmt 1 view .LVU229
 603:src/keys.c    **** 		}
 663              		.loc 1 603 17 is_stmt 0 view .LVU230
 664 00c2 B2F8DC37 		ldrh	r3, [r2, #2012]
 665 00c6 6FF34B13 		bfc	r3, #5, #7
 666 00ca A2F8DC37 		strh	r3, [r2, #2012]	@ movhi
 667 00ce D8E7     		b	.L45
 668              	.L57:
 600:src/keys.c    **** 		if (cat != CATALOGUE_NONE && State.last_cat != cat) {
 669              		.loc 1 600 44 view .LVU231
 670 00d0 A5F11101 		sub	r1, r5, #17
 600:src/keys.c    **** 		if (cat != CATALOGUE_NONE && State.last_cat != cat) {
 671              		.loc 1 600 16 view .LVU232
 672 00d4 637D     		ldrb	r3, [r4, #21]	@ zero_extendqisi2
 600:src/keys.c    **** 		if (cat != CATALOGUE_NONE && State.last_cat != cat) {
 673              		.loc 1 600 44 view .LVU233
 674 00d6 4A42     		rsbs	r2, r1, #0
 675 00d8 4A41     		adcs	r2, r2, r1
 600:src/keys.c    **** 		if (cat != CATALOGUE_NONE && State.last_cat != cat) {
 676              		.loc 1 600 16 view .LVU234
ARM GAS  /tmp/cceyv6gL.s 			page 68


 677 00da 62F34103 		bfi	r3, r2, #1, #1
 678 00de 6375     		strb	r3, [r4, #21]
 601:src/keys.c    **** 			// Different catalogue, reset position
 679              		.loc 1 601 3 is_stmt 1 view .LVU235
 680 00e0 E7E7     		b	.L49
 681              	.L59:
 682 00e2 00BF     		.align	2
 683              	.L58:
 684 00e4 00000000 		.word	StateWhileOn
 685 00e8 00000000 		.word	main_ram
 686              		.cfi_endproc
 687              	.LFE12:
 689              		.section	.text.advance_to_previous_label,"ax",%progbits
 690              		.align	1
 691              		.p2align 2,,3
 692              		.syntax unified
 693              		.thumb
 694              		.thumb_func
 695              		.fpu fpv4-sp-d16
 697              	advance_to_previous_label:
 698              	.LVL52:
 699              	.LFB56:
2972:src/keys.c    **** 
2973:src/keys.c    **** static unsigned int advance_to_previous_label(unsigned int pc, int search_end) {
 700              		.loc 1 2973 80 view -0
 701              		.cfi_startproc
 702              		@ args = 0, pretend = 0, frame = 0
 703              		@ frame_needed = 0, uses_anonymous_args = 0
 704              		.loc 1 2973 80 is_stmt 0 view .LVU237
 705 0000 70B5     		push	{r4, r5, r6, lr}
 706              		.cfi_def_cfa_offset 16
 707              		.cfi_offset 4, -16
 708              		.cfi_offset 5, -12
 709              		.cfi_offset 6, -8
 710              		.cfi_offset 14, -4
 711 0002 124E     		ldr	r6, .L69
 712              		.loc 1 2973 80 view .LVU238
 713 0004 0446     		mov	r4, r0
 714 0006 0D46     		mov	r5, r1
 715              	.LVL53:
 716              	.L61:
2974:src/keys.c    **** 	do {
 717              		.loc 1 2974 2 is_stmt 1 view .LVU239
2975:src/keys.c    **** 		for (;;) {
 718              		.loc 1 2975 3 view .LVU240
2976:src/keys.c    **** 			pc = do_dec(pc, 0);
 719              		.loc 1 2976 4 view .LVU241
 720              		.loc 1 2976 9 is_stmt 0 view .LVU242
 721 0008 2046     		mov	r0, r4
 722 000a 0021     		movs	r1, #0
 723 000c FFF7FEFF 		bl	do_dec
 724              	.LVL54:
2977:src/keys.c    **** 			if (PcWrapped)
2978:src/keys.c    **** 				break;
2979:src/keys.c    **** 			if (is_label_or_end_at(pc, search_end)) {
 725              		.loc 1 2979 4 is_stmt 1 view .LVU243
2980:src/keys.c    **** 				return pc;
ARM GAS  /tmp/cceyv6gL.s 			page 69


2981:src/keys.c    **** 			}
2982:src/keys.c    **** 		}
2983:src/keys.c    **** 		pc = addrLIB(1, (nLIB(pc) - 1) & 3);
 726              		.loc 1 2983 3 view .LVU244
 727              		.loc 1 2983 8 is_stmt 0 view .LVU245
 728 0010 20F47F53 		bic	r3, r0, #16320
 729 0014 23F03F03 		bic	r3, r3, #63
2977:src/keys.c    **** 			if (PcWrapped)
 730              		.loc 1 2977 7 view .LVU246
 731 0018 3268     		ldr	r2, [r6]
 732              		.loc 1 2983 8 view .LVU247
 733 001a A3F58043 		sub	r3, r3, #16384
2984:src/keys.c    **** 		pc = do_dec(pc, 0);
 734              		.loc 1 2984 8 view .LVU248
 735 001e 0021     		movs	r1, #0
2976:src/keys.c    **** 			if (PcWrapped)
 736              		.loc 1 2976 9 view .LVU249
 737 0020 0446     		mov	r4, r0
 738              	.LVL55:
2977:src/keys.c    **** 				break;
 739              		.loc 1 2977 4 is_stmt 1 view .LVU250
2983:src/keys.c    **** 		pc = do_dec(pc, 0);
 740              		.loc 1 2983 8 is_stmt 0 view .LVU251
 741 0022 9BB2     		uxth	r3, r3
 742              	.LVL56:
 743              		.loc 1 2984 3 is_stmt 1 view .LVU252
2977:src/keys.c    **** 				break;
 744              		.loc 1 2977 7 is_stmt 0 view .LVU253
 745 0024 32B9     		cbnz	r2, .L62
2979:src/keys.c    **** 				return pc;
 746              		.loc 1 2979 8 view .LVU254
 747 0026 2946     		mov	r1, r5
 748 0028 FFF7FEFF 		bl	is_label_or_end_at
 749              	.LVL57:
2979:src/keys.c    **** 				return pc;
 750              		.loc 1 2979 7 view .LVU255
 751 002c 0028     		cmp	r0, #0
 752 002e EBD0     		beq	.L61
2985:src/keys.c    **** 	} while (! is_label_or_end_at(pc, search_end));
2986:src/keys.c    **** 	return pc;
2987:src/keys.c    **** }
 753              		.loc 1 2987 1 view .LVU256
 754 0030 2046     		mov	r0, r4
 755 0032 70BD     		pop	{r4, r5, r6, pc}
 756              	.LVL58:
 757              	.L62:
2984:src/keys.c    **** 	} while (! is_label_or_end_at(pc, search_end));
 758              		.loc 1 2984 8 view .LVU257
 759 0034 43F00100 		orr	r0, r3, #1
 760 0038 FFF7FEFF 		bl	do_dec
 761              	.LVL59:
2985:src/keys.c    **** 	} while (! is_label_or_end_at(pc, search_end));
 762              		.loc 1 2985 13 view .LVU258
 763 003c 2946     		mov	r1, r5
2984:src/keys.c    **** 	} while (! is_label_or_end_at(pc, search_end));
 764              		.loc 1 2984 8 view .LVU259
 765 003e 0446     		mov	r4, r0
ARM GAS  /tmp/cceyv6gL.s 			page 70


 766              	.LVL60:
2985:src/keys.c    **** 	} while (! is_label_or_end_at(pc, search_end));
 767              		.loc 1 2985 10 is_stmt 1 view .LVU260
2985:src/keys.c    **** 	} while (! is_label_or_end_at(pc, search_end));
 768              		.loc 1 2985 13 is_stmt 0 view .LVU261
 769 0040 FFF7FEFF 		bl	is_label_or_end_at
 770              	.LVL61:
2985:src/keys.c    **** 	} while (! is_label_or_end_at(pc, search_end));
 771              		.loc 1 2985 2 view .LVU262
 772 0044 0028     		cmp	r0, #0
 773 0046 DFD0     		beq	.L61
 774              		.loc 1 2987 1 view .LVU263
 775 0048 2046     		mov	r0, r4
 776 004a 70BD     		pop	{r4, r5, r6, pc}
 777              	.LVL62:
 778              	.L70:
 779              		.loc 1 2987 1 view .LVU264
 780              		.align	2
 781              	.L69:
 782 004c 00000000 		.word	PcWrapped
 783              		.cfi_endproc
 784              	.LFE56:
 786              		.section	.text.check_confirm.part.0,"ax",%progbits
 787              		.align	1
 788              		.p2align 2,,3
 789              		.syntax unified
 790              		.thumb
 791              		.thumb_func
 792              		.fpu fpv4-sp-d16
 794              	check_confirm.part.0:
 795              	.LVL63:
 796              	.LFB64:
 714:src/keys.c    **** 	if (opKIND(op) == KIND_NIL) {
 797              		.loc 1 714 12 is_stmt 1 view -0
 798              		.cfi_startproc
 799              		@ args = 0, pretend = 0, frame = 0
 800              		@ frame_needed = 0, uses_anonymous_args = 0
 801              		@ link register save eliminated.
 802              	.LBB325:
 716:src/keys.c    **** 		if (nilop >= OP_CLALL && nilop <= OP_CLPALL) {
 803              		.loc 1 716 3 view .LVU266
 717:src/keys.c    **** 			State2.confirm = confirm_clall + (nilop - OP_CLALL);
 804              		.loc 1 717 3 view .LVU267
 716:src/keys.c    **** 		if (nilop >= OP_CLALL && nilop <= OP_CLPALL) {
 805              		.loc 1 716 13 is_stmt 0 view .LVU268
 806 0000 C3B2     		uxtb	r3, r0
 717:src/keys.c    **** 			State2.confirm = confirm_clall + (nilop - OP_CLALL);
 807              		.loc 1 717 25 view .LVU269
 808 0002 A3F14102 		sub	r2, r3, #65
 717:src/keys.c    **** 			State2.confirm = confirm_clall + (nilop - OP_CLALL);
 809              		.loc 1 717 6 view .LVU270
 810 0006 032A     		cmp	r2, #3
 811 0008 06D9     		bls	.L74
 725:src/keys.c    **** #endif
 812              		.loc 1 725 7 is_stmt 1 view .LVU271
 725:src/keys.c    **** #endif
 813              		.loc 1 725 29 is_stmt 0 view .LVU272
ARM GAS  /tmp/cceyv6gL.s 			page 71


 814 000a AD3B     		subs	r3, r3, #173
 725:src/keys.c    **** #endif
 815              		.loc 1 725 10 view .LVU273
 816 000c 052B     		cmp	r3, #5
 817 000e 02D8     		bhi	.L73
 735:src/keys.c    **** 		}
 818              		.loc 1 735 4 is_stmt 1 view .LVU274
 735:src/keys.c    **** 		}
 819              		.loc 1 735 20 is_stmt 0 view .LVU275
 820 0010 054B     		ldr	r3, .L75
 821 0012 0122     		movs	r2, #1
 822 0014 1A60     		str	r2, [r3]
 823              	.L73:
 824              	.LBE325:
 739:src/keys.c    **** 
 825              		.loc 1 739 1 view .LVU276
 826 0016 7047     		bx	lr
 827              	.L74:
 828              	.LBB326:
 718:src/keys.c    **** 			return STATE_UNFINISHED;
 829              		.loc 1 718 4 is_stmt 1 view .LVU277
 718:src/keys.c    **** 			return STATE_UNFINISHED;
 830              		.loc 1 718 19 is_stmt 0 view .LVU278
 831 0018 044B     		ldr	r3, .L75+4
 832 001a 1A7D     		ldrb	r2, [r3, #20]	@ zero_extendqisi2
 718:src/keys.c    **** 			return STATE_UNFINISHED;
 833              		.loc 1 718 35 view .LVU279
 834 001c 4038     		subs	r0, r0, #64
 835              	.LVL64:
 718:src/keys.c    **** 			return STATE_UNFINISHED;
 836              		.loc 1 718 19 view .LVU280
 837 001e 60F30202 		bfi	r2, r0, #0, #3
 838 0022 1A75     		strb	r2, [r3, #20]
 719:src/keys.c    **** 		}
 839              		.loc 1 719 4 is_stmt 1 view .LVU281
 719:src/keys.c    **** 		}
 840              		.loc 1 719 11 is_stmt 0 view .LVU282
 841 0024 3320     		movs	r0, #51
 842              	.LVL65:
 719:src/keys.c    **** 		}
 843              		.loc 1 719 11 view .LVU283
 844 0026 7047     		bx	lr
 845              	.L76:
 846              		.align	2
 847              	.L75:
 848 0028 00000000 		.word	NonProgrammable
 849 002c 00000000 		.word	StateWhileOn
 850              	.LBE326:
 851              		.cfi_endproc
 852              	.LFE64:
 854              		.section	.text.init_arg.part.0,"ax",%progbits
 855              		.align	1
 856              		.p2align 2,,3
 857              		.syntax unified
 858              		.thumb
 859              		.thumb_func
 860              		.fpu fpv4-sp-d16
ARM GAS  /tmp/cceyv6gL.s 			page 72


 862              	init_arg.part.0:
 863              	.LVL66:
 864              	.LFB66:
 552:src/keys.c    **** 	if (is_bad_cmdline())
 865              		.loc 1 552 13 is_stmt 1 view -0
 866              		.cfi_startproc
 867              		@ args = 0, pretend = 0, frame = 0
 868              		@ frame_needed = 0, uses_anonymous_args = 0
 869              		@ link register save eliminated.
 555:src/keys.c    **** 	State2.ind = 0;
 870              		.loc 1 555 2 view .LVU285
 555:src/keys.c    **** 	State2.ind = 0;
 871              		.loc 1 555 10 is_stmt 0 view .LVU286
 872 0000 084B     		ldr	r3, .L78
 560:src/keys.c    **** 	State2.local = 0;
 873              		.loc 1 560 13 view .LVU287
 874 0002 5969     		ldr	r1, [r3, #20]
 555:src/keys.c    **** 	State2.ind = 0;
 875              		.loc 1 555 10 view .LVU288
 876 0004 D877     		strb	r0, [r3, #31]
 556:src/keys.c    **** 	State2.digval = 0;
 877              		.loc 1 556 2 is_stmt 1 view .LVU289
 557:src/keys.c    **** 	State2.numdigit = 0;
 878              		.loc 1 557 2 view .LVU290
 560:src/keys.c    **** 	State2.local = 0;
 879              		.loc 1 560 13 is_stmt 0 view .LVU291
 880 0006 21F40F11 		bic	r1, r1, #2342912
 881 000a 8628     		cmp	r0, #134
 882 000c 0CBF     		ite	eq
 883 000e 4FF40812 		moveq	r2, #2228224
 884 0012 4FF40012 		movne	r2, #2097152
 885 0016 0A43     		orrs	r2, r2, r1
 557:src/keys.c    **** 	State2.numdigit = 0;
 886              		.loc 1 557 16 view .LVU292
 887 0018 0021     		movs	r1, #0
 560:src/keys.c    **** 	State2.local = 0;
 888              		.loc 1 560 13 view .LVU293
 889 001a 5A61     		str	r2, [r3, #20]
 557:src/keys.c    **** 	State2.numdigit = 0;
 890              		.loc 1 557 16 view .LVU294
 891 001c 1981     		strh	r1, [r3, #8]	@ movhi
 558:src/keys.c    **** 	State2.rarg = 1;
 892              		.loc 1 558 2 is_stmt 1 view .LVU295
 558:src/keys.c    **** 	State2.rarg = 1;
 893              		.loc 1 558 18 is_stmt 0 view .LVU296
 894 001e D972     		strb	r1, [r3, #11]
 559:src/keys.c    **** 	State2.dot = 0;
 895              		.loc 1 559 2 is_stmt 1 view .LVU297
 560:src/keys.c    **** 	State2.local = 0;
 896              		.loc 1 560 2 view .LVU298
 561:src/keys.c    **** 	State2.shuffle = (base == RARG_SHUFFLE);
 897              		.loc 1 561 2 view .LVU299
 562:src/keys.c    **** }
 898              		.loc 1 562 2 view .LVU300
 563:src/keys.c    **** 
 899              		.loc 1 563 1 is_stmt 0 view .LVU301
 900 0020 7047     		bx	lr
ARM GAS  /tmp/cceyv6gL.s 			page 73


 901              	.L79:
 902 0022 00BF     		.align	2
 903              	.L78:
 904 0024 00000000 		.word	StateWhileOn
 905              		.cfi_endproc
 906              	.LFE66:
 908              		.section	.text.reset_arg,"ax",%progbits
 909              		.align	1
 910              		.p2align 2,,3
 911              		.syntax unified
 912              		.thumb
 913              		.thumb_func
 914              		.fpu fpv4-sp-d16
 916              	reset_arg:
 917              	.LFB34:
1899:src/keys.c    **** 	init_arg((enum rarg) 0);
 918              		.loc 1 1899 29 is_stmt 1 view -0
 919              		.cfi_startproc
 920              		@ args = 0, pretend = 0, frame = 0
 921              		@ frame_needed = 0, uses_anonymous_args = 0
1900:src/keys.c    **** 	State2.rarg = 0;
 922              		.loc 1 1900 2 view .LVU303
 923              	.LVL67:
 924              	.LBB327:
 925              	.LBI327:
 552:src/keys.c    **** 	if (is_bad_cmdline())
 926              		.loc 1 552 13 view .LVU304
 927              	.LBB328:
 553:src/keys.c    **** 		return;
 928              		.loc 1 553 2 view .LVU305
 929              	.LBE328:
 930              	.LBE327:
1899:src/keys.c    **** 	init_arg((enum rarg) 0);
 931              		.loc 1 1899 29 is_stmt 0 view .LVU306
 932 0000 08B5     		push	{r3, lr}
 933              		.cfi_def_cfa_offset 8
 934              		.cfi_offset 3, -8
 935              		.cfi_offset 14, -4
 936              	.LBB330:
 937              	.LBB329:
 553:src/keys.c    **** 		return;
 938              		.loc 1 553 6 view .LVU307
 939 0002 FFF7FEFF 		bl	is_bad_cmdline
 940              	.LVL68:
 553:src/keys.c    **** 		return;
 941              		.loc 1 553 5 view .LVU308
 942 0006 08B9     		cbnz	r0, .L81
 943 0008 FFF7FEFF 		bl	init_arg.part.0
 944              	.LVL69:
 945              	.L81:
 553:src/keys.c    **** 		return;
 946              		.loc 1 553 5 view .LVU309
 947              	.LBE329:
 948              	.LBE330:
1901:src/keys.c    **** }
 949              		.loc 1 1901 2 is_stmt 1 view .LVU310
1901:src/keys.c    **** }
ARM GAS  /tmp/cceyv6gL.s 			page 74


 950              		.loc 1 1901 14 is_stmt 0 view .LVU311
 951 000c 024B     		ldr	r3, .L83
 952 000e 9A7D     		ldrb	r2, [r3, #22]	@ zero_extendqisi2
 953 0010 6FF34512 		bfc	r2, #5, #1
 954 0014 9A75     		strb	r2, [r3, #22]
1902:src/keys.c    **** 
 955              		.loc 1 1902 1 view .LVU312
 956 0016 08BD     		pop	{r3, pc}
 957              	.L84:
 958              		.align	2
 959              	.L83:
 960 0018 00000000 		.word	StateWhileOn
 961              		.cfi_endproc
 962              	.LFE34:
 964              		.section	.text.arg_eval,"ax",%progbits
 965              		.align	1
 966              		.p2align 2,,3
 967              		.syntax unified
 968              		.thumb
 969              		.thumb_func
 970              		.fpu fpv4-sp-d16
 972              	arg_eval:
 973              	.LVL70:
 974              	.LFB35:
1904:src/keys.c    ****    const unsigned int base = CmdBase;
 975              		.loc 1 1904 40 is_stmt 1 view -0
 976              		.cfi_startproc
 977              		@ args = 0, pretend = 0, frame = 0
 978              		@ frame_needed = 0, uses_anonymous_args = 0
1905:src/keys.c    ****    int r = RARG(base, val 
 979              		.loc 1 1905 4 view .LVU314
1904:src/keys.c    ****    const unsigned int base = CmdBase;
 980              		.loc 1 1904 40 is_stmt 0 view .LVU315
 981 0000 F8B5     		push	{r3, r4, r5, r6, r7, lr}
 982              		.cfi_def_cfa_offset 24
 983              		.cfi_offset 3, -24
 984              		.cfi_offset 4, -20
 985              		.cfi_offset 5, -16
 986              		.cfi_offset 6, -12
 987              		.cfi_offset 7, -8
 988              		.cfi_offset 14, -4
1905:src/keys.c    ****    int r = RARG(base, val 
 989              		.loc 1 1905 30 view .LVU316
 990 0002 234B     		ldr	r3, .L109
1906:src/keys.c    **** 		+ (State2.ind ? RARG_IND : 0) 
 991              		.loc 1 1906 12 view .LVU317
 992 0004 9D7D     		ldrb	r5, [r3, #22]	@ zero_extendqisi2
 993 0006 597D     		ldrb	r1, [r3, #21]	@ zero_extendqisi2
1905:src/keys.c    ****    int r = RARG(base, val 
 994              		.loc 1 1905 23 view .LVU318
 995 0008 DA7F     		ldrb	r2, [r3, #31]	@ zero_extendqisi2
 996              	.LVL71:
1906:src/keys.c    **** 		+ (State2.ind ? RARG_IND : 0) 
 997              		.loc 1 1906 4 is_stmt 1 view .LVU319
1906:src/keys.c    **** 		+ (State2.ind ? RARG_IND : 0) 
 998              		.loc 1 1906 12 is_stmt 0 view .LVU320
 999 000a EE07     		lsls	r6, r5, #31
ARM GAS  /tmp/cceyv6gL.s 			page 75


1909:src/keys.c    **** 
 1000              		.loc 1 1909 34 view .LVU321
 1001 000c 214E     		ldr	r6, .L109+4
 1002 000e 3668     		ldr	r6, [r6]
1906:src/keys.c    **** 		+ (State2.ind ? RARG_IND : 0) 
 1003              		.loc 1 1906 12 view .LVU322
 1004 0010 01F08003 		and	r3, r1, #128
1909:src/keys.c    **** 
 1005              		.loc 1 1909 32 view .LVU323
 1006 0014 96F8EA77 		ldrb	r7, [r6, #2026]	@ zero_extendqisi2
1906:src/keys.c    **** 		+ (State2.ind ? RARG_IND : 0) 
 1007              		.loc 1 1906 12 view .LVU324
 1008 0018 0344     		add	r3, r3, r0
 1009 001a 02F12004 		add	r4, r2, #32
 1010 001e 48BF     		it	mi
 1011 0020 7033     		addmi	r3, r3, #112
 1012 0022 2402     		lsls	r4, r4, #8
1909:src/keys.c    **** 
 1013              		.loc 1 1909 79 view .LVU325
 1014 0024 3F07     		lsls	r7, r7, #28
1906:src/keys.c    **** 		+ (State2.ind ? RARG_IND : 0) 
 1015              		.loc 1 1906 12 view .LVU326
 1016 0026 44EA0304 		orr	r4, r4, r3
 1017              	.LVL72:
1909:src/keys.c    **** 
 1018              		.loc 1 1909 4 is_stmt 1 view .LVU327
1909:src/keys.c    **** 
 1019              		.loc 1 1909 79 is_stmt 0 view .LVU328
 1020 002a 25D5     		bpl	.L92
1909:src/keys.c    **** 
 1021              		.loc 1 1909 79 discriminator 2 view .LVU329
 1022 002c 15F0400F 		tst	r5, #64
 1023 0030 0CBF     		ite	eq
 1024 0032 0425     		moveq	r5, #4
 1025 0034 0825     		movne	r5, #8
 1026              	.L87:
 1027              	.LVL73:
1911:src/keys.c    ****      /*
 1028              		.loc 1 1911 4 is_stmt 1 discriminator 6 view .LVU330
1911:src/keys.c    ****      /*
 1029              		.loc 1 1911 7 is_stmt 0 discriminator 6 view .LVU331
 1030 0036 0B06     		lsls	r3, r1, #24
 1031 0038 1AD4     		bmi	.L88
1927:src/keys.c    ****        if (C_LOCKED) {
 1032              		.loc 1 1927 6 is_stmt 1 view .LVU332
1927:src/keys.c    ****        if (C_LOCKED) {
 1033              		.loc 1 1927 23 is_stmt 0 view .LVU333
 1034 003a 174B     		ldr	r3, .L109+8
 1035 003c 03EB0213 		add	r3, r3, r2, lsl #4
 1036 0040 5B79     		ldrb	r3, [r3, #5]	@ zero_extendqisi2
1927:src/keys.c    ****        if (C_LOCKED) {
 1037              		.loc 1 1927 9 view .LVU334
 1038 0042 DF06     		lsls	r7, r3, #27
 1039 0044 10D5     		bpl	.L89
1927:src/keys.c    ****        if (C_LOCKED) {
 1040              		.loc 1 1927 55 discriminator 1 view .LVU335
 1041 0046 96F8AC37 		ldrb	r3, [r6, #1964]	@ zero_extendqisi2
ARM GAS  /tmp/cceyv6gL.s 			page 76


 1042 004a 03F04103 		and	r3, r3, #65
1927:src/keys.c    ****        if (C_LOCKED) {
 1043              		.loc 1 1927 40 discriminator 1 view .LVU336
 1044 004e 412B     		cmp	r3, #65
 1045 0050 0CBF     		ite	eq
 1046 0052 0021     		moveq	r1, #0
 1047 0054 6221     		movne	r1, #98
1927:src/keys.c    ****        if (C_LOCKED) {
 1048              		.loc 1 1927 30 discriminator 1 view .LVU337
 1049 0056 8142     		cmp	r1, r0
 1050 0058 06D2     		bcs	.L89
1927:src/keys.c    ****        if (C_LOCKED) {
 1051              		.loc 1 1927 86 discriminator 6 view .LVU338
 1052 005a C107     		lsls	r1, r0, #31
 1053 005c 04D5     		bpl	.L89
1928:src/keys.c    **** 	 error_message(ERR_ODD_REG); // shows error message
 1054              		.loc 1 1928 8 is_stmt 1 view .LVU339
1928:src/keys.c    **** 	 error_message(ERR_ODD_REG); // shows error message
 1055              		.loc 1 1928 11 is_stmt 0 view .LVU340
 1056 005e 412B     		cmp	r3, #65
 1057 0060 11D0     		beq	.L107
 1058              	.LVL74:
 1059              	.L96:
1933:src/keys.c    ****        }
 1060              		.loc 1 1933 10 view .LVU341
 1061 0062 3324     		movs	r4, #51
 1062              	.LVL75:
1948:src/keys.c    **** 
 1063              		.loc 1 1948 2 view .LVU342
 1064 0064 2046     		mov	r0, r4
 1065              	.LVL76:
1948:src/keys.c    **** 
 1066              		.loc 1 1948 2 view .LVU343
 1067 0066 F8BD     		pop	{r3, r4, r5, r6, r7, pc}
 1068              	.LVL77:
 1069              	.L89:
1941:src/keys.c    ****        // Avoid stack clash for STOS/RCLS
 1070              		.loc 1 1941 6 is_stmt 1 view .LVU344
1941:src/keys.c    ****        // Avoid stack clash for STOS/RCLS
 1071              		.loc 1 1941 31 is_stmt 0 view .LVU345
 1072 0068 A2F12203 		sub	r3, r2, #34
1941:src/keys.c    ****        // Avoid stack clash for STOS/RCLS
 1073              		.loc 1 1941 9 view .LVU346
 1074 006c 012B     		cmp	r3, #1
 1075 006e 05D9     		bls	.L108
 1076              	.LVL78:
 1077              	.L88:
1946:src/keys.c    ****    return r;
 1078              		.loc 1 1946 4 is_stmt 1 view .LVU347
 1079 0070 FFF7FEFF 		bl	reset_arg
 1080              	.LVL79:
1947:src/keys.c    ****  }
 1081              		.loc 1 1947 4 view .LVU348
 1082              	.L85:
1948:src/keys.c    **** 
 1083              		.loc 1 1948 2 is_stmt 0 view .LVU349
 1084 0074 2046     		mov	r0, r4
ARM GAS  /tmp/cceyv6gL.s 			page 77


 1085 0076 F8BD     		pop	{r3, r4, r5, r6, r7, pc}
 1086              	.LVL80:
 1087              	.L92:
1909:src/keys.c    **** 
 1088              		.loc 1 1909 79 view .LVU350
 1089 0078 0425     		movs	r5, #4
 1090 007a DCE7     		b	.L87
 1091              	.LVL81:
 1092              	.L108:
1941:src/keys.c    ****        // Avoid stack clash for STOS/RCLS
 1093              		.loc 1 1941 76 discriminator 1 view .LVU351
 1094 007c C5F16405 		rsb	r5, r5, #100
 1095              	.LVL82:
1941:src/keys.c    ****        // Avoid stack clash for STOS/RCLS
 1096              		.loc 1 1941 55 discriminator 1 view .LVU352
 1097 0080 8542     		cmp	r5, r0
 1098 0082 F5D2     		bcs	.L88
 1099 0084 EDE7     		b	.L96
 1100              	.LVL83:
 1101              	.L107:
1929:src/keys.c    **** 	 return STATE_UNFINISHED; // either leaves arg blank (if EXIT pressed) or with one digit in (STO)
 1102              		.loc 1 1929 3 is_stmt 1 view .LVU353
 1103 0086 1920     		movs	r0, #25
 1104              	.LVL84:
1929:src/keys.c    **** 	 return STATE_UNFINISHED; // either leaves arg blank (if EXIT pressed) or with one digit in (STO)
 1105              		.loc 1 1929 3 is_stmt 0 view .LVU354
 1106 0088 FFF7FEFF 		bl	error_message
 1107              	.LVL85:
1930:src/keys.c    ****        }
 1108              		.loc 1 1930 3 is_stmt 1 view .LVU355
1930:src/keys.c    ****        }
 1109              		.loc 1 1930 10 is_stmt 0 view .LVU356
 1110 008c 3324     		movs	r4, #51
 1111              	.LVL86:
1930:src/keys.c    ****        }
 1112              		.loc 1 1930 10 view .LVU357
 1113 008e F1E7     		b	.L85
 1114              	.L110:
 1115              		.align	2
 1116              	.L109:
 1117 0090 00000000 		.word	StateWhileOn
 1118 0094 00000000 		.word	main_ram
 1119 0098 00000000 		.word	argcmds
 1120              		.cfi_endproc
 1121              	.LFE35:
 1123              		.section	.text.arg_digit,"ax",%progbits
 1124              		.align	1
 1125              		.p2align 2,,3
 1126              		.syntax unified
 1127              		.thumb
 1128              		.thumb_func
 1129              		.fpu fpv4-sp-d16
 1131              	arg_digit:
 1132              	.LVL87:
 1133              	.LFB36:
1950:src/keys.c    **** 	int lim;
 1134              		.loc 1 1950 29 is_stmt 1 view -0
ARM GAS  /tmp/cceyv6gL.s 			page 78


 1135              		.cfi_startproc
 1136              		@ args = 0, pretend = 0, frame = 8
 1137              		@ frame_needed = 0, uses_anonymous_args = 0
1951:src/keys.c    **** #ifdef INCLUDE_SIGFIG_MODE
 1138              		.loc 1 1951 2 view .LVU359
1953:src/keys.c    **** 	const unsigned int base = (State2.runmode && CmdBase == RARG_DISP && (dispmode == MODE_SIG || disp
 1139              		.loc 1 1953 2 view .LVU360
1950:src/keys.c    **** 	int lim;
 1140              		.loc 1 1950 29 is_stmt 0 view .LVU361
 1141 0000 F0B5     		push	{r4, r5, r6, r7, lr}
 1142              		.cfi_def_cfa_offset 20
 1143              		.cfi_offset 4, -20
 1144              		.cfi_offset 5, -16
 1145              		.cfi_offset 6, -12
 1146              		.cfi_offset 7, -8
 1147              		.cfi_offset 14, -4
1954:src/keys.c    **** #else
 1148              		.loc 1 1954 29 view .LVU362
 1149 0002 3E4D     		ldr	r5, .L158
1950:src/keys.c    **** 	int lim;
 1150              		.loc 1 1950 29 view .LVU363
 1151 0004 83B0     		sub	sp, sp, #12
 1152              		.cfi_def_cfa_offset 32
1950:src/keys.c    **** 	int lim;
 1153              		.loc 1 1950 29 view .LVU364
 1154 0006 0446     		mov	r4, r0
1953:src/keys.c    **** 	const unsigned int base = (State2.runmode && CmdBase == RARG_DISP && (dispmode == MODE_SIG || disp
 1155              		.loc 1 1953 17 view .LVU365
 1156 0008 01A8     		add	r0, sp, #4
 1157              	.LVL88:
1953:src/keys.c    **** 	const unsigned int base = (State2.runmode && CmdBase == RARG_DISP && (dispmode == MODE_SIG || disp
 1158              		.loc 1 1953 17 view .LVU366
 1159 000a FFF7FEFF 		bl	get_dispmode_digs
 1160              	.LVL89:
1954:src/keys.c    **** #else
 1161              		.loc 1 1954 29 view .LVU367
 1162 000e A97D     		ldrb	r1, [r5, #22]	@ zero_extendqisi2
 1163              	.LVL90:
1954:src/keys.c    **** #else
 1164              		.loc 1 1954 2 is_stmt 1 view .LVU368
 1165 0010 EE7F     		ldrb	r6, [r5, #31]	@ zero_extendqisi2
1954:src/keys.c    **** #else
 1166              		.loc 1 1954 130 is_stmt 0 view .LVU369
 1167 0012 11F0400C 		ands	ip, r1, #64
 1168 0016 01D0     		beq	.L114
1954:src/keys.c    **** #else
 1169              		.loc 1 1954 44 discriminator 2 view .LVU370
 1170 0018 502E     		cmp	r6, #80
 1171 001a 64D0     		beq	.L154
 1172              	.LVL91:
 1173              	.L114:
1958:src/keys.c    **** 	const int is_reg = argcmds[base].reg || State2.ind;
 1174              		.loc 1 1958 2 is_stmt 1 discriminator 8 view .LVU371
1959:src/keys.c    **** 	
 1175              		.loc 1 1959 34 is_stmt 0 discriminator 8 view .LVU372
 1176 001c 384A     		ldr	r2, .L158+4
1958:src/keys.c    **** 	const int is_reg = argcmds[base].reg || State2.ind;
ARM GAS  /tmp/cceyv6gL.s 			page 79


 1177              		.loc 1 1958 33 discriminator 8 view .LVU373
 1178 001e 2B89     		ldrh	r3, [r5, #8]
1959:src/keys.c    **** 	
 1179              		.loc 1 1959 34 discriminator 8 view .LVU374
 1180 0020 02EB0612 		add	r2, r2, r6, lsl #4
1958:src/keys.c    **** 	const int is_reg = argcmds[base].reg || State2.ind;
 1181              		.loc 1 1958 41 discriminator 8 view .LVU375
 1182 0024 03EB8303 		add	r3, r3, r3, lsl #2
1959:src/keys.c    **** 	
 1183              		.loc 1 1959 34 discriminator 8 view .LVU376
 1184 0028 5779     		ldrb	r7, [r2, #5]	@ zero_extendqisi2
1958:src/keys.c    **** 	const int is_reg = argcmds[base].reg || State2.ind;
 1185              		.loc 1 1958 46 discriminator 8 view .LVU377
 1186 002a 04EB4304 		add	r4, r4, r3, lsl #1
 1187              	.LVL92:
1959:src/keys.c    **** 	
 1188              		.loc 1 1959 2 is_stmt 1 discriminator 8 view .LVU378
1959:src/keys.c    **** 	
 1189              		.loc 1 1959 39 is_stmt 0 discriminator 8 view .LVU379
 1190 002e BB07     		lsls	r3, r7, #30
 1191 0030 32D4     		bmi	.L153
1959:src/keys.c    **** 	
 1192              		.loc 1 1959 39 discriminator 2 view .LVU380
 1193 0032 95F91530 		ldrsb	r3, [r5, #21]
 1194 0036 002B     		cmp	r3, #0
 1195 0038 2EDB     		blt	.L153
 1196              	.LVL93:
1961:src/keys.c    **** 		// Handle local registers and flags
 1197              		.loc 1 1961 2 is_stmt 1 view .LVU381
1961:src/keys.c    **** 		// Handle local registers and flags
 1198              		.loc 1 1961 5 is_stmt 0 view .LVU382
 1199 003a C907     		lsls	r1, r1, #31
 1200 003c 4BD5     		bpl	.L120
1963:src/keys.c    **** 		if (State2.runmode) {
 1201              		.loc 1 1963 3 is_stmt 1 view .LVU383
1963:src/keys.c    **** 		if (State2.runmode) {
 1202              		.loc 1 1963 7 is_stmt 0 view .LVU384
 1203 003e 0F23     		movs	r3, #15
 1204 0040 0193     		str	r3, [sp, #4]
1964:src/keys.c    **** 			if (LocalRegs == 0)
 1205              		.loc 1 1964 3 is_stmt 1 view .LVU385
1964:src/keys.c    **** 			if (LocalRegs == 0)
 1206              		.loc 1 1964 6 is_stmt 0 view .LVU386
 1207 0042 BCF1000F 		cmp	ip, #0
 1208 0046 05D0     		beq	.L123
1965:src/keys.c    **** 				return STATE_UNFINISHED;		// no local flags or registers
 1209              		.loc 1 1965 4 is_stmt 1 view .LVU387
1965:src/keys.c    **** 				return STATE_UNFINISHED;		// no local flags or registers
 1210              		.loc 1 1965 8 is_stmt 0 view .LVU388
 1211 0048 2E4B     		ldr	r3, .L158+8
 1212 004a 1B68     		ldr	r3, [r3]
1965:src/keys.c    **** 				return STATE_UNFINISHED;		// no local flags or registers
 1213              		.loc 1 1965 7 view .LVU389
 1214 004c B3F9DE37 		ldrsh	r3, [r3, #2014]
 1215 0050 002B     		cmp	r3, #0
 1216 0052 3DD0     		beq	.L125
 1217              	.LVL94:
ARM GAS  /tmp/cceyv6gL.s 			page 80


 1218              	.L123:
1975:src/keys.c    **** 	else {
 1219              		.loc 1 1975 65 view .LVU390
 1220 0054 0F20     		movs	r0, #15
 1221              	.L122:
1981:src/keys.c    **** 		return STATE_UNFINISHED;
 1222              		.loc 1 1981 2 is_stmt 1 view .LVU391
1981:src/keys.c    **** 		return STATE_UNFINISHED;
 1223              		.loc 1 1981 5 is_stmt 0 view .LVU392
 1224 0056 8442     		cmp	r4, r0
 1225 0058 3ADC     		bgt	.L125
 1226              	.L157:
1984:src/keys.c    **** 	++State2.numdigit;
 1227              		.loc 1 1984 2 is_stmt 1 view .LVU393
1985:src/keys.c    **** 	if ((int) val * 10 > lim || State2.numdigit >= num_arg_digits(base)) {
 1228              		.loc 1 1985 2 is_stmt 0 view .LVU394
 1229 005a EF7A     		ldrb	r7, [r5, #11]	@ zero_extendqisi2
1984:src/keys.c    **** 	++State2.numdigit;
 1230              		.loc 1 1984 16 view .LVU395
 1231 005c 2C81     		strh	r4, [r5, #8]	@ movhi
1985:src/keys.c    **** 	if ((int) val * 10 > lim || State2.numdigit >= num_arg_digits(base)) {
 1232              		.loc 1 1985 2 is_stmt 1 view .LVU396
 1233 005e 0137     		adds	r7, r7, #1
1986:src/keys.c    **** 		int result = arg_eval(val);
 1234              		.loc 1 1986 16 is_stmt 0 view .LVU397
 1235 0060 04EB8403 		add	r3, r4, r4, lsl #2
1985:src/keys.c    **** 	if ((int) val * 10 > lim || State2.numdigit >= num_arg_digits(base)) {
 1236              		.loc 1 1985 2 view .LVU398
 1237 0064 FFB2     		uxtb	r7, r7
1986:src/keys.c    **** 		int result = arg_eval(val);
 1238              		.loc 1 1986 5 view .LVU399
 1239 0066 B0EB430F 		cmp	r0, r3, lsl #1
1985:src/keys.c    **** 	if ((int) val * 10 > lim || State2.numdigit >= num_arg_digits(base)) {
 1240              		.loc 1 1985 2 view .LVU400
 1241 006a EF72     		strb	r7, [r5, #11]
1986:src/keys.c    **** 		int result = arg_eval(val);
 1242              		.loc 1 1986 2 is_stmt 1 view .LVU401
1986:src/keys.c    **** 		int result = arg_eval(val);
 1243              		.loc 1 1986 5 is_stmt 0 view .LVU402
 1244 006c 04DB     		blt	.L131
1986:src/keys.c    **** 		int result = arg_eval(val);
 1245              		.loc 1 1986 49 discriminator 1 view .LVU403
 1246 006e 3046     		mov	r0, r6
 1247 0070 FFF7FEFF 		bl	num_arg_digits
 1248              	.LVL95:
1986:src/keys.c    **** 		int result = arg_eval(val);
 1249              		.loc 1 1986 27 discriminator 1 view .LVU404
 1250 0074 8742     		cmp	r7, r0
 1251 0076 2BDB     		blt	.L125
 1252              	.L131:
 1253              	.LBB331:
1987:src/keys.c    **** 		if ( result == STATE_UNFINISHED ) {
 1254              		.loc 1 1987 3 is_stmt 1 view .LVU405
1987:src/keys.c    **** 		if ( result == STATE_UNFINISHED ) {
 1255              		.loc 1 1987 16 is_stmt 0 view .LVU406
 1256 0078 2046     		mov	r0, r4
 1257 007a FFF7FEFF 		bl	arg_eval
ARM GAS  /tmp/cceyv6gL.s 			page 81


 1258              	.LVL96:
1988:src/keys.c    **** 			--State2.numdigit;
 1259              		.loc 1 1988 3 is_stmt 1 view .LVU407
1988:src/keys.c    **** 			--State2.numdigit;
 1260              		.loc 1 1988 6 is_stmt 0 view .LVU408
 1261 007e 3328     		cmp	r0, #51
 1262 0080 08D1     		bne	.L111
1989:src/keys.c    **** 			State2.digval /= 10;
 1263              		.loc 1 1989 4 is_stmt 1 view .LVU409
1990:src/keys.c    **** 		}
 1264              		.loc 1 1990 18 is_stmt 0 view .LVU410
 1265 0082 2B89     		ldrh	r3, [r5, #8]
 1266 0084 2049     		ldr	r1, .L158+12
1989:src/keys.c    **** 			State2.digval /= 10;
 1267              		.loc 1 1989 4 view .LVU411
 1268 0086 EA7A     		ldrb	r2, [r5, #11]	@ zero_extendqisi2
1990:src/keys.c    **** 		}
 1269              		.loc 1 1990 18 view .LVU412
 1270 0088 A1FB0313 		umull	r1, r3, r1, r3
 1271 008c DB08     		lsrs	r3, r3, #3
1989:src/keys.c    **** 			State2.digval /= 10;
 1272              		.loc 1 1989 4 view .LVU413
 1273 008e 013A     		subs	r2, r2, #1
1990:src/keys.c    **** 		}
 1274              		.loc 1 1990 18 view .LVU414
 1275 0090 2B81     		strh	r3, [r5, #8]	@ movhi
1989:src/keys.c    **** 			State2.digval /= 10;
 1276              		.loc 1 1989 4 view .LVU415
 1277 0092 EA72     		strb	r2, [r5, #11]
1990:src/keys.c    **** 		}
 1278              		.loc 1 1990 4 is_stmt 1 view .LVU416
 1279              	.L111:
 1280              	.LBE331:
1995:src/keys.c    **** 
 1281              		.loc 1 1995 1 is_stmt 0 view .LVU417
 1282 0094 03B0     		add	sp, sp, #12
 1283              		.cfi_remember_state
 1284              		.cfi_def_cfa_offset 20
 1285              		@ sp needed
 1286 0096 F0BD     		pop	{r4, r5, r6, r7, pc}
 1287              	.LVL97:
 1288              	.L153:
 1289              		.cfi_restore_state
1961:src/keys.c    **** 		// Handle local registers and flags
 1290              		.loc 1 1961 2 is_stmt 1 view .LVU418
1961:src/keys.c    **** 		// Handle local registers and flags
 1291              		.loc 1 1961 5 is_stmt 0 view .LVU419
 1292 0098 C807     		lsls	r0, r1, #31
 1293 009a 12D5     		bpl	.L155
1963:src/keys.c    **** 		if (State2.runmode) {
 1294              		.loc 1 1963 3 is_stmt 1 view .LVU420
1963:src/keys.c    **** 		if (State2.runmode) {
 1295              		.loc 1 1963 7 is_stmt 0 view .LVU421
 1296 009c 0F23     		movs	r3, #15
 1297 009e 0193     		str	r3, [sp, #4]
1964:src/keys.c    **** 			if (LocalRegs == 0)
 1298              		.loc 1 1964 3 is_stmt 1 view .LVU422
ARM GAS  /tmp/cceyv6gL.s 			page 82


1964:src/keys.c    **** 			if (LocalRegs == 0)
 1299              		.loc 1 1964 6 is_stmt 0 view .LVU423
 1300 00a0 BCF1000F 		cmp	ip, #0
 1301 00a4 D6D0     		beq	.L123
1965:src/keys.c    **** 				return STATE_UNFINISHED;		// no local flags or registers
 1302              		.loc 1 1965 4 is_stmt 1 view .LVU424
1965:src/keys.c    **** 				return STATE_UNFINISHED;		// no local flags or registers
 1303              		.loc 1 1965 8 is_stmt 0 view .LVU425
 1304 00a6 174B     		ldr	r3, .L158+8
 1305 00a8 1B68     		ldr	r3, [r3]
1965:src/keys.c    **** 				return STATE_UNFINISHED;		// no local flags or registers
 1306              		.loc 1 1965 7 view .LVU426
 1307 00aa B3F9DE37 		ldrsh	r3, [r3, #2014]
 1308 00ae 7BB1     		cbz	r3, .L125
1968:src/keys.c    **** 				if (lim >= MAX_LOCAL_DIRECT)
 1309              		.loc 1 1968 5 is_stmt 1 view .LVU427
1968:src/keys.c    **** 				if (lim >= MAX_LOCAL_DIRECT)
 1310              		.loc 1 1968 11 is_stmt 0 view .LVU428
 1311 00b0 F0B2     		uxtb	r0, r6
 1312 00b2 FFF7FEFF 		bl	local_regs_rarg
 1313              	.LVL98:
1968:src/keys.c    **** 				if (lim >= MAX_LOCAL_DIRECT)
 1314              		.loc 1 1968 45 view .LVU429
 1315 00b6 0138     		subs	r0, r0, #1
1969:src/keys.c    **** 					lim = MAX_LOCAL_DIRECT - 1;	// in case of more than 16 locals
 1316              		.loc 1 1969 5 is_stmt 1 view .LVU430
1969:src/keys.c    **** 					lim = MAX_LOCAL_DIRECT - 1;	// in case of more than 16 locals
 1317              		.loc 1 1969 8 is_stmt 0 view .LVU431
 1318 00b8 0F28     		cmp	r0, #15
 1319 00ba 06DD     		ble	.L152
1970:src/keys.c    **** 			}
 1320              		.loc 1 1970 6 is_stmt 1 view .LVU432
1970:src/keys.c    **** 			}
 1321              		.loc 1 1970 10 is_stmt 0 view .LVU433
 1322 00bc 0F20     		movs	r0, #15
 1323 00be 0190     		str	r0, [sp, #4]
 1324 00c0 C9E7     		b	.L122
 1325              	.L155:
1975:src/keys.c    **** 	else {
 1326              		.loc 1 1975 3 is_stmt 1 view .LVU434
1975:src/keys.c    **** 	else {
 1327              		.loc 1 1975 65 is_stmt 0 view .LVU435
 1328 00c2 BCF1000F 		cmp	ip, #0
 1329 00c6 13D1     		bne	.L156
 1330 00c8 6320     		movs	r0, #99
 1331              	.LVL99:
 1332              	.L152:
1981:src/keys.c    **** 		return STATE_UNFINISHED;
 1333              		.loc 1 1981 5 view .LVU436
 1334 00ca 8442     		cmp	r4, r0
1979:src/keys.c    **** 	}
 1335              		.loc 1 1979 8 view .LVU437
 1336 00cc 0190     		str	r0, [sp, #4]
1981:src/keys.c    **** 		return STATE_UNFINISHED;
 1337              		.loc 1 1981 2 is_stmt 1 view .LVU438
1981:src/keys.c    **** 		return STATE_UNFINISHED;
 1338              		.loc 1 1981 5 is_stmt 0 view .LVU439
ARM GAS  /tmp/cceyv6gL.s 			page 83


 1339 00ce C4DD     		ble	.L157
 1340              	.L125:
1966:src/keys.c    **** 			if (is_reg) {
 1341              		.loc 1 1966 12 view .LVU440
 1342 00d0 3320     		movs	r0, #51
1995:src/keys.c    **** 
 1343              		.loc 1 1995 1 view .LVU441
 1344 00d2 03B0     		add	sp, sp, #12
 1345              		.cfi_remember_state
 1346              		.cfi_def_cfa_offset 20
 1347              		@ sp needed
 1348 00d4 F0BD     		pop	{r4, r5, r6, r7, pc}
 1349              	.LVL100:
 1350              	.L120:
 1351              		.cfi_restore_state
1974:src/keys.c    **** 		lim = State2.runmode ? global_regs_rarg((enum rarg) base) - 1 : TOPREALREG - 1;
 1352              		.loc 1 1974 7 is_stmt 1 view .LVU442
1977:src/keys.c    **** 		if (lim >= RARG_IND && argcmds[base].indirectokay)
 1353              		.loc 1 1977 3 view .LVU443
1977:src/keys.c    **** 		if (lim >= RARG_IND && argcmds[base].indirectokay)
 1354              		.loc 1 1977 9 is_stmt 0 view .LVU444
 1355 00d6 1079     		ldrb	r0, [r2, #4]	@ zero_extendqisi2
1977:src/keys.c    **** 		if (lim >= RARG_IND && argcmds[base].indirectokay)
 1356              		.loc 1 1977 7 view .LVU445
 1357 00d8 0190     		str	r0, [sp, #4]
1978:src/keys.c    **** 			lim = RARG_IND - 1;
 1358              		.loc 1 1978 3 is_stmt 1 view .LVU446
1978:src/keys.c    **** 			lim = RARG_IND - 1;
 1359              		.loc 1 1978 6 is_stmt 0 view .LVU447
 1360 00da 7F28     		cmp	r0, #127
 1361 00dc BBDD     		ble	.L122
1978:src/keys.c    **** 			lim = RARG_IND - 1;
 1362              		.loc 1 1978 23 discriminator 1 view .LVU448
 1363 00de FB07     		lsls	r3, r7, #31
 1364 00e0 B9D5     		bpl	.L122
1979:src/keys.c    **** 	}
 1365              		.loc 1 1979 4 is_stmt 1 view .LVU449
1979:src/keys.c    **** 	}
 1366              		.loc 1 1979 8 is_stmt 0 view .LVU450
 1367 00e2 7F20     		movs	r0, #127
 1368 00e4 F1E7     		b	.L152
 1369              	.LVL101:
 1370              	.L154:
1954:src/keys.c    **** #else
 1371              		.loc 1 1954 93 discriminator 4 view .LVU451
 1372 00e6 0438     		subs	r0, r0, #4
 1373              	.LVL102:
1954:src/keys.c    **** #else
 1374              		.loc 1 1954 68 discriminator 4 view .LVU452
 1375 00e8 0128     		cmp	r0, #1
1954:src/keys.c    **** #else
 1376              		.loc 1 1954 130 discriminator 4 view .LVU453
 1377 00ea 98BF     		it	ls
 1378 00ec 8D26     		movls	r6, #141
 1379 00ee 95E7     		b	.L114
 1380              	.LVL103:
 1381              	.L156:
ARM GAS  /tmp/cceyv6gL.s 			page 84


1975:src/keys.c    **** 	else {
 1382              		.loc 1 1975 26 discriminator 1 view .LVU454
 1383 00f0 F0B2     		uxtb	r0, r6
 1384 00f2 FFF7FEFF 		bl	global_regs_rarg
 1385              	.LVL104:
1975:src/keys.c    **** 	else {
 1386              		.loc 1 1975 61 discriminator 1 view .LVU455
 1387 00f6 0138     		subs	r0, r0, #1
 1388 00f8 E7E7     		b	.L152
 1389              	.L159:
 1390 00fa 00BF     		.align	2
 1391              	.L158:
 1392 00fc 00000000 		.word	StateWhileOn
 1393 0100 00000000 		.word	argcmds
 1394 0104 00000000 		.word	main_ram
 1395 0108 CDCCCCCC 		.word	-858993459
 1396              		.cfi_endproc
 1397              	.LFE36:
 1399              		.section	.text.process_arg_shuffle,"ax",%progbits
 1400              		.align	1
 1401              		.p2align 2,,3
 1402              		.syntax unified
 1403              		.thumb
 1404              		.thumb_func
 1405              		.fpu fpv4-sp-d16
 1407              	process_arg_shuffle:
 1408              	.LVL105:
 1409              	.LFB41:
2062:src/keys.c    **** 	State2.digval += r << (State2.numdigit++ << 1);
 1410              		.loc 1 2062 39 is_stmt 1 view -0
 1411              		.cfi_startproc
 1412              		@ args = 0, pretend = 0, frame = 0
 1413              		@ frame_needed = 0, uses_anonymous_args = 0
 1414              		@ link register save eliminated.
2063:src/keys.c    **** 	if (State2.numdigit < 4)
 1415              		.loc 1 2063 2 view .LVU457
2062:src/keys.c    **** 	State2.digval += r << (State2.numdigit++ << 1);
 1416              		.loc 1 2062 39 is_stmt 0 view .LVU458
 1417 0000 10B4     		push	{r4}
 1418              		.cfi_def_cfa_offset 4
 1419              		.cfi_offset 4, -4
2063:src/keys.c    **** 	if (State2.numdigit < 4)
 1420              		.loc 1 2063 31 view .LVU459
 1421 0002 0A4A     		ldr	r2, .L163
 1422 0004 D37A     		ldrb	r3, [r2, #11]	@ zero_extendqisi2
2063:src/keys.c    **** 	if (State2.numdigit < 4)
 1423              		.loc 1 2063 16 view .LVU460
 1424 0006 1189     		ldrh	r1, [r2, #8]
2063:src/keys.c    **** 	if (State2.numdigit < 4)
 1425              		.loc 1 2063 43 view .LVU461
 1426 0008 5C00     		lsls	r4, r3, #1
2063:src/keys.c    **** 	if (State2.numdigit < 4)
 1427              		.loc 1 2063 21 view .LVU462
 1428 000a A040     		lsls	r0, r0, r4
 1429              	.LVL106:
2063:src/keys.c    **** 	if (State2.numdigit < 4)
 1430              		.loc 1 2063 40 view .LVU463
ARM GAS  /tmp/cceyv6gL.s 			page 85


 1431 000c 0133     		adds	r3, r3, #1
 1432 000e DBB2     		uxtb	r3, r3
2063:src/keys.c    **** 	if (State2.numdigit < 4)
 1433              		.loc 1 2063 16 view .LVU464
 1434 0010 0844     		add	r0, r0, r1
 1435 0012 80B2     		uxth	r0, r0
2064:src/keys.c    **** 		return STATE_UNFINISHED;
 1436              		.loc 1 2064 5 view .LVU465
 1437 0014 032B     		cmp	r3, #3
2063:src/keys.c    **** 	if (State2.numdigit < 4)
 1438              		.loc 1 2063 40 view .LVU466
 1439 0016 D372     		strb	r3, [r2, #11]
2063:src/keys.c    **** 	if (State2.numdigit < 4)
 1440              		.loc 1 2063 16 view .LVU467
 1441 0018 1081     		strh	r0, [r2, #8]	@ movhi
2064:src/keys.c    **** 		return STATE_UNFINISHED;
 1442              		.loc 1 2064 2 is_stmt 1 view .LVU468
2064:src/keys.c    **** 		return STATE_UNFINISHED;
 1443              		.loc 1 2064 5 is_stmt 0 view .LVU469
 1444 001a 03D9     		bls	.L161
2066:src/keys.c    **** }
 1445              		.loc 1 2066 2 is_stmt 1 view .LVU470
2067:src/keys.c    **** 
 1446              		.loc 1 2067 1 is_stmt 0 view .LVU471
 1447 001c 5DF8044B 		ldr	r4, [sp], #4
 1448              		.cfi_remember_state
 1449              		.cfi_restore 4
 1450              		.cfi_def_cfa_offset 0
2066:src/keys.c    **** }
 1451              		.loc 1 2066 9 view .LVU472
 1452 0020 FFF7FEBF 		b	arg_eval
 1453              	.LVL107:
 1454              	.L161:
 1455              		.cfi_restore_state
2067:src/keys.c    **** 
 1456              		.loc 1 2067 1 view .LVU473
 1457 0024 3320     		movs	r0, #51
 1458 0026 5DF8044B 		ldr	r4, [sp], #4
 1459              		.cfi_restore 4
 1460              		.cfi_def_cfa_offset 0
 1461 002a 7047     		bx	lr
 1462              	.L164:
 1463              		.align	2
 1464              	.L163:
 1465 002c 00000000 		.word	StateWhileOn
 1466              		.cfi_endproc
 1467              	.LFE41:
 1469              		.section	.text.process_h_shifted,"ax",%progbits
 1470              		.align	1
 1471              		.p2align 2,,3
 1472              		.syntax unified
 1473              		.thumb
 1474              		.thumb_func
 1475              		.fpu fpv4-sp-d16
 1477              	process_h_shifted:
 1478              	.LVL108:
 1479              	.LFB21:
ARM GAS  /tmp/cceyv6gL.s 			page 86


1101:src/keys.c    **** #define _RARG    0x8000	// Must not interfere with existing opcode markers
 1480              		.loc 1 1101 47 is_stmt 1 view -0
 1481              		.cfi_startproc
 1482              		@ args = 0, pretend = 0, frame = 0
 1483              		@ frame_needed = 0, uses_anonymous_args = 0
1104:src/keys.c    **** 		// Row 1
 1484              		.loc 1 1104 2 view .LVU475
1155:src/keys.c    **** 	int op = op_map[lc];
 1485              		.loc 1 1155 2 view .LVU476
 1486              	.LBB332:
 1487              	.LBB333:
 158:src/keys.c    **** }
 1488              		.loc 1 158 23 is_stmt 0 view .LVU477
 1489 0000 314A     		ldr	r2, .L196
 1490              	.LBE333:
 1491              	.LBE332:
1156:src/keys.c    **** 	reset_shift();
 1492              		.loc 1 1156 17 view .LVU478
 1493 0002 324B     		ldr	r3, .L196+4
 1494              	.LBB336:
 1495              	.LBB334:
 158:src/keys.c    **** }
 1496              		.loc 1 158 23 view .LVU479
 1497 0004 125C     		ldrb	r2, [r2, r0]	@ zero_extendqisi2
 1498              	.LBE334:
 1499              	.LBE336:
1101:src/keys.c    **** #define _RARG    0x8000	// Must not interfere with existing opcode markers
 1500              		.loc 1 1101 47 view .LVU480
 1501 0006 70B5     		push	{r4, r5, r6, lr}
 1502              		.cfi_def_cfa_offset 16
 1503              		.cfi_offset 4, -16
 1504              		.cfi_offset 5, -12
 1505              		.cfi_offset 6, -8
 1506              		.cfi_offset 14, -4
1101:src/keys.c    **** #define _RARG    0x8000	// Must not interfere with existing opcode markers
 1507              		.loc 1 1101 47 view .LVU481
 1508 0008 0446     		mov	r4, r0
 1509              	.LVL109:
 1510              	.LBB337:
 1511              	.LBI332:
 146:src/keys.c    **** {
 1512              		.loc 1 146 12 is_stmt 1 view .LVU482
 1513              	.LBB335:
 148:src/keys.c    **** 		 0,  1,  2,  3,  4,  5,   // K00 - K05
 1514              		.loc 1 148 2 view .LVU483
 158:src/keys.c    **** }
 1515              		.loc 1 158 2 view .LVU484
 158:src/keys.c    **** }
 1516              		.loc 1 158 2 is_stmt 0 view .LVU485
 1517              	.LBE335:
 1518              	.LBE337:
1156:src/keys.c    **** 	reset_shift();
 1519              		.loc 1 1156 2 is_stmt 1 view .LVU486
 1520              	.LBB338:
 1521              	.LBB339:
 1522              	.LBB340:
 106:src/keys.c    **** 	//	State2.alpha_pos = 0;
ARM GAS  /tmp/cceyv6gL.s 			page 87


 1523              		.loc 1 106 16 is_stmt 0 view .LVU487
 1524 000a 314E     		ldr	r6, .L196+8
 1525              	.LBE340:
 1526              	.LBE339:
 1527              	.LBE338:
1156:src/keys.c    **** 	reset_shift();
 1528              		.loc 1 1156 17 view .LVU488
 1529 000c 33F81250 		ldrh	r5, [r3, r2, lsl #1]
 1530              	.LVL110:
1157:src/keys.c    **** 
 1531              		.loc 1 1157 2 is_stmt 1 view .LVU489
 1532              	.LBB347:
 1533              	.LBI338:
 114:src/keys.c    **** 	return set_shift(SHIFT_N);
 1534              		.loc 1 114 13 view .LVU490
 1535              	.LBE347:
 115:src/keys.c    **** }
 1536              		.loc 1 115 2 view .LVU491
 1537              	.LBB348:
 1538              	.LBB345:
 1539              	.LBI339:
 104:src/keys.c    **** 	enum shifts r = cur_shift();
 1540              		.loc 1 104 20 view .LVU492
 1541              	.LBB343:
 105:src/keys.c    **** 	State2.shifts = shift;
 1542              		.loc 1 105 2 view .LVU493
 1543              	.LBB341:
 1544              	.LBI341:
  96:src/keys.c    **** 	enum shifts s = shift_down();
 1545              		.loc 1 96 13 view .LVU494
 1546              	.LBB342:
  97:src/keys.c    **** 	return s == SHIFT_N ? (enum shifts) State2.shifts : s;
 1547              		.loc 1 97 2 view .LVU495
  97:src/keys.c    **** 	return s == SHIFT_N ? (enum shifts) State2.shifts : s;
 1548              		.loc 1 97 18 is_stmt 0 view .LVU496
 1549 0010 FFF7FEFF 		bl	shift_down
 1550              	.LVL111:
  98:src/keys.c    **** }
 1551              		.loc 1 98 2 is_stmt 1 view .LVU497
 1552              	.LBE342:
 1553              	.LBE341:
 106:src/keys.c    **** 	//	State2.alpha_pos = 0;
 1554              		.loc 1 106 2 view .LVU498
 106:src/keys.c    **** 	//	State2.alpha_pos = 0;
 1555              		.loc 1 106 16 is_stmt 0 view .LVU499
 1556 0014 0023     		movs	r3, #0
 1557              	.LBE343:
 1558              	.LBE345:
 1559              	.LBE348:
1160:src/keys.c    **** 	case K62:
 1560              		.loc 1 1160 2 view .LVU500
 1561 0016 262C     		cmp	r4, #38
 1562              	.LBB349:
 1563              	.LBB346:
 1564              	.LBB344:
 106:src/keys.c    **** 	//	State2.alpha_pos = 0;
 1565              		.loc 1 106 16 view .LVU501
ARM GAS  /tmp/cceyv6gL.s 			page 88


 1566 0018 3374     		strb	r3, [r6, #16]
 108:src/keys.c    **** }
 1567              		.loc 1 108 2 is_stmt 1 view .LVU502
 1568              	.LVL112:
 108:src/keys.c    **** }
 1569              		.loc 1 108 2 is_stmt 0 view .LVU503
 1570              	.LBE344:
 1571              	.LBE346:
 1572              	.LBE349:
1160:src/keys.c    **** 	case K62:
 1573              		.loc 1 1160 2 is_stmt 1 view .LVU504
 1574 001a 27D0     		beq	.L166
 1575 001c 272C     		cmp	r4, #39
 1576 001e 19D1     		bne	.L168
1173:src/keys.c    **** 			return STATE_UNFINISHED;
 1577              		.loc 1 1173 3 view .LVU505
1173:src/keys.c    **** 			return STATE_UNFINISHED;
 1578              		.loc 1 1173 7 is_stmt 0 view .LVU506
 1579 0020 FFF7FEFF 		bl	is_bad_cmdline
 1580              	.LVL113:
1173:src/keys.c    **** 			return STATE_UNFINISHED;
 1581              		.loc 1 1173 6 view .LVU507
 1582 0024 00BB     		cbnz	r0, .L178
1175:src/keys.c    **** 		process_cmdline_set_lift();
 1583              		.loc 1 1175 3 is_stmt 1 view .LVU508
1175:src/keys.c    **** 		process_cmdline_set_lift();
 1584              		.loc 1 1175 30 is_stmt 0 view .LVU509
 1585 0026 B37D     		ldrb	r3, [r6, #22]	@ zero_extendqisi2
 1586 0028 C3F38012 		ubfx	r2, r3, #6, #1
1175:src/keys.c    **** 		process_cmdline_set_lift();
 1587              		.loc 1 1175 22 view .LVU510
 1588 002c C2F10102 		rsb	r2, r2, #1
1175:src/keys.c    **** 		process_cmdline_set_lift();
 1589              		.loc 1 1175 18 view .LVU511
 1590 0030 62F38613 		bfi	r3, r2, #6, #1
 1591 0034 B375     		strb	r3, [r6, #22]
1176:src/keys.c    **** 		update_program_bounds(1);
 1592              		.loc 1 1176 3 is_stmt 1 view .LVU512
 1593 0036 FFF7FEFF 		bl	process_cmdline_set_lift
 1594              	.LVL114:
1177:src/keys.c    **** 		if (! State2.runmode && state_pc() == 1 && ProgEnd == 1)
 1595              		.loc 1 1177 3 view .LVU513
 1596 003a 0120     		movs	r0, #1
 1597 003c FFF7FEFF 		bl	update_program_bounds
 1598              	.LVL115:
1178:src/keys.c    **** 			set_pc(0);
 1599              		.loc 1 1178 3 view .LVU514
1178:src/keys.c    **** 			set_pc(0);
 1600              		.loc 1 1178 7 is_stmt 0 view .LVU515
 1601 0040 B07D     		ldrb	r0, [r6, #22]	@ zero_extendqisi2
1178:src/keys.c    **** 			set_pc(0);
 1602              		.loc 1 1178 6 view .LVU516
 1603 0042 10F04000 		ands	r0, r0, #64
 1604 0046 05D1     		bne	.L168
1178:src/keys.c    **** 			set_pc(0);
 1605              		.loc 1 1178 27 discriminator 1 view .LVU517
 1606 0048 224B     		ldr	r3, .L196+12
ARM GAS  /tmp/cceyv6gL.s 			page 89


 1607 004a 1B68     		ldr	r3, [r3]
1178:src/keys.c    **** 			set_pc(0);
 1608              		.loc 1 1178 24 discriminator 1 view .LVU518
 1609 004c B3F8E027 		ldrh	r2, [r3, #2016]
 1610 0050 012A     		cmp	r2, #1
 1611 0052 32D0     		beq	.L192
 1612              	.L168:
1186:src/keys.c    **** 		if (op & _RARG) {
 1613              		.loc 1 1186 2 is_stmt 1 view .LVU519
1186:src/keys.c    **** 		if (op & _RARG) {
 1614              		.loc 1 1186 5 is_stmt 0 view .LVU520
 1615 0054 332D     		cmp	r5, #51
 1616 0056 07D0     		beq	.L178
 1617              	.LVL116:
1187:src/keys.c    **** 			init_arg((enum rarg) (op & ~(_RARG | NO_INT)));
 1618              		.loc 1 1187 3 is_stmt 1 view .LVU521
1187:src/keys.c    **** 			init_arg((enum rarg) (op & ~(_RARG | NO_INT)));
 1619              		.loc 1 1187 6 is_stmt 0 view .LVU522
 1620 0058 2804     		lsls	r0, r5, #16
 1621 005a 14D5     		bpl	.L193
 1622              	.L176:
1188:src/keys.c    **** 			op = STATE_UNFINISHED;
 1623              		.loc 1 1188 4 is_stmt 1 view .LVU523
 1624              	.LVL117:
 1625              	.LBB350:
 1626              	.LBI350:
 552:src/keys.c    **** 	if (is_bad_cmdline())
 1627              		.loc 1 552 13 view .LVU524
 1628              	.LBB351:
 553:src/keys.c    **** 		return;
 1629              		.loc 1 553 2 view .LVU525
 553:src/keys.c    **** 		return;
 1630              		.loc 1 553 6 is_stmt 0 view .LVU526
 1631 005c FFF7FEFF 		bl	is_bad_cmdline
 1632              	.LVL118:
 553:src/keys.c    **** 		return;
 1633              		.loc 1 553 5 view .LVU527
 1634 0060 10B9     		cbnz	r0, .L178
 1635 0062 E8B2     		uxtb	r0, r5
 1636 0064 FFF7FEFF 		bl	init_arg.part.0
 1637              	.LVL119:
 1638              	.L178:
 553:src/keys.c    **** 		return;
 1639              		.loc 1 553 5 view .LVU528
 1640              	.LBE351:
 1641              	.LBE350:
1192:src/keys.c    **** #undef _RARG
 1642              		.loc 1 1192 2 is_stmt 1 view .LVU529
1101:src/keys.c    **** #define _RARG    0x8000	// Must not interfere with existing opcode markers
 1643              		.loc 1 1101 47 is_stmt 0 view .LVU530
 1644 0068 3320     		movs	r0, #51
1195:src/keys.c    **** #ifdef INCLUDE_C_LOCK
 1645              		.loc 1 1195 1 view .LVU531
 1646 006a 70BD     		pop	{r4, r5, r6, pc}
 1647              	.LVL120:
 1648              	.L166:
1162:src/keys.c    **** 			op = UState.nointseparator ? (OP_NIL | OP_INTSEP_ON) : (OP_NIL | OP_INTSEP_OFF);
ARM GAS  /tmp/cceyv6gL.s 			page 90


 1649              		.loc 1 1162 3 is_stmt 1 view .LVU532
1162:src/keys.c    **** 			op = UState.nointseparator ? (OP_NIL | OP_INTSEP_ON) : (OP_NIL | OP_INTSEP_OFF);
 1650              		.loc 1 1162 7 is_stmt 0 view .LVU533
 1651 006c 194B     		ldr	r3, .L196+12
 1652 006e 1B68     		ldr	r3, [r3]
 1653 0070 93F8E827 		ldrb	r2, [r3, #2024]	@ zero_extendqisi2
1162:src/keys.c    **** 			op = UState.nointseparator ? (OP_NIL | OP_INTSEP_ON) : (OP_NIL | OP_INTSEP_OFF);
 1654              		.loc 1 1162 6 view .LVU534
 1655 0074 D607     		lsls	r6, r2, #31
 1656 0076 0FD4     		bmi	.L194
1168:src/keys.c    **** #endif
 1657              		.loc 1 1168 4 is_stmt 1 view .LVU535
1168:src/keys.c    **** #endif
 1658              		.loc 1 1168 8 is_stmt 0 view .LVU536
 1659 0078 93F8E737 		ldrb	r3, [r3, #2023]	@ zero_extendqisi2
1168:src/keys.c    **** #endif
 1660              		.loc 1 1168 7 view .LVU537
 1661 007c 9C06     		lsls	r4, r3, #26
 1662 007e 14D5     		bpl	.L195
 1663 0080 40F24F10 		movw	r0, #335
 1664              	.LVL121:
1195:src/keys.c    **** #ifdef INCLUDE_C_LOCK
 1665              		.loc 1 1195 1 view .LVU538
 1666 0084 70BD     		pop	{r4, r5, r6, pc}
 1667              	.L193:
 1668              	.LVL122:
1192:src/keys.c    **** #undef _RARG
 1669              		.loc 1 1192 2 is_stmt 1 view .LVU539
1192:src/keys.c    **** #undef _RARG
 1670              		.loc 1 1192 9 is_stmt 0 view .LVU540
 1671 0086 134B     		ldr	r3, .L196+12
 1672 0088 1B68     		ldr	r3, [r3]
 1673 008a 93F8E837 		ldrb	r3, [r3, #2024]	@ zero_extendqisi2
1192:src/keys.c    **** #undef _RARG
 1674              		.loc 1 1192 57 view .LVU541
 1675 008e D907     		lsls	r1, r3, #31
 1676 0090 10D4     		bmi	.L177
 1677              	.LVL123:
 1678              	.L180:
1192:src/keys.c    **** #undef _RARG
 1679              		.loc 1 1192 57 view .LVU542
 1680 0092 25F48040 		bic	r0, r5, #16384
1195:src/keys.c    **** #ifdef INCLUDE_C_LOCK
 1681              		.loc 1 1195 1 view .LVU543
 1682 0096 70BD     		pop	{r4, r5, r6, pc}
 1683              	.LVL124:
 1684              	.L194:
1163:src/keys.c    **** 		else
 1685              		.loc 1 1163 4 is_stmt 1 view .LVU544
1163:src/keys.c    **** 		else
 1686              		.loc 1 1163 57 is_stmt 0 view .LVU545
 1687 0098 93F9E737 		ldrsb	r3, [r3, #2023]
 1688 009c 002B     		cmp	r3, #0
 1689 009e 40F25315 		movw	r5, #339
 1690              	.LVL125:
1163:src/keys.c    **** 		else
 1691              		.loc 1 1163 57 view .LVU546
ARM GAS  /tmp/cceyv6gL.s 			page 91


 1692 00a2 A8BF     		it	ge
 1693 00a4 4FF4AA75 		movge	r5, #340
 1694 00a8 F3E7     		b	.L180
 1695              	.LVL126:
 1696              	.L195:
1186:src/keys.c    **** 		if (op & _RARG) {
 1697              		.loc 1 1186 2 is_stmt 1 view .LVU547
1186:src/keys.c    **** 		if (op & _RARG) {
 1698              		.loc 1 1186 5 is_stmt 0 view .LVU548
 1699 00aa 332D     		cmp	r5, #51
 1700 00ac DCD0     		beq	.L178
 1701              	.LVL127:
1187:src/keys.c    **** 			init_arg((enum rarg) (op & ~(_RARG | NO_INT)));
 1702              		.loc 1 1187 3 is_stmt 1 view .LVU549
1187:src/keys.c    **** 			init_arg((enum rarg) (op & ~(_RARG | NO_INT)));
 1703              		.loc 1 1187 6 is_stmt 0 view .LVU550
 1704 00ae 2B04     		lsls	r3, r5, #16
 1705 00b0 D4D4     		bmi	.L176
 1706 00b2 EEE7     		b	.L180
 1707              	.LVL128:
 1708              	.L177:
1192:src/keys.c    **** #undef _RARG
 1709              		.loc 1 1192 21 view .LVU551
 1710 00b4 6A04     		lsls	r2, r5, #17
 1711 00b6 D7D4     		bmi	.L178
 1712 00b8 EBE7     		b	.L180
 1713              	.L192:
1178:src/keys.c    **** 			set_pc(0);
 1714              		.loc 1 1178 43 discriminator 2 view .LVU552
 1715 00ba B3F8EE37 		ldrh	r3, [r3, #2030]
 1716 00be 012B     		cmp	r3, #1
 1717 00c0 C8D1     		bne	.L168
1179:src/keys.c    **** 		break;
 1718              		.loc 1 1179 4 is_stmt 1 view .LVU553
 1719 00c2 FFF7FEFF 		bl	set_pc
 1720              	.LVL129:
 1721 00c6 C5E7     		b	.L168
 1722              	.L197:
 1723              		.align	2
 1724              	.L196:
 1725 00c8 00000000 		.word	.LANCHOR1
 1726 00cc 00000000 		.word	.LANCHOR0
 1727 00d0 00000000 		.word	StateWhileOn
 1728 00d4 00000000 		.word	main_ram
 1729              		.cfi_endproc
 1730              	.LFE21:
 1732              		.section	.text.intltr,"ax",%progbits
 1733              		.align	1
 1734              		.p2align 2,,3
 1735              		.syntax unified
 1736              		.thumb
 1737              		.thumb_func
 1738              		.fpu fpv4-sp-d16
 1740              	intltr:
 1741              	.LVL130:
 1742              	.LFB18:
 761:src/keys.c    **** 	return (UState.intm && (! State2.runmode || (int) int_base() > d));
ARM GAS  /tmp/cceyv6gL.s 			page 92


 1743              		.loc 1 761 26 view -0
 1744              		.cfi_startproc
 1745              		@ args = 0, pretend = 0, frame = 0
 1746              		@ frame_needed = 0, uses_anonymous_args = 0
 762:src/keys.c    **** }
 1747              		.loc 1 762 2 view .LVU555
 762:src/keys.c    **** }
 1748              		.loc 1 762 10 is_stmt 0 view .LVU556
 1749 0000 0B4B     		ldr	r3, .L207
 1750 0002 1B68     		ldr	r3, [r3]
 1751 0004 93F8E837 		ldrb	r3, [r3, #2024]	@ zero_extendqisi2
 762:src/keys.c    **** }
 1752              		.loc 1 762 22 view .LVU557
 1753 0008 13F00103 		ands	r3, r3, #1
 1754 000c 05D0     		beq	.L200
 762:src/keys.c    **** }
 1755              		.loc 1 762 26 discriminator 1 view .LVU558
 1756 000e 094B     		ldr	r3, .L207+4
 1757 0010 9B7D     		ldrb	r3, [r3, #22]	@ zero_extendqisi2
 762:src/keys.c    **** }
 1758              		.loc 1 762 22 discriminator 1 view .LVU559
 1759 0012 5B06     		lsls	r3, r3, #25
 1760 0014 03D4     		bmi	.L206
 762:src/keys.c    **** }
 1761              		.loc 1 762 22 view .LVU560
 1762 0016 0120     		movs	r0, #1
 1763              	.LVL131:
 763:src/keys.c    **** 
 1764              		.loc 1 763 1 view .LVU561
 1765 0018 7047     		bx	lr
 1766              	.LVL132:
 1767              	.L200:
 762:src/keys.c    **** }
 1768              		.loc 1 762 22 view .LVU562
 1769 001a 1846     		mov	r0, r3
 1770              	.LVL133:
 762:src/keys.c    **** }
 1771              		.loc 1 762 22 view .LVU563
 1772 001c 7047     		bx	lr
 1773              	.LVL134:
 1774              	.L206:
 761:src/keys.c    **** 	return (UState.intm && (! State2.runmode || (int) int_base() > d));
 1775              		.loc 1 761 26 view .LVU564
 1776 001e 10B5     		push	{r4, lr}
 1777              		.cfi_def_cfa_offset 8
 1778              		.cfi_offset 4, -8
 1779              		.cfi_offset 14, -4
 1780 0020 0446     		mov	r4, r0
 1781              	.LVL135:
 1782              	.LBB354:
 1783              	.LBI354:
 761:src/keys.c    **** 	return (UState.intm && (! State2.runmode || (int) int_base() > d));
 1784              		.loc 1 761 12 is_stmt 1 view .LVU565
 1785              	.LBB355:
 762:src/keys.c    **** }
 1786              		.loc 1 762 52 is_stmt 0 view .LVU566
 1787 0022 FFF7FEFF 		bl	int_base
ARM GAS  /tmp/cceyv6gL.s 			page 93


 1788              	.LVL136:
 762:src/keys.c    **** }
 1789              		.loc 1 762 43 view .LVU567
 1790 0026 8442     		cmp	r4, r0
 1791 0028 ACBF     		ite	ge
 1792 002a 0020     		movge	r0, #0
 1793 002c 0120     		movlt	r0, #1
 1794              	.LBE355:
 1795              	.LBE354:
 763:src/keys.c    **** 
 1796              		.loc 1 763 1 view .LVU568
 1797 002e 10BD     		pop	{r4, pc}
 1798              	.LVL137:
 1799              	.L208:
 763:src/keys.c    **** 
 1800              		.loc 1 763 1 view .LVU569
 1801              		.align	2
 1802              	.L207:
 1803 0030 00000000 		.word	main_ram
 1804 0034 00000000 		.word	StateWhileOn
 1805              		.cfi_endproc
 1806              	.LFE18:
 1808              		.section	.text.process_normal,"ax",%progbits
 1809              		.align	1
 1810              		.p2align 2,,3
 1811              		.syntax unified
 1812              		.thumb
 1813              		.thumb_func
 1814              		.fpu fpv4-sp-d16
 1816              	process_normal:
 1817              	.LVL138:
 1818              	.LFB19:
 769:src/keys.c    **** 	static const unsigned short int op_map[] = {
 1819              		.loc 1 769 1 is_stmt 1 view -0
 1820              		.cfi_startproc
 1821              		@ args = 0, pretend = 0, frame = 0
 1822              		@ frame_needed = 0, uses_anonymous_args = 0
 770:src/keys.c    **** 		// Row 1
 1823              		.loc 1 770 2 view .LVU571
 817:src/keys.c    **** 	int op = op_map[lc];
 1824              		.loc 1 817 2 view .LVU572
 1825              	.LBB356:
 1826              	.LBI356:
 146:src/keys.c    **** {
 1827              		.loc 1 146 12 view .LVU573
 1828              	.LBB357:
 148:src/keys.c    **** 		 0,  1,  2,  3,  4,  5,   // K00 - K05
 1829              		.loc 1 148 2 view .LVU574
 158:src/keys.c    **** }
