ARM GAS  /tmp/ccyuyqQY.s 			page 1


   1              		.arch armv7e-m
   2              		.eabi_attribute 27, 1
   3              		.eabi_attribute 28, 1
   4              		.eabi_attribute 20, 1
   5              		.eabi_attribute 21, 1
   6              		.eabi_attribute 23, 3
   7              		.eabi_attribute 24, 1
   8              		.eabi_attribute 25, 1
   9              		.eabi_attribute 26, 1
  10              		.eabi_attribute 30, 2
  11              		.eabi_attribute 34, 1
  12              		.eabi_attribute 18, 4
  13              		.file	"lcd.c"
  14              		.text
  15              	.Ltext0:
  16              		.cfi_sections	.debug_frame
  17              		.section	.rodata.draw_BEG.part.0.str1.4,"aMS",%progbits,1
  18              		.align	2
  19              	.LC0:
  20 0000 533A3400 		.ascii	"S:4\000"
  21              		.section	.text.draw_BEG.part.0,"ax",%progbits
  22              		.align	1
  23              		.p2align 2,,3
  24              		.arch armv7e-m
  25              		.syntax unified
  26              		.thumb
  27              		.thumb_func
  28              		.fpu fpv4-sp-d16
  30              	draw_BEG.part.0:
  31              	.LFB42:
  32              		.file 1 "src/lcd.c"
   1:src/lcd.c     **** /* This file is part of 34S.
   2:src/lcd.c     ****  * 
   3:src/lcd.c     ****  * 34S is free software: you can redistribute it and/or modify
   4:src/lcd.c     ****  * it under the terms of the GNU General Public License as published by
   5:src/lcd.c     ****  * the Free Software Foundation, either version 3 of the License, or
   6:src/lcd.c     ****  * (at your option) any later version.
   7:src/lcd.c     ****  * 
   8:src/lcd.c     ****  * 34S is distributed in the hope that it will be useful,
   9:src/lcd.c     ****  * but WITHOUT ANY WARRANTY; without even the implied warranty of
  10:src/lcd.c     ****  * MERCHANTABILITY or FITNESS FOR A PARTICULAR PURPOSE.  See the
  11:src/lcd.c     ****  * GNU General Public License for more details.
  12:src/lcd.c     ****  * 
  13:src/lcd.c     ****  * You should have received a copy of the GNU General Public License
  14:src/lcd.c     ****  * along with 34S.  If not, see <http://www.gnu.org/licenses/>.
  15:src/lcd.c     ****  */
  16:src/lcd.c     **** 
  17:src/lcd.c     **** #ifdef DM42
  18:src/lcd.c     **** #include "dmcp.h"
  19:src/lcd.c     **** #endif
  20:src/lcd.c     **** 
  21:src/lcd.c     **** #define DM42SAFE
  22:src/lcd.c     **** #include "lcd.h"
  23:src/lcd.c     **** #include "display.h"
  24:src/lcd.c     **** #include "xeq.h"
  25:src/lcd.c     **** 
  26:src/lcd.c     **** #if defined(INCLUDE_C_LOCK) || defined(INFRARED)
ARM GAS  /tmp/ccyuyqQY.s 			page 2


  27:src/lcd.c     **** #include "data.h"
  28:src/lcd.c     **** #include "storage.h"
  29:src/lcd.c     **** #endif
  30:src/lcd.c     **** 
  31:src/lcd.c     **** #undef DM42SAFE
  32:src/lcd.c     **** 
  33:src/lcd.c     **** #include "pretty.h"
  34:src/lcd.c     **** 
  35:src/lcd.c     **** 
  36:src/lcd.c     **** static unsigned char dots[TOP_DOTS];
  37:src/lcd.c     **** 
  38:src/lcd.c     **** /* Some wrapper routines to set segments of the display */
  39:src/lcd.c     **** void set_dot(int n) {
  40:src/lcd.c     ****   dots[n] |= 1;
  41:src/lcd.c     ****   if (dots[n]&2) return;
  42:src/lcd.c     ****   draw_dot(n);
  43:src/lcd.c     ****   dots[n] = 3; // 11;
  44:src/lcd.c     **** }
  45:src/lcd.c     **** void clr_dot(int n) {
  46:src/lcd.c     ****   dots[n] &= ~1;
  47:src/lcd.c     ****   if ( !(dots[n]&2)) return;
  48:src/lcd.c     ****   draw_dot(n);
  49:src/lcd.c     ****   dots[n] = 0; // =0 would work too.
  50:src/lcd.c     **** }
  51:src/lcd.c     **** 
  52:src/lcd.c     **** int is_dot(int n) {
  53:src/lcd.c     **** 	return dots[n]&1;
  54:src/lcd.c     **** }
  55:src/lcd.c     **** 
  56:src/lcd.c     **** void clear_disp(void) {
  57:src/lcd.c     ****       for (int i=0; i<TOP_DOTS; i++)
  58:src/lcd.c     **** 	dots[i] = 0;
  59:src/lcd.c     ****       lcd_clear_buf();
  60:src/lcd.c     **** }
  61:src/lcd.c     ****   
  62:src/lcd.c     **** void reset_disp(void) {
  63:src/lcd.c     ****   clr_dot(STO_annun); // gets turned back on if needed;
  64:src/lcd.c     ****   int rcl = is_dot(RCL_annun);
  65:src/lcd.c     ****   int bat = is_dot(BATTERY);
  66:src/lcd.c     ****   int leq = is_dot(LIT_EQ);
  67:src/lcd.c     ****   int rpn = is_dot(RPN);
  68:src/lcd.c     ****   int i;
  69:src/lcd.c     ****   for (i=0; i<TOP_DOTS; i++)
  70:src/lcd.c     ****     //		if (i != RCL_annun && i != BATTERY && i != LIT_EQ )
  71:src/lcd.c     ****     //			clr_dot(i);
  72:src/lcd.c     ****     dots[i] <<= 1;
  73:src/lcd.c     ****   dot(RCL_annun, rcl);
  74:src/lcd.c     ****   dot(BATTERY, bat);
  75:src/lcd.c     ****   dot(LIT_EQ, leq);
  76:src/lcd.c     ****   dot(RPN, rpn);
  77:src/lcd.c     **** }
  78:src/lcd.c     **** 
  79:src/lcd.c     **** void reset_7_segment(void) {
  80:src/lcd.c     ****   for (int i = 0; i <= EXP_SIGN; ++i) {
  81:src/lcd.c     ****     dots[i] <<= 1;
  82:src/lcd.c     ****   }
  83:src/lcd.c     **** }
ARM GAS  /tmp/ccyuyqQY.s 			page 3


  84:src/lcd.c     **** 
  85:src/lcd.c     **** #define setBlackPixel(x, y)                bitblt24(x, 1, y, 1, BLT_OR,   BLT_NONE)
  86:src/lcd.c     **** #define setWhitePixel(x, y)                bitblt24(x, 1, y, 1, BLT_ANDN, BLT_NONE)
  87:src/lcd.c     **** 
  88:src/lcd.c     **** void left_side (int i, int j, int col) { //i - xleft reference; j - ytop reference
  89:src/lcd.c     ****   lcd_fill_rect (i+2, j+11, 1, 9, col);
  90:src/lcd.c     ****   lcd_fill_rect (i+3, j+2, 1, 18, col);
  91:src/lcd.c     ****   lcd_fill_rect (i+4, j+2, 1, 17, col);
  92:src/lcd.c     ****   lcd_fill_rect (i+5, j+3, 1, 15, col);
  93:src/lcd.c     ****   lcd_fill_rect (i+6, j+4, 1, 7, col);
  94:src/lcd.c     **** }
  95:src/lcd.c     **** void left_side_top (int i, int j, int col) {
  96:src/lcd.c     ****   left_side(i, j, col);
  97:src/lcd.c     **** }
  98:src/lcd.c     **** void left_side_bottom (int i, int j, int col) {
  99:src/lcd.c     ****   left_side(i-2, j+19, col);
 100:src/lcd.c     **** }
 101:src/lcd.c     **** void right_side (int i, int j, int col) {
 102:src/lcd.c     ****   lcd_fill_rect (i+16, j+11, 1, 7, col);
 103:src/lcd.c     ****   lcd_fill_rect (i+17, j+4, 1, 15, col);
 104:src/lcd.c     ****   lcd_fill_rect (i+18, j+3, 1, 17, col);
 105:src/lcd.c     ****   lcd_fill_rect (i+19, j+2, 1, 18, col);
 106:src/lcd.c     ****   lcd_fill_rect (i+20, j+2, 1, 9, col);
 107:src/lcd.c     **** }
 108:src/lcd.c     **** void right_side_top (int i, int j, int col) {
 109:src/lcd.c     ****   right_side(i, j, col);
 110:src/lcd.c     **** }
 111:src/lcd.c     **** void right_side_bottom (int i, int j, int col) {
 112:src/lcd.c     ****   right_side(i-2, j+19, col);
 113:src/lcd.c     **** }
 114:src/lcd.c     **** void top (int i, int j, int col) {
 115:src/lcd.c     ****   lcd_fill_rect ( i+5, j, 14, 1, col );
 116:src/lcd.c     ****   lcd_fill_rect ( i+4, j+1, 16, 1, col );
 117:src/lcd.c     ****   lcd_fill_rect ( i+6, j+2, 12, 1, col );
 118:src/lcd.c     ****   lcd_fill_rect ( i+7, j+3, 10, 1, col );
 119:src/lcd.c     **** }
 120:src/lcd.c     **** void middle (int i, int j, int col) {
 121:src/lcd.c     ****   //  lcd_fill_rect ( i+5, j+19, 11, 3, col );
 122:src/lcd.c     ****   //  setBlackPixel ( i+4, j+20 );
 123:src/lcd.c     ****   //  setBlackPixel ( i+16, j+20 );
 124:src/lcd.c     ****   lcd_fill_rect ( i+5, j+21, 11, 1, col );
 125:src/lcd.c     ****   lcd_fill_rect ( i+4, j+20, 13, 1, col );
 126:src/lcd.c     ****   lcd_fill_rect ( i+5, j+19, 11, 1, col );
 127:src/lcd.c     **** }
 128:src/lcd.c     **** void bottom (int i, int j, int col) {
 129:src/lcd.c     ****   lcd_fill_rect ( i+2, j+40, 14, 1, col );
 130:src/lcd.c     ****   lcd_fill_rect ( i+1, j+39, 16, 1, col );
 131:src/lcd.c     ****   lcd_fill_rect ( i+3, j+38, 12, 1, col );
 132:src/lcd.c     ****   lcd_fill_rect ( i+4, j+37, 10, 1, col );
 133:src/lcd.c     **** }
 134:src/lcd.c     **** void decimal (int i, int j, int col) {
 135:src/lcd.c     ****   lcd_fill_rect (i+19, j+40, 5, 5, col);
 136:src/lcd.c     **** }
 137:src/lcd.c     **** void comma (int i, int j, int col) {
 138:src/lcd.c     ****   lcd_fill_rect (i+21, j+45, 3, 3, col);
 139:src/lcd.c     ****   lcd_fill_rect (i+19, j+48, 3, 3, col);
 140:src/lcd.c     **** }
ARM GAS  /tmp/ccyuyqQY.s 			page 4


 141:src/lcd.c     **** 
 142:src/lcd.c     **** void exp_left_side (int i, int j, int col) {
 143:src/lcd.c     ****   lcd_fill_rect (i, j+6, 1, 6, col );
 144:src/lcd.c     ****   lcd_fill_rect (i+1, j, 1, 11, col );
 145:src/lcd.c     ****   lcd_fill_rect (i+2, j+1, 1, 9, col );
 146:src/lcd.c     ****   lcd_fill_rect (i+3, j+2, 1, 4, col );
 147:src/lcd.c     **** }
 148:src/lcd.c     **** void exp_left_side_top (int i, int j, int col) {
 149:src/lcd.c     ****   exp_left_side(i+1, j, col);
 150:src/lcd.c     **** }
 151:src/lcd.c     **** void exp_left_side_bottom (int i, int j, int col) {
 152:src/lcd.c     ****   exp_left_side(i, j+11, col);
 153:src/lcd.c     **** }
 154:src/lcd.c     **** void exp_right_side (int i, int j, int col) {
 155:src/lcd.c     ****   lcd_fill_rect (i+12, j, 1, 6, col );
 156:src/lcd.c     ****   lcd_fill_rect (i+11, j+1, 1, 11, col );
 157:src/lcd.c     ****   lcd_fill_rect (i+10, j+2, 1, 9, col );
 158:src/lcd.c     ****   lcd_fill_rect (i+9, j+6, 1, 4, col );
 159:src/lcd.c     **** }
 160:src/lcd.c     **** void exp_right_side_top (int i, int j, int col) {
 161:src/lcd.c     ****   exp_right_side(i, j, col);
 162:src/lcd.c     **** }
 163:src/lcd.c     **** void exp_right_side_bottom (int i, int j, int col) {
 164:src/lcd.c     ****   exp_right_side(i-1, j+11, col);
 165:src/lcd.c     **** }
 166:src/lcd.c     **** void exp_top (int i, int j, int col) {
 167:src/lcd.c     ****   lcd_fill_rect (i+4, j, 7, 1, col );
 168:src/lcd.c     ****   lcd_fill_rect (i+5, j+1, 5, 1, col );
 169:src/lcd.c     ****   lcd_fill_rect (i+6, j+2, 3, 1, col );
 170:src/lcd.c     **** }
 171:src/lcd.c     **** void exp_bottom (int i, int j, int col) {
 172:src/lcd.c     ****   lcd_fill_rect (i+2, j+22, 7, 1, col );
 173:src/lcd.c     ****   lcd_fill_rect (i+3, j+21, 5, 1, col );
 174:src/lcd.c     ****   lcd_fill_rect (i+4, j+20, 3, 1, col );
 175:src/lcd.c     **** }
 176:src/lcd.c     **** void exp_middle (int i, int j, int col) {
 177:src/lcd.c     ****   lcd_fill_rect (i+4, j+10, 5, 1, col );
 178:src/lcd.c     ****   lcd_fill_rect (i+3, j+11, 7, 1, col );
 179:src/lcd.c     ****   lcd_fill_rect (i+4, j+12, 5, 1, col );
 180:src/lcd.c     **** }
 181:src/lcd.c     **** 
 182:src/lcd.c     **** #if 0
 183:src/lcd.c     **** void show_disp(void) { // This function re-draws everything.
 184:src/lcd.c     ****   // It may be fast enough. It does mean that clearing everything first is needed,
 185:src/lcd.c     ****   // or we keep track of changes.
 186:src/lcd.c     ****   // Try clearing everything first first.
 187:src/lcd.c     ****         int i, j, p;
 188:src/lcd.c     **** 	uint32_t x;
 189:src/lcd.c     **** 	const uint32_t xleft = 26;
 190:src/lcd.c     **** 	const uint32_t ytop = 130; // was 170
 191:src/lcd.c     **** 	const uint32_t dwidth = 25;
 192:src/lcd.c     **** 	const uint32_t xleft_exp = 344;
 193:src/lcd.c     **** 	const uint32_t ytop_exp = 130; // was 170
 194:src/lcd.c     **** 	const uint32_t dwidth_exp = 18;
 195:src/lcd.c     **** 	const uint32_t y_ann = Y_ANNUNC;
 196:src/lcd.c     ****         /* Segments 0 - 107 are the main digits */
 197:src/lcd.c     ****         for (i=0; i<DISPLAY_DIGITS; i++) { // 0 -> 11 inclusive
ARM GAS  /tmp/ccyuyqQY.s 			page 5


 198:src/lcd.c     ****                 p = i*SEGS_PER_DIGIT;
 199:src/lcd.c     ****                 x = xleft + dwidth*i;
 200:src/lcd.c     ****                 if (dots[p]) { // top
 201:src/lcd.c     **** 		  top (x, ytop);
 202:src/lcd.c     ****                 }
 203:src/lcd.c     ****                 if (dots[p+1]) { // top left
 204:src/lcd.c     **** 		  left_side_top (x, ytop);
 205:src/lcd.c     ****                 }
 206:src/lcd.c     ****                 if (dots[p+3]) { // top right
 207:src/lcd.c     **** 		  right_side_top (x, ytop);
 208:src/lcd.c     ****                 }
 209:src/lcd.c     ****                 if (dots[p+2]) { // centre line
 210:src/lcd.c     **** 		  middle (x, ytop);
 211:src/lcd.c     ****                 }
 212:src/lcd.c     ****                 if (dots[p+4]) { // lower left
 213:src/lcd.c     **** 		  left_side_bottom (x, ytop);
 214:src/lcd.c     ****                 }
 215:src/lcd.c     ****                 if (dots[p+6]) { // lower right
 216:src/lcd.c     **** 		  right_side_bottom (x, ytop);
 217:src/lcd.c     ****                 }
 218:src/lcd.c     ****                 if (dots[p+5]) { // bottom
 219:src/lcd.c     **** 		  bottom (x, ytop);
 220:src/lcd.c     ****                 }
 221:src/lcd.c     ****                 if (dots[p+7]) { // point
 222:src/lcd.c     **** 		  decimal (x, ytop);
 223:src/lcd.c     ****                 }
 224:src/lcd.c     ****                 if (dots[p+8]) { // comma
 225:src/lcd.c     **** 		  comma (x, ytop);
 226:src/lcd.c     ****                 }
 227:src/lcd.c     ****         }
 228:src/lcd.c     ****         /* Segments 108 - 128 are the exponent digits */
 229:src/lcd.c     ****         for (i=0; i<3; i++) {
 230:src/lcd.c     ****                 p = i*7+108;
 231:src/lcd.c     ****                 x = xleft_exp + dwidth_exp*i;
 232:src/lcd.c     ****                 if (dots[p]) { // top
 233:src/lcd.c     **** 		  exp_top (x, ytop_exp);
 234:src/lcd.c     ****                 }
 235:src/lcd.c     ****                 if (dots[p+1]) { // top left
 236:src/lcd.c     **** 		  exp_left_side_top (x, ytop_exp);
 237:src/lcd.c     ****                 }
 238:src/lcd.c     ****                 if (dots[p+3]) { // top right
 239:src/lcd.c     **** 		  exp_right_side_top (x, ytop_exp);
 240:src/lcd.c     ****                 }
 241:src/lcd.c     ****                 if (dots[p+2]) { // centre line
 242:src/lcd.c     **** 		  exp_middle (x, ytop_exp);
 243:src/lcd.c     ****                 }
 244:src/lcd.c     ****                 if (dots[p+4]) { // lower left
 245:src/lcd.c     **** 		  exp_left_side_bottom (x, ytop_exp);
 246:src/lcd.c     ****                 }
 247:src/lcd.c     ****                 if (dots[p+6]) { // lower right
 248:src/lcd.c     **** 		  exp_right_side_bottom (x, ytop_exp);
 249:src/lcd.c     ****                 }
 250:src/lcd.c     ****                 if (dots[p+5]) { // bottom
 251:src/lcd.c     **** 		  exp_bottom (x, ytop_exp);
 252:src/lcd.c     ****                 }
 253:src/lcd.c     ****         }
 254:src/lcd.c     ****         /* Segments 129 & 130 are the signs */
ARM GAS  /tmp/ccyuyqQY.s 			page 6


 255:src/lcd.c     ****         if (dots[MANT_SIGN]) {
 256:src/lcd.c     **** 	  middle (xleft - dwidth, ytop);
 257:src/lcd.c     ****         }
 258:src/lcd.c     ****         if (dots[EXP_SIGN]) {
 259:src/lcd.c     **** 	  exp_middle (xleft_exp-dwidth_exp, ytop);
 260:src/lcd.c     ****         }
 261:src/lcd.c     **** 
 262:src/lcd.c     **** 	if (dots[BIG_EQ]) {
 263:src/lcd.c     **** 	  lcd_fill_rect (250, y_ann-34, 15, 4, 0xff);
 264:src/lcd.c     **** 	  lcd_fill_rect (250, y_ann-24, 15, 4, 0xff);
 265:src/lcd.c     ****         }
 266:src/lcd.c     **** 	t20->inv = 0;
 267:src/lcd.c     **** 	
 268:src/lcd.c     **** 	draw_PRT();
 269:src/lcd.c     **** 	
 270:src/lcd.c     **** 	/* if (UState.print_on) { */
 271:src/lcd.c     **** 	/*   lcd_setXY(t20, 250, y_ann-70); */
 272:src/lcd.c     **** 	/*   lcd_writeText(t20,"PRT"); */
 273:src/lcd.c     ****         /* } */
 274:src/lcd.c     **** 
 275:src/lcd.c     ****         if (dots[DOWN_ARR]) {
 276:src/lcd.c     **** 	  lcd_fill_rect(287,y_ann-67,5,12,0xff);
 277:src/lcd.c     **** 	  lcd_fill_rect(285,y_ann-55,9,1,0xff);
 278:src/lcd.c     **** 	  lcd_fill_rect(286,y_ann-54,7,1,0xff);
 279:src/lcd.c     **** 	  lcd_fill_rect(287,y_ann-53,5,1,0xff);
 280:src/lcd.c     **** 	  lcd_fill_rect(288,y_ann-52,3,1,0xff);
 281:src/lcd.c     **** 	  lcd_fill_rect(289,y_ann-51,1,1,0xff);
 282:src/lcd.c     ****         }
 283:src/lcd.c     **** 
 284:src/lcd.c     **** 	if (dots[INPUT]) {
 285:src/lcd.c     **** 	  lcd_setXY(t20, 305, y_ann-70);
 286:src/lcd.c     **** 	  lcd_writeText(t20,"ALPHA");
 287:src/lcd.c     ****         }
 288:src/lcd.c     **** 
 289:src/lcd.c     **** 	/* if (dots[LIT_EQ]) { */
 290:src/lcd.c     **** 	/*   lcd_setXY (t20, 360, y_ann-70); */
 291:src/lcd.c     **** 	/*   if (C_LOCKED) { */
 292:src/lcd.c     **** 	/*     lcd_writeText(t20, "C_LK"); */
 293:src/lcd.c     **** 	/*   } */
 294:src/lcd.c     **** 	/*   else { */
 295:src/lcd.c     **** 	/*     lcd_writeText(t20, "="); */
 296:src/lcd.c     **** 	/*   } */
 297:src/lcd.c     ****         /* } */
 298:src/lcd.c     **** 
 299:src/lcd.c     **** 	draw_LEQ();
 300:src/lcd.c     **** 	
 301:src/lcd.c     **** 	if (dots[BATTERY]) {
 302:src/lcd.c     **** 	  //    MOVE(70, 10);   PRINTF("####-");
 303:src/lcd.c     ****         }
 304:src/lcd.c     **** #ifdef MODIFY_BEG_SSIZE8
 305:src/lcd.c     **** 	if (dots[BEG]) {
 306:src/lcd.c     **** 	  lcd_setXY (t20, 285, y_ann-50);
 307:src/lcd.c     **** 	  lcd_writeText(t20, "S:8");
 308:src/lcd.c     ****         }
 309:src/lcd.c     **** 	else {
 310:src/lcd.c     **** 	  lcd_setXY (t20, 285, y_ann-50);
 311:src/lcd.c     **** 	  lcd_writeText(t20, "S:4");
ARM GAS  /tmp/ccyuyqQY.s 			page 7


 312:src/lcd.c     **** 	}	  
 313:src/lcd.c     **** #else
 314:src/lcd.c     **** 	if (dots[BEG]) {
 315:src/lcd.c     **** 	  lcd_setXY (t20, 285, y_ann-50);
 316:src/lcd.c     **** 	  lcd_writeText(t20, "BEG");
 317:src/lcd.c     ****         }
 318:src/lcd.c     **** #endif
 319:src/lcd.c     **** 	if (dots[STO_annun]) {
 320:src/lcd.c     **** 	  lcd_setXY (t20, 325, y_ann-50);
 321:src/lcd.c     **** 	  lcd_writeText(t20, "PGM");
 322:src/lcd.c     ****         }
 323:src/lcd.c     **** 
 324:src/lcd.c     **** 	/* if (dots[RCL_annun]) { */
 325:src/lcd.c     **** 	/*   lcd_setXY (t20, 365, y_ann-50); */
 326:src/lcd.c     **** 	/*   lcd_writeText(t20, "RUN"); */
 327:src/lcd.c     ****         /* } */
 328:src/lcd.c     **** 
 329:src/lcd.c     **** 	if (dots[RAD]) {
 330:src/lcd.c     **** 	  lcd_setXY (t20, 285, y_ann-30);
 331:src/lcd.c     **** 	  lcd_writeText(t20, "RAD");
 332:src/lcd.c     **** 	}
 333:src/lcd.c     **** 
 334:src/lcd.c     **** 	if (dots[DEG]) {
 335:src/lcd.c     **** 	  lcd_setXY (t20, 325, y_ann-30);
 336:src/lcd.c     **** 	  lcd_writeText(t20, "DEG");
 337:src/lcd.c     ****         }
 338:src/lcd.c     **** 	draw_RPN_RCL();
 339:src/lcd.c     **** 	
 340:src/lcd.c     **** 	/* The graphical bit last */
 341:src/lcd.c     ****         for (i=0; i<BITMAP_WIDTH; i++) {
 342:src/lcd.c     **** 	  for (j=0; j<6; j++) {
 343:src/lcd.c     **** 	    if (dots[i*6+j+MATRIX_BASE]) {
 344:src/lcd.c     **** 	      lcd_fill_rect( xleft-dwidth+5*i+15, ytop-(10+6*6)+j*6, 4, 5, 0xff);
 345:src/lcd.c     **** 	    }
 346:src/lcd.c     **** 	  }
 347:src/lcd.c     **** 	}
 348:src/lcd.c     **** #ifdef TOP_ROW
 349:src/lcd.c     ****         for (i=0; i<BW_TOP; i++) {
 350:src/lcd.c     **** 	  for (j=0; j<6; j++) {
 351:src/lcd.c     **** 	    if (dots[i*6+j+MB_TOP]) {
 352:src/lcd.c     **** 	      lcd_fill_rect( xleft-dwidth+5*i+15, 70-(10+6*5)+j*5, 4, 4, 0xff);
 353:src/lcd.c     **** 	    }
 354:src/lcd.c     **** 	  }
 355:src/lcd.c     **** 	}
 356:src/lcd.c     **** #endif
 357:src/lcd.c     **** }
 358:src/lcd.c     **** #endif
 359:src/lcd.c     **** 
 360:src/lcd.c     **** void draw_dot (int n) {
 361:src/lcd.c     ****   int x, col = 0, inverse = 1;
 362:src/lcd.c     ****   if (dots[n] & 1) {
 363:src/lcd.c     ****     col = 0xff;
 364:src/lcd.c     ****     inverse = 0;
 365:src/lcd.c     ****   }
 366:src/lcd.c     ****   
 367:src/lcd.c     ****   if (n <= 107) {
 368:src/lcd.c     ****     x = XLEFT + DWIDTH*(n/9);
ARM GAS  /tmp/ccyuyqQY.s 			page 8


 369:src/lcd.c     ****     switch (n % 9) {  
 370:src/lcd.c     ****     case 0:
 371:src/lcd.c     ****       top (x, YTOP, col);
 372:src/lcd.c     ****       return;
 373:src/lcd.c     ****     case 1:
 374:src/lcd.c     ****       left_side_top (x, YTOP, col);
 375:src/lcd.c     ****       return;
 376:src/lcd.c     ****     case 2:
 377:src/lcd.c     ****       middle (x, YTOP, col);
 378:src/lcd.c     ****       return;
 379:src/lcd.c     ****     case 3:
 380:src/lcd.c     ****       right_side_top (x, YTOP, col);
 381:src/lcd.c     ****       return;
 382:src/lcd.c     ****     case 4:
 383:src/lcd.c     ****       left_side_bottom (x, YTOP, col);
 384:src/lcd.c     ****       return;
 385:src/lcd.c     ****     case 5:
 386:src/lcd.c     ****       bottom (x, YTOP, col);
 387:src/lcd.c     ****       return;
 388:src/lcd.c     ****     case 6:
 389:src/lcd.c     ****       right_side_bottom (x, YTOP, col);
 390:src/lcd.c     ****       return;
 391:src/lcd.c     ****     case 7:
 392:src/lcd.c     ****       decimal (x, YTOP, col);
 393:src/lcd.c     ****       return;
 394:src/lcd.c     ****     case 8:
 395:src/lcd.c     ****       comma (x, YTOP, col);
 396:src/lcd.c     ****       return;
 397:src/lcd.c     ****     default:;
 398:src/lcd.c     ****     }
 399:src/lcd.c     ****   }
 400:src/lcd.c     ****   else if (n <= 128) { // exponent digits
 401:src/lcd.c     ****     x = XLEFT_EXP + DWIDTH_EXP*((n-108)/7);
 402:src/lcd.c     ****     switch ((n-108) % 7) {
 403:src/lcd.c     ****     case 0:
 404:src/lcd.c     ****       exp_top (x, YTOP_EXP, col);
 405:src/lcd.c     ****       return;
 406:src/lcd.c     ****     case 1:
 407:src/lcd.c     ****       exp_left_side_top (x, YTOP_EXP, col);
 408:src/lcd.c     ****       return;
 409:src/lcd.c     ****     case 2:
 410:src/lcd.c     ****       exp_middle (x, YTOP_EXP, col);
 411:src/lcd.c     ****       return;
 412:src/lcd.c     ****     case 3:
 413:src/lcd.c     ****       exp_right_side_top (x, YTOP_EXP, col);
 414:src/lcd.c     ****       return;
 415:src/lcd.c     ****     case 4:
 416:src/lcd.c     ****       exp_left_side_bottom (x, YTOP_EXP, col);
 417:src/lcd.c     ****       return;
 418:src/lcd.c     ****     case 5:
 419:src/lcd.c     ****       exp_bottom (x, YTOP_EXP, col);
 420:src/lcd.c     ****       return;
 421:src/lcd.c     ****     case 6:
 422:src/lcd.c     ****       exp_right_side_bottom (x, YTOP_EXP, col);
 423:src/lcd.c     ****       return;
 424:src/lcd.c     ****     default:;
 425:src/lcd.c     ****     }
ARM GAS  /tmp/ccyuyqQY.s 			page 9


 426:src/lcd.c     ****   }
 427:src/lcd.c     ****   else if (n <= 141) {
 428:src/lcd.c     ****     switch (n) {
 429:src/lcd.c     ****     case MANT_SIGN:
 430:src/lcd.c     ****       middle (XLEFT - DWIDTH, YTOP, col);
 431:src/lcd.c     ****       return;
 432:src/lcd.c     ****     case EXP_SIGN:
 433:src/lcd.c     ****       exp_middle (XLEFT_EXP-DWIDTH_EXP, YTOP, col);
 434:src/lcd.c     ****       return;
 435:src/lcd.c     ****     case BIG_EQ:
 436:src/lcd.c     ****       lcd_fill_rect (250, Y_ANNUNC-34, 15, 4, col);
 437:src/lcd.c     ****       lcd_fill_rect (250, Y_ANNUNC-24, 15, 4, col);
 438:src/lcd.c     ****       return;
 439:src/lcd.c     ****     case LIT_EQ:
 440:src/lcd.c     ****       draw_LEQ();
 441:src/lcd.c     ****       return;
 442:src/lcd.c     ****     case DOWN_ARR:
 443:src/lcd.c     ****       lcd_fill_rect(287,Y_ANNUNC-67,5,12,col);
 444:src/lcd.c     ****       lcd_fill_rect(285,Y_ANNUNC-55,9,1,col);
 445:src/lcd.c     ****       lcd_fill_rect(286,Y_ANNUNC-54,7,1,col);
 446:src/lcd.c     ****       lcd_fill_rect(287,Y_ANNUNC-53,5,1,col);
 447:src/lcd.c     ****       lcd_fill_rect(288,Y_ANNUNC-52,3,1,col);
 448:src/lcd.c     ****       lcd_fill_rect(289,Y_ANNUNC-51,1,1,col);
 449:src/lcd.c     ****       return;
 450:src/lcd.c     ****     case INPUT:
 451:src/lcd.c     ****       t20->inv = inverse;
 452:src/lcd.c     ****       lcd_setXY(t20, 305, Y_ANNUNC-70);
 453:src/lcd.c     ****       lcd_writeText(t20,"ALPHA");
 454:src/lcd.c     ****       return;
 455:src/lcd.c     ****     case BATTERY:
 456:src/lcd.c     ****       return;
 457:src/lcd.c     ****     case BEG:
 458:src/lcd.c     **** #ifdef MODIFY_BEG_SSIZE8
 459:src/lcd.c     ****       /* t20->inv = 0; */
 460:src/lcd.c     ****       /* if (dots[BEG] & 1) { */
 461:src/lcd.c     ****       /* 	lcd_setXY (t20, 285, Y_ANNUNC-50); */
 462:src/lcd.c     ****       /* 	lcd_writeText(t20, "S:8"); */
 463:src/lcd.c     ****       /* } */
 464:src/lcd.c     ****       /* else { */
 465:src/lcd.c     ****       /* 	lcd_setXY (t20, 285, Y_ANNUNC-50); */
 466:src/lcd.c     ****       /* 	lcd_writeText(t20, "S:4"); */
 467:src/lcd.c     ****       /* }	   */
 468:src/lcd.c     ****       {
 469:src/lcd.c     **** 	int d = UState.stack_depth;
 470:src/lcd.c     **** 	//	print_debug(100, dots[BEG]);
 471:src/lcd.c     **** 	if (!(dots[BEG] & 8)) { // test bit 3;
 472:src/lcd.c     **** 	  if (d) {
 473:src/lcd.c     **** 	    draw_BEG(8, 0);
 474:src/lcd.c     **** 	    dots[BEG] = 7; // 0111
 475:src/lcd.c     **** 	  }
 476:src/lcd.c     **** 	  else {
 477:src/lcd.c     **** 	    draw_BEG(4, 0);
 478:src/lcd.c     **** 	    dots[BEG] = 4; // 0100
 479:src/lcd.c     **** 	  }
 480:src/lcd.c     **** 	}
 481:src/lcd.c     **** 	else if (d == (dots[BEG] & 2)) { // no drawing needed
 482:src/lcd.c     **** 	  if (d) {
ARM GAS  /tmp/ccyuyqQY.s 			page 10


 483:src/lcd.c     **** 	    dots[BEG] = 7;
 484:src/lcd.c     **** 	  }
 485:src/lcd.c     **** 	  else {
 486:src/lcd.c     **** 	    dots[BEG] = 4;
 487:src/lcd.c     **** 	  }
 488:src/lcd.c     **** 	}
 489:src/lcd.c     **** 	else {
 490:src/lcd.c     **** 	  if (d) { // changing S:4 to S:8
 491:src/lcd.c     **** 	    draw_BEG(4, 1);
 492:src/lcd.c     **** 	    draw_BEG(8, 0);
 493:src/lcd.c     **** 	    dots[BEG] = 7;
 494:src/lcd.c     **** 	  }
 495:src/lcd.c     **** 	  else {
 496:src/lcd.c     **** 	    draw_BEG(8, 1);
 497:src/lcd.c     **** 	    draw_BEG(4, 0);
 498:src/lcd.c     **** 	    dots[BEG] = 4;
 499:src/lcd.c     **** 	  }
 500:src/lcd.c     **** 	}
 501:src/lcd.c     ****       }
 502:src/lcd.c     **** #else
 503:src/lcd.c     ****       t20->inv = inverse;
 504:src/lcd.c     ****       lcd_setXY (t20, 285, y_ann-50);
 505:src/lcd.c     ****       lcd_writeText(t20, "BEG");
 506:src/lcd.c     **** #endif
 507:src/lcd.c     ****       return;
 508:src/lcd.c     ****     case STO_annun:
 509:src/lcd.c     ****       t20->inv = inverse;
 510:src/lcd.c     ****       lcd_setXY (t20, 325, Y_ANNUNC-50);
 511:src/lcd.c     ****       lcd_writeText(t20, "PGM");
 512:src/lcd.c     ****       return;
 513:src/lcd.c     ****     case RCL_annun:
 514:src/lcd.c     ****       draw_RCL(inverse);
 515:src/lcd.c     ****     case RAD:
 516:src/lcd.c     ****       t20->inv = inverse;
 517:src/lcd.c     ****       lcd_setXY (t20, 285, Y_ANNUNC-30);
 518:src/lcd.c     ****       lcd_writeText(t20, "RAD");
 519:src/lcd.c     ****       return;
 520:src/lcd.c     ****     case DEG:
 521:src/lcd.c     ****       t20->inv = inverse;
 522:src/lcd.c     ****       lcd_setXY (t20, 325, Y_ANNUNC-30);
 523:src/lcd.c     ****       lcd_writeText(t20, "DEG");
 524:src/lcd.c     ****       return;
 525:src/lcd.c     ****     case RPN:
 526:src/lcd.c     ****       draw_RPN(inverse);
 527:src/lcd.c     ****       return;
 528:src/lcd.c     ****     default:;
 529:src/lcd.c     ****     }
 530:src/lcd.c     ****   }
 531:src/lcd.c     ****   else if (n < MAX_DOTS) { // column = (n-142)/6; row = (n-142) % 6
 532:src/lcd.c     ****     lcd_fill_rect ( XLEFT-DWIDTH+5*((n-142)/6)+15, YTOP-(10+6*6)+((n-142)%6)*6, 4, 5, col);
 533:src/lcd.c     ****     return;
 534:src/lcd.c     ****   }
 535:src/lcd.c     ****   else if (n < TOP_DOTS) { // column = (n-MAX_DOTS)/6; row = ((n-MAX_DOTS)%6)
 536:src/lcd.c     ****     lcd_fill_rect( XLEFT-DWIDTH+5*((n-MAX_DOTS)/6)+15, 70-(10+6*5)+((n-MAX_DOTS)%6)*5, 4, 4, col);
 537:src/lcd.c     ****     return;
 538:src/lcd.c     ****   }
 539:src/lcd.c     **** }
ARM GAS  /tmp/ccyuyqQY.s 			page 11


 540:src/lcd.c     **** 
 541:src/lcd.c     **** void draw_BEG (int depth, int inverse) {
  33              		.loc 1 541 6 view -0
  34              		.cfi_startproc
  35              		@ args = 0, pretend = 0, frame = 0
  36              		@ frame_needed = 0, uses_anonymous_args = 0
  37              		@ link register save eliminated.
  38              	.LVL0:
 542:src/lcd.c     ****   t20->inv = inverse;
 543:src/lcd.c     ****   lcd_setXY (t20, 285, Y_ANNUNC-50);
 544:src/lcd.c     ****   if (depth == 4) {
 545:src/lcd.c     ****     lcd_writeText(t20, "S:4");
  39              		.loc 1 545 5 view .LVU1
  40 0000 024A     		ldr	r2, .L3
  41 0002 034B     		ldr	r3, .L3+4
  42 0004 106B     		ldr	r0, [r2, #48]
  43 0006 0349     		ldr	r1, .L3+8
  44 0008 1847     		bx	r3	@ indirect register sibling call
  45              	.LVL1:
  46              	.L4:
  47 000a 00BF     		.align	2
  48              	.L3:
  49 000c 00200010 		.word	268443648
  50 0010 7D020008 		.word	134218365
  51 0014 00000000 		.word	.LC0
  52              		.cfi_endproc
  53              	.LFE42:
  55              		.section	.text.is_dot,"ax",%progbits
  56              		.align	1
  57              		.p2align 2,,3
  58              		.global	is_dot
  59              		.syntax unified
  60              		.thumb
  61              		.thumb_func
  62              		.fpu fpv4-sp-d16
  64              	is_dot:
  65              	.LVL2:
  66              	.LFB2:
  52:src/lcd.c     **** 	return dots[n]&1;
  67              		.loc 1 52 19 view -0
  68              		.cfi_startproc
  69              		@ args = 0, pretend = 0, frame = 0
  70              		@ frame_needed = 0, uses_anonymous_args = 0
  71              		@ link register save eliminated.
  53:src/lcd.c     **** }
  72              		.loc 1 53 2 view .LVU3
  53:src/lcd.c     **** }
  73              		.loc 1 53 13 is_stmt 0 view .LVU4
  74 0000 024B     		ldr	r3, .L6
  53:src/lcd.c     **** }
  75              		.loc 1 53 16 view .LVU5
  76 0002 185C     		ldrb	r0, [r3, r0]	@ zero_extendqisi2
  77              	.LVL3:
  54:src/lcd.c     **** 
  78              		.loc 1 54 1 view .LVU6
  79 0004 00F00100 		and	r0, r0, #1
  80 0008 7047     		bx	lr
ARM GAS  /tmp/ccyuyqQY.s 			page 12


  81              	.L7:
  82 000a 00BF     		.align	2
  83              	.L6:
  84 000c 00000000 		.word	.LANCHOR0
  85              		.cfi_endproc
  86              	.LFE2:
  88              		.section	.text.clear_disp,"ax",%progbits
  89              		.align	1
  90              		.p2align 2,,3
  91              		.global	clear_disp
  92              		.syntax unified
  93              		.thumb
  94              		.thumb_func
  95              		.fpu fpv4-sp-d16
  97              	clear_disp:
  98              	.LFB3:
  56:src/lcd.c     ****       for (int i=0; i<TOP_DOTS; i++)
  99              		.loc 1 56 23 is_stmt 1 view -0
 100              		.cfi_startproc
 101              		@ args = 0, pretend = 0, frame = 0
 102              		@ frame_needed = 0, uses_anonymous_args = 0
 103              		@ link register save eliminated.
  57:src/lcd.c     **** 	dots[i] = 0;
 104              		.loc 1 57 7 view .LVU8
 105              	.LBB54:
  57:src/lcd.c     **** 	dots[i] = 0;
 106              		.loc 1 57 12 view .LVU9
 107              	.LVL4:
  57:src/lcd.c     **** 	dots[i] = 0;
 108              		.loc 1 57 21 view .LVU10
 109 0000 044B     		ldr	r3, .L11
  58:src/lcd.c     ****       lcd_clear_buf();
 110              		.loc 1 58 10 is_stmt 0 view .LVU11
 111 0002 0021     		movs	r1, #0
 112 0004 03F55372 		add	r2, r3, #844
 113              	.LVL5:
 114              	.L9:
  58:src/lcd.c     ****       lcd_clear_buf();
 115              		.loc 1 58 2 is_stmt 1 discriminator 3 view .LVU12
  58:src/lcd.c     ****       lcd_clear_buf();
 116              		.loc 1 58 10 is_stmt 0 discriminator 3 view .LVU13
 117 0008 03F8011F 		strb	r1, [r3, #1]!
 118              	.LVL6:
  57:src/lcd.c     **** 	dots[i] = 0;
 119              		.loc 1 57 33 is_stmt 1 discriminator 3 view .LVU14
  57:src/lcd.c     **** 	dots[i] = 0;
 120              		.loc 1 57 21 discriminator 3 view .LVU15
  57:src/lcd.c     **** 	dots[i] = 0;
 121              		.loc 1 57 7 is_stmt 0 discriminator 3 view .LVU16
 122 000c 9342     		cmp	r3, r2
 123 000e FBD1     		bne	.L9
 124              	.LBE54:
  59:src/lcd.c     **** }
 125              		.loc 1 59 7 is_stmt 1 view .LVU17
 126 0010 014B     		ldr	r3, .L11+4
 127              	.LVL7:
  59:src/lcd.c     **** }
ARM GAS  /tmp/ccyuyqQY.s 			page 13


 128              		.loc 1 59 7 is_stmt 0 view .LVU18
 129 0012 1847     		bx	r3	@ indirect register sibling call
 130              	.LVL8:
 131              	.L12:
 132              		.align	2
 133              	.L11:
 134 0014 FFFFFFFF 		.word	.LANCHOR0-1
 135 0018 2D020008 		.word	134218285
 136              		.cfi_endproc
 137              	.LFE3:
 139              		.section	.text.reset_7_segment,"ax",%progbits
 140              		.align	1
 141              		.p2align 2,,3
 142              		.global	reset_7_segment
 143              		.syntax unified
 144              		.thumb
 145              		.thumb_func
 146              		.fpu fpv4-sp-d16
 148              	reset_7_segment:
 149              	.LFB5:
  79:src/lcd.c     ****   for (int i = 0; i <= EXP_SIGN; ++i) {
 150              		.loc 1 79 28 is_stmt 1 view -0
 151              		.cfi_startproc
 152              		@ args = 0, pretend = 0, frame = 0
 153              		@ frame_needed = 0, uses_anonymous_args = 0
 154              		@ link register save eliminated.
  80:src/lcd.c     ****     dots[i] <<= 1;
 155              		.loc 1 80 3 view .LVU20
 156              	.LBB55:
  80:src/lcd.c     ****     dots[i] <<= 1;
 157              		.loc 1 80 8 view .LVU21
 158              	.LVL9:
  80:src/lcd.c     ****     dots[i] <<= 1;
 159              		.loc 1 80 19 view .LVU22
 160 0000 044B     		ldr	r3, .L16
 161 0002 03F18301 		add	r1, r3, #131
 162              	.LVL10:
 163              	.L14:
  81:src/lcd.c     ****   }
 164              		.loc 1 81 5 discriminator 3 view .LVU23
  81:src/lcd.c     ****   }
 165              		.loc 1 81 13 is_stmt 0 discriminator 3 view .LVU24
 166 0006 13F8012F 		ldrb	r2, [r3, #1]!	@ zero_extendqisi2
 167              	.LVL11:
  81:src/lcd.c     ****   }
 168              		.loc 1 81 13 discriminator 3 view .LVU25
 169 000a 5200     		lsls	r2, r2, #1
  80:src/lcd.c     ****     dots[i] <<= 1;
 170              		.loc 1 80 3 discriminator 3 view .LVU26
 171 000c 8B42     		cmp	r3, r1
  81:src/lcd.c     ****   }
 172              		.loc 1 81 13 discriminator 3 view .LVU27
 173 000e 1A70     		strb	r2, [r3]
  80:src/lcd.c     ****     dots[i] <<= 1;
 174              		.loc 1 80 34 is_stmt 1 discriminator 3 view .LVU28
 175              	.LVL12:
  80:src/lcd.c     ****     dots[i] <<= 1;
ARM GAS  /tmp/ccyuyqQY.s 			page 14


 176              		.loc 1 80 19 discriminator 3 view .LVU29
  80:src/lcd.c     ****     dots[i] <<= 1;
 177              		.loc 1 80 3 is_stmt 0 discriminator 3 view .LVU30
 178 0010 F9D1     		bne	.L14
 179              	.LBE55:
  83:src/lcd.c     **** 
 180              		.loc 1 83 1 view .LVU31
 181 0012 7047     		bx	lr
 182              	.L17:
 183              		.align	2
 184              	.L16:
 185 0014 FFFFFFFF 		.word	.LANCHOR0-1
 186              		.cfi_endproc
 187              	.LFE5:
 189              		.section	.text.left_side,"ax",%progbits
 190              		.align	1
 191              		.p2align 2,,3
 192              		.global	left_side
 193              		.syntax unified
 194              		.thumb
 195              		.thumb_func
 196              		.fpu fpv4-sp-d16
 198              	left_side:
 199              	.LVL13:
 200              	.LFB6:
  88:src/lcd.c     ****   lcd_fill_rect (i+2, j+11, 1, 9, col);
 201              		.loc 1 88 40 is_stmt 1 view -0
 202              		.cfi_startproc
 203              		@ args = 0, pretend = 0, frame = 0
 204              		@ frame_needed = 0, uses_anonymous_args = 0
  89:src/lcd.c     ****   lcd_fill_rect (i+3, j+2, 1, 18, col);
 205              		.loc 1 89 3 view .LVU33
  88:src/lcd.c     ****   lcd_fill_rect (i+2, j+11, 1, 9, col);
 206              		.loc 1 88 40 is_stmt 0 view .LVU34
 207 0000 2DE9F041 		push	{r4, r5, r6, r7, r8, lr}
 208              		.cfi_def_cfa_offset 24
 209              		.cfi_offset 4, -24
 210              		.cfi_offset 5, -20
 211              		.cfi_offset 6, -16
 212              		.cfi_offset 7, -12
 213              		.cfi_offset 8, -8
 214              		.cfi_offset 14, -4
 215 0004 82B0     		sub	sp, sp, #8
 216              		.cfi_def_cfa_offset 32
  88:src/lcd.c     ****   lcd_fill_rect (i+2, j+11, 1, 9, col);
 217              		.loc 1 88 40 view .LVU35
 218 0006 0E46     		mov	r6, r1
  89:src/lcd.c     ****   lcd_fill_rect (i+3, j+2, 1, 18, col);
 219              		.loc 1 89 3 view .LVU36
 220 0008 124F     		ldr	r7, .L20
 221 000a 0092     		str	r2, [sp]
  88:src/lcd.c     ****   lcd_fill_rect (i+2, j+11, 1, 9, col);
 222              		.loc 1 88 40 view .LVU37
 223 000c 0446     		mov	r4, r0
 224 000e 1546     		mov	r5, r2
  90:src/lcd.c     ****   lcd_fill_rect (i+4, j+2, 1, 17, col);
 225              		.loc 1 90 24 view .LVU38
ARM GAS  /tmp/ccyuyqQY.s 			page 15


 226 0010 06F10208 		add	r8, r6, #2
  89:src/lcd.c     ****   lcd_fill_rect (i+3, j+2, 1, 18, col);
 227              		.loc 1 89 3 view .LVU39
 228 0014 0B31     		adds	r1, r1, #11
 229              	.LVL14:
  89:src/lcd.c     ****   lcd_fill_rect (i+3, j+2, 1, 18, col);
 230              		.loc 1 89 3 view .LVU40
 231 0016 0230     		adds	r0, r0, #2
 232              	.LVL15:
  89:src/lcd.c     ****   lcd_fill_rect (i+3, j+2, 1, 18, col);
 233              		.loc 1 89 3 view .LVU41
 234 0018 0923     		movs	r3, #9
 235 001a 0122     		movs	r2, #1
 236              	.LVL16:
  89:src/lcd.c     ****   lcd_fill_rect (i+3, j+2, 1, 18, col);
 237              		.loc 1 89 3 view .LVU42
 238 001c B847     		blx	r7
 239              	.LVL17:
  90:src/lcd.c     ****   lcd_fill_rect (i+4, j+2, 1, 17, col);
 240              		.loc 1 90 3 is_stmt 1 view .LVU43
 241 001e 4146     		mov	r1, r8
 242 0020 E01C     		adds	r0, r4, #3
 243 0022 0095     		str	r5, [sp]
 244 0024 1223     		movs	r3, #18
 245 0026 0122     		movs	r2, #1
 246 0028 B847     		blx	r7
 247              	.LVL18:
  91:src/lcd.c     ****   lcd_fill_rect (i+5, j+3, 1, 15, col);
 248              		.loc 1 91 3 view .LVU44
 249 002a 4146     		mov	r1, r8
 250 002c 201D     		adds	r0, r4, #4
 251 002e 0095     		str	r5, [sp]
 252 0030 1123     		movs	r3, #17
 253 0032 0122     		movs	r2, #1
 254 0034 B847     		blx	r7
 255              	.LVL19:
  92:src/lcd.c     ****   lcd_fill_rect (i+6, j+4, 1, 7, col);
 256              		.loc 1 92 3 view .LVU45
 257 0036 F11C     		adds	r1, r6, #3
 258 0038 601D     		adds	r0, r4, #5
 259 003a 0095     		str	r5, [sp]
 260 003c 0F23     		movs	r3, #15
 261 003e 0122     		movs	r2, #1
 262 0040 B847     		blx	r7
 263              	.LVL20:
  93:src/lcd.c     **** }
 264              		.loc 1 93 3 view .LVU46
 265 0042 0095     		str	r5, [sp]
 266 0044 311D     		adds	r1, r6, #4
 267 0046 A01D     		adds	r0, r4, #6
 268 0048 0723     		movs	r3, #7
 269 004a 0122     		movs	r2, #1
 270 004c B847     		blx	r7
 271              	.LVL21:
  94:src/lcd.c     **** void left_side_top (int i, int j, int col) {
 272              		.loc 1 94 1 is_stmt 0 view .LVU47
 273 004e 02B0     		add	sp, sp, #8
ARM GAS  /tmp/ccyuyqQY.s 			page 16


 274              		.cfi_def_cfa_offset 24
 275              		@ sp needed
 276 0050 BDE8F081 		pop	{r4, r5, r6, r7, r8, pc}
 277              	.LVL22:
 278              	.L21:
  94:src/lcd.c     **** void left_side_top (int i, int j, int col) {
 279              		.loc 1 94 1 view .LVU48
 280              		.align	2
 281              	.L20:
 282 0054 3D020008 		.word	134218301
 283              		.cfi_endproc
 284              	.LFE6:
 286              		.section	.text.left_side_top,"ax",%progbits
 287              		.align	1
 288              		.p2align 2,,3
 289              		.global	left_side_top
 290              		.syntax unified
 291              		.thumb
 292              		.thumb_func
 293              		.fpu fpv4-sp-d16
 295              	left_side_top:
 296              	.LVL23:
 297              	.LFB7:
  95:src/lcd.c     ****   left_side(i, j, col);
 298              		.loc 1 95 44 is_stmt 1 view -0
 299              		.cfi_startproc
 300              		@ args = 0, pretend = 0, frame = 0
 301              		@ frame_needed = 0, uses_anonymous_args = 0
 302              		@ link register save eliminated.
  96:src/lcd.c     **** }
 303              		.loc 1 96 3 view .LVU50
 304 0000 FFF7FEBF 		b	left_side
 305              	.LVL24:
  96:src/lcd.c     **** }
 306              		.loc 1 96 3 is_stmt 0 view .LVU51
 307              		.cfi_endproc
 308              	.LFE7:
 310              		.section	.text.left_side_bottom,"ax",%progbits
 311              		.align	1
 312              		.p2align 2,,3
 313              		.global	left_side_bottom
 314              		.syntax unified
 315              		.thumb
 316              		.thumb_func
 317              		.fpu fpv4-sp-d16
 319              	left_side_bottom:
 320              	.LVL25:
 321              	.LFB8:
  98:src/lcd.c     ****   left_side(i-2, j+19, col);
 322              		.loc 1 98 47 is_stmt 1 view -0
 323              		.cfi_startproc
 324              		@ args = 0, pretend = 0, frame = 0
 325              		@ frame_needed = 0, uses_anonymous_args = 0
 326              		@ link register save eliminated.
  99:src/lcd.c     **** }
 327              		.loc 1 99 3 view .LVU53
 328 0000 0238     		subs	r0, r0, #2
ARM GAS  /tmp/ccyuyqQY.s 			page 17


 329              	.LVL26:
  99:src/lcd.c     **** }
 330              		.loc 1 99 3 is_stmt 0 view .LVU54
 331 0002 1331     		adds	r1, r1, #19
 332              	.LVL27:
  99:src/lcd.c     **** }
 333              		.loc 1 99 3 view .LVU55
 334 0004 FFF7FEBF 		b	left_side
 335              	.LVL28:
  99:src/lcd.c     **** }
 336              		.loc 1 99 3 view .LVU56
 337              		.cfi_endproc
 338              	.LFE8:
 340              		.section	.text.right_side,"ax",%progbits
 341              		.align	1
 342              		.p2align 2,,3
 343              		.global	right_side
 344              		.syntax unified
 345              		.thumb
 346              		.thumb_func
 347              		.fpu fpv4-sp-d16
 349              	right_side:
 350              	.LVL29:
 351              	.LFB9:
 101:src/lcd.c     ****   lcd_fill_rect (i+16, j+11, 1, 7, col);
 352              		.loc 1 101 41 is_stmt 1 view -0
 353              		.cfi_startproc
 354              		@ args = 0, pretend = 0, frame = 0
 355              		@ frame_needed = 0, uses_anonymous_args = 0
 102:src/lcd.c     ****   lcd_fill_rect (i+17, j+4, 1, 15, col);
 356              		.loc 1 102 3 view .LVU58
 101:src/lcd.c     ****   lcd_fill_rect (i+16, j+11, 1, 7, col);
 357              		.loc 1 101 41 is_stmt 0 view .LVU59
 358 0000 2DE9F041 		push	{r4, r5, r6, r7, r8, lr}
 359              		.cfi_def_cfa_offset 24
 360              		.cfi_offset 4, -24
 361              		.cfi_offset 5, -20
 362              		.cfi_offset 6, -16
 363              		.cfi_offset 7, -12
 364              		.cfi_offset 8, -8
 365              		.cfi_offset 14, -4
 366 0004 82B0     		sub	sp, sp, #8
 367              		.cfi_def_cfa_offset 32
 102:src/lcd.c     ****   lcd_fill_rect (i+17, j+4, 1, 15, col);
 368              		.loc 1 102 3 view .LVU60
 369 0006 154F     		ldr	r7, .L26
 370 0008 0092     		str	r2, [sp]
 101:src/lcd.c     ****   lcd_fill_rect (i+16, j+11, 1, 7, col);
 371              		.loc 1 101 41 view .LVU61
 372 000a 0446     		mov	r4, r0
 373 000c 1546     		mov	r5, r2
 374 000e 0E46     		mov	r6, r1
 102:src/lcd.c     ****   lcd_fill_rect (i+17, j+4, 1, 15, col);
 375              		.loc 1 102 3 view .LVU62
 376 0010 1030     		adds	r0, r0, #16
 377              	.LVL30:
 102:src/lcd.c     ****   lcd_fill_rect (i+17, j+4, 1, 15, col);
ARM GAS  /tmp/ccyuyqQY.s 			page 18


 378              		.loc 1 102 3 view .LVU63
 379 0012 0B31     		adds	r1, r1, #11
 380              	.LVL31:
 102:src/lcd.c     ****   lcd_fill_rect (i+17, j+4, 1, 15, col);
 381              		.loc 1 102 3 view .LVU64
 382 0014 0723     		movs	r3, #7
 383 0016 0122     		movs	r2, #1
 384              	.LVL32:
 102:src/lcd.c     ****   lcd_fill_rect (i+17, j+4, 1, 15, col);
 385              		.loc 1 102 3 view .LVU65
 386 0018 B847     		blx	r7
 387              	.LVL33:
 103:src/lcd.c     ****   lcd_fill_rect (i+18, j+3, 1, 17, col);
 388              		.loc 1 103 3 is_stmt 1 view .LVU66
 389 001a 311D     		adds	r1, r6, #4
 390 001c 04F11100 		add	r0, r4, #17
 391 0020 0095     		str	r5, [sp]
 392 0022 0F23     		movs	r3, #15
 393 0024 0122     		movs	r2, #1
 394 0026 B847     		blx	r7
 395              	.LVL34:
 104:src/lcd.c     ****   lcd_fill_rect (i+19, j+2, 1, 18, col);
 396              		.loc 1 104 3 view .LVU67
 105:src/lcd.c     ****   lcd_fill_rect (i+20, j+2, 1, 9, col);
 397              		.loc 1 105 25 is_stmt 0 view .LVU68
 398 0028 06F10208 		add	r8, r6, #2
 104:src/lcd.c     ****   lcd_fill_rect (i+19, j+2, 1, 18, col);
 399              		.loc 1 104 3 view .LVU69
 400 002c F11C     		adds	r1, r6, #3
 401 002e 04F11200 		add	r0, r4, #18
 402 0032 0095     		str	r5, [sp]
 403 0034 1123     		movs	r3, #17
 404 0036 0122     		movs	r2, #1
 405 0038 B847     		blx	r7
 406              	.LVL35:
 105:src/lcd.c     ****   lcd_fill_rect (i+20, j+2, 1, 9, col);
 407              		.loc 1 105 3 is_stmt 1 view .LVU70
 408 003a 4146     		mov	r1, r8
 409 003c 04F11300 		add	r0, r4, #19
 410 0040 0095     		str	r5, [sp]
 411 0042 1223     		movs	r3, #18
 412 0044 0122     		movs	r2, #1
 413 0046 B847     		blx	r7
 414              	.LVL36:
 106:src/lcd.c     **** }
 415              		.loc 1 106 3 view .LVU71
 416 0048 4146     		mov	r1, r8
 417 004a 0095     		str	r5, [sp]
 418 004c 04F11400 		add	r0, r4, #20
 419 0050 0923     		movs	r3, #9
 420 0052 0122     		movs	r2, #1
 421 0054 B847     		blx	r7
 422              	.LVL37:
 107:src/lcd.c     **** void right_side_top (int i, int j, int col) {
 423              		.loc 1 107 1 is_stmt 0 view .LVU72
 424 0056 02B0     		add	sp, sp, #8
 425              		.cfi_def_cfa_offset 24
ARM GAS  /tmp/ccyuyqQY.s 			page 19


 426              		@ sp needed
 427 0058 BDE8F081 		pop	{r4, r5, r6, r7, r8, pc}
 428              	.LVL38:
 429              	.L27:
 107:src/lcd.c     **** void right_side_top (int i, int j, int col) {
 430              		.loc 1 107 1 view .LVU73
 431              		.align	2
 432              	.L26:
 433 005c 3D020008 		.word	134218301
 434              		.cfi_endproc
 435              	.LFE9:
 437              		.section	.text.right_side_top,"ax",%progbits
 438              		.align	1
 439              		.p2align 2,,3
 440              		.global	right_side_top
 441              		.syntax unified
 442              		.thumb
 443              		.thumb_func
 444              		.fpu fpv4-sp-d16
 446              	right_side_top:
 447              	.LVL39:
 448              	.LFB10:
 108:src/lcd.c     ****   right_side(i, j, col);
 449              		.loc 1 108 45 is_stmt 1 view -0
 450              		.cfi_startproc
 451              		@ args = 0, pretend = 0, frame = 0
 452              		@ frame_needed = 0, uses_anonymous_args = 0
 453              		@ link register save eliminated.
 109:src/lcd.c     **** }
 454              		.loc 1 109 3 view .LVU75
 455 0000 FFF7FEBF 		b	right_side
 456              	.LVL40:
 109:src/lcd.c     **** }
 457              		.loc 1 109 3 is_stmt 0 view .LVU76
 458              		.cfi_endproc
 459              	.LFE10:
 461              		.section	.text.right_side_bottom,"ax",%progbits
 462              		.align	1
 463              		.p2align 2,,3
 464              		.global	right_side_bottom
 465              		.syntax unified
 466              		.thumb
 467              		.thumb_func
 468              		.fpu fpv4-sp-d16
 470              	right_side_bottom:
 471              	.LVL41:
 472              	.LFB11:
 111:src/lcd.c     ****   right_side(i-2, j+19, col);
 473              		.loc 1 111 48 is_stmt 1 view -0
 474              		.cfi_startproc
 475              		@ args = 0, pretend = 0, frame = 0
 476              		@ frame_needed = 0, uses_anonymous_args = 0
 477              		@ link register save eliminated.
 112:src/lcd.c     **** }
 478              		.loc 1 112 3 view .LVU78
 479 0000 0238     		subs	r0, r0, #2
 480              	.LVL42:
ARM GAS  /tmp/ccyuyqQY.s 			page 20


 112:src/lcd.c     **** }
 481              		.loc 1 112 3 is_stmt 0 view .LVU79
 482 0002 1331     		adds	r1, r1, #19
 483              	.LVL43:
 112:src/lcd.c     **** }
 484              		.loc 1 112 3 view .LVU80
 485 0004 FFF7FEBF 		b	right_side
 486              	.LVL44:
 112:src/lcd.c     **** }
 487              		.loc 1 112 3 view .LVU81
 488              		.cfi_endproc
 489              	.LFE11:
 491              		.section	.text.top,"ax",%progbits
 492              		.align	1
 493              		.p2align 2,,3
 494              		.global	top
 495              		.syntax unified
 496              		.thumb
 497              		.thumb_func
 498              		.fpu fpv4-sp-d16
 500              	top:
 501              	.LVL45:
 502              	.LFB12:
 114:src/lcd.c     ****   lcd_fill_rect ( i+5, j, 14, 1, col );
 503              		.loc 1 114 34 is_stmt 1 view -0
 504              		.cfi_startproc
 505              		@ args = 0, pretend = 0, frame = 0
 506              		@ frame_needed = 0, uses_anonymous_args = 0
 115:src/lcd.c     ****   lcd_fill_rect ( i+4, j+1, 16, 1, col );
 507              		.loc 1 115 3 view .LVU83
 114:src/lcd.c     ****   lcd_fill_rect ( i+5, j, 14, 1, col );
 508              		.loc 1 114 34 is_stmt 0 view .LVU84
 509 0000 F0B5     		push	{r4, r5, r6, r7, lr}
 510              		.cfi_def_cfa_offset 20
 511              		.cfi_offset 4, -20
 512              		.cfi_offset 5, -16
 513              		.cfi_offset 6, -12
 514              		.cfi_offset 7, -8
 515              		.cfi_offset 14, -4
 516 0002 83B0     		sub	sp, sp, #12
 517              		.cfi_def_cfa_offset 32
 115:src/lcd.c     ****   lcd_fill_rect ( i+4, j+1, 16, 1, col );
 518              		.loc 1 115 3 view .LVU85
 519 0004 0E4F     		ldr	r7, .L32
 520 0006 0092     		str	r2, [sp]
 114:src/lcd.c     ****   lcd_fill_rect ( i+5, j, 14, 1, col );
 521              		.loc 1 114 34 view .LVU86
 522 0008 0446     		mov	r4, r0
 523 000a 1546     		mov	r5, r2
 524 000c 0E46     		mov	r6, r1
 115:src/lcd.c     ****   lcd_fill_rect ( i+4, j+1, 16, 1, col );
 525              		.loc 1 115 3 view .LVU87
 526 000e 0530     		adds	r0, r0, #5
 527              	.LVL46:
 115:src/lcd.c     ****   lcd_fill_rect ( i+4, j+1, 16, 1, col );
 528              		.loc 1 115 3 view .LVU88
 529 0010 0123     		movs	r3, #1
ARM GAS  /tmp/ccyuyqQY.s 			page 21


 530 0012 0E22     		movs	r2, #14
 531              	.LVL47:
 115:src/lcd.c     ****   lcd_fill_rect ( i+4, j+1, 16, 1, col );
 532              		.loc 1 115 3 view .LVU89
 533 0014 B847     		blx	r7
 534              	.LVL48:
 116:src/lcd.c     ****   lcd_fill_rect ( i+6, j+2, 12, 1, col );
 535              		.loc 1 116 3 is_stmt 1 view .LVU90
 536 0016 711C     		adds	r1, r6, #1
 537 0018 201D     		adds	r0, r4, #4
 538 001a 0095     		str	r5, [sp]
 539 001c 0123     		movs	r3, #1
 540 001e 1022     		movs	r2, #16
 541 0020 B847     		blx	r7
 542              	.LVL49:
 117:src/lcd.c     ****   lcd_fill_rect ( i+7, j+3, 10, 1, col );
 543              		.loc 1 117 3 view .LVU91
 544 0022 B11C     		adds	r1, r6, #2
 545 0024 A01D     		adds	r0, r4, #6
 546 0026 0095     		str	r5, [sp]
 547 0028 0123     		movs	r3, #1
 548 002a 0C22     		movs	r2, #12
 549 002c B847     		blx	r7
 550              	.LVL50:
 118:src/lcd.c     **** }
 551              		.loc 1 118 3 view .LVU92
 552 002e 0095     		str	r5, [sp]
 553 0030 F11C     		adds	r1, r6, #3
 554 0032 E01D     		adds	r0, r4, #7
 555 0034 0123     		movs	r3, #1
 556 0036 0A22     		movs	r2, #10
 557 0038 B847     		blx	r7
 558              	.LVL51:
 119:src/lcd.c     **** void middle (int i, int j, int col) {
 559              		.loc 1 119 1 is_stmt 0 view .LVU93
 560 003a 03B0     		add	sp, sp, #12
 561              		.cfi_def_cfa_offset 20
 562              		@ sp needed
 563 003c F0BD     		pop	{r4, r5, r6, r7, pc}
 564              	.LVL52:
 565              	.L33:
 119:src/lcd.c     **** void middle (int i, int j, int col) {
 566              		.loc 1 119 1 view .LVU94
 567 003e 00BF     		.align	2
 568              	.L32:
 569 0040 3D020008 		.word	134218301
 570              		.cfi_endproc
 571              	.LFE12:
 573              		.section	.text.middle,"ax",%progbits
 574              		.align	1
 575              		.p2align 2,,3
 576              		.global	middle
 577              		.syntax unified
 578              		.thumb
 579              		.thumb_func
 580              		.fpu fpv4-sp-d16
 582              	middle:
ARM GAS  /tmp/ccyuyqQY.s 			page 22


 583              	.LVL53:
 584              	.LFB13:
 120:src/lcd.c     ****   //  lcd_fill_rect ( i+5, j+19, 11, 3, col );
 585              		.loc 1 120 37 is_stmt 1 view -0
 586              		.cfi_startproc
 587              		@ args = 0, pretend = 0, frame = 0
 588              		@ frame_needed = 0, uses_anonymous_args = 0
 124:src/lcd.c     ****   lcd_fill_rect ( i+4, j+20, 13, 1, col );
 589              		.loc 1 124 3 view .LVU96
 120:src/lcd.c     ****   //  lcd_fill_rect ( i+5, j+19, 11, 3, col );
 590              		.loc 1 120 37 is_stmt 0 view .LVU97
 591 0000 2DE9F041 		push	{r4, r5, r6, r7, r8, lr}
 592              		.cfi_def_cfa_offset 24
 593              		.cfi_offset 4, -24
 594              		.cfi_offset 5, -20
 595              		.cfi_offset 6, -16
 596              		.cfi_offset 7, -12
 597              		.cfi_offset 8, -8
 598              		.cfi_offset 14, -4
 599 0004 82B0     		sub	sp, sp, #8
 600              		.cfi_def_cfa_offset 32
 124:src/lcd.c     ****   lcd_fill_rect ( i+4, j+20, 13, 1, col );
 601              		.loc 1 124 20 view .LVU98
 602 0006 00F10508 		add	r8, r0, #5
 124:src/lcd.c     ****   lcd_fill_rect ( i+4, j+20, 13, 1, col );
 603              		.loc 1 124 3 view .LVU99
 604 000a 0D4F     		ldr	r7, .L36
 605 000c 0092     		str	r2, [sp]
 120:src/lcd.c     ****   //  lcd_fill_rect ( i+5, j+19, 11, 3, col );
 606              		.loc 1 120 37 view .LVU100
 607 000e 0C46     		mov	r4, r1
 608 0010 1546     		mov	r5, r2
 609 0012 0646     		mov	r6, r0
 124:src/lcd.c     ****   lcd_fill_rect ( i+4, j+20, 13, 1, col );
 610              		.loc 1 124 3 view .LVU101
 611 0014 1531     		adds	r1, r1, #21
 612              	.LVL54:
 124:src/lcd.c     ****   lcd_fill_rect ( i+4, j+20, 13, 1, col );
 613              		.loc 1 124 3 view .LVU102
 614 0016 4046     		mov	r0, r8
 615              	.LVL55:
 124:src/lcd.c     ****   lcd_fill_rect ( i+4, j+20, 13, 1, col );
 616              		.loc 1 124 3 view .LVU103
 617 0018 0123     		movs	r3, #1
 618 001a 0B22     		movs	r2, #11
 619              	.LVL56:
 124:src/lcd.c     ****   lcd_fill_rect ( i+4, j+20, 13, 1, col );
 620              		.loc 1 124 3 view .LVU104
 621 001c B847     		blx	r7
 622              	.LVL57:
 125:src/lcd.c     ****   lcd_fill_rect ( i+5, j+19, 11, 1, col );
 623              		.loc 1 125 3 is_stmt 1 view .LVU105
 624 001e 301D     		adds	r0, r6, #4
 625 0020 04F11401 		add	r1, r4, #20
 626 0024 0095     		str	r5, [sp]
 627 0026 0123     		movs	r3, #1
 628 0028 0D22     		movs	r2, #13
ARM GAS  /tmp/ccyuyqQY.s 			page 23


 629 002a B847     		blx	r7
 630              	.LVL58:
 126:src/lcd.c     **** }
 631              		.loc 1 126 3 view .LVU106
 632 002c 4046     		mov	r0, r8
 633 002e 0095     		str	r5, [sp]
 634 0030 04F11301 		add	r1, r4, #19
 635 0034 0123     		movs	r3, #1
 636 0036 0B22     		movs	r2, #11
 637 0038 B847     		blx	r7
 638              	.LVL59:
 127:src/lcd.c     **** void bottom (int i, int j, int col) {
 639              		.loc 1 127 1 is_stmt 0 view .LVU107
 640 003a 02B0     		add	sp, sp, #8
 641              		.cfi_def_cfa_offset 24
 642              		@ sp needed
 643 003c BDE8F081 		pop	{r4, r5, r6, r7, r8, pc}
 644              	.LVL60:
 645              	.L37:
 127:src/lcd.c     **** void bottom (int i, int j, int col) {
 646              		.loc 1 127 1 view .LVU108
 647              		.align	2
 648              	.L36:
 649 0040 3D020008 		.word	134218301
 650              		.cfi_endproc
 651              	.LFE13:
 653              		.section	.text.bottom,"ax",%progbits
 654              		.align	1
 655              		.p2align 2,,3
 656              		.global	bottom
 657              		.syntax unified
 658              		.thumb
 659              		.thumb_func
 660              		.fpu fpv4-sp-d16
 662              	bottom:
 663              	.LVL61:
 664              	.LFB14:
 128:src/lcd.c     ****   lcd_fill_rect ( i+2, j+40, 14, 1, col );
 665              		.loc 1 128 37 is_stmt 1 view -0
 666              		.cfi_startproc
 667              		@ args = 0, pretend = 0, frame = 0
 668              		@ frame_needed = 0, uses_anonymous_args = 0
 129:src/lcd.c     ****   lcd_fill_rect ( i+1, j+39, 16, 1, col );
 669              		.loc 1 129 3 view .LVU110
 128:src/lcd.c     ****   lcd_fill_rect ( i+2, j+40, 14, 1, col );
 670              		.loc 1 128 37 is_stmt 0 view .LVU111
 671 0000 F0B5     		push	{r4, r5, r6, r7, lr}
 672              		.cfi_def_cfa_offset 20
 673              		.cfi_offset 4, -20
 674              		.cfi_offset 5, -16
 675              		.cfi_offset 6, -12
 676              		.cfi_offset 7, -8
 677              		.cfi_offset 14, -4
 678 0002 83B0     		sub	sp, sp, #12
 679              		.cfi_def_cfa_offset 32
 129:src/lcd.c     ****   lcd_fill_rect ( i+1, j+39, 16, 1, col );
 680              		.loc 1 129 3 view .LVU112
ARM GAS  /tmp/ccyuyqQY.s 			page 24


 681 0004 104F     		ldr	r7, .L40
 682 0006 0092     		str	r2, [sp]
 128:src/lcd.c     ****   lcd_fill_rect ( i+2, j+40, 14, 1, col );
 683              		.loc 1 128 37 view .LVU113
 684 0008 0446     		mov	r4, r0
 685 000a 0D46     		mov	r5, r1
 686 000c 1646     		mov	r6, r2
 129:src/lcd.c     ****   lcd_fill_rect ( i+1, j+39, 16, 1, col );
 687              		.loc 1 129 3 view .LVU114
 688 000e 2831     		adds	r1, r1, #40
 689              	.LVL62:
 129:src/lcd.c     ****   lcd_fill_rect ( i+1, j+39, 16, 1, col );
 690              		.loc 1 129 3 view .LVU115
 691 0010 0230     		adds	r0, r0, #2
 692              	.LVL63:
 129:src/lcd.c     ****   lcd_fill_rect ( i+1, j+39, 16, 1, col );
 693              		.loc 1 129 3 view .LVU116
 694 0012 0123     		movs	r3, #1
 695 0014 0E22     		movs	r2, #14
 696              	.LVL64:
 129:src/lcd.c     ****   lcd_fill_rect ( i+1, j+39, 16, 1, col );
 697              		.loc 1 129 3 view .LVU117
 698 0016 B847     		blx	r7
 699              	.LVL65:
 130:src/lcd.c     ****   lcd_fill_rect ( i+3, j+38, 12, 1, col );
 700              		.loc 1 130 3 is_stmt 1 view .LVU118
 701 0018 05F12701 		add	r1, r5, #39
 702 001c 601C     		adds	r0, r4, #1
 703 001e 0096     		str	r6, [sp]
 704 0020 0123     		movs	r3, #1
 705 0022 1022     		movs	r2, #16
 706 0024 B847     		blx	r7
 707              	.LVL66:
 131:src/lcd.c     ****   lcd_fill_rect ( i+4, j+37, 10, 1, col );
 708              		.loc 1 131 3 view .LVU119
 709 0026 05F12601 		add	r1, r5, #38
 710 002a E01C     		adds	r0, r4, #3
 711 002c 0096     		str	r6, [sp]
 712 002e 0123     		movs	r3, #1
 713 0030 0C22     		movs	r2, #12
 714 0032 B847     		blx	r7
 715              	.LVL67:
 132:src/lcd.c     **** }
 716              		.loc 1 132 3 view .LVU120
 717 0034 0096     		str	r6, [sp]
 718 0036 05F12501 		add	r1, r5, #37
 719 003a 201D     		adds	r0, r4, #4
 720 003c 0123     		movs	r3, #1
 721 003e 0A22     		movs	r2, #10
 722 0040 B847     		blx	r7
 723              	.LVL68:
 133:src/lcd.c     **** void decimal (int i, int j, int col) {
 724              		.loc 1 133 1 is_stmt 0 view .LVU121
 725 0042 03B0     		add	sp, sp, #12
 726              		.cfi_def_cfa_offset 20
 727              		@ sp needed
 728 0044 F0BD     		pop	{r4, r5, r6, r7, pc}
ARM GAS  /tmp/ccyuyqQY.s 			page 25


 729              	.LVL69:
 730              	.L41:
 133:src/lcd.c     **** void decimal (int i, int j, int col) {
 731              		.loc 1 133 1 view .LVU122
 732 0046 00BF     		.align	2
 733              	.L40:
 734 0048 3D020008 		.word	134218301
 735              		.cfi_endproc
 736              	.LFE14:
 738              		.section	.text.decimal,"ax",%progbits
 739              		.align	1
 740              		.p2align 2,,3
 741              		.global	decimal
 742              		.syntax unified
 743              		.thumb
 744              		.thumb_func
 745              		.fpu fpv4-sp-d16
 747              	decimal:
 748              	.LVL70:
 749              	.LFB15:
 134:src/lcd.c     ****   lcd_fill_rect (i+19, j+40, 5, 5, col);
 750              		.loc 1 134 38 is_stmt 1 view -0
 751              		.cfi_startproc
 752              		@ args = 0, pretend = 0, frame = 0
 753              		@ frame_needed = 0, uses_anonymous_args = 0
 135:src/lcd.c     **** }
 754              		.loc 1 135 3 view .LVU124
 134:src/lcd.c     ****   lcd_fill_rect (i+19, j+40, 5, 5, col);
 755              		.loc 1 134 38 is_stmt 0 view .LVU125
 756 0000 10B5     		push	{r4, lr}
 757              		.cfi_def_cfa_offset 8
 758              		.cfi_offset 4, -8
 759              		.cfi_offset 14, -4
 760 0002 82B0     		sub	sp, sp, #8
 761              		.cfi_def_cfa_offset 16
 135:src/lcd.c     **** }
 762              		.loc 1 135 3 view .LVU126
 763 0004 0523     		movs	r3, #5
 764 0006 0092     		str	r2, [sp]
 765 0008 034C     		ldr	r4, .L44
 766 000a 1330     		adds	r0, r0, #19
 767              	.LVL71:
 135:src/lcd.c     **** }
 768              		.loc 1 135 3 view .LVU127
 769 000c 2831     		adds	r1, r1, #40
 770              	.LVL72:
 135:src/lcd.c     **** }
 771              		.loc 1 135 3 view .LVU128
 772 000e 1A46     		mov	r2, r3
 773              	.LVL73:
 135:src/lcd.c     **** }
 774              		.loc 1 135 3 view .LVU129
 775 0010 A047     		blx	r4
 776              	.LVL74:
 136:src/lcd.c     **** void comma (int i, int j, int col) {
 777              		.loc 1 136 1 view .LVU130
 778 0012 02B0     		add	sp, sp, #8
ARM GAS  /tmp/ccyuyqQY.s 			page 26


 779              		.cfi_def_cfa_offset 8
 780              		@ sp needed
 781 0014 10BD     		pop	{r4, pc}
 782              	.L45:
 783 0016 00BF     		.align	2
 784              	.L44:
 785 0018 3D020008 		.word	134218301
 786              		.cfi_endproc
 787              	.LFE15:
 789              		.section	.text.comma,"ax",%progbits
 790              		.align	1
 791              		.p2align 2,,3
 792              		.global	comma
 793              		.syntax unified
 794              		.thumb
 795              		.thumb_func
 796              		.fpu fpv4-sp-d16
 798              	comma:
 799              	.LVL75:
 800              	.LFB16:
 137:src/lcd.c     ****   lcd_fill_rect (i+21, j+45, 3, 3, col);
 801              		.loc 1 137 36 is_stmt 1 view -0
 802              		.cfi_startproc
 803              		@ args = 0, pretend = 0, frame = 0
 804              		@ frame_needed = 0, uses_anonymous_args = 0
 138:src/lcd.c     ****   lcd_fill_rect (i+19, j+48, 3, 3, col);
 805              		.loc 1 138 3 view .LVU132
 137:src/lcd.c     ****   lcd_fill_rect (i+21, j+45, 3, 3, col);
 806              		.loc 1 137 36 is_stmt 0 view .LVU133
 807 0000 F0B5     		push	{r4, r5, r6, r7, lr}
 808              		.cfi_def_cfa_offset 20
 809              		.cfi_offset 4, -20
 810              		.cfi_offset 5, -16
 811              		.cfi_offset 6, -12
 812              		.cfi_offset 7, -8
 813              		.cfi_offset 14, -4
 814 0002 83B0     		sub	sp, sp, #12
 815              		.cfi_def_cfa_offset 32
 138:src/lcd.c     ****   lcd_fill_rect (i+19, j+48, 3, 3, col);
 816              		.loc 1 138 3 view .LVU134
 817 0004 0323     		movs	r3, #3
 818 0006 094F     		ldr	r7, .L48
 819 0008 0092     		str	r2, [sp]
 137:src/lcd.c     ****   lcd_fill_rect (i+21, j+45, 3, 3, col);
 820              		.loc 1 137 36 view .LVU135
 821 000a 0446     		mov	r4, r0
 822 000c 0D46     		mov	r5, r1
 823 000e 1646     		mov	r6, r2
 138:src/lcd.c     ****   lcd_fill_rect (i+19, j+48, 3, 3, col);
 824              		.loc 1 138 3 view .LVU136
 825 0010 2D31     		adds	r1, r1, #45
 826              	.LVL76:
 138:src/lcd.c     ****   lcd_fill_rect (i+19, j+48, 3, 3, col);
 827              		.loc 1 138 3 view .LVU137
 828 0012 1A46     		mov	r2, r3
 829              	.LVL77:
 138:src/lcd.c     ****   lcd_fill_rect (i+19, j+48, 3, 3, col);
ARM GAS  /tmp/ccyuyqQY.s 			page 27


 830              		.loc 1 138 3 view .LVU138
 831 0014 1530     		adds	r0, r0, #21
 832              	.LVL78:
 138:src/lcd.c     ****   lcd_fill_rect (i+19, j+48, 3, 3, col);
 833              		.loc 1 138 3 view .LVU139
 834 0016 B847     		blx	r7
 835              	.LVL79:
 139:src/lcd.c     **** }
 836              		.loc 1 139 3 is_stmt 1 view .LVU140
 837 0018 0323     		movs	r3, #3
 838 001a 0096     		str	r6, [sp]
 839 001c 05F13001 		add	r1, r5, #48
 840 0020 04F11300 		add	r0, r4, #19
 841 0024 1A46     		mov	r2, r3
 842 0026 B847     		blx	r7
 843              	.LVL80:
 140:src/lcd.c     **** 
 844              		.loc 1 140 1 is_stmt 0 view .LVU141
 845 0028 03B0     		add	sp, sp, #12
 846              		.cfi_def_cfa_offset 20
 847              		@ sp needed
 848 002a F0BD     		pop	{r4, r5, r6, r7, pc}
 849              	.LVL81:
 850              	.L49:
 140:src/lcd.c     **** 
 851              		.loc 1 140 1 view .LVU142
 852              		.align	2
 853              	.L48:
 854 002c 3D020008 		.word	134218301
 855              		.cfi_endproc
 856              	.LFE16:
 858              		.section	.text.exp_left_side,"ax",%progbits
 859              		.align	1
 860              		.p2align 2,,3
 861              		.global	exp_left_side
 862              		.syntax unified
 863              		.thumb
 864              		.thumb_func
 865              		.fpu fpv4-sp-d16
 867              	exp_left_side:
 868              	.LVL82:
 869              	.LFB17:
 142:src/lcd.c     ****   lcd_fill_rect (i, j+6, 1, 6, col );
 870              		.loc 1 142 44 is_stmt 1 view -0
 871              		.cfi_startproc
 872              		@ args = 0, pretend = 0, frame = 0
 873              		@ frame_needed = 0, uses_anonymous_args = 0
 143:src/lcd.c     ****   lcd_fill_rect (i+1, j, 1, 11, col );
 874              		.loc 1 143 3 view .LVU144
 142:src/lcd.c     ****   lcd_fill_rect (i, j+6, 1, 6, col );
 875              		.loc 1 142 44 is_stmt 0 view .LVU145
 876 0000 F0B5     		push	{r4, r5, r6, r7, lr}
 877              		.cfi_def_cfa_offset 20
 878              		.cfi_offset 4, -20
 879              		.cfi_offset 5, -16
 880              		.cfi_offset 6, -12
 881              		.cfi_offset 7, -8
ARM GAS  /tmp/ccyuyqQY.s 			page 28


 882              		.cfi_offset 14, -4
 883 0002 83B0     		sub	sp, sp, #12
 884              		.cfi_def_cfa_offset 32
 143:src/lcd.c     ****   lcd_fill_rect (i+1, j, 1, 11, col );
 885              		.loc 1 143 3 view .LVU146
 886 0004 0E4F     		ldr	r7, .L52
 887 0006 0092     		str	r2, [sp]
 142:src/lcd.c     ****   lcd_fill_rect (i, j+6, 1, 6, col );
 888              		.loc 1 142 44 view .LVU147
 889 0008 0C46     		mov	r4, r1
 890 000a 1546     		mov	r5, r2
 891 000c 0646     		mov	r6, r0
 143:src/lcd.c     ****   lcd_fill_rect (i+1, j, 1, 11, col );
 892              		.loc 1 143 3 view .LVU148
 893 000e 0631     		adds	r1, r1, #6
 894              	.LVL83:
 143:src/lcd.c     ****   lcd_fill_rect (i+1, j, 1, 11, col );
 895              		.loc 1 143 3 view .LVU149
 896 0010 0623     		movs	r3, #6
 897 0012 0122     		movs	r2, #1
 898              	.LVL84:
 143:src/lcd.c     ****   lcd_fill_rect (i+1, j, 1, 11, col );
 899              		.loc 1 143 3 view .LVU150
 900 0014 B847     		blx	r7
 901              	.LVL85:
 144:src/lcd.c     ****   lcd_fill_rect (i+2, j+1, 1, 9, col );
 902              		.loc 1 144 3 is_stmt 1 view .LVU151
 903 0016 2146     		mov	r1, r4
 904 0018 701C     		adds	r0, r6, #1
 905 001a 0095     		str	r5, [sp]
 906 001c 0B23     		movs	r3, #11
 907 001e 0122     		movs	r2, #1
 908 0020 B847     		blx	r7
 909              	.LVL86:
 145:src/lcd.c     ****   lcd_fill_rect (i+3, j+2, 1, 4, col );
 910              		.loc 1 145 3 view .LVU152
 911 0022 611C     		adds	r1, r4, #1
 912 0024 B01C     		adds	r0, r6, #2
 913 0026 0095     		str	r5, [sp]
 914 0028 0923     		movs	r3, #9
 915 002a 0122     		movs	r2, #1
 916 002c B847     		blx	r7
 917              	.LVL87:
 146:src/lcd.c     **** }
 918              		.loc 1 146 3 view .LVU153
 919 002e 0095     		str	r5, [sp]
 920 0030 A11C     		adds	r1, r4, #2
 921 0032 F01C     		adds	r0, r6, #3
 922 0034 0423     		movs	r3, #4
 923 0036 0122     		movs	r2, #1
 924 0038 B847     		blx	r7
 925              	.LVL88:
 147:src/lcd.c     **** void exp_left_side_top (int i, int j, int col) {
 926              		.loc 1 147 1 is_stmt 0 view .LVU154
 927 003a 03B0     		add	sp, sp, #12
 928              		.cfi_def_cfa_offset 20
 929              		@ sp needed
ARM GAS  /tmp/ccyuyqQY.s 			page 29


 930 003c F0BD     		pop	{r4, r5, r6, r7, pc}
 931              	.LVL89:
 932              	.L53:
 147:src/lcd.c     **** void exp_left_side_top (int i, int j, int col) {
 933              		.loc 1 147 1 view .LVU155
 934 003e 00BF     		.align	2
 935              	.L52:
 936 0040 3D020008 		.word	134218301
 937              		.cfi_endproc
 938              	.LFE17:
 940              		.section	.text.exp_left_side_top,"ax",%progbits
 941              		.align	1
 942              		.p2align 2,,3
 943              		.global	exp_left_side_top
 944              		.syntax unified
 945              		.thumb
 946              		.thumb_func
 947              		.fpu fpv4-sp-d16
 949              	exp_left_side_top:
 950              	.LVL90:
 951              	.LFB18:
 148:src/lcd.c     ****   exp_left_side(i+1, j, col);
 952              		.loc 1 148 48 is_stmt 1 view -0
 953              		.cfi_startproc
 954              		@ args = 0, pretend = 0, frame = 0
 955              		@ frame_needed = 0, uses_anonymous_args = 0
 956              		@ link register save eliminated.
 149:src/lcd.c     **** }
 957              		.loc 1 149 3 view .LVU157
 958 0000 0130     		adds	r0, r0, #1
 959              	.LVL91:
 149:src/lcd.c     **** }
 960              		.loc 1 149 3 is_stmt 0 view .LVU158
 961 0002 FFF7FEBF 		b	exp_left_side
 962              	.LVL92:
 149:src/lcd.c     **** }
 963              		.loc 1 149 3 view .LVU159
 964              		.cfi_endproc
 965              	.LFE18:
 967 0006 00BF     		.section	.text.exp_left_side_bottom,"ax",%progbits
 968              		.align	1
 969              		.p2align 2,,3
 970              		.global	exp_left_side_bottom
 971              		.syntax unified
 972              		.thumb
 973              		.thumb_func
 974              		.fpu fpv4-sp-d16
 976              	exp_left_side_bottom:
 977              	.LVL93:
 978              	.LFB19:
 151:src/lcd.c     ****   exp_left_side(i, j+11, col);
 979              		.loc 1 151 51 is_stmt 1 view -0
 980              		.cfi_startproc
 981              		@ args = 0, pretend = 0, frame = 0
 982              		@ frame_needed = 0, uses_anonymous_args = 0
 983              		@ link register save eliminated.
 152:src/lcd.c     **** }
ARM GAS  /tmp/ccyuyqQY.s 			page 30


 984              		.loc 1 152 3 view .LVU161
 985 0000 0B31     		adds	r1, r1, #11
 986              	.LVL94:
 152:src/lcd.c     **** }
 987              		.loc 1 152 3 is_stmt 0 view .LVU162
 988 0002 FFF7FEBF 		b	exp_left_side
 989              	.LVL95:
 152:src/lcd.c     **** }
 990              		.loc 1 152 3 view .LVU163
 991              		.cfi_endproc
 992              	.LFE19:
 994 0006 00BF     		.section	.text.exp_right_side,"ax",%progbits
 995              		.align	1
 996              		.p2align 2,,3
 997              		.global	exp_right_side
 998              		.syntax unified
 999              		.thumb
 1000              		.thumb_func
 1001              		.fpu fpv4-sp-d16
 1003              	exp_right_side:
 1004              	.LVL96:
 1005              	.LFB20:
 154:src/lcd.c     ****   lcd_fill_rect (i+12, j, 1, 6, col );
 1006              		.loc 1 154 45 is_stmt 1 view -0
 1007              		.cfi_startproc
 1008              		@ args = 0, pretend = 0, frame = 0
 1009              		@ frame_needed = 0, uses_anonymous_args = 0
 155:src/lcd.c     ****   lcd_fill_rect (i+11, j+1, 1, 11, col );
 1010              		.loc 1 155 3 view .LVU165
 154:src/lcd.c     ****   lcd_fill_rect (i+12, j, 1, 6, col );
 1011              		.loc 1 154 45 is_stmt 0 view .LVU166
 1012 0000 F0B5     		push	{r4, r5, r6, r7, lr}
 1013              		.cfi_def_cfa_offset 20
 1014              		.cfi_offset 4, -20
 1015              		.cfi_offset 5, -16
 1016              		.cfi_offset 6, -12
 1017              		.cfi_offset 7, -8
 1018              		.cfi_offset 14, -4
 1019 0002 83B0     		sub	sp, sp, #12
 1020              		.cfi_def_cfa_offset 32
 155:src/lcd.c     ****   lcd_fill_rect (i+11, j+1, 1, 11, col );
 1021              		.loc 1 155 3 view .LVU167
 1022 0004 0F4F     		ldr	r7, .L58
 1023 0006 0092     		str	r2, [sp]
 154:src/lcd.c     ****   lcd_fill_rect (i+12, j, 1, 6, col );
 1024              		.loc 1 154 45 view .LVU168
 1025 0008 0446     		mov	r4, r0
 1026 000a 1546     		mov	r5, r2
 1027 000c 0E46     		mov	r6, r1
 155:src/lcd.c     ****   lcd_fill_rect (i+11, j+1, 1, 11, col );
 1028              		.loc 1 155 3 view .LVU169
 1029 000e 0C30     		adds	r0, r0, #12
 1030              	.LVL97:
 155:src/lcd.c     ****   lcd_fill_rect (i+11, j+1, 1, 11, col );
 1031              		.loc 1 155 3 view .LVU170
 1032 0010 0623     		movs	r3, #6
 1033 0012 0122     		movs	r2, #1
ARM GAS  /tmp/ccyuyqQY.s 			page 31


 1034              	.LVL98:
 155:src/lcd.c     ****   lcd_fill_rect (i+11, j+1, 1, 11, col );
 1035              		.loc 1 155 3 view .LVU171
 1036 0014 B847     		blx	r7
 1037              	.LVL99:
 156:src/lcd.c     ****   lcd_fill_rect (i+10, j+2, 1, 9, col );
 1038              		.loc 1 156 3 is_stmt 1 view .LVU172
 1039 0016 711C     		adds	r1, r6, #1
 1040 0018 04F10B00 		add	r0, r4, #11
 1041 001c 0095     		str	r5, [sp]
 1042 001e 0B23     		movs	r3, #11
 1043 0020 0122     		movs	r2, #1
 1044 0022 B847     		blx	r7
 1045              	.LVL100:
 157:src/lcd.c     ****   lcd_fill_rect (i+9, j+6, 1, 4, col );
 1046              		.loc 1 157 3 view .LVU173
 1047 0024 B11C     		adds	r1, r6, #2
 1048 0026 04F10A00 		add	r0, r4, #10
 1049 002a 0095     		str	r5, [sp]
 1050 002c 0923     		movs	r3, #9
 1051 002e 0122     		movs	r2, #1
 1052 0030 B847     		blx	r7
 1053              	.LVL101:
 158:src/lcd.c     **** }
 1054              		.loc 1 158 3 view .LVU174
 1055 0032 0095     		str	r5, [sp]
 1056 0034 B11D     		adds	r1, r6, #6
 1057 0036 04F10900 		add	r0, r4, #9
 1058 003a 0423     		movs	r3, #4
 1059 003c 0122     		movs	r2, #1
 1060 003e B847     		blx	r7
 1061              	.LVL102:
 159:src/lcd.c     **** void exp_right_side_top (int i, int j, int col) {
 1062              		.loc 1 159 1 is_stmt 0 view .LVU175
 1063 0040 03B0     		add	sp, sp, #12
 1064              		.cfi_def_cfa_offset 20
 1065              		@ sp needed
 1066 0042 F0BD     		pop	{r4, r5, r6, r7, pc}
 1067              	.LVL103:
 1068              	.L59:
 159:src/lcd.c     **** void exp_right_side_top (int i, int j, int col) {
 1069              		.loc 1 159 1 view .LVU176
 1070              		.align	2
 1071              	.L58:
 1072 0044 3D020008 		.word	134218301
 1073              		.cfi_endproc
 1074              	.LFE20:
 1076              		.section	.text.exp_right_side_top,"ax",%progbits
 1077              		.align	1
 1078              		.p2align 2,,3
 1079              		.global	exp_right_side_top
 1080              		.syntax unified
 1081              		.thumb
 1082              		.thumb_func
 1083              		.fpu fpv4-sp-d16
 1085              	exp_right_side_top:
 1086              	.LVL104:
ARM GAS  /tmp/ccyuyqQY.s 			page 32


 1087              	.LFB21:
 160:src/lcd.c     ****   exp_right_side(i, j, col);
 1088              		.loc 1 160 49 is_stmt 1 view -0
 1089              		.cfi_startproc
 1090              		@ args = 0, pretend = 0, frame = 0
 1091              		@ frame_needed = 0, uses_anonymous_args = 0
 1092              		@ link register save eliminated.
 161:src/lcd.c     **** }
 1093              		.loc 1 161 3 view .LVU178
 1094 0000 FFF7FEBF 		b	exp_right_side
 1095              	.LVL105:
 161:src/lcd.c     **** }
 1096              		.loc 1 161 3 is_stmt 0 view .LVU179
 1097              		.cfi_endproc
 1098              	.LFE21:
 1100              		.section	.text.exp_right_side_bottom,"ax",%progbits
 1101              		.align	1
 1102              		.p2align 2,,3
 1103              		.global	exp_right_side_bottom
 1104              		.syntax unified
 1105              		.thumb
 1106              		.thumb_func
 1107              		.fpu fpv4-sp-d16
 1109              	exp_right_side_bottom:
 1110              	.LVL106:
 1111              	.LFB22:
 163:src/lcd.c     ****   exp_right_side(i-1, j+11, col);
 1112              		.loc 1 163 52 is_stmt 1 view -0
 1113              		.cfi_startproc
 1114              		@ args = 0, pretend = 0, frame = 0
 1115              		@ frame_needed = 0, uses_anonymous_args = 0
 1116              		@ link register save eliminated.
 164:src/lcd.c     **** }
 1117              		.loc 1 164 3 view .LVU181
 1118 0000 0138     		subs	r0, r0, #1
 1119              	.LVL107:
 164:src/lcd.c     **** }
 1120              		.loc 1 164 3 is_stmt 0 view .LVU182
 1121 0002 0B31     		adds	r1, r1, #11
 1122              	.LVL108:
 164:src/lcd.c     **** }
 1123              		.loc 1 164 3 view .LVU183
 1124 0004 FFF7FEBF 		b	exp_right_side
 1125              	.LVL109:
 164:src/lcd.c     **** }
 1126              		.loc 1 164 3 view .LVU184
 1127              		.cfi_endproc
 1128              	.LFE22:
 1130              		.section	.text.exp_top,"ax",%progbits
 1131              		.align	1
 1132              		.p2align 2,,3
 1133              		.global	exp_top
 1134              		.syntax unified
 1135              		.thumb
 1136              		.thumb_func
 1137              		.fpu fpv4-sp-d16
 1139              	exp_top:
ARM GAS  /tmp/ccyuyqQY.s 			page 33


 1140              	.LVL110:
 1141              	.LFB23:
 166:src/lcd.c     ****   lcd_fill_rect (i+4, j, 7, 1, col );
 1142              		.loc 1 166 38 is_stmt 1 view -0
 1143              		.cfi_startproc
 1144              		@ args = 0, pretend = 0, frame = 0
 1145              		@ frame_needed = 0, uses_anonymous_args = 0
 167:src/lcd.c     ****   lcd_fill_rect (i+5, j+1, 5, 1, col );
 1146              		.loc 1 167 3 view .LVU186
 166:src/lcd.c     ****   lcd_fill_rect (i+4, j, 7, 1, col );
 1147              		.loc 1 166 38 is_stmt 0 view .LVU187
 1148 0000 F0B5     		push	{r4, r5, r6, r7, lr}
 1149              		.cfi_def_cfa_offset 20
 1150              		.cfi_offset 4, -20
 1151              		.cfi_offset 5, -16
 1152              		.cfi_offset 6, -12
 1153              		.cfi_offset 7, -8
 1154              		.cfi_offset 14, -4
 1155 0002 83B0     		sub	sp, sp, #12
 1156              		.cfi_def_cfa_offset 32
 167:src/lcd.c     ****   lcd_fill_rect (i+5, j+1, 5, 1, col );
 1157              		.loc 1 167 3 view .LVU188
 1158 0004 0B4F     		ldr	r7, .L64
 1159 0006 0092     		str	r2, [sp]
 166:src/lcd.c     ****   lcd_fill_rect (i+4, j, 7, 1, col );
 1160              		.loc 1 166 38 view .LVU189
 1161 0008 0446     		mov	r4, r0
 1162 000a 1546     		mov	r5, r2
 1163 000c 0E46     		mov	r6, r1
 167:src/lcd.c     ****   lcd_fill_rect (i+5, j+1, 5, 1, col );
 1164              		.loc 1 167 3 view .LVU190
 1165 000e 0430     		adds	r0, r0, #4
 1166              	.LVL111:
 167:src/lcd.c     ****   lcd_fill_rect (i+5, j+1, 5, 1, col );
 1167              		.loc 1 167 3 view .LVU191
 1168 0010 0123     		movs	r3, #1
 1169 0012 0722     		movs	r2, #7
 1170              	.LVL112:
 167:src/lcd.c     ****   lcd_fill_rect (i+5, j+1, 5, 1, col );
 1171              		.loc 1 167 3 view .LVU192
 1172 0014 B847     		blx	r7
 1173              	.LVL113:
 168:src/lcd.c     ****   lcd_fill_rect (i+6, j+2, 3, 1, col );
 1174              		.loc 1 168 3 is_stmt 1 view .LVU193
 1175 0016 711C     		adds	r1, r6, #1
 1176 0018 601D     		adds	r0, r4, #5
 1177 001a 0095     		str	r5, [sp]
 1178 001c 0123     		movs	r3, #1
 1179 001e 0522     		movs	r2, #5
 1180 0020 B847     		blx	r7
 1181              	.LVL114:
 169:src/lcd.c     **** }
 1182              		.loc 1 169 3 view .LVU194
 1183 0022 0095     		str	r5, [sp]
 1184 0024 B11C     		adds	r1, r6, #2
 1185 0026 A01D     		adds	r0, r4, #6
 1186 0028 0123     		movs	r3, #1
ARM GAS  /tmp/ccyuyqQY.s 			page 34


 1187 002a 0322     		movs	r2, #3
 1188 002c B847     		blx	r7
 1189              	.LVL115:
 170:src/lcd.c     **** void exp_bottom (int i, int j, int col) {
 1190              		.loc 1 170 1 is_stmt 0 view .LVU195
 1191 002e 03B0     		add	sp, sp, #12
 1192              		.cfi_def_cfa_offset 20
 1193              		@ sp needed
 1194 0030 F0BD     		pop	{r4, r5, r6, r7, pc}
 1195              	.LVL116:
 1196              	.L65:
 170:src/lcd.c     **** void exp_bottom (int i, int j, int col) {
 1197              		.loc 1 170 1 view .LVU196
 1198 0032 00BF     		.align	2
 1199              	.L64:
 1200 0034 3D020008 		.word	134218301
 1201              		.cfi_endproc
 1202              	.LFE23:
 1204              		.section	.text.exp_bottom,"ax",%progbits
 1205              		.align	1
 1206              		.p2align 2,,3
 1207              		.global	exp_bottom
 1208              		.syntax unified
 1209              		.thumb
 1210              		.thumb_func
 1211              		.fpu fpv4-sp-d16
 1213              	exp_bottom:
 1214              	.LVL117:
 1215              	.LFB24:
 171:src/lcd.c     ****   lcd_fill_rect (i+2, j+22, 7, 1, col );
 1216              		.loc 1 171 41 is_stmt 1 view -0
 1217              		.cfi_startproc
 1218              		@ args = 0, pretend = 0, frame = 0
 1219              		@ frame_needed = 0, uses_anonymous_args = 0
 172:src/lcd.c     ****   lcd_fill_rect (i+3, j+21, 5, 1, col );
 1220              		.loc 1 172 3 view .LVU198
 171:src/lcd.c     ****   lcd_fill_rect (i+2, j+22, 7, 1, col );
 1221              		.loc 1 171 41 is_stmt 0 view .LVU199
 1222 0000 F0B5     		push	{r4, r5, r6, r7, lr}
 1223              		.cfi_def_cfa_offset 20
 1224              		.cfi_offset 4, -20
 1225              		.cfi_offset 5, -16
 1226              		.cfi_offset 6, -12
 1227              		.cfi_offset 7, -8
 1228              		.cfi_offset 14, -4
 1229 0002 83B0     		sub	sp, sp, #12
 1230              		.cfi_def_cfa_offset 32
 172:src/lcd.c     ****   lcd_fill_rect (i+3, j+21, 5, 1, col );
 1231              		.loc 1 172 3 view .LVU200
 1232 0004 0C4F     		ldr	r7, .L68
 1233 0006 0092     		str	r2, [sp]
 171:src/lcd.c     ****   lcd_fill_rect (i+2, j+22, 7, 1, col );
 1234              		.loc 1 171 41 view .LVU201
 1235 0008 0446     		mov	r4, r0
 1236 000a 0D46     		mov	r5, r1
 1237 000c 1646     		mov	r6, r2
 172:src/lcd.c     ****   lcd_fill_rect (i+3, j+21, 5, 1, col );
ARM GAS  /tmp/ccyuyqQY.s 			page 35


 1238              		.loc 1 172 3 view .LVU202
 1239 000e 1631     		adds	r1, r1, #22
 1240              	.LVL118:
 172:src/lcd.c     ****   lcd_fill_rect (i+3, j+21, 5, 1, col );
 1241              		.loc 1 172 3 view .LVU203
 1242 0010 0230     		adds	r0, r0, #2
 1243              	.LVL119:
 172:src/lcd.c     ****   lcd_fill_rect (i+3, j+21, 5, 1, col );
 1244              		.loc 1 172 3 view .LVU204
 1245 0012 0123     		movs	r3, #1
 1246 0014 0722     		movs	r2, #7
 1247              	.LVL120:
 172:src/lcd.c     ****   lcd_fill_rect (i+3, j+21, 5, 1, col );
 1248              		.loc 1 172 3 view .LVU205
 1249 0016 B847     		blx	r7
 1250              	.LVL121:
 173:src/lcd.c     ****   lcd_fill_rect (i+4, j+20, 3, 1, col );
 1251              		.loc 1 173 3 is_stmt 1 view .LVU206
 1252 0018 05F11501 		add	r1, r5, #21
 1253 001c E01C     		adds	r0, r4, #3
 1254 001e 0096     		str	r6, [sp]
 1255 0020 0123     		movs	r3, #1
 1256 0022 0522     		movs	r2, #5
 1257 0024 B847     		blx	r7
 1258              	.LVL122:
 174:src/lcd.c     **** }
 1259              		.loc 1 174 3 view .LVU207
 1260 0026 0096     		str	r6, [sp]
 1261 0028 05F11401 		add	r1, r5, #20
 1262 002c 201D     		adds	r0, r4, #4
 1263 002e 0123     		movs	r3, #1
 1264 0030 0322     		movs	r2, #3
 1265 0032 B847     		blx	r7
 1266              	.LVL123:
 175:src/lcd.c     **** void exp_middle (int i, int j, int col) {
 1267              		.loc 1 175 1 is_stmt 0 view .LVU208
 1268 0034 03B0     		add	sp, sp, #12
 1269              		.cfi_def_cfa_offset 20
 1270              		@ sp needed
 1271 0036 F0BD     		pop	{r4, r5, r6, r7, pc}
 1272              	.LVL124:
 1273              	.L69:
 175:src/lcd.c     **** void exp_middle (int i, int j, int col) {
 1274              		.loc 1 175 1 view .LVU209
 1275              		.align	2
 1276              	.L68:
 1277 0038 3D020008 		.word	134218301
 1278              		.cfi_endproc
 1279              	.LFE24:
 1281              		.section	.text.exp_middle,"ax",%progbits
 1282              		.align	1
 1283              		.p2align 2,,3
 1284              		.global	exp_middle
 1285              		.syntax unified
 1286              		.thumb
 1287              		.thumb_func
 1288              		.fpu fpv4-sp-d16
ARM GAS  /tmp/ccyuyqQY.s 			page 36


 1290              	exp_middle:
 1291              	.LVL125:
 1292              	.LFB25:
 176:src/lcd.c     ****   lcd_fill_rect (i+4, j+10, 5, 1, col );
 1293              		.loc 1 176 41 is_stmt 1 view -0
 1294              		.cfi_startproc
 1295              		@ args = 0, pretend = 0, frame = 0
 1296              		@ frame_needed = 0, uses_anonymous_args = 0
 177:src/lcd.c     ****   lcd_fill_rect (i+3, j+11, 7, 1, col );
 1297              		.loc 1 177 3 view .LVU211
 176:src/lcd.c     ****   lcd_fill_rect (i+4, j+10, 5, 1, col );
 1298              		.loc 1 176 41 is_stmt 0 view .LVU212
 1299 0000 2DE9F041 		push	{r4, r5, r6, r7, r8, lr}
 1300              		.cfi_def_cfa_offset 24
 1301              		.cfi_offset 4, -24
 1302              		.cfi_offset 5, -20
 1303              		.cfi_offset 6, -16
 1304              		.cfi_offset 7, -12
 1305              		.cfi_offset 8, -8
 1306              		.cfi_offset 14, -4
 1307 0004 82B0     		sub	sp, sp, #8
 1308              		.cfi_def_cfa_offset 32
 177:src/lcd.c     ****   lcd_fill_rect (i+3, j+11, 7, 1, col );
 1309              		.loc 1 177 19 view .LVU213
 1310 0006 00F10408 		add	r8, r0, #4
 177:src/lcd.c     ****   lcd_fill_rect (i+3, j+11, 7, 1, col );
 1311              		.loc 1 177 3 view .LVU214
 1312 000a 0D4F     		ldr	r7, .L72
 1313 000c 0092     		str	r2, [sp]
 176:src/lcd.c     ****   lcd_fill_rect (i+4, j+10, 5, 1, col );
 1314              		.loc 1 176 41 view .LVU215
 1315 000e 0C46     		mov	r4, r1
 1316 0010 1546     		mov	r5, r2
 1317 0012 0646     		mov	r6, r0
 177:src/lcd.c     ****   lcd_fill_rect (i+3, j+11, 7, 1, col );
 1318              		.loc 1 177 3 view .LVU216
 1319 0014 0A31     		adds	r1, r1, #10
 1320              	.LVL126:
 177:src/lcd.c     ****   lcd_fill_rect (i+3, j+11, 7, 1, col );
 1321              		.loc 1 177 3 view .LVU217
 1322 0016 4046     		mov	r0, r8
 1323              	.LVL127:
 177:src/lcd.c     ****   lcd_fill_rect (i+3, j+11, 7, 1, col );
 1324              		.loc 1 177 3 view .LVU218
 1325 0018 0123     		movs	r3, #1
 1326 001a 0522     		movs	r2, #5
 1327              	.LVL128:
 177:src/lcd.c     ****   lcd_fill_rect (i+3, j+11, 7, 1, col );
 1328              		.loc 1 177 3 view .LVU219
 1329 001c B847     		blx	r7
 1330              	.LVL129:
 178:src/lcd.c     ****   lcd_fill_rect (i+4, j+12, 5, 1, col );
 1331              		.loc 1 178 3 is_stmt 1 view .LVU220
 1332 001e F01C     		adds	r0, r6, #3
 1333 0020 04F10B01 		add	r1, r4, #11
 1334 0024 0095     		str	r5, [sp]
 1335 0026 0123     		movs	r3, #1
ARM GAS  /tmp/ccyuyqQY.s 			page 37


 1336 0028 0722     		movs	r2, #7
 1337 002a B847     		blx	r7
 1338              	.LVL130:
 179:src/lcd.c     **** }
 1339              		.loc 1 179 3 view .LVU221
 1340 002c 4046     		mov	r0, r8
 1341 002e 0095     		str	r5, [sp]
 1342 0030 04F10C01 		add	r1, r4, #12
 1343 0034 0123     		movs	r3, #1
 1344 0036 0522     		movs	r2, #5
 1345 0038 B847     		blx	r7
 1346              	.LVL131:
 180:src/lcd.c     **** 
 1347              		.loc 1 180 1 is_stmt 0 view .LVU222
 1348 003a 02B0     		add	sp, sp, #8
 1349              		.cfi_def_cfa_offset 24
 1350              		@ sp needed
 1351 003c BDE8F081 		pop	{r4, r5, r6, r7, r8, pc}
 1352              	.LVL132:
 1353              	.L73:
 180:src/lcd.c     **** 
 1354              		.loc 1 180 1 view .LVU223
 1355              		.align	2
 1356              	.L72:
 1357 0040 3D020008 		.word	134218301
 1358              		.cfi_endproc
 1359              	.LFE25:
 1361              		.section	.rodata.draw_BEG.str1.4,"aMS",%progbits,1
 1362              		.align	2
 1363              	.LC1:
 1364 0000 533A3800 		.ascii	"S:8\000"
 1365              		.section	.text.draw_BEG,"ax",%progbits
 1366              		.align	1
 1367              		.p2align 2,,3
 1368              		.global	draw_BEG
 1369              		.syntax unified
 1370              		.thumb
 1371              		.thumb_func
 1372              		.fpu fpv4-sp-d16
 1374              	draw_BEG:
 1375              	.LVL133:
 1376              	.LFB27:
 541:src/lcd.c     ****   t20->inv = inverse;
 1377              		.loc 1 541 40 is_stmt 1 view -0
 1378              		.cfi_startproc
 1379              		@ args = 0, pretend = 0, frame = 0
 1380              		@ frame_needed = 0, uses_anonymous_args = 0
 541:src/lcd.c     ****   t20->inv = inverse;
 1381              		.loc 1 541 40 is_stmt 0 view .LVU225
 1382 0000 70B5     		push	{r4, r5, r6, lr}
 1383              		.cfi_def_cfa_offset 16
 1384              		.cfi_offset 4, -16
 1385              		.cfi_offset 5, -12
 1386              		.cfi_offset 6, -8
 1387              		.cfi_offset 14, -4
 542:src/lcd.c     ****   lcd_setXY (t20, 285, Y_ANNUNC-50);
 1388              		.loc 1 542 3 view .LVU226
ARM GAS  /tmp/ccyuyqQY.s 			page 38


 1389 0002 0B4D     		ldr	r5, .L78
 543:src/lcd.c     ****   if (depth == 4) {
 1390              		.loc 1 543 3 view .LVU227
 1391 0004 0B4E     		ldr	r6, .L78+4
 542:src/lcd.c     ****   lcd_setXY (t20, 285, Y_ANNUNC-50);
 1392              		.loc 1 542 3 view .LVU228
 1393 0006 2B6B     		ldr	r3, [r5, #48]
 541:src/lcd.c     ****   t20->inv = inverse;
 1394              		.loc 1 541 40 view .LVU229
 1395 0008 0446     		mov	r4, r0
 542:src/lcd.c     ****   lcd_setXY (t20, 285, Y_ANNUNC-50);
 1396              		.loc 1 542 3 is_stmt 1 view .LVU230
 542:src/lcd.c     ****   lcd_setXY (t20, 285, Y_ANNUNC-50);
 1397              		.loc 1 542 12 is_stmt 0 view .LVU231
 1398 000a 5974     		strb	r1, [r3, #17]
 543:src/lcd.c     ****   if (depth == 4) {
 1399              		.loc 1 543 3 is_stmt 1 view .LVU232
 1400 000c 1846     		mov	r0, r3
 1401              	.LVL134:
 543:src/lcd.c     ****   if (depth == 4) {
 1402              		.loc 1 543 3 is_stmt 0 view .LVU233
 1403 000e 1922     		movs	r2, #25
 1404 0010 40F21D11 		movw	r1, #285
 1405              	.LVL135:
 543:src/lcd.c     ****   if (depth == 4) {
 1406              		.loc 1 543 3 view .LVU234
 1407 0014 B047     		blx	r6
 1408              	.LVL136:
 544:src/lcd.c     ****     lcd_writeText(t20, "S:4");
 1409              		.loc 1 544 3 is_stmt 1 view .LVU235
 544:src/lcd.c     ****     lcd_writeText(t20, "S:4");
 1410              		.loc 1 544 6 is_stmt 0 view .LVU236
 1411 0016 042C     		cmp	r4, #4
 1412 0018 05D0     		beq	.L77
 546:src/lcd.c     ****   }
 547:src/lcd.c     ****   else {
 548:src/lcd.c     ****     lcd_writeText(t20, "S:8");
 1413              		.loc 1 548 5 is_stmt 1 view .LVU237
 1414 001a 286B     		ldr	r0, [r5, #48]
 1415 001c 064B     		ldr	r3, .L78+8
 1416 001e 0749     		ldr	r1, .L78+12
 549:src/lcd.c     ****   }
 550:src/lcd.c     ****   return;
 551:src/lcd.c     **** }
 1417              		.loc 1 551 1 is_stmt 0 view .LVU238
 1418 0020 BDE87040 		pop	{r4, r5, r6, lr}
 1419              		.cfi_remember_state
 1420              		.cfi_restore 14
 1421              		.cfi_restore 6
 1422              		.cfi_restore 5
 1423              		.cfi_restore 4
 1424              		.cfi_def_cfa_offset 0
 1425              	.LVL137:
 548:src/lcd.c     ****   }
 1426              		.loc 1 548 5 view .LVU239
 1427 0024 1847     		bx	r3	@ indirect register sibling call
 1428              	.LVL138:
ARM GAS  /tmp/ccyuyqQY.s 			page 39


 1429              	.L77:
 1430              		.cfi_restore_state
 1431              		.loc 1 551 1 view .LVU240
 1432 0026 BDE87040 		pop	{r4, r5, r6, lr}
 1433              		.cfi_restore 14
 1434              		.cfi_restore 6
 1435              		.cfi_restore 5
 1436              		.cfi_restore 4
 1437              		.cfi_def_cfa_offset 0
 1438              	.LVL139:
 1439              		.loc 1 551 1 view .LVU241
 1440 002a FFF7FEBF 		b	draw_BEG.part.0
 1441              	.LVL140:
 1442              	.L79:
 1443 002e 00BF     		.align	2
 1444              	.L78:
 1445 0030 00200010 		.word	268443648
 1446 0034 6D020008 		.word	134218349
 1447 0038 7D020008 		.word	134218365
 1448 003c 00000000 		.word	.LC1
 1449              		.cfi_endproc
 1450              	.LFE27:
 1452              		.section	.rodata.draw_RPN.str1.4,"aMS",%progbits,1
 1453              		.align	2
 1454              	.LC2:
 1455 0000 6552504E 		.ascii	"eRPN\000"
 1455      00
 1456 0005 000000   		.align	2
 1457              	.LC3:
 1458 0008 52504E00 		.ascii	"RPN\000"
 1459              		.section	.text.draw_RPN,"ax",%progbits
 1460              		.align	1
 1461              		.p2align 2,,3
 1462              		.global	draw_RPN
 1463              		.syntax unified
 1464              		.thumb
 1465              		.thumb_func
 1466              		.fpu fpv4-sp-d16
 1468              	draw_RPN:
 1469              	.LVL141:
 1470              	.LFB31:
 552:src/lcd.c     **** 
 553:src/lcd.c     **** void finish_display(void) {
 554:src/lcd.c     ****   draw_PRT();
 555:src/lcd.c     ****   finish_7_segment();
 556:src/lcd.c     **** #ifdef TOP_ROW
 557:src/lcd.c     ****   finish_top_row();
 558:src/lcd.c     **** #endif
 559:src/lcd.c     ****   lcd_refresh();
 560:src/lcd.c     **** }
 561:src/lcd.c     **** 
 562:src/lcd.c     **** void finish_7_segment(void) {
 563:src/lcd.c     ****   for (int i = 0; i <= EXP_SIGN; ++i) {
 564:src/lcd.c     ****     if ((dots[i]&3) == 2) clr_dot(i);
 565:src/lcd.c     ****   }
 566:src/lcd.c     **** }
 567:src/lcd.c     **** 
ARM GAS  /tmp/ccyuyqQY.s 			page 40


 568:src/lcd.c     **** #ifdef TOP_ROW
 569:src/lcd.c     **** void finish_top_row(void) {
 570:src/lcd.c     ****  for (int i = MB_TOP; i < TOP_DOTS; ++i) {
 571:src/lcd.c     ****     if ((dots[i]&3) == 2) clr_dot(i);
 572:src/lcd.c     ****   }
 573:src/lcd.c     **** } 
 574:src/lcd.c     **** #endif
 575:src/lcd.c     **** 
 576:src/lcd.c     **** void draw_RPN(int inverse) {
 1471              		.loc 1 576 28 is_stmt 1 view -0
 1472              		.cfi_startproc
 1473              		@ args = 0, pretend = 0, frame = 0
 1474              		@ frame_needed = 0, uses_anonymous_args = 0
 577:src/lcd.c     ****   t20->inv = inverse;
 1475              		.loc 1 577 3 view .LVU243
 576:src/lcd.c     ****   t20->inv = inverse;
 1476              		.loc 1 576 28 is_stmt 0 view .LVU244
 1477 0000 10B5     		push	{r4, lr}
 1478              		.cfi_def_cfa_offset 8
 1479              		.cfi_offset 4, -8
 1480              		.cfi_offset 14, -4
 1481              		.loc 1 577 3 view .LVU245
 1482 0002 0F4C     		ldr	r4, .L84
 578:src/lcd.c     ****   if (ENTRY_RPN_ENABLED) {
 1483              		.loc 1 578 7 view .LVU246
 1484 0004 0F4A     		ldr	r2, .L84+4
 577:src/lcd.c     ****   t20->inv = inverse;
 1485              		.loc 1 577 3 view .LVU247
 1486 0006 236B     		ldr	r3, [r4, #48]
 1487              		.loc 1 578 7 view .LVU248
 1488 0008 1268     		ldr	r2, [r2]
 577:src/lcd.c     ****   t20->inv = inverse;
 1489              		.loc 1 577 12 view .LVU249
 1490 000a 5874     		strb	r0, [r3, #17]
 1491              		.loc 1 578 3 is_stmt 1 view .LVU250
 1492              		.loc 1 578 6 is_stmt 0 view .LVU251
 1493 000c 92F9DD27 		ldrsb	r2, [r2, #2013]
 1494 0010 002A     		cmp	r2, #0
 579:src/lcd.c     ****     lcd_setXY (t20, 355, Y_ANNUNC-30);
 1495              		.loc 1 579 5 view .LVU252
 1496 0012 1846     		mov	r0, r3
 1497              	.LVL142:
 1498              		.loc 1 579 5 view .LVU253
 1499 0014 4FF02D02 		mov	r2, #45
 1500 0018 0B4B     		ldr	r3, .L84+8
 578:src/lcd.c     ****   if (ENTRY_RPN_ENABLED) {
 1501              		.loc 1 578 6 view .LVU254
 1502 001a 08DB     		blt	.L83
 580:src/lcd.c     ****     lcd_writeText(t20, "eRPN");
 581:src/lcd.c     ****   }
 582:src/lcd.c     ****   else {
 583:src/lcd.c     ****     lcd_setXY (t20, 365, Y_ANNUNC-30);
 1503              		.loc 1 583 5 is_stmt 1 view .LVU255
 1504 001c 40F26D11 		movw	r1, #365
 1505 0020 9847     		blx	r3
 1506              	.LVL143:
 584:src/lcd.c     ****     lcd_writeText(t20, "RPN");
ARM GAS  /tmp/ccyuyqQY.s 			page 41


 1507              		.loc 1 584 5 view .LVU256
 1508 0022 206B     		ldr	r0, [r4, #48]
 1509 0024 094B     		ldr	r3, .L84+12
 1510 0026 0A49     		ldr	r1, .L84+16
 585:src/lcd.c     ****   }
 586:src/lcd.c     **** }
 1511              		.loc 1 586 1 is_stmt 0 view .LVU257
 1512 0028 BDE81040 		pop	{r4, lr}
 1513              		.cfi_remember_state
 1514              		.cfi_restore 14
 1515              		.cfi_restore 4
 1516              		.cfi_def_cfa_offset 0
 584:src/lcd.c     ****     lcd_writeText(t20, "RPN");
 1517              		.loc 1 584 5 view .LVU258
 1518 002c 1847     		bx	r3	@ indirect register sibling call
 1519              	.LVL144:
 1520              	.L83:
 1521              		.cfi_restore_state
 579:src/lcd.c     ****     lcd_writeText(t20, "eRPN");
 1522              		.loc 1 579 5 is_stmt 1 view .LVU259
 1523 002e 40F26311 		movw	r1, #355
 1524 0032 9847     		blx	r3
 1525              	.LVL145:
 580:src/lcd.c     ****   }
 1526              		.loc 1 580 5 view .LVU260
 1527 0034 206B     		ldr	r0, [r4, #48]
 1528 0036 054B     		ldr	r3, .L84+12
 1529 0038 0649     		ldr	r1, .L84+20
 1530              		.loc 1 586 1 is_stmt 0 view .LVU261
 1531 003a BDE81040 		pop	{r4, lr}
 1532              		.cfi_restore 14
 1533              		.cfi_restore 4
 1534              		.cfi_def_cfa_offset 0
 580:src/lcd.c     ****   }
 1535              		.loc 1 580 5 view .LVU262
 1536 003e 1847     		bx	r3	@ indirect register sibling call
 1537              	.LVL146:
 1538              	.L85:
 1539              		.align	2
 1540              	.L84:
 1541 0040 00200010 		.word	268443648
 1542 0044 00000000 		.word	main_ram
 1543 0048 6D020008 		.word	134218349
 1544 004c 7D020008 		.word	134218365
 1545 0050 08000000 		.word	.LC3
 1546 0054 00000000 		.word	.LC2
 1547              		.cfi_endproc
 1548              	.LFE31:
 1550              		.section	.rodata.draw_RCL.str1.4,"aMS",%progbits,1
 1551              		.align	2
 1552              	.LC4:
 1553 0000 52554E00 		.ascii	"RUN\000"
 1554              		.section	.text.draw_RCL,"ax",%progbits
 1555              		.align	1
 1556              		.p2align 2,,3
 1557              		.global	draw_RCL
 1558              		.syntax unified
ARM GAS  /tmp/ccyuyqQY.s 			page 42


 1559              		.thumb
 1560              		.thumb_func
 1561              		.fpu fpv4-sp-d16
 1563              	draw_RCL:
 1564              	.LVL147:
 1565              	.LFB32:
 587:src/lcd.c     **** 
 588:src/lcd.c     **** void draw_RCL(int inverse) {
 1566              		.loc 1 588 28 is_stmt 1 view -0
 1567              		.cfi_startproc
 1568              		@ args = 0, pretend = 0, frame = 0
 1569              		@ frame_needed = 0, uses_anonymous_args = 0
 589:src/lcd.c     ****   t20->inv = inverse;
 1570              		.loc 1 589 3 view .LVU264
 588:src/lcd.c     ****   t20->inv = inverse;
 1571              		.loc 1 588 28 is_stmt 0 view .LVU265
 1572 0000 70B5     		push	{r4, r5, r6, lr}
 1573              		.cfi_def_cfa_offset 16
 1574              		.cfi_offset 4, -16
 1575              		.cfi_offset 5, -12
 1576              		.cfi_offset 6, -8
 1577              		.cfi_offset 14, -4
 1578              		.loc 1 589 3 view .LVU266
 1579 0002 074C     		ldr	r4, .L88
 590:src/lcd.c     ****   lcd_setXY (t20, 365, Y_ANNUNC-50);
 1580              		.loc 1 590 3 view .LVU267
 1581 0004 074D     		ldr	r5, .L88+4
 589:src/lcd.c     ****   t20->inv = inverse;
 1582              		.loc 1 589 3 view .LVU268
 1583 0006 236B     		ldr	r3, [r4, #48]
 1584              		.loc 1 590 3 view .LVU269
 1585 0008 40F26D11 		movw	r1, #365
 589:src/lcd.c     ****   t20->inv = inverse;
 1586              		.loc 1 589 12 view .LVU270
 1587 000c 5874     		strb	r0, [r3, #17]
 1588              		.loc 1 590 3 is_stmt 1 view .LVU271
 1589 000e 1922     		movs	r2, #25
 1590 0010 1846     		mov	r0, r3
 1591              	.LVL148:
 1592              		.loc 1 590 3 is_stmt 0 view .LVU272
 1593 0012 A847     		blx	r5
 1594              	.LVL149:
 591:src/lcd.c     ****   lcd_writeText(t20, "RUN");
 1595              		.loc 1 591 3 is_stmt 1 view .LVU273
 1596 0014 206B     		ldr	r0, [r4, #48]
 1597 0016 044B     		ldr	r3, .L88+8
 1598 0018 0449     		ldr	r1, .L88+12
 592:src/lcd.c     ****   //  t20->inv = 0;
 593:src/lcd.c     **** }
 1599              		.loc 1 593 1 is_stmt 0 view .LVU274
 1600 001a BDE87040 		pop	{r4, r5, r6, lr}
 1601              		.cfi_restore 14
 1602              		.cfi_restore 6
 1603              		.cfi_restore 5
 1604              		.cfi_restore 4
 1605              		.cfi_def_cfa_offset 0
 591:src/lcd.c     ****   lcd_writeText(t20, "RUN");
ARM GAS  /tmp/ccyuyqQY.s 			page 43


 1606              		.loc 1 591 3 view .LVU275
 1607 001e 1847     		bx	r3	@ indirect register sibling call
 1608              	.LVL150:
 1609              	.L89:
 1610              		.align	2
 1611              	.L88:
 1612 0020 00200010 		.word	268443648
 1613 0024 6D020008 		.word	134218349
 1614 0028 7D020008 		.word	134218365
 1615 002c 00000000 		.word	.LC4
 1616              		.cfi_endproc
 1617              	.LFE32:
 1619              		.section	.rodata.draw_LEQ.str1.4,"aMS",%progbits,1
 1620              		.align	2
 1621              	.LC5:
 1622 0000 435F4C4B 		.ascii	"C_LK\000"
 1622      00
 1623 0005 000000   		.align	2
 1624              	.LC6:
 1625 0008 3D00     		.ascii	"=\000"
 1626              		.section	.text.draw_LEQ,"ax",%progbits
 1627              		.align	1
 1628              		.p2align 2,,3
 1629              		.global	draw_LEQ
 1630              		.syntax unified
 1631              		.thumb
 1632              		.thumb_func
 1633              		.fpu fpv4-sp-d16
 1635              	draw_LEQ:
 1636              	.LFB33:
 594:src/lcd.c     **** 
 595:src/lcd.c     **** void draw_LEQ(void) { // little equals
 1637              		.loc 1 595 21 is_stmt 1 view -0
 1638              		.cfi_startproc
 1639              		@ args = 0, pretend = 0, frame = 0
 1640              		@ frame_needed = 0, uses_anonymous_args = 0
 596:src/lcd.c     ****   t20->inv = !(dots[LIT_EQ]&1);
 1641              		.loc 1 596 3 view .LVU277
 595:src/lcd.c     ****   t20->inv = !(dots[LIT_EQ]&1);
 1642              		.loc 1 595 21 is_stmt 0 view .LVU278
 1643 0000 38B5     		push	{r3, r4, r5, lr}
 1644              		.cfi_def_cfa_offset 16
 1645              		.cfi_offset 3, -16
 1646              		.cfi_offset 4, -12
 1647              		.cfi_offset 5, -8
 1648              		.cfi_offset 14, -4
 1649              		.loc 1 596 20 view .LVU279
 1650 0002 154B     		ldr	r3, .L101
 1651              		.loc 1 596 3 view .LVU280
 1652 0004 154C     		ldr	r4, .L101+4
 1653              		.loc 1 596 12 view .LVU281
 1654 0006 93F88430 		ldrb	r3, [r3, #132]	@ zero_extendqisi2
 1655              		.loc 1 596 3 view .LVU282
 1656 000a 206B     		ldr	r0, [r4, #48]
 597:src/lcd.c     ****   lcd_setXY (t20, 360, Y_ANNUNC-70);
 1657              		.loc 1 597 3 view .LVU283
 1658 000c 144D     		ldr	r5, .L101+8
ARM GAS  /tmp/ccyuyqQY.s 			page 44


 596:src/lcd.c     ****   t20->inv = !(dots[LIT_EQ]&1);
 1659              		.loc 1 596 12 view .LVU284
 1660 000e DB43     		mvns	r3, r3
 1661 0010 03F00103 		and	r3, r3, #1
 1662 0014 4374     		strb	r3, [r0, #17]
 1663              		.loc 1 597 3 is_stmt 1 view .LVU285
 1664 0016 0522     		movs	r2, #5
 1665 0018 4FF4B471 		mov	r1, #360
 1666 001c A847     		blx	r5
 1667              	.LVL151:
 598:src/lcd.c     **** #ifdef INCLUDE_C_LOCK
 599:src/lcd.c     ****   if (C_LOCKED) {
 1668              		.loc 1 599 3 view .LVU286
 1669              		.loc 1 599 7 is_stmt 0 view .LVU287
 1670 001e 114B     		ldr	r3, .L101+12
 1671 0020 1B68     		ldr	r3, [r3]
 1672 0022 93F8E427 		ldrb	r2, [r3, #2020]	@ zero_extendqisi2
 1673              		.loc 1 599 6 view .LVU288
 1674 0026 5207     		lsls	r2, r2, #29
 1675 0028 03D5     		bpl	.L91
 1676              		.loc 1 599 7 discriminator 1 view .LVU289
 1677 002a 93F8DE37 		ldrb	r3, [r3, #2014]	@ zero_extendqisi2
 1678 002e 5B07     		lsls	r3, r3, #29
 1679 0030 09D4     		bmi	.L100
 1680              	.L91:
 600:src/lcd.c     ****     lcd_writeText(t20, "C_LK");
 601:src/lcd.c     ****   }
 602:src/lcd.c     ****   else {
 603:src/lcd.c     ****     lcd_writeText(t20, "=");
 1681              		.loc 1 603 5 is_stmt 1 view .LVU290
 1682 0032 0A4A     		ldr	r2, .L101+4
 1683 0034 0C4B     		ldr	r3, .L101+16
 1684 0036 106B     		ldr	r0, [r2, #48]
 1685 0038 0C49     		ldr	r1, .L101+20
 1686 003a 9847     		blx	r3
 1687              	.LVL152:
 604:src/lcd.c     ****   }
 605:src/lcd.c     **** #else
 606:src/lcd.c     ****   lcd_writeText(t20, "=");
 607:src/lcd.c     **** #endif
 608:src/lcd.c     ****   t20->inv = 0;
 1688              		.loc 1 608 3 view .LVU291
 1689 003c 074B     		ldr	r3, .L101+4
 1690              		.loc 1 608 12 is_stmt 0 view .LVU292
 1691 003e 1B6B     		ldr	r3, [r3, #48]
 1692 0040 0022     		movs	r2, #0
 1693 0042 5A74     		strb	r2, [r3, #17]
 609:src/lcd.c     **** }
 1694              		.loc 1 609 1 view .LVU293
 1695 0044 38BD     		pop	{r3, r4, r5, pc}
 1696              	.L100:
 600:src/lcd.c     ****     lcd_writeText(t20, "C_LK");
 1697              		.loc 1 600 5 is_stmt 1 view .LVU294
 1698 0046 084B     		ldr	r3, .L101+16
 1699 0048 206B     		ldr	r0, [r4, #48]
 1700 004a 0949     		ldr	r1, .L101+24
 1701 004c 9847     		blx	r3
ARM GAS  /tmp/ccyuyqQY.s 			page 45


 1702              	.LVL153:
 608:src/lcd.c     **** }
 1703              		.loc 1 608 3 view .LVU295
 1704 004e 034B     		ldr	r3, .L101+4
 608:src/lcd.c     **** }
 1705              		.loc 1 608 12 is_stmt 0 view .LVU296
 1706 0050 1B6B     		ldr	r3, [r3, #48]
 1707 0052 0022     		movs	r2, #0
 1708 0054 5A74     		strb	r2, [r3, #17]
 1709              		.loc 1 609 1 view .LVU297
 1710 0056 38BD     		pop	{r3, r4, r5, pc}
 1711              	.L102:
 1712              		.align	2
 1713              	.L101:
 1714 0058 00000000 		.word	.LANCHOR0
 1715 005c 00200010 		.word	268443648
 1716 0060 6D020008 		.word	134218349
 1717 0064 00000000 		.word	main_ram
 1718 0068 7D020008 		.word	134218365
 1719 006c 08000000 		.word	.LC6
 1720 0070 00000000 		.word	.LC5
 1721              		.cfi_endproc
 1722              	.LFE33:
 1724              		.section	.rodata.draw_dot.str1.4,"aMS",%progbits,1
 1725              		.align	2
 1726              	.LC7:
 1727 0000 414C5048 		.ascii	"ALPHA\000"
 1727      4100
 1728 0006 0000     		.align	2
 1729              	.LC8:
 1730 0008 50474D00 		.ascii	"PGM\000"
 1731              		.align	2
 1732              	.LC9:
 1733 000c 52414400 		.ascii	"RAD\000"
 1734              		.align	2
 1735              	.LC10:
 1736 0010 44454700 		.ascii	"DEG\000"
 1737              		.section	.text.draw_dot,"ax",%progbits
 1738              		.align	1
 1739              		.p2align 2,,3
 1740              		.global	draw_dot
 1741              		.syntax unified
 1742              		.thumb
 1743              		.thumb_func
 1744              		.fpu fpv4-sp-d16
 1746              	draw_dot:
 1747              	.LVL154:
 1748              	.LFB26:
 360:src/lcd.c     ****   int x, col = 0, inverse = 1;
 1749              		.loc 1 360 23 is_stmt 1 view -0
 1750              		.cfi_startproc
 1751              		@ args = 0, pretend = 0, frame = 0
 1752              		@ frame_needed = 0, uses_anonymous_args = 0
 361:src/lcd.c     ****   if (dots[n] & 1) {
 1753              		.loc 1 361 3 view .LVU299
 362:src/lcd.c     ****     col = 0xff;
 1754              		.loc 1 362 3 view .LVU300
ARM GAS  /tmp/ccyuyqQY.s 			page 46


 360:src/lcd.c     ****   int x, col = 0, inverse = 1;
 1755              		.loc 1 360 23 is_stmt 0 view .LVU301
 1756 0000 70B5     		push	{r4, r5, r6, lr}
 1757              		.cfi_def_cfa_offset 16
 1758              		.cfi_offset 4, -16
 1759              		.cfi_offset 5, -12
 1760              		.cfi_offset 6, -8
 1761              		.cfi_offset 14, -4
 362:src/lcd.c     ****     col = 0xff;
 1762              		.loc 1 362 11 view .LVU302
 1763 0002 B44D     		ldr	r5, .L163
 362:src/lcd.c     ****     col = 0xff;
 1764              		.loc 1 362 6 view .LVU303
 1765 0004 2B5C     		ldrb	r3, [r5, r0]	@ zero_extendqisi2
 364:src/lcd.c     ****   }
 1766              		.loc 1 364 13 view .LVU304
 1767 0006 13F00103 		ands	r3, r3, #1
 1768 000a 0CBF     		ite	eq
 1769 000c 0024     		moveq	r4, #0
 1770 000e FF24     		movne	r4, #255
 1771              	.LVL155:
 367:src/lcd.c     ****     x = XLEFT + DWIDTH*(n/9);
 1772              		.loc 1 367 3 is_stmt 1 view .LVU305
 367:src/lcd.c     ****     x = XLEFT + DWIDTH*(n/9);
 1773              		.loc 1 367 6 is_stmt 0 view .LVU306
 1774 0010 6B28     		cmp	r0, #107
 360:src/lcd.c     ****   int x, col = 0, inverse = 1;
 1775              		.loc 1 360 23 view .LVU307
 1776 0012 82B0     		sub	sp, sp, #8
 1777              		.cfi_def_cfa_offset 24
 367:src/lcd.c     ****     x = XLEFT + DWIDTH*(n/9);
 1778              		.loc 1 367 6 view .LVU308
 1779 0014 17DC     		bgt	.L105
 368:src/lcd.c     ****     switch (n % 9) {  
 1780              		.loc 1 368 5 is_stmt 1 view .LVU309
 368:src/lcd.c     ****     switch (n % 9) {  
 1781              		.loc 1 368 26 is_stmt 0 view .LVU310
 1782 0016 B04A     		ldr	r2, .L163+4
 1783 0018 C317     		asrs	r3, r0, #31
 1784              	.LVL156:
 368:src/lcd.c     ****     switch (n % 9) {  
 1785              		.loc 1 368 26 view .LVU311
 1786 001a 82FB0012 		smull	r1, r2, r2, r0
 1787 001e C3EB6203 		rsb	r3, r3, r2, asr #1
 368:src/lcd.c     ****     switch (n % 9) {  
 1788              		.loc 1 368 23 view .LVU312
 1789 0022 03EB8302 		add	r2, r3, r3, lsl #2
 369:src/lcd.c     ****     case 0:
 1790              		.loc 1 369 15 view .LVU313
 1791 0026 03EBC303 		add	r3, r3, r3, lsl #3
 368:src/lcd.c     ****     switch (n % 9) {  
 1792              		.loc 1 368 23 view .LVU314
 1793 002a 02EB8205 		add	r5, r2, r2, lsl #2
 1794              	.LVL157:
 369:src/lcd.c     ****     case 0:
 1795              		.loc 1 369 15 view .LVU315
 1796 002e C31A     		subs	r3, r0, r3
ARM GAS  /tmp/ccyuyqQY.s 			page 47


 368:src/lcd.c     ****     switch (n % 9) {  
 1797              		.loc 1 368 7 view .LVU316
 1798 0030 05F11A00 		add	r0, r5, #26
 1799              	.LVL158:
 369:src/lcd.c     ****     case 0:
 1800              		.loc 1 369 5 is_stmt 1 view .LVU317
 1801 0034 082B     		cmp	r3, #8
 1802 0036 3ED8     		bhi	.L103
 1803 0038 DFE803F0 		tbb	[pc, r3]
 1804              	.L108:
 1805 003c 80       		.byte	(.L116-.L108)/2
 1806 003d 87       		.byte	(.L115-.L108)/2
 1807 003e 8E       		.byte	(.L114-.L108)/2
 1808 003f 95       		.byte	(.L113-.L108)/2
 1809 0040 9C       		.byte	(.L112-.L108)/2
 1810 0041 A1       		.byte	(.L111-.L108)/2
 1811 0042 A8       		.byte	(.L110-.L108)/2
 1812 0043 AD       		.byte	(.L109-.L108)/2
 1813 0044 B6       		.byte	(.L107-.L108)/2
 1814              	.LVL159:
 1815 0045 00       		.p2align 1
 1816              	.L105:
 400:src/lcd.c     ****     x = XLEFT_EXP + DWIDTH_EXP*((n-108)/7);
 1817              		.loc 1 400 8 view .LVU318
 400:src/lcd.c     ****     x = XLEFT_EXP + DWIDTH_EXP*((n-108)/7);
 1818              		.loc 1 400 11 is_stmt 0 view .LVU319
 1819 0046 8028     		cmp	r0, #128
 1820 0048 37DC     		bgt	.L117
 401:src/lcd.c     ****     switch ((n-108) % 7) {
 1821              		.loc 1 401 5 is_stmt 1 view .LVU320
 401:src/lcd.c     ****     switch ((n-108) % 7) {
 1822              		.loc 1 401 40 is_stmt 0 view .LVU321
 1823 004a A44B     		ldr	r3, .L163+8
 1824              	.LVL160:
 401:src/lcd.c     ****     switch ((n-108) % 7) {
 1825              		.loc 1 401 35 view .LVU322
 1826 004c 6C38     		subs	r0, r0, #108
 1827              	.LVL161:
 401:src/lcd.c     ****     switch ((n-108) % 7) {
 1828              		.loc 1 401 40 view .LVU323
 1829 004e A3FB0023 		umull	r2, r3, r3, r0
 1830 0052 C21A     		subs	r2, r0, r3
 1831 0054 03EB5203 		add	r3, r3, r2, lsr #1
 1832 0058 9B08     		lsrs	r3, r3, #2
 402:src/lcd.c     ****     case 0:
 1833              		.loc 1 402 21 view .LVU324
 1834 005a C3EBC302 		rsb	r2, r3, r3, lsl #3
 1835 005e 801A     		subs	r0, r0, r2
 1836              	.LVL162:
 401:src/lcd.c     ****     switch ((n-108) % 7) {
 1837              		.loc 1 401 31 view .LVU325
 1838 0060 03EBC303 		add	r3, r3, r3, lsl #3
 1839 0064 421E     		subs	r2, r0, #1
 1840 0066 5B00     		lsls	r3, r3, #1
 401:src/lcd.c     ****     switch ((n-108) % 7) {
 1841              		.loc 1 401 7 view .LVU326
 1842 0068 03F5AC70 		add	r0, r3, #344
ARM GAS  /tmp/ccyuyqQY.s 			page 48


 1843              	.LVL163:
 402:src/lcd.c     ****     case 0:
 1844              		.loc 1 402 5 is_stmt 1 view .LVU327
 1845 006c 052A     		cmp	r2, #5
 1846 006e 00F2B081 		bhi	.L118
 1847 0072 DFE812F0 		tbh	[pc, r2, lsl #1]
 1848              	.L120:
 1849 0076 8601     		.2byte	(.L125-.L120)/2
 1850 0078 8B01     		.2byte	(.L124-.L120)/2
 1851 007a 6C01     		.2byte	(.L123-.L120)/2
 1852 007c 7301     		.2byte	(.L122-.L120)/2
 1853 007e 7A01     		.2byte	(.L121-.L120)/2
 1854 0080 8101     		.2byte	(.L119-.L120)/2
 1855              	.LVL164:
 1856              		.p2align 1
 1857              	.L141:
 1858              	.LBB56:
 481:src/lcd.c     **** 	  if (d) {
 1859              		.loc 1 481 7 view .LVU328
 481:src/lcd.c     **** 	  if (d) {
 1860              		.loc 1 481 10 is_stmt 0 view .LVU329
 1861 0082 02F00202 		and	r2, r2, #2
 1862 0086 A242     		cmp	r2, r4
 1863 0088 00F09A81 		beq	.L160
 490:src/lcd.c     **** 	    draw_BEG(4, 1);
 1864              		.loc 1 490 4 is_stmt 1 view .LVU330
 490:src/lcd.c     **** 	    draw_BEG(4, 1);
 1865              		.loc 1 490 7 is_stmt 0 view .LVU331
 1866 008c 002C     		cmp	r4, #0
 1867 008e 00F09B81 		beq	.L145
 491:src/lcd.c     **** 	    draw_BEG(8, 0);
 1868              		.loc 1 491 6 is_stmt 1 view .LVU332
 1869              	.LVL165:
 1870              	.LBB57:
 1871              	.LBI57:
 541:src/lcd.c     ****   t20->inv = inverse;
 1872              		.loc 1 541 6 view .LVU333
 1873              	.LBB58:
 542:src/lcd.c     ****   lcd_setXY (t20, 285, Y_ANNUNC-50);
 1874              		.loc 1 542 3 view .LVU334
 1875 0092 934A     		ldr	r2, .L163+12
 543:src/lcd.c     ****   if (depth == 4) {
 1876              		.loc 1 543 3 is_stmt 0 view .LVU335
 1877 0094 934B     		ldr	r3, .L163+16
 542:src/lcd.c     ****   lcd_setXY (t20, 285, Y_ANNUNC-50);
 1878              		.loc 1 542 3 view .LVU336
 1879 0096 106B     		ldr	r0, [r2, #48]
 1880              	.LVL166:
 542:src/lcd.c     ****   lcd_setXY (t20, 285, Y_ANNUNC-50);
 1881              		.loc 1 542 12 view .LVU337
 1882 0098 0122     		movs	r2, #1
 1883 009a 4274     		strb	r2, [r0, #17]
 1884              	.LVL167:
 543:src/lcd.c     ****   if (depth == 4) {
 1885              		.loc 1 543 3 is_stmt 1 view .LVU338
 1886 009c 40F21D11 		movw	r1, #285
 1887 00a0 1922     		movs	r2, #25
ARM GAS  /tmp/ccyuyqQY.s 			page 49


 1888 00a2 9847     		blx	r3
 1889              	.LVL168:
 544:src/lcd.c     ****     lcd_writeText(t20, "S:4");
 1890              		.loc 1 544 3 view .LVU339
 1891 00a4 FFF7FEFF 		bl	draw_BEG.part.0
 1892              	.LVL169:
 550:src/lcd.c     **** }
 1893              		.loc 1 550 3 view .LVU340
 550:src/lcd.c     **** }
 1894              		.loc 1 550 3 is_stmt 0 view .LVU341
 1895              	.LBE58:
 1896              	.LBE57:
 492:src/lcd.c     **** 	    dots[BEG] = 7;
 1897              		.loc 1 492 6 is_stmt 1 view .LVU342
 1898 00a8 0021     		movs	r1, #0
 1899              	.L149:
 492:src/lcd.c     **** 	    dots[BEG] = 7;
 1900              		.loc 1 492 6 is_stmt 0 view .LVU343
 1901 00aa 0820     		movs	r0, #8
 1902 00ac FFF7FEFF 		bl	draw_BEG
 1903              	.LVL170:
 1904              	.L151:
 493:src/lcd.c     **** 	  }
 1905              		.loc 1 493 6 is_stmt 1 view .LVU344
 493:src/lcd.c     **** 	  }
 1906              		.loc 1 493 16 is_stmt 0 view .LVU345
 1907 00b0 0723     		movs	r3, #7
 1908 00b2 85F88830 		strb	r3, [r5, #136]
 1909              	.LVL171:
 1910              	.L103:
 493:src/lcd.c     **** 	  }
 1911              		.loc 1 493 16 view .LVU346
 1912              	.LBE56:
 539:src/lcd.c     **** 
 1913              		.loc 1 539 1 view .LVU347
 1914 00b6 02B0     		add	sp, sp, #8
 1915              		.cfi_remember_state
 1916              		.cfi_def_cfa_offset 16
 1917              		@ sp needed
 1918 00b8 70BD     		pop	{r4, r5, r6, pc}
 1919              	.LVL172:
 1920              	.L117:
 1921              		.cfi_restore_state
 427:src/lcd.c     ****     switch (n) {
 1922              		.loc 1 427 8 is_stmt 1 view .LVU348
 427:src/lcd.c     ****     switch (n) {
 1923              		.loc 1 427 11 is_stmt 0 view .LVU349
 1924 00ba 8D28     		cmp	r0, #141
 1925 00bc 1DDD     		ble	.L161
 531:src/lcd.c     ****     lcd_fill_rect ( XLEFT-DWIDTH+5*((n-142)/6)+15, YTOP-(10+6*6)+((n-142)%6)*6, 4, 5, col);
 1926              		.loc 1 531 8 is_stmt 1 view .LVU350
 531:src/lcd.c     ****     lcd_fill_rect ( XLEFT-DWIDTH+5*((n-142)/6)+15, YTOP-(10+6*6)+((n-142)%6)*6, 4, 5, col);
 1927              		.loc 1 531 11 is_stmt 0 view .LVU351
 1928 00be 40F24923 		movw	r3, #585
 1929              	.LVL173:
 531:src/lcd.c     ****     lcd_fill_rect ( XLEFT-DWIDTH+5*((n-142)/6)+15, YTOP-(10+6*6)+((n-142)%6)*6, 4, 5, col);
 1930              		.loc 1 531 11 view .LVU352
ARM GAS  /tmp/ccyuyqQY.s 			page 50


 1931 00c2 9842     		cmp	r0, r3
 1932 00c4 40F36581 		ble	.L162
 535:src/lcd.c     ****     lcd_fill_rect( XLEFT-DWIDTH+5*((n-MAX_DOTS)/6)+15, 70-(10+6*5)+((n-MAX_DOTS)%6)*5, 4, 4, col);
 1933              		.loc 1 535 8 is_stmt 1 view .LVU353
 535:src/lcd.c     ****     lcd_fill_rect( XLEFT-DWIDTH+5*((n-MAX_DOTS)/6)+15, 70-(10+6*5)+((n-MAX_DOTS)%6)*5, 4, 4, col);
 1934              		.loc 1 535 11 is_stmt 0 view .LVU354
 1935 00c8 B0F5537F 		cmp	r0, #844
 1936 00cc F3DA     		bge	.L103
 536:src/lcd.c     ****     return;
 1937              		.loc 1 536 5 is_stmt 1 view .LVU355
 536:src/lcd.c     ****     return;
 1938              		.loc 1 536 81 is_stmt 0 view .LVU356
 1939 00ce 864B     		ldr	r3, .L163+20
 536:src/lcd.c     ****     return;
 1940              		.loc 1 536 5 view .LVU357
 1941 00d0 0094     		str	r4, [sp]
 536:src/lcd.c     ****     return;
 1942              		.loc 1 536 38 view .LVU358
 1943 00d2 A0F24A20 		subw	r0, r0, #586
 1944              	.LVL174:
 536:src/lcd.c     ****     return;
 1945              		.loc 1 536 81 view .LVU359
 1946 00d6 A3FB0023 		umull	r2, r3, r3, r0
 1947 00da 9B08     		lsrs	r3, r3, #2
 1948 00dc 03EB4301 		add	r1, r3, r3, lsl #1
 1949 00e0 A0EB4101 		sub	r1, r0, r1, lsl #1
 536:src/lcd.c     ****     return;
 1950              		.loc 1 536 84 view .LVU360
 1951 00e4 01EB8101 		add	r1, r1, r1, lsl #2
 536:src/lcd.c     ****     return;
 1952              		.loc 1 536 34 view .LVU361
 1953 00e8 03EB8300 		add	r0, r3, r3, lsl #2
 1954              	.LVL175:
 536:src/lcd.c     ****     return;
 1955              		.loc 1 536 5 view .LVU362
 1956 00ec 0423     		movs	r3, #4
 1957 00ee 7F4C     		ldr	r4, .L163+24
 1958              	.LVL176:
 536:src/lcd.c     ****     return;
 1959              		.loc 1 536 5 view .LVU363
 1960 00f0 1E31     		adds	r1, r1, #30
 1961 00f2 1030     		adds	r0, r0, #16
 1962 00f4 1A46     		mov	r2, r3
 1963 00f6 A047     		blx	r4
 1964              	.LVL177:
 537:src/lcd.c     ****   }
 1965              		.loc 1 537 5 is_stmt 1 view .LVU364
 1966 00f8 DDE7     		b	.L103
 1967              	.LVL178:
 1968              	.L161:
 537:src/lcd.c     ****   }
 1969              		.loc 1 537 5 is_stmt 0 view .LVU365
 1970 00fa 8238     		subs	r0, r0, #130
 1971              	.LVL179:
 537:src/lcd.c     ****   }
 1972              		.loc 1 537 5 view .LVU366
 1973 00fc 83F00103 		eor	r3, r3, #1
ARM GAS  /tmp/ccyuyqQY.s 			page 51


 1974              	.LVL180:
 428:src/lcd.c     ****     case MANT_SIGN:
 1975              		.loc 1 428 5 is_stmt 1 view .LVU367
 1976 0100 0B28     		cmp	r0, #11
 1977 0102 00F26D81 		bhi	.L127
 1978 0106 01A2     		adr	r2, .L129
 1979 0108 52F820F0 		ldr	pc, [r2, r0, lsl #2]
 1980              		.p2align 2
 1981              	.L129:
 1982 010c D5010000 		.word	.L139+1
 1983 0110 E7010000 		.word	.L138+1
 1984 0114 03020000 		.word	.L137+1
 1985 0118 0D020000 		.word	.L136+1
 1986 011c 65020000 		.word	.L135+1
 1987 0120 B7000000 		.word	.L103+1
 1988 0124 83020000 		.word	.L134+1
 1989 0128 BD020000 		.word	.L133+1
 1990 012c 01030000 		.word	.L132+1
 1991 0130 33030000 		.word	.L131+1
 1992 0134 37030000 		.word	.L130+1
 1993 0138 C9010000 		.word	.L128+1
 1994              	.LVL181:
 1995              		.p2align 1
 1996              	.L116:
 371:src/lcd.c     ****       return;
 1997              		.loc 1 371 7 view .LVU368
 1998 013c 2246     		mov	r2, r4
 1999 013e 8221     		movs	r1, #130
 539:src/lcd.c     **** 
 2000              		.loc 1 539 1 is_stmt 0 view .LVU369
 2001 0140 02B0     		add	sp, sp, #8
 2002              		.cfi_remember_state
 2003              		.cfi_def_cfa_offset 16
 2004              		@ sp needed
 2005 0142 BDE87040 		pop	{r4, r5, r6, lr}
 2006              		.cfi_restore 14
 2007              		.cfi_restore 6
 2008              		.cfi_restore 5
 2009              		.cfi_restore 4
 2010              		.cfi_def_cfa_offset 0
 2011              	.LVL182:
 371:src/lcd.c     ****       return;
 2012              		.loc 1 371 7 view .LVU370
 2013 0146 FFF7FEBF 		b	top
 2014              	.LVL183:
 2015              	.L115:
 2016              		.cfi_restore_state
 374:src/lcd.c     ****       return;
 2017              		.loc 1 374 7 is_stmt 1 view .LVU371
 2018              	.LBB61:
 2019              	.LBI61:
  95:src/lcd.c     ****   left_side(i, j, col);
 2020              		.loc 1 95 6 view .LVU372
 2021              	.LBB62:
  96:src/lcd.c     **** }
 2022              		.loc 1 96 3 view .LVU373
 2023 014a 2246     		mov	r2, r4
ARM GAS  /tmp/ccyuyqQY.s 			page 52


 2024 014c 8221     		movs	r1, #130
 2025              	.LVL184:
 2026              	.L153:
  96:src/lcd.c     **** }
 2027              		.loc 1 96 3 is_stmt 0 view .LVU374
 2028              	.LBE62:
 2029              	.LBE61:
 539:src/lcd.c     **** 
 2030              		.loc 1 539 1 view .LVU375
 2031 014e 02B0     		add	sp, sp, #8
 2032              		.cfi_remember_state
 2033              		.cfi_def_cfa_offset 16
 2034              		@ sp needed
 2035 0150 BDE87040 		pop	{r4, r5, r6, lr}
 2036              		.cfi_restore 14
 2037              		.cfi_restore 6
 2038              		.cfi_restore 5
 2039              		.cfi_restore 4
 2040              		.cfi_def_cfa_offset 0
 2041              	.LVL185:
 2042              	.LBB63:
 2043              	.LBB64:
  99:src/lcd.c     **** }
 2044              		.loc 1 99 3 view .LVU376
 2045 0154 FFF7FEBF 		b	left_side
 2046              	.LVL186:
 2047              	.L114:
 2048              		.cfi_restore_state
  99:src/lcd.c     **** }
 2049              		.loc 1 99 3 view .LVU377
 2050              	.LBE64:
 2051              	.LBE63:
 377:src/lcd.c     ****       return;
 2052              		.loc 1 377 7 is_stmt 1 view .LVU378
 2053 0158 2246     		mov	r2, r4
 2054 015a 8221     		movs	r1, #130
 2055              	.LVL187:
 2056              	.L154:
 539:src/lcd.c     **** 
 2057              		.loc 1 539 1 is_stmt 0 view .LVU379
 2058 015c 02B0     		add	sp, sp, #8
 2059              		.cfi_remember_state
 2060              		.cfi_def_cfa_offset 16
 2061              		@ sp needed
 2062 015e BDE87040 		pop	{r4, r5, r6, lr}
 2063              		.cfi_restore 14
 2064              		.cfi_restore 6
 2065              		.cfi_restore 5
 2066              		.cfi_restore 4
 2067              		.cfi_def_cfa_offset 0
 430:src/lcd.c     ****       return;
 2068              		.loc 1 430 7 view .LVU380
 2069 0162 FFF7FEBF 		b	middle
 2070              	.LVL188:
 2071              	.L113:
 2072              		.cfi_restore_state
 380:src/lcd.c     ****       return;
ARM GAS  /tmp/ccyuyqQY.s 			page 53


 2073              		.loc 1 380 7 is_stmt 1 view .LVU381
 2074              	.LBB66:
 2075              	.LBI66:
 108:src/lcd.c     ****   right_side(i, j, col);
 2076              		.loc 1 108 6 view .LVU382
 2077              	.LBB67:
 109:src/lcd.c     **** }
 2078              		.loc 1 109 3 view .LVU383
 2079 0166 2246     		mov	r2, r4
 2080 0168 8221     		movs	r1, #130
 2081              	.LVL189:
 2082              	.L155:
 109:src/lcd.c     **** }
 2083              		.loc 1 109 3 is_stmt 0 view .LVU384
 2084              	.LBE67:
 2085              	.LBE66:
 539:src/lcd.c     **** 
 2086              		.loc 1 539 1 view .LVU385
 2087 016a 02B0     		add	sp, sp, #8
 2088              		.cfi_remember_state
 2089              		.cfi_def_cfa_offset 16
 2090              		@ sp needed
 2091 016c BDE87040 		pop	{r4, r5, r6, lr}
 2092              		.cfi_restore 14
 2093              		.cfi_restore 6
 2094              		.cfi_restore 5
 2095              		.cfi_restore 4
 2096              		.cfi_def_cfa_offset 0
 2097              	.LVL190:
 2098              	.LBB68:
 2099              	.LBB69:
 112:src/lcd.c     **** }
 2100              		.loc 1 112 3 view .LVU386
 2101 0170 FFF7FEBF 		b	right_side
 2102              	.LVL191:
 2103              	.L112:
 2104              		.cfi_restore_state
 112:src/lcd.c     **** }
 2105              		.loc 1 112 3 view .LVU387
 2106              	.LBE69:
 2107              	.LBE68:
 383:src/lcd.c     ****       return;
 2108              		.loc 1 383 7 is_stmt 1 view .LVU388
 2109              	.LBB71:
 2110              	.LBI63:
  98:src/lcd.c     ****   left_side(i-2, j+19, col);
 2111              		.loc 1 98 6 view .LVU389
 2112              	.LBB65:
  99:src/lcd.c     **** }
 2113              		.loc 1 99 3 view .LVU390
 2114 0174 2246     		mov	r2, r4
 2115 0176 05F11800 		add	r0, r5, #24
 2116              	.LVL192:
  99:src/lcd.c     **** }
 2117              		.loc 1 99 3 is_stmt 0 view .LVU391
 2118 017a 9521     		movs	r1, #149
 2119 017c E7E7     		b	.L153
ARM GAS  /tmp/ccyuyqQY.s 			page 54


 2120              	.LVL193:
 2121              	.L111:
  99:src/lcd.c     **** }
 2122              		.loc 1 99 3 view .LVU392
 2123              	.LBE65:
 2124              	.LBE71:
 386:src/lcd.c     ****       return;
 2125              		.loc 1 386 7 is_stmt 1 view .LVU393
 2126 017e 2246     		mov	r2, r4
 2127 0180 8221     		movs	r1, #130
 539:src/lcd.c     **** 
 2128              		.loc 1 539 1 is_stmt 0 view .LVU394
 2129 0182 02B0     		add	sp, sp, #8
 2130              		.cfi_remember_state
 2131              		.cfi_def_cfa_offset 16
 2132              		@ sp needed
 2133 0184 BDE87040 		pop	{r4, r5, r6, lr}
 2134              		.cfi_restore 14
 2135              		.cfi_restore 6
 2136              		.cfi_restore 5
 2137              		.cfi_restore 4
 2138              		.cfi_def_cfa_offset 0
 2139              	.LVL194:
 386:src/lcd.c     ****       return;
 2140              		.loc 1 386 7 view .LVU395
 2141 0188 FFF7FEBF 		b	bottom
 2142              	.LVL195:
 2143              	.L110:
 2144              		.cfi_restore_state
 389:src/lcd.c     ****       return;
 2145              		.loc 1 389 7 is_stmt 1 view .LVU396
 2146              	.LBB72:
 2147              	.LBI68:
 111:src/lcd.c     ****   right_side(i-2, j+19, col);
 2148              		.loc 1 111 6 view .LVU397
 2149              	.LBB70:
 112:src/lcd.c     **** }
 2150              		.loc 1 112 3 view .LVU398
 2151 018c 2246     		mov	r2, r4
 2152 018e 05F11800 		add	r0, r5, #24
 2153              	.LVL196:
 112:src/lcd.c     **** }
 2154              		.loc 1 112 3 is_stmt 0 view .LVU399
 2155 0192 9521     		movs	r1, #149
 2156 0194 E9E7     		b	.L155
 2157              	.LVL197:
 2158              	.L109:
 112:src/lcd.c     **** }
 2159              		.loc 1 112 3 view .LVU400
 2160              	.LBE70:
 2161              	.LBE72:
 392:src/lcd.c     ****       return;
 2162              		.loc 1 392 7 is_stmt 1 view .LVU401
 2163              	.LBB73:
 2164              	.LBI73:
 134:src/lcd.c     ****   lcd_fill_rect (i+19, j+40, 5, 5, col);
 2165              		.loc 1 134 6 view .LVU402
ARM GAS  /tmp/ccyuyqQY.s 			page 55


 2166              	.LBB74:
 135:src/lcd.c     **** }
 2167              		.loc 1 135 3 view .LVU403
 2168 0196 0523     		movs	r3, #5
 2169 0198 0094     		str	r4, [sp]
 2170 019a 05F12D00 		add	r0, r5, #45
 2171              	.LVL198:
 135:src/lcd.c     **** }
 2172              		.loc 1 135 3 is_stmt 0 view .LVU404
 2173 019e 534C     		ldr	r4, .L163+24
 2174              	.LVL199:
 135:src/lcd.c     **** }
 2175              		.loc 1 135 3 view .LVU405
 2176 01a0 1A46     		mov	r2, r3
 2177 01a2 AA21     		movs	r1, #170
 2178 01a4 A047     		blx	r4
 2179              	.LVL200:
 135:src/lcd.c     **** }
 2180              		.loc 1 135 3 view .LVU406
 2181              	.LBE74:
 2182              	.LBE73:
 393:src/lcd.c     ****     case 8:
 2183              		.loc 1 393 7 is_stmt 1 view .LVU407
 2184 01a6 86E7     		b	.L103
 2185              	.LVL201:
 2186              	.L107:
 395:src/lcd.c     ****       return;
 2187              		.loc 1 395 7 view .LVU408
 2188              	.LBB75:
 2189              	.LBI75:
 137:src/lcd.c     ****   lcd_fill_rect (i+21, j+45, 3, 3, col);
 2190              		.loc 1 137 6 view .LVU409
 2191              	.LBB76:
 138:src/lcd.c     ****   lcd_fill_rect (i+19, j+48, 3, 3, col);
 2192              		.loc 1 138 3 view .LVU410
 2193 01a8 0323     		movs	r3, #3
 2194 01aa 1A46     		mov	r2, r3
 2195 01ac 05F12F00 		add	r0, r5, #47
 2196              	.LVL202:
 138:src/lcd.c     ****   lcd_fill_rect (i+19, j+48, 3, 3, col);
 2197              		.loc 1 138 3 is_stmt 0 view .LVU411
 2198 01b0 4E4E     		ldr	r6, .L163+24
 2199 01b2 0094     		str	r4, [sp]
 2200 01b4 AF21     		movs	r1, #175
 2201 01b6 B047     		blx	r6
 2202              	.LVL203:
 139:src/lcd.c     **** }
 2203              		.loc 1 139 3 is_stmt 1 view .LVU412
 2204 01b8 0323     		movs	r3, #3
 2205 01ba 0094     		str	r4, [sp]
 2206 01bc 05F12D00 		add	r0, r5, #45
 2207 01c0 1A46     		mov	r2, r3
 2208 01c2 B221     		movs	r1, #178
 2209 01c4 B047     		blx	r6
 2210              	.LVL204:
 139:src/lcd.c     **** }
 2211              		.loc 1 139 3 is_stmt 0 view .LVU413
ARM GAS  /tmp/ccyuyqQY.s 			page 56


 2212              	.LBE76:
 2213              	.LBE75:
 396:src/lcd.c     ****     default:;
 2214              		.loc 1 396 7 is_stmt 1 view .LVU414
 2215 01c6 76E7     		b	.L103
 2216              	.LVL205:
 2217              	.L128:
 526:src/lcd.c     ****       return;
 2218              		.loc 1 526 7 view .LVU415
 2219 01c8 1846     		mov	r0, r3
 2220              	.LVL206:
 539:src/lcd.c     **** 
 2221              		.loc 1 539 1 is_stmt 0 view .LVU416
 2222 01ca 02B0     		add	sp, sp, #8
 2223              		.cfi_remember_state
 2224              		.cfi_def_cfa_offset 16
 2225              		@ sp needed
 2226 01cc BDE87040 		pop	{r4, r5, r6, lr}
 2227              		.cfi_restore 14
 2228              		.cfi_restore 6
 2229              		.cfi_restore 5
 2230              		.cfi_restore 4
 2231              		.cfi_def_cfa_offset 0
 2232              	.LVL207:
 526:src/lcd.c     ****       return;
 2233              		.loc 1 526 7 view .LVU417
 2234 01d0 FFF7FEBF 		b	draw_RPN
 2235              	.LVL208:
 2236              	.L139:
 2237              		.cfi_restore_state
 433:src/lcd.c     ****       return;
 2238              		.loc 1 433 7 is_stmt 1 view .LVU418
 2239 01d4 2246     		mov	r2, r4
 2240 01d6 8221     		movs	r1, #130
 2241 01d8 4FF4A370 		mov	r0, #326
 2242              	.LVL209:
 2243              	.L158:
 539:src/lcd.c     **** 
 2244              		.loc 1 539 1 is_stmt 0 view .LVU419
 2245 01dc 02B0     		add	sp, sp, #8
 2246              		.cfi_remember_state
 2247              		.cfi_def_cfa_offset 16
 2248              		@ sp needed
 2249 01de BDE87040 		pop	{r4, r5, r6, lr}
 2250              		.cfi_restore 14
 2251              		.cfi_restore 6
 2252              		.cfi_restore 5
 2253              		.cfi_restore 4
 2254              		.cfi_def_cfa_offset 0
 2255              	.LVL210:
 433:src/lcd.c     ****       return;
 2256              		.loc 1 433 7 view .LVU420
 2257 01e2 FFF7FEBF 		b	exp_middle
 2258              	.LVL211:
 2259              	.L138:
 2260              		.cfi_restore_state
 436:src/lcd.c     ****       lcd_fill_rect (250, Y_ANNUNC-24, 15, 4, col);
ARM GAS  /tmp/ccyuyqQY.s 			page 57


 2261              		.loc 1 436 7 is_stmt 1 view .LVU421
 2262 01e6 414D     		ldr	r5, .L163+24
 2263 01e8 0094     		str	r4, [sp]
 2264 01ea 0423     		movs	r3, #4
 2265              	.LVL212:
 436:src/lcd.c     ****       lcd_fill_rect (250, Y_ANNUNC-24, 15, 4, col);
 2266              		.loc 1 436 7 is_stmt 0 view .LVU422
 2267 01ec 0F22     		movs	r2, #15
 2268 01ee 2921     		movs	r1, #41
 2269 01f0 FA20     		movs	r0, #250
 2270              	.LVL213:
 436:src/lcd.c     ****       lcd_fill_rect (250, Y_ANNUNC-24, 15, 4, col);
 2271              		.loc 1 436 7 view .LVU423
 2272 01f2 A847     		blx	r5
 2273              	.LVL214:
 437:src/lcd.c     ****       return;
 2274              		.loc 1 437 7 is_stmt 1 view .LVU424
 2275 01f4 0094     		str	r4, [sp]
 2276 01f6 0423     		movs	r3, #4
 2277 01f8 0F22     		movs	r2, #15
 2278 01fa 3321     		movs	r1, #51
 2279 01fc FA20     		movs	r0, #250
 2280 01fe A847     		blx	r5
 2281              	.LVL215:
 438:src/lcd.c     ****     case LIT_EQ:
 2282              		.loc 1 438 7 view .LVU425
 2283 0200 59E7     		b	.L103
 2284              	.LVL216:
 2285              	.L137:
 440:src/lcd.c     ****       return;
 2286              		.loc 1 440 7 view .LVU426
 539:src/lcd.c     **** 
 2287              		.loc 1 539 1 is_stmt 0 view .LVU427
 2288 0202 02B0     		add	sp, sp, #8
 2289              		.cfi_remember_state
 2290              		.cfi_def_cfa_offset 16
 2291              		@ sp needed
 2292 0204 BDE87040 		pop	{r4, r5, r6, lr}
 2293              		.cfi_restore 14
 2294              		.cfi_restore 6
 2295              		.cfi_restore 5
 2296              		.cfi_restore 4
 2297              		.cfi_def_cfa_offset 0
 2298              	.LVL217:
 440:src/lcd.c     ****       return;
 2299              		.loc 1 440 7 view .LVU428
 2300 0208 FFF7FEBF 		b	draw_LEQ
 2301              	.LVL218:
 2302              	.L136:
 2303              		.cfi_restore_state
 443:src/lcd.c     ****       lcd_fill_rect(285,Y_ANNUNC-55,9,1,col);
 2304              		.loc 1 443 7 is_stmt 1 view .LVU429
 2305 020c 374D     		ldr	r5, .L163+24
 2306 020e 0094     		str	r4, [sp]
 2307 0210 0C23     		movs	r3, #12
 2308              	.LVL219:
 443:src/lcd.c     ****       lcd_fill_rect(285,Y_ANNUNC-55,9,1,col);
ARM GAS  /tmp/ccyuyqQY.s 			page 58


 2309              		.loc 1 443 7 is_stmt 0 view .LVU430
 2310 0212 0522     		movs	r2, #5
 2311 0214 0821     		movs	r1, #8
 2312 0216 40F21F10 		movw	r0, #287
 2313 021a A847     		blx	r5
 2314              	.LVL220:
 444:src/lcd.c     ****       lcd_fill_rect(286,Y_ANNUNC-54,7,1,col);
 2315              		.loc 1 444 7 is_stmt 1 view .LVU431
 2316 021c 0094     		str	r4, [sp]
 2317 021e 0123     		movs	r3, #1
 2318 0220 0922     		movs	r2, #9
 2319 0222 1421     		movs	r1, #20
 2320 0224 40F21D10 		movw	r0, #285
 2321 0228 A847     		blx	r5
 2322              	.LVL221:
 445:src/lcd.c     ****       lcd_fill_rect(287,Y_ANNUNC-53,5,1,col);
 2323              		.loc 1 445 7 view .LVU432
 2324 022a 0094     		str	r4, [sp]
 2325 022c 0123     		movs	r3, #1
 2326 022e 0722     		movs	r2, #7
 2327 0230 1521     		movs	r1, #21
 2328 0232 4FF48F70 		mov	r0, #286
 2329 0236 A847     		blx	r5
 2330              	.LVL222:
 446:src/lcd.c     ****       lcd_fill_rect(288,Y_ANNUNC-52,3,1,col);
 2331              		.loc 1 446 7 view .LVU433
 2332 0238 0094     		str	r4, [sp]
 2333 023a 0123     		movs	r3, #1
 2334 023c 0522     		movs	r2, #5
 2335 023e 1621     		movs	r1, #22
 2336 0240 40F21F10 		movw	r0, #287
 2337 0244 A847     		blx	r5
 2338              	.LVL223:
 447:src/lcd.c     ****       lcd_fill_rect(289,Y_ANNUNC-51,1,1,col);
 2339              		.loc 1 447 7 view .LVU434
 2340 0246 0094     		str	r4, [sp]
 2341 0248 0123     		movs	r3, #1
 2342 024a 0322     		movs	r2, #3
 2343 024c 1721     		movs	r1, #23
 2344 024e 4FF49070 		mov	r0, #288
 2345 0252 A847     		blx	r5
 2346              	.LVL224:
 448:src/lcd.c     ****       return;
 2347              		.loc 1 448 7 view .LVU435
 2348 0254 0123     		movs	r3, #1
 2349 0256 0094     		str	r4, [sp]
 2350 0258 1A46     		mov	r2, r3
 2351 025a 1821     		movs	r1, #24
 2352 025c 40F22110 		movw	r0, #289
 2353 0260 A847     		blx	r5
 2354              	.LVL225:
 449:src/lcd.c     ****     case INPUT:
 2355              		.loc 1 449 7 view .LVU436
 2356 0262 28E7     		b	.L103
 2357              	.LVL226:
 2358              	.L135:
 451:src/lcd.c     ****       lcd_setXY(t20, 305, Y_ANNUNC-70);
ARM GAS  /tmp/ccyuyqQY.s 			page 59


 2359              		.loc 1 451 7 view .LVU437
 2360 0264 1E4C     		ldr	r4, .L163+12
 2361              	.LVL227:
 452:src/lcd.c     ****       lcd_writeText(t20,"ALPHA");
 2362              		.loc 1 452 7 is_stmt 0 view .LVU438
 2363 0266 1F4D     		ldr	r5, .L163+16
 451:src/lcd.c     ****       lcd_setXY(t20, 305, Y_ANNUNC-70);
 2364              		.loc 1 451 7 view .LVU439
 2365 0268 206B     		ldr	r0, [r4, #48]
 452:src/lcd.c     ****       lcd_writeText(t20,"ALPHA");
 2366              		.loc 1 452 7 view .LVU440
 2367 026a 40F23111 		movw	r1, #305
 451:src/lcd.c     ****       lcd_setXY(t20, 305, Y_ANNUNC-70);
 2368              		.loc 1 451 16 view .LVU441
 2369 026e 4374     		strb	r3, [r0, #17]
 452:src/lcd.c     ****       lcd_writeText(t20,"ALPHA");
 2370              		.loc 1 452 7 is_stmt 1 view .LVU442
 2371 0270 0522     		movs	r2, #5
 2372 0272 A847     		blx	r5
 2373              	.LVL228:
 453:src/lcd.c     ****       return;
 2374              		.loc 1 453 7 view .LVU443
 2375 0274 206B     		ldr	r0, [r4, #48]
 2376 0276 1E4B     		ldr	r3, .L163+28
 2377 0278 1E49     		ldr	r1, .L163+32
 2378              	.L156:
 539:src/lcd.c     **** 
 2379              		.loc 1 539 1 is_stmt 0 view .LVU444
 2380 027a 02B0     		add	sp, sp, #8
 2381              		.cfi_remember_state
 2382              		.cfi_def_cfa_offset 16
 2383              		@ sp needed
 2384 027c BDE87040 		pop	{r4, r5, r6, lr}
 2385              		.cfi_restore 14
 2386              		.cfi_restore 6
 2387              		.cfi_restore 5
 2388              		.cfi_restore 4
 2389              		.cfi_def_cfa_offset 0
 523:src/lcd.c     ****       return;
 2390              		.loc 1 523 7 view .LVU445
 2391 0280 1847     		bx	r3	@ indirect register sibling call
 2392              	.LVL229:
 2393              	.L134:
 2394              		.cfi_restore_state
 2395              	.LBB77:
 469:src/lcd.c     **** 	//	print_debug(100, dots[BEG]);
 2396              		.loc 1 469 2 is_stmt 1 view .LVU446
 469:src/lcd.c     **** 	//	print_debug(100, dots[BEG]);
 2397              		.loc 1 469 16 is_stmt 0 view .LVU447
 2398 0282 1D4B     		ldr	r3, .L163+36
 2399              	.LVL230:
 471:src/lcd.c     **** 	  if (d) {
 2400              		.loc 1 471 12 view .LVU448
 2401 0284 95F88820 		ldrb	r2, [r5, #136]	@ zero_extendqisi2
 469:src/lcd.c     **** 	//	print_debug(100, dots[BEG]);
 2402              		.loc 1 469 16 view .LVU449
 2403 0288 1B68     		ldr	r3, [r3]
ARM GAS  /tmp/ccyuyqQY.s 			page 60


 2404 028a 93F8EA37 		ldrb	r3, [r3, #2026]	@ zero_extendqisi2
 471:src/lcd.c     **** 	  if (d) {
 2405              		.loc 1 471 5 view .LVU450
 2406 028e 12F00801 		ands	r1, r2, #8
 469:src/lcd.c     **** 	//	print_debug(100, dots[BEG]);
 2407              		.loc 1 469 16 view .LVU451
 2408 0292 C3F3C004 		ubfx	r4, r3, #3, #1
 2409              	.LVL231:
 471:src/lcd.c     **** 	  if (d) {
 2410              		.loc 1 471 2 is_stmt 1 view .LVU452
 471:src/lcd.c     **** 	  if (d) {
 2411              		.loc 1 471 5 is_stmt 0 view .LVU453
 2412 0296 7FF4F4AE 		bne	.L141
 472:src/lcd.c     **** 	    draw_BEG(8, 0);
 2413              		.loc 1 472 4 is_stmt 1 view .LVU454
 472:src/lcd.c     **** 	    draw_BEG(8, 0);
 2414              		.loc 1 472 7 is_stmt 0 view .LVU455
 2415 029a 002C     		cmp	r4, #0
 2416 029c 7FF405AF 		bne	.L149
 2417              	.LVL232:
 2418              	.L150:
 497:src/lcd.c     **** 	    dots[BEG] = 4;
 2419              		.loc 1 497 6 is_stmt 1 view .LVU456
 2420              	.LBB59:
 2421              	.LBI59:
 541:src/lcd.c     ****   t20->inv = inverse;
 2422              		.loc 1 541 6 view .LVU457
 2423              	.LBB60:
 542:src/lcd.c     ****   lcd_setXY (t20, 285, Y_ANNUNC-50);
 2424              		.loc 1 542 3 view .LVU458
 2425 02a0 0F4A     		ldr	r2, .L163+12
 543:src/lcd.c     ****   if (depth == 4) {
 2426              		.loc 1 543 3 is_stmt 0 view .LVU459
 2427 02a2 104B     		ldr	r3, .L163+16
 542:src/lcd.c     ****   lcd_setXY (t20, 285, Y_ANNUNC-50);
 2428              		.loc 1 542 3 view .LVU460
 2429 02a4 106B     		ldr	r0, [r2, #48]
 543:src/lcd.c     ****   if (depth == 4) {
 2430              		.loc 1 543 3 view .LVU461
 2431 02a6 40F21D11 		movw	r1, #285
 2432 02aa 1922     		movs	r2, #25
 542:src/lcd.c     ****   lcd_setXY (t20, 285, Y_ANNUNC-50);
 2433              		.loc 1 542 12 view .LVU462
 2434 02ac 4474     		strb	r4, [r0, #17]
 543:src/lcd.c     ****   if (depth == 4) {
 2435              		.loc 1 543 3 is_stmt 1 view .LVU463
 2436 02ae 9847     		blx	r3
 2437              	.LVL233:
 544:src/lcd.c     ****     lcd_writeText(t20, "S:4");
 2438              		.loc 1 544 3 view .LVU464
 2439 02b0 FFF7FEFF 		bl	draw_BEG.part.0
 2440              	.LVL234:
 2441              	.L152:
 550:src/lcd.c     **** }
 2442              		.loc 1 550 3 view .LVU465
 2443              	.LBE60:
 2444              	.LBE59:
ARM GAS  /tmp/ccyuyqQY.s 			page 61


 498:src/lcd.c     **** 	  }
 2445              		.loc 1 498 6 view .LVU466
 498:src/lcd.c     **** 	  }
 2446              		.loc 1 498 16 is_stmt 0 view .LVU467
 2447 02b4 0423     		movs	r3, #4
 2448 02b6 85F88830 		strb	r3, [r5, #136]
 2449 02ba FCE6     		b	.L103
 2450              	.LVL235:
 2451              	.L133:
 498:src/lcd.c     **** 	  }
 2452              		.loc 1 498 16 view .LVU468
 2453              	.LBE77:
 509:src/lcd.c     ****       lcd_setXY (t20, 325, Y_ANNUNC-50);
 2454              		.loc 1 509 7 is_stmt 1 view .LVU469
 2455 02bc 084C     		ldr	r4, .L163+12
 2456              	.LVL236:
 510:src/lcd.c     ****       lcd_writeText(t20, "PGM");
 2457              		.loc 1 510 7 is_stmt 0 view .LVU470
 2458 02be 094D     		ldr	r5, .L163+16
 509:src/lcd.c     ****       lcd_setXY (t20, 325, Y_ANNUNC-50);
 2459              		.loc 1 509 7 view .LVU471
 2460 02c0 206B     		ldr	r0, [r4, #48]
 510:src/lcd.c     ****       lcd_writeText(t20, "PGM");
 2461              		.loc 1 510 7 view .LVU472
 2462 02c2 40F24511 		movw	r1, #325
 509:src/lcd.c     ****       lcd_setXY (t20, 325, Y_ANNUNC-50);
 2463              		.loc 1 509 16 view .LVU473
 2464 02c6 4374     		strb	r3, [r0, #17]
 510:src/lcd.c     ****       lcd_writeText(t20, "PGM");
 2465              		.loc 1 510 7 is_stmt 1 view .LVU474
 2466 02c8 1922     		movs	r2, #25
 2467 02ca A847     		blx	r5
 2468              	.LVL237:
 511:src/lcd.c     ****       return;
 2469              		.loc 1 511 7 view .LVU475
 2470 02cc 206B     		ldr	r0, [r4, #48]
 2471 02ce 084B     		ldr	r3, .L163+28
 2472 02d0 0A49     		ldr	r1, .L163+40
 2473 02d2 D2E7     		b	.L156
 2474              	.L164:
 2475              		.align	2
 2476              	.L163:
 2477 02d4 00000000 		.word	.LANCHOR0
 2478 02d8 398EE338 		.word	954437177
 2479 02dc 25499224 		.word	613566757
 2480 02e0 00200010 		.word	268443648
 2481 02e4 6D020008 		.word	134218349
 2482 02e8 ABAAAAAA 		.word	-1431655765
 2483 02ec 3D020008 		.word	134218301
 2484 02f0 7D020008 		.word	134218365
 2485 02f4 00000000 		.word	.LC7
 2486 02f8 00000000 		.word	main_ram
 2487 02fc 08000000 		.word	.LC8
 2488              	.LVL238:
 2489              	.L132:
 514:src/lcd.c     ****     case RAD:
 2490              		.loc 1 514 7 view .LVU476
ARM GAS  /tmp/ccyuyqQY.s 			page 62


 2491              	.LBB78:
 2492              	.LBI78:
 588:src/lcd.c     ****   t20->inv = inverse;
 2493              		.loc 1 588 6 view .LVU477
 2494              	.LBB79:
 589:src/lcd.c     ****   lcd_setXY (t20, 365, Y_ANNUNC-50);
 2495              		.loc 1 589 3 view .LVU478
 2496 0300 394C     		ldr	r4, .L165
 2497              	.LVL239:
 590:src/lcd.c     ****   lcd_writeText(t20, "RUN");
 2498              		.loc 1 590 3 is_stmt 0 view .LVU479
 2499 0302 3A4E     		ldr	r6, .L165+4
 589:src/lcd.c     ****   lcd_setXY (t20, 365, Y_ANNUNC-50);
 2500              		.loc 1 589 3 view .LVU480
 2501 0304 206B     		ldr	r0, [r4, #48]
 589:src/lcd.c     ****   lcd_setXY (t20, 365, Y_ANNUNC-50);
 2502              		.loc 1 589 12 view .LVU481
 2503 0306 DDB2     		uxtb	r5, r3
 589:src/lcd.c     ****   lcd_setXY (t20, 365, Y_ANNUNC-50);
 2504              		.loc 1 589 12 view .LVU482
 2505 0308 4574     		strb	r5, [r0, #17]
 590:src/lcd.c     ****   lcd_writeText(t20, "RUN");
 2506              		.loc 1 590 3 is_stmt 1 view .LVU483
 2507 030a 40F26D11 		movw	r1, #365
 2508 030e 1922     		movs	r2, #25
 2509 0310 B047     		blx	r6
 2510              	.LVL240:
 591:src/lcd.c     ****   //  t20->inv = 0;
 2511              		.loc 1 591 3 view .LVU484
 2512 0312 206B     		ldr	r0, [r4, #48]
 2513 0314 364B     		ldr	r3, .L165+8
 2514 0316 3749     		ldr	r1, .L165+12
 2515 0318 9847     		blx	r3
 2516              	.LVL241:
 2517              	.L140:
 591:src/lcd.c     ****   //  t20->inv = 0;
 2518              		.loc 1 591 3 is_stmt 0 view .LVU485
 2519              	.LBE79:
 2520              	.LBE78:
 516:src/lcd.c     ****       lcd_setXY (t20, 285, Y_ANNUNC-30);
 2521              		.loc 1 516 7 is_stmt 1 view .LVU486
 2522 031a 334C     		ldr	r4, .L165
 517:src/lcd.c     ****       lcd_writeText(t20, "RAD");
 2523              		.loc 1 517 7 is_stmt 0 view .LVU487
 2524 031c 334B     		ldr	r3, .L165+4
 516:src/lcd.c     ****       lcd_setXY (t20, 285, Y_ANNUNC-30);
 2525              		.loc 1 516 7 view .LVU488
 2526 031e 206B     		ldr	r0, [r4, #48]
 517:src/lcd.c     ****       lcd_writeText(t20, "RAD");
 2527              		.loc 1 517 7 view .LVU489
 2528 0320 40F21D11 		movw	r1, #285
 516:src/lcd.c     ****       lcd_setXY (t20, 285, Y_ANNUNC-30);
 2529              		.loc 1 516 16 view .LVU490
 2530 0324 4574     		strb	r5, [r0, #17]
 517:src/lcd.c     ****       lcd_writeText(t20, "RAD");
 2531              		.loc 1 517 7 is_stmt 1 view .LVU491
 2532 0326 2D22     		movs	r2, #45
ARM GAS  /tmp/ccyuyqQY.s 			page 63


 2533 0328 9847     		blx	r3
 2534              	.LVL242:
 518:src/lcd.c     ****       return;
 2535              		.loc 1 518 7 view .LVU492
 2536 032a 206B     		ldr	r0, [r4, #48]
 2537 032c 304B     		ldr	r3, .L165+8
 2538 032e 3249     		ldr	r1, .L165+16
 2539 0330 A3E7     		b	.L156
 2540              	.LVL243:
 2541              	.L131:
 518:src/lcd.c     ****       return;
 2542              		.loc 1 518 7 is_stmt 0 view .LVU493
 2543 0332 DDB2     		uxtb	r5, r3
 2544 0334 F1E7     		b	.L140
 2545              	.L130:
 521:src/lcd.c     ****       lcd_setXY (t20, 325, Y_ANNUNC-30);
 2546              		.loc 1 521 7 is_stmt 1 view .LVU494
 2547 0336 2C4C     		ldr	r4, .L165
 2548              	.LVL244:
 522:src/lcd.c     ****       lcd_writeText(t20, "DEG");
 2549              		.loc 1 522 7 is_stmt 0 view .LVU495
 2550 0338 2C4D     		ldr	r5, .L165+4
 521:src/lcd.c     ****       lcd_setXY (t20, 325, Y_ANNUNC-30);
 2551              		.loc 1 521 7 view .LVU496
 2552 033a 206B     		ldr	r0, [r4, #48]
 522:src/lcd.c     ****       lcd_writeText(t20, "DEG");
 2553              		.loc 1 522 7 view .LVU497
 2554 033c 40F24511 		movw	r1, #325
 521:src/lcd.c     ****       lcd_setXY (t20, 325, Y_ANNUNC-30);
 2555              		.loc 1 521 16 view .LVU498
 2556 0340 4374     		strb	r3, [r0, #17]
 522:src/lcd.c     ****       lcd_writeText(t20, "DEG");
 2557              		.loc 1 522 7 is_stmt 1 view .LVU499
 2558 0342 2D22     		movs	r2, #45
 2559 0344 A847     		blx	r5
 2560              	.LVL245:
 523:src/lcd.c     ****       return;
 2561              		.loc 1 523 7 view .LVU500
 2562 0346 206B     		ldr	r0, [r4, #48]
 2563 0348 294B     		ldr	r3, .L165+8
 2564 034a 2C49     		ldr	r1, .L165+20
 2565 034c 95E7     		b	.L156
 2566              	.LVL246:
 2567              	.L123:
 413:src/lcd.c     ****       return;
 2568              		.loc 1 413 7 view .LVU501
 2569              	.LBB80:
 2570              	.LBI80:
 160:src/lcd.c     ****   exp_right_side(i, j, col);
 2571              		.loc 1 160 6 view .LVU502
 2572              	.LBB81:
 161:src/lcd.c     **** }
 2573              		.loc 1 161 3 view .LVU503
 2574 034e 2246     		mov	r2, r4
 2575 0350 8221     		movs	r1, #130
 2576              	.LVL247:
 2577              	.L159:
ARM GAS  /tmp/ccyuyqQY.s 			page 64


 161:src/lcd.c     **** }
 2578              		.loc 1 161 3 is_stmt 0 view .LVU504
 2579              	.LBE81:
 2580              	.LBE80:
 539:src/lcd.c     **** 
 2581              		.loc 1 539 1 view .LVU505
 2582 0352 02B0     		add	sp, sp, #8
 2583              		.cfi_remember_state
 2584              		.cfi_def_cfa_offset 16
 2585              		@ sp needed
 2586 0354 BDE87040 		pop	{r4, r5, r6, lr}
 2587              		.cfi_restore 14
 2588              		.cfi_restore 6
 2589              		.cfi_restore 5
 2590              		.cfi_restore 4
 2591              		.cfi_def_cfa_offset 0
 2592              	.LVL248:
 2593              	.LBB82:
 2594              	.LBB83:
 164:src/lcd.c     **** }
 2595              		.loc 1 164 3 view .LVU506
 2596 0358 FFF7FEBF 		b	exp_right_side
 2597              	.LVL249:
 2598              	.L122:
 2599              		.cfi_restore_state
 164:src/lcd.c     **** }
 2600              		.loc 1 164 3 view .LVU507
 2601              	.LBE83:
 2602              	.LBE82:
 416:src/lcd.c     ****       return;
 2603              		.loc 1 416 7 is_stmt 1 view .LVU508
 2604              	.LBB85:
 2605              	.LBI85:
 151:src/lcd.c     ****   exp_left_side(i, j+11, col);
 2606              		.loc 1 151 6 view .LVU509
 2607              	.LBB86:
 152:src/lcd.c     **** }
 2608              		.loc 1 152 3 view .LVU510
 2609 035c 2246     		mov	r2, r4
 2610 035e 8D21     		movs	r1, #141
 2611              	.LVL250:
 2612              	.L157:
 152:src/lcd.c     **** }
 2613              		.loc 1 152 3 is_stmt 0 view .LVU511
 2614              	.LBE86:
 2615              	.LBE85:
 539:src/lcd.c     **** 
 2616              		.loc 1 539 1 view .LVU512
 2617 0360 02B0     		add	sp, sp, #8
 2618              		.cfi_remember_state
 2619              		.cfi_def_cfa_offset 16
 2620              		@ sp needed
 2621 0362 BDE87040 		pop	{r4, r5, r6, lr}
 2622              		.cfi_restore 14
 2623              		.cfi_restore 6
 2624              		.cfi_restore 5
 2625              		.cfi_restore 4
ARM GAS  /tmp/ccyuyqQY.s 			page 65


 2626              		.cfi_def_cfa_offset 0
 2627              	.LVL251:
 2628              	.LBB88:
 2629              	.LBB87:
 152:src/lcd.c     **** }
 2630              		.loc 1 152 3 view .LVU513
 2631 0366 FFF7FEBF 		b	exp_left_side
 2632              	.LVL252:
 2633              	.L121:
 2634              		.cfi_restore_state
 152:src/lcd.c     **** }
 2635              		.loc 1 152 3 view .LVU514
 2636              	.LBE87:
 2637              	.LBE88:
 419:src/lcd.c     ****       return;
 2638              		.loc 1 419 7 is_stmt 1 view .LVU515
 2639 036a 2246     		mov	r2, r4
 2640 036c 8221     		movs	r1, #130
 539:src/lcd.c     **** 
 2641              		.loc 1 539 1 is_stmt 0 view .LVU516
 2642 036e 02B0     		add	sp, sp, #8
 2643              		.cfi_remember_state
 2644              		.cfi_def_cfa_offset 16
 2645              		@ sp needed
 2646 0370 BDE87040 		pop	{r4, r5, r6, lr}
 2647              		.cfi_restore 14
 2648              		.cfi_restore 6
 2649              		.cfi_restore 5
 2650              		.cfi_restore 4
 2651              		.cfi_def_cfa_offset 0
 2652              	.LVL253:
 419:src/lcd.c     ****       return;
 2653              		.loc 1 419 7 view .LVU517
 2654 0374 FFF7FEBF 		b	exp_bottom
 2655              	.LVL254:
 2656              	.L119:
 2657              		.cfi_restore_state
 422:src/lcd.c     ****       return;
 2658              		.loc 1 422 7 is_stmt 1 view .LVU518
 2659              	.LBB89:
 2660              	.LBI82:
 163:src/lcd.c     ****   exp_right_side(i-1, j+11, col);
 2661              		.loc 1 163 6 view .LVU519
 2662              	.LBB84:
 164:src/lcd.c     **** }
 2663              		.loc 1 164 3 view .LVU520
 2664 0378 2246     		mov	r2, r4
 2665 037a 03F25710 		addw	r0, r3, #343
 2666              	.LVL255:
 164:src/lcd.c     **** }
 2667              		.loc 1 164 3 is_stmt 0 view .LVU521
 2668 037e 8D21     		movs	r1, #141
 2669 0380 E7E7     		b	.L159
 2670              	.LVL256:
 2671              	.L125:
 164:src/lcd.c     **** }
 2672              		.loc 1 164 3 view .LVU522
ARM GAS  /tmp/ccyuyqQY.s 			page 66


 2673              	.LBE84:
 2674              	.LBE89:
 407:src/lcd.c     ****       return;
 2675              		.loc 1 407 7 is_stmt 1 view .LVU523
 2676              	.LBB90:
 2677              	.LBI90:
 148:src/lcd.c     ****   exp_left_side(i+1, j, col);
 2678              		.loc 1 148 6 view .LVU524
 2679              	.LBB91:
 149:src/lcd.c     **** }
 2680              		.loc 1 149 3 view .LVU525
 2681 0382 2246     		mov	r2, r4
 2682 0384 03F25910 		addw	r0, r3, #345
 2683              	.LVL257:
 149:src/lcd.c     **** }
 2684              		.loc 1 149 3 is_stmt 0 view .LVU526
 2685 0388 8221     		movs	r1, #130
 2686 038a E9E7     		b	.L157
 2687              	.LVL258:
 2688              	.L124:
 149:src/lcd.c     **** }
 2689              		.loc 1 149 3 view .LVU527
 2690              	.LBE91:
 2691              	.LBE90:
 410:src/lcd.c     ****       return;
 2692              		.loc 1 410 7 is_stmt 1 view .LVU528
 2693 038c 2246     		mov	r2, r4
 2694 038e 8221     		movs	r1, #130
 2695 0390 24E7     		b	.L158
 2696              	.LVL259:
 2697              	.L162:
 532:src/lcd.c     ****     return;
 2698              		.loc 1 532 5 view .LVU529
 532:src/lcd.c     ****     return;
 2699              		.loc 1 532 74 is_stmt 0 view .LVU530
 2700 0392 1B4B     		ldr	r3, .L165+24
 532:src/lcd.c     ****     return;
 2701              		.loc 1 532 5 view .LVU531
 2702 0394 0094     		str	r4, [sp]
 532:src/lcd.c     ****     return;
 2703              		.loc 1 532 39 view .LVU532
 2704 0396 8E38     		subs	r0, r0, #142
 2705              	.LVL260:
 532:src/lcd.c     ****     return;
 2706              		.loc 1 532 74 view .LVU533
 2707 0398 A3FB0023 		umull	r2, r3, r3, r0
 2708 039c 9B08     		lsrs	r3, r3, #2
 2709 039e 03EB4302 		add	r2, r3, r3, lsl #1
 2710 03a2 A0EB4200 		sub	r0, r0, r2, lsl #1
 2711              	.LVL261:
 532:src/lcd.c     ****     return;
 2712              		.loc 1 532 77 view .LVU534
 2713 03a6 00EB4000 		add	r0, r0, r0, lsl #1
 2714 03aa 4100     		lsls	r1, r0, #1
 532:src/lcd.c     ****     return;
 2715              		.loc 1 532 35 view .LVU535
 2716 03ac 03EB8303 		add	r3, r3, r3, lsl #2
ARM GAS  /tmp/ccyuyqQY.s 			page 67


 532:src/lcd.c     ****     return;
 2717              		.loc 1 532 5 view .LVU536
 2718 03b0 03F11000 		add	r0, r3, #16
 2719 03b4 134C     		ldr	r4, .L165+28
 2720              	.LVL262:
 532:src/lcd.c     ****     return;
 2721              		.loc 1 532 5 view .LVU537
 2722 03b6 5431     		adds	r1, r1, #84
 2723 03b8 0523     		movs	r3, #5
 2724 03ba 0422     		movs	r2, #4
 2725 03bc A047     		blx	r4
 2726              	.LVL263:
 533:src/lcd.c     ****   }
 2727              		.loc 1 533 5 is_stmt 1 view .LVU538
 2728 03be 7AE6     		b	.L103
 2729              	.LVL264:
 2730              	.L160:
 2731              	.LBB92:
 482:src/lcd.c     **** 	    dots[BEG] = 7;
 2732              		.loc 1 482 4 view .LVU539
 482:src/lcd.c     **** 	    dots[BEG] = 7;
 2733              		.loc 1 482 7 is_stmt 0 view .LVU540
 2734 03c0 002A     		cmp	r2, #0
 2735 03c2 3FF477AF 		beq	.L152
 2736 03c6 73E6     		b	.L151
 2737              	.L145:
 496:src/lcd.c     **** 	    draw_BEG(4, 0);
 2738              		.loc 1 496 6 is_stmt 1 view .LVU541
 2739 03c8 0121     		movs	r1, #1
 2740 03ca 0820     		movs	r0, #8
 2741              	.LVL265:
 496:src/lcd.c     **** 	    draw_BEG(4, 0);
 2742              		.loc 1 496 6 is_stmt 0 view .LVU542
 2743 03cc FFF7FEFF 		bl	draw_BEG
 2744              	.LVL266:
 496:src/lcd.c     **** 	    draw_BEG(4, 0);
 2745              		.loc 1 496 6 view .LVU543
 2746 03d0 66E7     		b	.L150
 2747              	.LVL267:
 2748              	.L118:
 496:src/lcd.c     **** 	    draw_BEG(4, 0);
 2749              		.loc 1 496 6 view .LVU544
 2750              	.LBE92:
 404:src/lcd.c     ****       return;
 2751              		.loc 1 404 7 is_stmt 1 view .LVU545
 2752 03d2 2246     		mov	r2, r4
 2753 03d4 8221     		movs	r1, #130
 539:src/lcd.c     **** 
 2754              		.loc 1 539 1 is_stmt 0 view .LVU546
 2755 03d6 02B0     		add	sp, sp, #8
 2756              		@ sp needed
 2757 03d8 BDE87040 		pop	{r4, r5, r6, lr}
 2758              	.LVL268:
 404:src/lcd.c     ****       return;
 2759              		.loc 1 404 7 view .LVU547
 2760 03dc FFF7FEBF 		b	exp_top
 2761              	.LVL269:
ARM GAS  /tmp/ccyuyqQY.s 			page 68


 2762              	.L127:
 430:src/lcd.c     ****       return;
 2763              		.loc 1 430 7 is_stmt 1 view .LVU548
 2764 03e0 2246     		mov	r2, r4
 2765 03e2 8221     		movs	r1, #130
 2766 03e4 0120     		movs	r0, #1
 2767              	.LVL270:
 430:src/lcd.c     ****       return;
 2768              		.loc 1 430 7 is_stmt 0 view .LVU549
 2769 03e6 B9E6     		b	.L154
 2770              	.L166:
 2771              		.align	2
 2772              	.L165:
 2773 03e8 00200010 		.word	268443648
 2774 03ec 6D020008 		.word	134218349
 2775 03f0 7D020008 		.word	134218365
 2776 03f4 00000000 		.word	.LC4
 2777 03f8 0C000000 		.word	.LC9
 2778 03fc 10000000 		.word	.LC10
 2779 0400 ABAAAAAA 		.word	-1431655765
 2780 0404 3D020008 		.word	134218301
 2781              		.cfi_endproc
 2782              	.LFE26:
 2784              		.section	.text.set_dot,"ax",%progbits
 2785              		.align	1
 2786              		.p2align 2,,3
 2787              		.global	set_dot
 2788              		.syntax unified
 2789              		.thumb
 2790              		.thumb_func
 2791              		.fpu fpv4-sp-d16
 2793              	set_dot:
 2794              	.LVL271:
 2795              	.LFB0:
  39:src/lcd.c     ****   dots[n] |= 1;
 2796              		.loc 1 39 21 is_stmt 1 view -0
 2797              		.cfi_startproc
 2798              		@ args = 0, pretend = 0, frame = 0
 2799              		@ frame_needed = 0, uses_anonymous_args = 0
  40:src/lcd.c     ****   if (dots[n]&2) return;
 2800              		.loc 1 40 3 view .LVU551
  39:src/lcd.c     ****   dots[n] |= 1;
 2801              		.loc 1 39 21 is_stmt 0 view .LVU552
 2802 0000 38B5     		push	{r3, r4, r5, lr}
 2803              		.cfi_def_cfa_offset 16
 2804              		.cfi_offset 3, -16
 2805              		.cfi_offset 4, -12
 2806              		.cfi_offset 5, -8
 2807              		.cfi_offset 14, -4
  40:src/lcd.c     ****   if (dots[n]&2) return;
 2808              		.loc 1 40 11 view .LVU553
 2809 0002 074D     		ldr	r5, .L171
 2810 0004 2B5C     		ldrb	r3, [r5, r0]	@ zero_extendqisi2
 2811 0006 43F00102 		orr	r2, r3, #1
  41:src/lcd.c     ****   draw_dot(n);
 2812              		.loc 1 41 6 view .LVU554
 2813 000a 9B07     		lsls	r3, r3, #30
ARM GAS  /tmp/ccyuyqQY.s 			page 69


  40:src/lcd.c     ****   if (dots[n]&2) return;
 2814              		.loc 1 40 11 view .LVU555
 2815 000c 2A54     		strb	r2, [r5, r0]
  41:src/lcd.c     ****   draw_dot(n);
 2816              		.loc 1 41 3 is_stmt 1 view .LVU556
  41:src/lcd.c     ****   draw_dot(n);
 2817              		.loc 1 41 6 is_stmt 0 view .LVU557
 2818 000e 00D5     		bpl	.L170
  44:src/lcd.c     **** void clr_dot(int n) {
 2819              		.loc 1 44 1 view .LVU558
 2820 0010 38BD     		pop	{r3, r4, r5, pc}
 2821              	.L170:
 2822 0012 0446     		mov	r4, r0
  42:src/lcd.c     ****   dots[n] = 3; // 11;
 2823              		.loc 1 42 3 is_stmt 1 view .LVU559
 2824 0014 FFF7FEFF 		bl	draw_dot
 2825              	.LVL272:
  43:src/lcd.c     **** }
 2826              		.loc 1 43 3 view .LVU560
  43:src/lcd.c     **** }
 2827              		.loc 1 43 11 is_stmt 0 view .LVU561
 2828 0018 0323     		movs	r3, #3
 2829 001a 2B55     		strb	r3, [r5, r4]
  44:src/lcd.c     **** void clr_dot(int n) {
 2830              		.loc 1 44 1 view .LVU562
 2831 001c 38BD     		pop	{r3, r4, r5, pc}
 2832              	.LVL273:
 2833              	.L172:
  44:src/lcd.c     **** void clr_dot(int n) {
 2834              		.loc 1 44 1 view .LVU563
 2835 001e 00BF     		.align	2
 2836              	.L171:
 2837 0020 00000000 		.word	.LANCHOR0
 2838              		.cfi_endproc
 2839              	.LFE0:
 2841              		.section	.text.clr_dot,"ax",%progbits
 2842              		.align	1
 2843              		.p2align 2,,3
 2844              		.global	clr_dot
 2845              		.syntax unified
 2846              		.thumb
 2847              		.thumb_func
 2848              		.fpu fpv4-sp-d16
 2850              	clr_dot:
 2851              	.LVL274:
 2852              	.LFB1:
  45:src/lcd.c     ****   dots[n] &= ~1;
 2853              		.loc 1 45 21 is_stmt 1 view -0
 2854              		.cfi_startproc
 2855              		@ args = 0, pretend = 0, frame = 0
 2856              		@ frame_needed = 0, uses_anonymous_args = 0
  46:src/lcd.c     ****   if ( !(dots[n]&2)) return;
 2857              		.loc 1 46 3 view .LVU565
  45:src/lcd.c     ****   dots[n] &= ~1;
 2858              		.loc 1 45 21 is_stmt 0 view .LVU566
 2859 0000 38B5     		push	{r3, r4, r5, lr}
 2860              		.cfi_def_cfa_offset 16
ARM GAS  /tmp/ccyuyqQY.s 			page 70


 2861              		.cfi_offset 3, -16
 2862              		.cfi_offset 4, -12
 2863              		.cfi_offset 5, -8
 2864              		.cfi_offset 14, -4
  46:src/lcd.c     ****   if ( !(dots[n]&2)) return;
 2865              		.loc 1 46 11 view .LVU567
 2866 0002 074D     		ldr	r5, .L180
 2867 0004 2B5C     		ldrb	r3, [r5, r0]	@ zero_extendqisi2
 2868 0006 23F00102 		bic	r2, r3, #1
  47:src/lcd.c     ****   draw_dot(n);
 2869              		.loc 1 47 6 view .LVU568
 2870 000a 9B07     		lsls	r3, r3, #30
  46:src/lcd.c     ****   if ( !(dots[n]&2)) return;
 2871              		.loc 1 46 11 view .LVU569
 2872 000c 2A54     		strb	r2, [r5, r0]
  47:src/lcd.c     ****   draw_dot(n);
 2873              		.loc 1 47 3 is_stmt 1 view .LVU570
  47:src/lcd.c     ****   draw_dot(n);
 2874              		.loc 1 47 6 is_stmt 0 view .LVU571
 2875 000e 00D4     		bmi	.L179
  50:src/lcd.c     **** 
 2876              		.loc 1 50 1 view .LVU572
 2877 0010 38BD     		pop	{r3, r4, r5, pc}
 2878              	.L179:
 2879 0012 0446     		mov	r4, r0
  48:src/lcd.c     ****   dots[n] = 0; // =0 would work too.
 2880              		.loc 1 48 3 is_stmt 1 view .LVU573
 2881 0014 FFF7FEFF 		bl	draw_dot
 2882              	.LVL275:
  49:src/lcd.c     **** }
 2883              		.loc 1 49 3 view .LVU574
  49:src/lcd.c     **** }
 2884              		.loc 1 49 11 is_stmt 0 view .LVU575
 2885 0018 0023     		movs	r3, #0
 2886 001a 2B55     		strb	r3, [r5, r4]
  50:src/lcd.c     **** 
 2887              		.loc 1 50 1 view .LVU576
 2888 001c 38BD     		pop	{r3, r4, r5, pc}
 2889              	.LVL276:
 2890              	.L181:
  50:src/lcd.c     **** 
 2891              		.loc 1 50 1 view .LVU577
 2892 001e 00BF     		.align	2
 2893              	.L180:
 2894 0020 00000000 		.word	.LANCHOR0
 2895              		.cfi_endproc
 2896              	.LFE1:
 2898              		.section	.text.reset_disp,"ax",%progbits
 2899              		.align	1
 2900              		.p2align 2,,3
 2901              		.global	reset_disp
 2902              		.syntax unified
 2903              		.thumb
 2904              		.thumb_func
 2905              		.fpu fpv4-sp-d16
 2907              	reset_disp:
 2908              	.LFB4:
ARM GAS  /tmp/ccyuyqQY.s 			page 71


  62:src/lcd.c     ****   clr_dot(STO_annun); // gets turned back on if needed;
 2909              		.loc 1 62 23 is_stmt 1 view -0
 2910              		.cfi_startproc
 2911              		@ args = 0, pretend = 0, frame = 0
 2912              		@ frame_needed = 0, uses_anonymous_args = 0
  63:src/lcd.c     ****   int rcl = is_dot(RCL_annun);
 2913              		.loc 1 63 3 view .LVU579
 2914              	.LVL277:
 2915              	.LBB93:
 2916              	.LBI93:
  45:src/lcd.c     ****   dots[n] &= ~1;
 2917              		.loc 1 45 6 view .LVU580
 2918              	.LBB94:
  46:src/lcd.c     ****   if ( !(dots[n]&2)) return;
 2919              		.loc 1 46 3 view .LVU581
 2920              	.LBE94:
 2921              	.LBE93:
  62:src/lcd.c     ****   clr_dot(STO_annun); // gets turned back on if needed;
 2922              		.loc 1 62 23 is_stmt 0 view .LVU582
 2923 0000 70B5     		push	{r4, r5, r6, lr}
 2924              		.cfi_def_cfa_offset 16
 2925              		.cfi_offset 4, -16
 2926              		.cfi_offset 5, -12
 2927              		.cfi_offset 6, -8
 2928              		.cfi_offset 14, -4
 2929              	.LBB96:
 2930              	.LBB95:
  46:src/lcd.c     ****   if ( !(dots[n]&2)) return;
 2931              		.loc 1 46 11 view .LVU583
 2932 0002 1C4C     		ldr	r4, .L190
 2933 0004 94F88930 		ldrb	r3, [r4, #137]	@ zero_extendqisi2
 2934 0008 23F00102 		bic	r2, r3, #1
  47:src/lcd.c     ****   draw_dot(n);
 2935              		.loc 1 47 6 view .LVU584
 2936 000c 9B07     		lsls	r3, r3, #30
  46:src/lcd.c     ****   if ( !(dots[n]&2)) return;
 2937              		.loc 1 46 11 view .LVU585
 2938 000e 84F88920 		strb	r2, [r4, #137]
  47:src/lcd.c     ****   draw_dot(n);
 2939              		.loc 1 47 3 is_stmt 1 view .LVU586
  47:src/lcd.c     ****   draw_dot(n);
 2940              		.loc 1 47 6 is_stmt 0 view .LVU587
 2941 0012 05D5     		bpl	.L183
  48:src/lcd.c     ****   dots[n] = 0; // =0 would work too.
 2942              		.loc 1 48 3 is_stmt 1 view .LVU588
 2943 0014 8920     		movs	r0, #137
 2944 0016 FFF7FEFF 		bl	draw_dot
 2945              	.LVL278:
  49:src/lcd.c     **** }
 2946              		.loc 1 49 3 view .LVU589
  49:src/lcd.c     **** }
 2947              		.loc 1 49 11 is_stmt 0 view .LVU590
 2948 001a 0023     		movs	r3, #0
 2949 001c 84F88930 		strb	r3, [r4, #137]
 2950              	.L183:
 2951              	.LVL279:
  49:src/lcd.c     **** }
ARM GAS  /tmp/ccyuyqQY.s 			page 72


 2952              		.loc 1 49 11 view .LVU591
 2953              	.LBE95:
 2954              	.LBE96:
  64:src/lcd.c     ****   int bat = is_dot(BATTERY);
 2955              		.loc 1 64 3 is_stmt 1 view .LVU592
 2956              	.LBB97:
 2957              	.LBI97:
  52:src/lcd.c     **** 	return dots[n]&1;
 2958              		.loc 1 52 5 view .LVU593
 2959              	.LBB98:
  53:src/lcd.c     **** }
 2960              		.loc 1 53 2 view .LVU594
  53:src/lcd.c     **** }
 2961              		.loc 1 53 16 is_stmt 0 view .LVU595
 2962 0020 94F88A10 		ldrb	r1, [r4, #138]	@ zero_extendqisi2
 2963              	.LBE98:
 2964              	.LBE97:
 2965              	.LBB100:
 2966              	.LBB101:
 2967 0024 94F88760 		ldrb	r6, [r4, #135]	@ zero_extendqisi2
 2968              	.LBE101:
 2969              	.LBE100:
 2970              	.LBB103:
 2971              	.LBB104:
 2972 0028 94F88450 		ldrb	r5, [r4, #132]	@ zero_extendqisi2
 2973 002c 124B     		ldr	r3, .L190+4
 2974              	.LBE104:
 2975              	.LBE103:
 2976              	.LBB106:
 2977              	.LBB107:
 2978 002e 94F88D40 		ldrb	r4, [r4, #141]	@ zero_extendqisi2
 2979              	.LBE107:
 2980              	.LBE106:
 2981              	.LBB109:
 2982              	.LBB99:
 2983 0032 01F00101 		and	r1, r1, #1
 2984              	.LVL280:
  53:src/lcd.c     **** }
 2985              		.loc 1 53 16 view .LVU596
 2986              	.LBE99:
 2987              	.LBE109:
  65:src/lcd.c     ****   int leq = is_dot(LIT_EQ);
 2988              		.loc 1 65 3 is_stmt 1 view .LVU597
 2989              	.LBB110:
 2990              	.LBI100:
  52:src/lcd.c     **** 	return dots[n]&1;
 2991              		.loc 1 52 5 view .LVU598
 2992              	.LBB102:
  53:src/lcd.c     **** }
 2993              		.loc 1 53 2 view .LVU599
  53:src/lcd.c     **** }
 2994              		.loc 1 53 16 is_stmt 0 view .LVU600
 2995 0036 06F00106 		and	r6, r6, #1
 2996              	.LVL281:
  53:src/lcd.c     **** }
 2997              		.loc 1 53 16 view .LVU601
 2998              	.LBE102:
ARM GAS  /tmp/ccyuyqQY.s 			page 73


 2999              	.LBE110:
  66:src/lcd.c     ****   int rpn = is_dot(RPN);
 3000              		.loc 1 66 3 is_stmt 1 view .LVU602
 3001              	.LBB111:
 3002              	.LBI103:
  52:src/lcd.c     **** 	return dots[n]&1;
 3003              		.loc 1 52 5 view .LVU603
 3004              	.LBB105:
  53:src/lcd.c     **** }
 3005              		.loc 1 53 2 view .LVU604
  53:src/lcd.c     **** }
 3006              		.loc 1 53 16 is_stmt 0 view .LVU605
 3007 003a 05F00105 		and	r5, r5, #1
 3008              	.LVL282:
  53:src/lcd.c     **** }
 3009              		.loc 1 53 16 view .LVU606
 3010              	.LBE105:
 3011              	.LBE111:
  67:src/lcd.c     ****   int i;
 3012              		.loc 1 67 3 is_stmt 1 view .LVU607
 3013              	.LBB112:
 3014              	.LBI106:
  52:src/lcd.c     **** 	return dots[n]&1;
 3015              		.loc 1 52 5 view .LVU608
 3016              	.LBB108:
  53:src/lcd.c     **** }
 3017              		.loc 1 53 2 view .LVU609
  53:src/lcd.c     **** }
 3018              		.loc 1 53 16 is_stmt 0 view .LVU610
 3019 003e 04F00104 		and	r4, r4, #1
 3020              	.LVL283:
  53:src/lcd.c     **** }
 3021              		.loc 1 53 16 view .LVU611
 3022              	.LBE108:
 3023              	.LBE112:
  68:src/lcd.c     ****   for (i=0; i<TOP_DOTS; i++)
 3024              		.loc 1 68 3 is_stmt 1 view .LVU612
  69:src/lcd.c     ****     //		if (i != RCL_annun && i != BATTERY && i != LIT_EQ )
 3025              		.loc 1 69 3 view .LVU613
  69:src/lcd.c     ****     //		if (i != RCL_annun && i != BATTERY && i != LIT_EQ )
 3026              		.loc 1 69 13 view .LVU614
 3027 0042 03F55370 		add	r0, r3, #844
 3028              	.LVL284:
 3029              	.L184:
  72:src/lcd.c     ****   dot(RCL_annun, rcl);
 3030              		.loc 1 72 5 discriminator 3 view .LVU615
  72:src/lcd.c     ****   dot(RCL_annun, rcl);
 3031              		.loc 1 72 13 is_stmt 0 discriminator 3 view .LVU616
 3032 0046 13F8012F 		ldrb	r2, [r3, #1]!	@ zero_extendqisi2
 3033              	.LVL285:
  72:src/lcd.c     ****   dot(RCL_annun, rcl);
 3034              		.loc 1 72 13 discriminator 3 view .LVU617
 3035 004a 5200     		lsls	r2, r2, #1
  69:src/lcd.c     ****     //		if (i != RCL_annun && i != BATTERY && i != LIT_EQ )
 3036              		.loc 1 69 3 discriminator 3 view .LVU618
 3037 004c 9842     		cmp	r0, r3
  72:src/lcd.c     ****   dot(RCL_annun, rcl);
ARM GAS  /tmp/ccyuyqQY.s 			page 74


 3038              		.loc 1 72 13 discriminator 3 view .LVU619
 3039 004e 1A70     		strb	r2, [r3]
  69:src/lcd.c     ****     //		if (i != RCL_annun && i != BATTERY && i != LIT_EQ )
 3040              		.loc 1 69 25 is_stmt 1 discriminator 3 view .LVU620
 3041              	.LVL286:
  69:src/lcd.c     ****     //		if (i != RCL_annun && i != BATTERY && i != LIT_EQ )
 3042              		.loc 1 69 13 discriminator 3 view .LVU621
  69:src/lcd.c     ****     //		if (i != RCL_annun && i != BATTERY && i != LIT_EQ )
 3043              		.loc 1 69 3 is_stmt 0 discriminator 3 view .LVU622
 3044 0050 F9D1     		bne	.L184
  73:src/lcd.c     ****   dot(BATTERY, bat);
 3045              		.loc 1 73 3 is_stmt 1 view .LVU623
 3046 0052 8A20     		movs	r0, #138
 3047 0054 FFF7FEFF 		bl	dot
 3048              	.LVL287:
  74:src/lcd.c     ****   dot(LIT_EQ, leq);
 3049              		.loc 1 74 3 view .LVU624
 3050 0058 3146     		mov	r1, r6
 3051 005a 8720     		movs	r0, #135
 3052 005c FFF7FEFF 		bl	dot
 3053              	.LVL288:
  75:src/lcd.c     ****   dot(RPN, rpn);
 3054              		.loc 1 75 3 view .LVU625
 3055 0060 2946     		mov	r1, r5
 3056 0062 8420     		movs	r0, #132
 3057 0064 FFF7FEFF 		bl	dot
 3058              	.LVL289:
  76:src/lcd.c     **** }
 3059              		.loc 1 76 3 view .LVU626
 3060 0068 2146     		mov	r1, r4
 3061 006a 8D20     		movs	r0, #141
  77:src/lcd.c     **** 
 3062              		.loc 1 77 1 is_stmt 0 view .LVU627
 3063 006c BDE87040 		pop	{r4, r5, r6, lr}
 3064              		.cfi_restore 14
 3065              		.cfi_restore 6
 3066              		.cfi_restore 5
 3067              		.cfi_restore 4
 3068              		.cfi_def_cfa_offset 0
 3069              	.LVL290:
  76:src/lcd.c     **** }
 3070              		.loc 1 76 3 view .LVU628
 3071 0070 FFF7FEBF 		b	dot
 3072              	.LVL291:
 3073              	.L191:
  76:src/lcd.c     **** }
 3074              		.loc 1 76 3 view .LVU629
 3075              		.align	2
 3076              	.L190:
 3077 0074 00000000 		.word	.LANCHOR0
 3078 0078 FFFFFFFF 		.word	.LANCHOR0-1
 3079              		.cfi_endproc
 3080              	.LFE4:
 3082              		.section	.text.finish_7_segment,"ax",%progbits
 3083              		.align	1
 3084              		.p2align 2,,3
 3085              		.global	finish_7_segment
ARM GAS  /tmp/ccyuyqQY.s 			page 75


 3086              		.syntax unified
 3087              		.thumb
 3088              		.thumb_func
 3089              		.fpu fpv4-sp-d16
 3091              	finish_7_segment:
 3092              	.LFB29:
 562:src/lcd.c     ****   for (int i = 0; i <= EXP_SIGN; ++i) {
 3093              		.loc 1 562 29 is_stmt 1 view -0
 3094              		.cfi_startproc
 3095              		@ args = 0, pretend = 0, frame = 0
 3096              		@ frame_needed = 0, uses_anonymous_args = 0
 563:src/lcd.c     ****     if ((dots[i]&3) == 2) clr_dot(i);
 3097              		.loc 1 563 3 view .LVU631
 3098              	.LBB113:
 563:src/lcd.c     ****     if ((dots[i]&3) == 2) clr_dot(i);
 3099              		.loc 1 563 8 view .LVU632
 3100              	.LVL292:
 563:src/lcd.c     ****     if ((dots[i]&3) == 2) clr_dot(i);
 3101              		.loc 1 563 19 view .LVU633
 3102              	.LBE113:
 562:src/lcd.c     ****   for (int i = 0; i <= EXP_SIGN; ++i) {
 3103              		.loc 1 562 29 is_stmt 0 view .LVU634
 3104 0000 F8B5     		push	{r3, r4, r5, r6, r7, lr}
 3105              		.cfi_def_cfa_offset 24
 3106              		.cfi_offset 3, -24
 3107              		.cfi_offset 4, -20
 3108              		.cfi_offset 5, -16
 3109              		.cfi_offset 6, -12
 3110              		.cfi_offset 7, -8
 3111              		.cfi_offset 14, -4
 3112 0002 0D4C     		ldr	r4, .L203
 3113              	.LBB120:
 3114              	.LBB114:
 3115              	.LBB115:
  49:src/lcd.c     **** }
 3116              		.loc 1 49 11 view .LVU635
 3117 0004 0027     		movs	r7, #0
 3118 0006 04F18306 		add	r6, r4, #131
 3119 000a 6542     		rsbs	r5, r4, #0
 3120 000c 01E0     		b	.L196
 3121              	.LVL293:
 3122              	.L194:
  49:src/lcd.c     **** }
 3123              		.loc 1 49 11 view .LVU636
 3124              	.LBE115:
 3125              	.LBE114:
 563:src/lcd.c     ****     if ((dots[i]&3) == 2) clr_dot(i);
 3126              		.loc 1 563 34 is_stmt 1 discriminator 2 view .LVU637
 563:src/lcd.c     ****     if ((dots[i]&3) == 2) clr_dot(i);
 3127              		.loc 1 563 19 discriminator 2 view .LVU638
 563:src/lcd.c     ****     if ((dots[i]&3) == 2) clr_dot(i);
 3128              		.loc 1 563 3 is_stmt 0 discriminator 2 view .LVU639
 3129 000e B442     		cmp	r4, r6
 3130 0010 10D0     		beq	.L202
 3131              	.LVL294:
 3132              	.L196:
 563:src/lcd.c     ****     if ((dots[i]&3) == 2) clr_dot(i);
ARM GAS  /tmp/ccyuyqQY.s 			page 76


 3133              		.loc 1 563 3 discriminator 2 view .LVU640
 3134 0012 2819     		adds	r0, r5, r4
 3135              	.LVL295:
 564:src/lcd.c     ****   }
 3136              		.loc 1 564 5 is_stmt 1 view .LVU641
 564:src/lcd.c     ****   }
 3137              		.loc 1 564 14 is_stmt 0 view .LVU642
 3138 0014 14F8013F 		ldrb	r3, [r4, #1]!	@ zero_extendqisi2
 564:src/lcd.c     ****   }
 3139              		.loc 1 564 8 view .LVU643
 3140 0018 03F00302 		and	r2, r3, #3
 3141 001c 022A     		cmp	r2, #2
 3142 001e F6D1     		bne	.L194
 564:src/lcd.c     ****   }
 3143              		.loc 1 564 27 is_stmt 1 view .LVU644
 3144              	.LVL296:
 3145              	.LBB118:
 3146              	.LBI114:
  45:src/lcd.c     ****   dots[n] &= ~1;
 3147              		.loc 1 45 6 view .LVU645
 3148              	.LBB116:
  46:src/lcd.c     ****   if ( !(dots[n]&2)) return;
 3149              		.loc 1 46 3 view .LVU646
  48:src/lcd.c     ****   dots[n] = 0; // =0 would work too.
 3150              		.loc 1 48 3 view .LVU647
  46:src/lcd.c     ****   if ( !(dots[n]&2)) return;
 3151              		.loc 1 46 11 is_stmt 0 view .LVU648
 3152 0020 23F00102 		bic	r2, r3, #1
  47:src/lcd.c     ****   draw_dot(n);
 3153              		.loc 1 47 6 view .LVU649
 3154 0024 9B07     		lsls	r3, r3, #30
  46:src/lcd.c     ****   if ( !(dots[n]&2)) return;
 3155              		.loc 1 46 11 view .LVU650
 3156 0026 2270     		strb	r2, [r4]
  47:src/lcd.c     ****   draw_dot(n);
 3157              		.loc 1 47 3 is_stmt 1 view .LVU651
  47:src/lcd.c     ****   draw_dot(n);
 3158              		.loc 1 47 6 is_stmt 0 view .LVU652
 3159 0028 F1D5     		bpl	.L194
  48:src/lcd.c     ****   dots[n] = 0; // =0 would work too.
 3160              		.loc 1 48 3 view .LVU653
 3161 002a FFF7FEFF 		bl	draw_dot
 3162              	.LVL297:
  49:src/lcd.c     **** }
 3163              		.loc 1 49 3 is_stmt 1 view .LVU654
 3164              	.LBE116:
 3165              	.LBE118:
 563:src/lcd.c     ****     if ((dots[i]&3) == 2) clr_dot(i);
 3166              		.loc 1 563 3 is_stmt 0 view .LVU655
 3167 002e B442     		cmp	r4, r6
 3168              	.LBB119:
 3169              	.LBB117:
  49:src/lcd.c     **** }
 3170              		.loc 1 49 11 view .LVU656
 3171 0030 2770     		strb	r7, [r4]
 3172              	.LVL298:
  49:src/lcd.c     **** }
ARM GAS  /tmp/ccyuyqQY.s 			page 77


 3173              		.loc 1 49 11 view .LVU657
 3174              	.LBE117:
 3175              	.LBE119:
 563:src/lcd.c     ****     if ((dots[i]&3) == 2) clr_dot(i);
 3176              		.loc 1 563 34 is_stmt 1 view .LVU658
 563:src/lcd.c     ****     if ((dots[i]&3) == 2) clr_dot(i);
 3177              		.loc 1 563 19 view .LVU659
 563:src/lcd.c     ****     if ((dots[i]&3) == 2) clr_dot(i);
 3178              		.loc 1 563 3 is_stmt 0 view .LVU660
 3179 0032 EED1     		bne	.L196
 3180              	.LVL299:
 3181              	.L202:
 563:src/lcd.c     ****     if ((dots[i]&3) == 2) clr_dot(i);
 3182              		.loc 1 563 3 view .LVU661
 3183              	.LBE120:
 566:src/lcd.c     **** 
 3184              		.loc 1 566 1 view .LVU662
 3185 0034 F8BD     		pop	{r3, r4, r5, r6, r7, pc}
 3186              	.L204:
 3187 0036 00BF     		.align	2
 3188              	.L203:
 3189 0038 FFFFFFFF 		.word	.LANCHOR0-1
 3190              		.cfi_endproc
 3191              	.LFE29:
 3193              		.section	.text.finish_top_row,"ax",%progbits
 3194              		.align	1
 3195              		.p2align 2,,3
 3196              		.global	finish_top_row
 3197              		.syntax unified
 3198              		.thumb
 3199              		.thumb_func
 3200              		.fpu fpv4-sp-d16
 3202              	finish_top_row:
 3203              	.LFB30:
 569:src/lcd.c     ****  for (int i = MB_TOP; i < TOP_DOTS; ++i) {
 3204              		.loc 1 569 27 is_stmt 1 view -0
 3205              		.cfi_startproc
 3206              		@ args = 0, pretend = 0, frame = 0
 3207              		@ frame_needed = 0, uses_anonymous_args = 0
 570:src/lcd.c     ****     if ((dots[i]&3) == 2) clr_dot(i);
 3208              		.loc 1 570 2 view .LVU664
 3209              	.LBB121:
 570:src/lcd.c     ****     if ((dots[i]&3) == 2) clr_dot(i);
 3210              		.loc 1 570 7 view .LVU665
 3211              	.LVL300:
 570:src/lcd.c     ****     if ((dots[i]&3) == 2) clr_dot(i);
 3212              		.loc 1 570 23 view .LVU666
 3213              	.LBE121:
 569:src/lcd.c     ****  for (int i = MB_TOP; i < TOP_DOTS; ++i) {
 3214              		.loc 1 569 27 is_stmt 0 view .LVU667
 3215 0000 F8B5     		push	{r3, r4, r5, r6, r7, lr}
 3216              		.cfi_def_cfa_offset 24
 3217              		.cfi_offset 3, -24
 3218              		.cfi_offset 4, -20
 3219              		.cfi_offset 5, -16
 3220              		.cfi_offset 6, -12
 3221              		.cfi_offset 7, -8
ARM GAS  /tmp/ccyuyqQY.s 			page 78


 3222              		.cfi_offset 14, -4
 3223 0002 0E4C     		ldr	r4, .L216
 3224 0004 C4F51275 		rsb	r5, r4, #584
 3225 0008 0235     		adds	r5, r5, #2
 3226 000a 04F58176 		add	r6, r4, #258
 3227              	.LBB128:
 3228              	.LBB122:
 3229              	.LBB123:
  49:src/lcd.c     **** }
 3230              		.loc 1 49 11 view .LVU668
 3231 000e 0027     		movs	r7, #0
 3232 0010 01E0     		b	.L209
 3233              	.LVL301:
 3234              	.L207:
  49:src/lcd.c     **** }
 3235              		.loc 1 49 11 view .LVU669
 3236              	.LBE123:
 3237              	.LBE122:
 570:src/lcd.c     ****     if ((dots[i]&3) == 2) clr_dot(i);
 3238              		.loc 1 570 37 is_stmt 1 discriminator 2 view .LVU670
 570:src/lcd.c     ****     if ((dots[i]&3) == 2) clr_dot(i);
 3239              		.loc 1 570 23 discriminator 2 view .LVU671
 570:src/lcd.c     ****     if ((dots[i]&3) == 2) clr_dot(i);
 3240              		.loc 1 570 2 is_stmt 0 discriminator 2 view .LVU672
 3241 0012 B442     		cmp	r4, r6
 3242 0014 10D0     		beq	.L215
 3243              	.LVL302:
 3244              	.L209:
 570:src/lcd.c     ****     if ((dots[i]&3) == 2) clr_dot(i);
 3245              		.loc 1 570 2 discriminator 2 view .LVU673
 3246 0016 2819     		adds	r0, r5, r4
 3247              	.LVL303:
 571:src/lcd.c     ****   }
 3248              		.loc 1 571 5 is_stmt 1 view .LVU674
 571:src/lcd.c     ****   }
 3249              		.loc 1 571 14 is_stmt 0 view .LVU675
 3250 0018 14F8013F 		ldrb	r3, [r4, #1]!	@ zero_extendqisi2
 571:src/lcd.c     ****   }
 3251              		.loc 1 571 8 view .LVU676
 3252 001c 03F00302 		and	r2, r3, #3
 3253 0020 022A     		cmp	r2, #2
 3254 0022 F6D1     		bne	.L207
 571:src/lcd.c     ****   }
 3255              		.loc 1 571 27 is_stmt 1 view .LVU677
 3256              	.LVL304:
 3257              	.LBB126:
 3258              	.LBI122:
  45:src/lcd.c     ****   dots[n] &= ~1;
 3259              		.loc 1 45 6 view .LVU678
 3260              	.LBB124:
  46:src/lcd.c     ****   if ( !(dots[n]&2)) return;
 3261              		.loc 1 46 3 view .LVU679
  48:src/lcd.c     ****   dots[n] = 0; // =0 would work too.
 3262              		.loc 1 48 3 view .LVU680
  46:src/lcd.c     ****   if ( !(dots[n]&2)) return;
 3263              		.loc 1 46 11 is_stmt 0 view .LVU681
 3264 0024 23F00102 		bic	r2, r3, #1
ARM GAS  /tmp/ccyuyqQY.s 			page 79


  47:src/lcd.c     ****   draw_dot(n);
 3265              		.loc 1 47 6 view .LVU682
 3266 0028 9B07     		lsls	r3, r3, #30
  46:src/lcd.c     ****   if ( !(dots[n]&2)) return;
 3267              		.loc 1 46 11 view .LVU683
 3268 002a 2270     		strb	r2, [r4]
  47:src/lcd.c     ****   draw_dot(n);
 3269              		.loc 1 47 3 is_stmt 1 view .LVU684
  47:src/lcd.c     ****   draw_dot(n);
 3270              		.loc 1 47 6 is_stmt 0 view .LVU685
 3271 002c F1D5     		bpl	.L207
  48:src/lcd.c     ****   dots[n] = 0; // =0 would work too.
 3272              		.loc 1 48 3 view .LVU686
 3273 002e FFF7FEFF 		bl	draw_dot
 3274              	.LVL305:
  49:src/lcd.c     **** }
 3275              		.loc 1 49 3 is_stmt 1 view .LVU687
 3276              	.LBE124:
 3277              	.LBE126:
 570:src/lcd.c     ****     if ((dots[i]&3) == 2) clr_dot(i);
 3278              		.loc 1 570 2 is_stmt 0 view .LVU688
 3279 0032 B442     		cmp	r4, r6
 3280              	.LBB127:
 3281              	.LBB125:
  49:src/lcd.c     **** }
 3282              		.loc 1 49 11 view .LVU689
 3283 0034 2770     		strb	r7, [r4]
 3284              	.LVL306:
  49:src/lcd.c     **** }
 3285              		.loc 1 49 11 view .LVU690
 3286              	.LBE125:
 3287              	.LBE127:
 570:src/lcd.c     ****     if ((dots[i]&3) == 2) clr_dot(i);
 3288              		.loc 1 570 37 is_stmt 1 view .LVU691
 570:src/lcd.c     ****     if ((dots[i]&3) == 2) clr_dot(i);
 3289              		.loc 1 570 23 view .LVU692
 570:src/lcd.c     ****     if ((dots[i]&3) == 2) clr_dot(i);
 3290              		.loc 1 570 2 is_stmt 0 view .LVU693
 3291 0036 EED1     		bne	.L209
 3292              	.LVL307:
 3293              	.L215:
 570:src/lcd.c     ****     if ((dots[i]&3) == 2) clr_dot(i);
 3294              		.loc 1 570 2 view .LVU694
 3295              	.LBE128:
 573:src/lcd.c     **** #endif
 3296              		.loc 1 573 1 view .LVU695
 3297 0038 F8BD     		pop	{r3, r4, r5, r6, r7, pc}
 3298              	.L217:
 3299 003a 00BF     		.align	2
 3300              	.L216:
 3301 003c 49020000 		.word	.LANCHOR0+585
 3302              		.cfi_endproc
 3303              	.LFE30:
 3305              		.section	.rodata.draw_PRT.str1.4,"aMS",%progbits,1
 3306              		.align	2
 3307              	.LC11:
 3308 0000 50525400 		.ascii	"PRT\000"
ARM GAS  /tmp/ccyuyqQY.s 			page 80


 3309              		.section	.text.draw_PRT,"ax",%progbits
 3310              		.align	1
 3311              		.p2align 2,,3
 3312              		.global	draw_PRT
 3313              		.syntax unified
 3314              		.thumb
 3315              		.thumb_func
 3316              		.fpu fpv4-sp-d16
 3318              	draw_PRT:
 3319              	.LFB34:
 610:src/lcd.c     **** 
 611:src/lcd.c     **** void draw_PRT (void) {
 3320              		.loc 1 611 22 is_stmt 1 view -0
 3321              		.cfi_startproc
 3322              		@ args = 0, pretend = 0, frame = 0
 3323              		@ frame_needed = 0, uses_anonymous_args = 0
 612:src/lcd.c     ****   t20->inv = !UState.print_on;
 3324              		.loc 1 612 3 view .LVU697
 3325              		.loc 1 612 14 is_stmt 0 view .LVU698
 3326 0000 0A4B     		ldr	r3, .L220
 3327 0002 1B68     		ldr	r3, [r3]
 611:src/lcd.c     ****   t20->inv = !UState.print_on;
 3328              		.loc 1 611 22 view .LVU699
 3329 0004 70B5     		push	{r4, r5, r6, lr}
 3330              		.cfi_def_cfa_offset 16
 3331              		.cfi_offset 4, -16
 3332              		.cfi_offset 5, -12
 3333              		.cfi_offset 6, -8
 3334              		.cfi_offset 14, -4
 3335              		.loc 1 612 12 view .LVU700
 3336 0006 93F8E437 		ldrb	r3, [r3, #2020]	@ zero_extendqisi2
 3337              		.loc 1 612 3 view .LVU701
 3338 000a 094C     		ldr	r4, .L220+4
 613:src/lcd.c     ****   lcd_setXY(t20, 250, Y_ANNUNC-70);
 3339              		.loc 1 613 3 view .LVU702
 3340 000c 094D     		ldr	r5, .L220+8
 612:src/lcd.c     ****   t20->inv = !UState.print_on;
 3341              		.loc 1 612 3 view .LVU703
 3342 000e 206B     		ldr	r0, [r4, #48]
 612:src/lcd.c     ****   t20->inv = !UState.print_on;
 3343              		.loc 1 612 12 view .LVU704
 3344 0010 DB43     		mvns	r3, r3
 3345 0012 03F00103 		and	r3, r3, #1
 3346 0016 4374     		strb	r3, [r0, #17]
 3347              		.loc 1 613 3 is_stmt 1 view .LVU705
 3348 0018 FA21     		movs	r1, #250
 3349 001a 0522     		movs	r2, #5
 3350 001c A847     		blx	r5
 3351              	.LVL308:
 614:src/lcd.c     ****   lcd_writeText(t20,"PRT");
 3352              		.loc 1 614 3 view .LVU706
 3353 001e 206B     		ldr	r0, [r4, #48]
 3354 0020 054B     		ldr	r3, .L220+12
 3355 0022 0649     		ldr	r1, .L220+16
 615:src/lcd.c     **** }
 3356              		.loc 1 615 1 is_stmt 0 view .LVU707
 3357 0024 BDE87040 		pop	{r4, r5, r6, lr}
ARM GAS  /tmp/ccyuyqQY.s 			page 81


 3358              		.cfi_restore 14
 3359              		.cfi_restore 6
 3360              		.cfi_restore 5
 3361              		.cfi_restore 4
 3362              		.cfi_def_cfa_offset 0
 614:src/lcd.c     ****   lcd_writeText(t20,"PRT");
 3363              		.loc 1 614 3 view .LVU708
 3364 0028 1847     		bx	r3	@ indirect register sibling call
 3365              	.LVL309:
 3366              	.L221:
 3367 002a 00BF     		.align	2
 3368              	.L220:
 3369 002c 00000000 		.word	main_ram
 3370 0030 00200010 		.word	268443648
 3371 0034 6D020008 		.word	134218349
 3372 0038 7D020008 		.word	134218365
 3373 003c 00000000 		.word	.LC11
 3374              		.cfi_endproc
 3375              	.LFE34:
 3377              		.section	.text.finish_display,"ax",%progbits
 3378              		.align	1
 3379              		.p2align 2,,3
 3380              		.global	finish_display
 3381              		.syntax unified
 3382              		.thumb
 3383              		.thumb_func
 3384              		.fpu fpv4-sp-d16
 3386              	finish_display:
 3387              	.LFB28:
 553:src/lcd.c     ****   draw_PRT();
 3388              		.loc 1 553 27 is_stmt 1 view -0
 3389              		.cfi_startproc
 3390              		@ args = 0, pretend = 0, frame = 0
 3391              		@ frame_needed = 0, uses_anonymous_args = 0
 554:src/lcd.c     ****   finish_7_segment();
 3392              		.loc 1 554 3 view .LVU710
 553:src/lcd.c     ****   draw_PRT();
 3393              		.loc 1 553 27 is_stmt 0 view .LVU711
 3394 0000 10B5     		push	{r4, lr}
 3395              		.cfi_def_cfa_offset 8
 3396              		.cfi_offset 4, -8
 3397              		.cfi_offset 14, -4
 554:src/lcd.c     ****   finish_7_segment();
 3398              		.loc 1 554 3 view .LVU712
 3399 0002 FFF7FEFF 		bl	draw_PRT
 3400              	.LVL310:
 555:src/lcd.c     **** #ifdef TOP_ROW
 3401              		.loc 1 555 3 is_stmt 1 view .LVU713
 3402 0006 FFF7FEFF 		bl	finish_7_segment
 3403              	.LVL311:
 557:src/lcd.c     **** #endif
 3404              		.loc 1 557 3 view .LVU714
 3405 000a FFF7FEFF 		bl	finish_top_row
 3406              	.LVL312:
 559:src/lcd.c     **** }
 3407              		.loc 1 559 3 view .LVU715
 560:src/lcd.c     **** 
ARM GAS  /tmp/ccyuyqQY.s 			page 82


 3408              		.loc 1 560 1 is_stmt 0 view .LVU716
 3409 000e BDE81040 		pop	{r4, lr}
 3410              		.cfi_restore 14
 3411              		.cfi_restore 4
 3412              		.cfi_def_cfa_offset 0
 559:src/lcd.c     **** }
 3413              		.loc 1 559 3 view .LVU717
 3414 0012 014B     		ldr	r3, .L224
 3415 0014 1847     		bx	r3	@ indirect register sibling call
 3416              	.LVL313:
 3417              	.L225:
 3418 0016 00BF     		.align	2
 3419              	.L224:
 3420 0018 31020008 		.word	134218289
 3421              		.cfi_endproc
 3422              	.LFE28:
 3424              		.section	.text.finish_PRT,"ax",%progbits
 3425              		.align	1
 3426              		.p2align 2,,3
 3427              		.global	finish_PRT
 3428              		.syntax unified
 3429              		.thumb
 3430              		.thumb_func
 3431              		.fpu fpv4-sp-d16
 3433              	finish_PRT:
 3434              	.LFB35:
 616:src/lcd.c     **** 
 617:src/lcd.c     **** void finish_PRT (void) {
 3435              		.loc 1 617 24 is_stmt 1 view -0
 3436              		.cfi_startproc
 3437              		@ args = 0, pretend = 0, frame = 0
 3438              		@ frame_needed = 0, uses_anonymous_args = 0
 618:src/lcd.c     ****   draw_PRT();
 3439              		.loc 1 618 3 view .LVU719
 617:src/lcd.c     ****   draw_PRT();
 3440              		.loc 1 617 24 is_stmt 0 view .LVU720
 3441 0000 10B5     		push	{r4, lr}
 3442              		.cfi_def_cfa_offset 8
 3443              		.cfi_offset 4, -8
 3444              		.cfi_offset 14, -4
 3445              		.loc 1 618 3 view .LVU721
 3446 0002 FFF7FEFF 		bl	draw_PRT
 3447              	.LVL314:
 619:src/lcd.c     ****   lcd_refresh();
 3448              		.loc 1 619 3 is_stmt 1 view .LVU722
 620:src/lcd.c     **** }
 3449              		.loc 1 620 1 is_stmt 0 view .LVU723
 3450 0006 BDE81040 		pop	{r4, lr}
 3451              		.cfi_restore 14
 3452              		.cfi_restore 4
 3453              		.cfi_def_cfa_offset 0
 619:src/lcd.c     ****   lcd_refresh();
 3454              		.loc 1 619 3 view .LVU724
 3455 000a 014B     		ldr	r3, .L228
 3456 000c 1847     		bx	r3	@ indirect register sibling call
 3457              	.LVL315:
 3458              	.L229:
ARM GAS  /tmp/ccyuyqQY.s 			page 83


 3459 000e 00BF     		.align	2
 3460              	.L228:
 3461 0010 31020008 		.word	134218289
 3462              		.cfi_endproc
 3463              	.LFE35:
 3465              		.section	.text.finish_LEQ,"ax",%progbits
 3466              		.align	1
 3467              		.p2align 2,,3
 3468              		.global	finish_LEQ
 3469              		.syntax unified
 3470              		.thumb
 3471              		.thumb_func
 3472              		.fpu fpv4-sp-d16
 3474              	finish_LEQ:
 3475              	.LFB36:
 621:src/lcd.c     **** 
 622:src/lcd.c     **** void finish_LEQ(void) { // refreshes the LEQ flag only
 3476              		.loc 1 622 23 is_stmt 1 view -0
 3477              		.cfi_startproc
 3478              		@ args = 0, pretend = 0, frame = 0
 3479              		@ frame_needed = 0, uses_anonymous_args = 0
 3480              		@ link register save eliminated.
 623:src/lcd.c     ****   lcd_refresh();
 3481              		.loc 1 623 3 view .LVU726
 3482 0000 004B     		ldr	r3, .L231
 3483 0002 1847     		bx	r3	@ indirect register sibling call
 3484              	.LVL316:
 3485              	.L232:
 3486              		.align	2
 3487              	.L231:
 3488 0004 31020008 		.word	134218289
 3489              		.cfi_endproc
 3490              	.LFE36:
 3492              		.section	.text.do_all_dots,"ax",%progbits
 3493              		.align	1
 3494              		.p2align 2,,3
 3495              		.global	do_all_dots
 3496              		.syntax unified
 3497              		.thumb
 3498              		.thumb_func
 3499              		.fpu fpv4-sp-d16
 3501              	do_all_dots:
 3502              	.LFB37:
 624:src/lcd.c     **** }
 625:src/lcd.c     ****   
 626:src/lcd.c     **** extern void all_menu_dots (void);
 627:src/lcd.c     **** 
 628:src/lcd.c     **** void do_all_dots(void) {
 3503              		.loc 1 628 24 view -0
 3504              		.cfi_startproc
 3505              		@ args = 0, pretend = 0, frame = 0
 3506              		@ frame_needed = 0, uses_anonymous_args = 0
 629:src/lcd.c     ****   for (int i=0; i<TOP_DOTS; i++) {
 3507              		.loc 1 629 3 view .LVU728
 3508              	.LBB129:
 3509              		.loc 1 629 8 view .LVU729
 3510              	.LVL317:
ARM GAS  /tmp/ccyuyqQY.s 			page 84


 3511              		.loc 1 629 17 view .LVU730
 3512              	.LBE129:
 628:src/lcd.c     ****   for (int i=0; i<TOP_DOTS; i++) {
 3513              		.loc 1 628 24 is_stmt 0 view .LVU731
 3514 0000 2DE9F041 		push	{r4, r5, r6, r7, r8, lr}
 3515              		.cfi_def_cfa_offset 24
 3516              		.cfi_offset 4, -24
 3517              		.cfi_offset 5, -20
 3518              		.cfi_offset 6, -16
 3519              		.cfi_offset 7, -12
 3520              		.cfi_offset 8, -8
 3521              		.cfi_offset 14, -4
 3522 0004 1A4C     		ldr	r4, .L246
 3523              	.LBB134:
 3524              	.LBB130:
 3525              	.LBB131:
  43:src/lcd.c     **** }
 3526              		.loc 1 43 11 view .LVU732
 3527 0006 0327     		movs	r7, #3
 3528 0008 04F10108 		add	r8, r4, #1
 3529 000c 04F55376 		add	r6, r4, #844
 3530 0010 6542     		rsbs	r5, r4, #0
 3531              	.LVL318:
 3532              	.L235:
  42:src/lcd.c     ****   dots[n] = 3; // 11;
 3533              		.loc 1 42 3 is_stmt 1 view .LVU733
 3534 0012 2819     		adds	r0, r5, r4
 3535              	.LVL319:
  42:src/lcd.c     ****   dots[n] = 3; // 11;
 3536              		.loc 1 42 3 is_stmt 0 view .LVU734
 3537              	.LBE131:
 3538              	.LBE130:
 630:src/lcd.c     ****     set_dot(i);
 3539              		.loc 1 630 5 is_stmt 1 view .LVU735
 3540              	.LBB133:
 3541              	.LBI130:
  39:src/lcd.c     ****   dots[n] |= 1;
 3542              		.loc 1 39 6 view .LVU736
 3543              	.LBB132:
  40:src/lcd.c     ****   if (dots[n]&2) return;
 3544              		.loc 1 40 3 view .LVU737
  40:src/lcd.c     ****   if (dots[n]&2) return;
 3545              		.loc 1 40 11 is_stmt 0 view .LVU738
 3546 0014 14F8013F 		ldrb	r3, [r4, #1]!	@ zero_extendqisi2
 3547 0018 43F00102 		orr	r2, r3, #1
  41:src/lcd.c     ****   draw_dot(n);
 3548              		.loc 1 41 6 view .LVU739
 3549 001c 9907     		lsls	r1, r3, #30
  40:src/lcd.c     ****   if (dots[n]&2) return;
 3550              		.loc 1 40 11 view .LVU740
 3551 001e 2270     		strb	r2, [r4]
  41:src/lcd.c     ****   draw_dot(n);
 3552              		.loc 1 41 3 is_stmt 1 view .LVU741
  41:src/lcd.c     ****   draw_dot(n);
 3553              		.loc 1 41 6 is_stmt 0 view .LVU742
 3554 0020 02D4     		bmi	.L234
  42:src/lcd.c     ****   dots[n] = 3; // 11;
ARM GAS  /tmp/ccyuyqQY.s 			page 85


 3555              		.loc 1 42 3 view .LVU743
 3556 0022 FFF7FEFF 		bl	draw_dot
 3557              	.LVL320:
  43:src/lcd.c     **** }
 3558              		.loc 1 43 3 is_stmt 1 view .LVU744
  43:src/lcd.c     **** }
 3559              		.loc 1 43 11 is_stmt 0 view .LVU745
 3560 0026 2770     		strb	r7, [r4]
 3561              	.L234:
 3562              	.LVL321:
  43:src/lcd.c     **** }
 3563              		.loc 1 43 11 view .LVU746
 3564              	.LBE132:
 3565              	.LBE133:
 629:src/lcd.c     ****     set_dot(i);
 3566              		.loc 1 629 29 is_stmt 1 view .LVU747
 629:src/lcd.c     ****     set_dot(i);
 3567              		.loc 1 629 17 view .LVU748
 629:src/lcd.c     ****     set_dot(i);
 3568              		.loc 1 629 3 is_stmt 0 view .LVU749
 3569 0028 B442     		cmp	r4, r6
 3570 002a F2D1     		bne	.L235
 3571              	.LBE134:
 631:src/lcd.c     ****   }
 632:src/lcd.c     ****   all_menu_dots();
 3572              		.loc 1 632 3 is_stmt 1 view .LVU750
 3573 002c FFF7FEFF 		bl	all_menu_dots
 3574              	.LVL322:
 633:src/lcd.c     ****   finish_display();
 3575              		.loc 1 633 3 view .LVU751
 3576 0030 FFF7FEFF 		bl	finish_display
 3577              	.LVL323:
 634:src/lcd.c     ****   clr_dot(RCL_annun);
 3578              		.loc 1 634 3 view .LVU752
 3579              	.LBB135:
 3580              	.LBI135:
  45:src/lcd.c     ****   dots[n] &= ~1;
 3581              		.loc 1 45 6 view .LVU753
 3582              	.LBB136:
  46:src/lcd.c     ****   if ( !(dots[n]&2)) return;
 3583              		.loc 1 46 3 view .LVU754
  46:src/lcd.c     ****   if ( !(dots[n]&2)) return;
 3584              		.loc 1 46 11 is_stmt 0 view .LVU755
 3585 0034 98F88A30 		ldrb	r3, [r8, #138]	@ zero_extendqisi2
 3586 0038 23F00102 		bic	r2, r3, #1
 3587 003c 88F88A20 		strb	r2, [r8, #138]
  47:src/lcd.c     ****   draw_dot(n);
 3588              		.loc 1 47 3 is_stmt 1 view .LVU756
  47:src/lcd.c     ****   draw_dot(n);
 3589              		.loc 1 47 6 is_stmt 0 view .LVU757
 3590 0040 9A07     		lsls	r2, r3, #30
 3591 0042 05D5     		bpl	.L236
  48:src/lcd.c     ****   dots[n] = 0; // =0 would work too.
 3592              		.loc 1 48 3 is_stmt 1 view .LVU758
 3593 0044 8A20     		movs	r0, #138
 3594 0046 FFF7FEFF 		bl	draw_dot
 3595              	.LVL324:
ARM GAS  /tmp/ccyuyqQY.s 			page 86


  49:src/lcd.c     **** }
 3596              		.loc 1 49 3 view .LVU759
  49:src/lcd.c     **** }
 3597              		.loc 1 49 11 is_stmt 0 view .LVU760
 3598 004a 0023     		movs	r3, #0
 3599 004c 88F88A30 		strb	r3, [r8, #138]
 3600              	.L236:
 3601              	.LVL325:
  49:src/lcd.c     **** }
 3602              		.loc 1 49 11 view .LVU761
 3603              	.LBE136:
 3604              	.LBE135:
 635:src/lcd.c     ****   clr_dot(LIT_EQ);
 3605              		.loc 1 635 3 is_stmt 1 view .LVU762
 3606              	.LBB137:
 3607              	.LBI137:
  45:src/lcd.c     ****   dots[n] &= ~1;
 3608              		.loc 1 45 6 view .LVU763
 3609              	.LBB138:
  46:src/lcd.c     ****   if ( !(dots[n]&2)) return;
 3610              		.loc 1 46 3 view .LVU764
  46:src/lcd.c     ****   if ( !(dots[n]&2)) return;
 3611              		.loc 1 46 11 is_stmt 0 view .LVU765
 3612 0050 98F88430 		ldrb	r3, [r8, #132]	@ zero_extendqisi2
 3613 0054 23F00102 		bic	r2, r3, #1
  47:src/lcd.c     ****   draw_dot(n);
 3614              		.loc 1 47 6 view .LVU766
 3615 0058 9B07     		lsls	r3, r3, #30
  46:src/lcd.c     ****   if ( !(dots[n]&2)) return;
 3616              		.loc 1 46 11 view .LVU767
 3617 005a 88F88420 		strb	r2, [r8, #132]
  47:src/lcd.c     ****   draw_dot(n);
 3618              		.loc 1 47 3 is_stmt 1 view .LVU768
  47:src/lcd.c     ****   draw_dot(n);
 3619              		.loc 1 47 6 is_stmt 0 view .LVU769
 3620 005e 05D5     		bpl	.L233
  48:src/lcd.c     ****   dots[n] = 0; // =0 would work too.
 3621              		.loc 1 48 3 is_stmt 1 view .LVU770
 3622 0060 8420     		movs	r0, #132
 3623 0062 FFF7FEFF 		bl	draw_dot
 3624              	.LVL326:
  49:src/lcd.c     **** }
 3625              		.loc 1 49 3 view .LVU771
  49:src/lcd.c     **** }
 3626              		.loc 1 49 11 is_stmt 0 view .LVU772
 3627 0066 0023     		movs	r3, #0
 3628 0068 88F88430 		strb	r3, [r8, #132]
 3629              	.LVL327:
 3630              	.L233:
  49:src/lcd.c     **** }
 3631              		.loc 1 49 11 view .LVU773
 3632              	.LBE138:
 3633              	.LBE137:
 636:src/lcd.c     **** }
 3634              		.loc 1 636 1 view .LVU774
 3635 006c BDE8F081 		pop	{r4, r5, r6, r7, r8, pc}
 3636              	.LVL328:
ARM GAS  /tmp/ccyuyqQY.s 			page 87


 3637              	.L247:
 3638              		.loc 1 636 1 view .LVU775
 3639              		.align	2
 3640              	.L246:
 3641 0070 FFFFFFFF 		.word	.LANCHOR0-1
 3642              		.cfi_endproc
 3643              	.LFE37:
 3645              		.section	.text.show_progtrace,"ax",%progbits
 3646              		.align	1
 3647              		.p2align 2,,3
 3648              		.global	show_progtrace
 3649              		.syntax unified
 3650              		.thumb
 3651              		.thumb_func
 3652              		.fpu fpv4-sp-d16
 3654              	show_progtrace:
 3655              	.LVL329:
 3656              	.LFB38:
 637:src/lcd.c     **** 
 638:src/lcd.c     **** void show_progtrace(char *buf) {
 3657              		.loc 1 638 32 is_stmt 1 view -0
 3658              		.cfi_startproc
 3659              		@ args = 0, pretend = 0, frame = 0
 3660              		@ frame_needed = 0, uses_anonymous_args = 0
 3661              		@ link register save eliminated.
 639:src/lcd.c     **** }
 3662              		.loc 1 639 1 view .LVU777
 3663 0000 7047     		bx	lr
 3664              		.cfi_endproc
 3665              	.LFE38:
 3667 0002 00BF     		.section	.text.show_stack,"ax",%progbits
 3668              		.align	1
 3669              		.p2align 2,,3
 3670              		.global	show_stack
 3671              		.syntax unified
 3672              		.thumb
 3673              		.thumb_func
 3674              		.fpu fpv4-sp-d16
 3676              	show_stack:
 3677              	.LFB46:
 3678              		.cfi_startproc
 3679              		@ args = 0, pretend = 0, frame = 0
 3680              		@ frame_needed = 0, uses_anonymous_args = 0
 3681              		@ link register save eliminated.
 3682 0000 7047     		bx	lr
 3683              		.cfi_endproc
 3684              	.LFE46:
 3686 0002 00BF     		.section	.text.show_flags,"ax",%progbits
 3687              		.align	1
 3688              		.p2align 2,,3
 3689              		.global	show_flags
 3690              		.syntax unified
 3691              		.thumb
 3692              		.thumb_func
 3693              		.fpu fpv4-sp-d16
 3695              	show_flags:
 3696              	.LFB44:
ARM GAS  /tmp/ccyuyqQY.s 			page 88


 3697              		.cfi_startproc
 3698              		@ args = 0, pretend = 0, frame = 0
 3699              		@ frame_needed = 0, uses_anonymous_args = 0
 3700              		@ link register save eliminated.
 3701 0000 7047     		bx	lr
 3702              		.cfi_endproc
 3703              	.LFE44:
 3705 0002 00BF     		.section	.text.wait_for_display,"ax",%progbits
 3706              		.align	1
 3707              		.p2align 2,,3
 3708              		.global	wait_for_display
 3709              		.syntax unified
 3710              		.thumb
 3711              		.thumb_func
 3712              		.fpu fpv4-sp-d16
 3714              	wait_for_display:
 3715              	.LFB41:
 640:src/lcd.c     **** 
 641:src/lcd.c     **** void show_stack(void) {
 642:src/lcd.c     **** }
 643:src/lcd.c     **** 
 644:src/lcd.c     **** void show_flags(void) {
 645:src/lcd.c     **** }
 646:src/lcd.c     **** 
 647:src/lcd.c     **** void wait_for_display(void)
 648:src/lcd.c     **** {
 3716              		.loc 1 648 1 view -0
 3717              		.cfi_startproc
 3718              		@ args = 0, pretend = 0, frame = 0
 3719              		@ frame_needed = 0, uses_anonymous_args = 0
 3720              		@ link register save eliminated.
 649:src/lcd.c     **** }
 3721              		.loc 1 649 1 view .LVU779
 3722 0000 7047     		bx	lr
 3723              		.cfi_endproc
 3724              	.LFE41:
 3726 0002 00BF     		.section	.bss.dots,"aw",%nobits
 3727              		.align	2
 3728              		.set	.LANCHOR0,. + 0
 3731              	dots:
 3732 0000 00000000 		.space	844
 3732      00000000 
 3732      00000000 
 3732      00000000 
 3732      00000000 
 3733              		.text
 3734              	.Letext0:
 3735              		.file 2 "/usr/lib/gcc/arm-none-eabi/9.2.1/include/stdint.h"
 3736              		.file 3 "dmcp/ff_ifc.h"
 3737              		.file 4 "dmcp/dmcp.h"
 3738              		.file 5 "src/decNumber/decContext.h"
 3739              		.file 6 "src/decNumber/decNumber.h"
 3740              		.file 7 "src/decNumber/decimal64.h"
 3741              		.file 8 "src/decNumber/decimal128.h"
 3742              		.file 9 "src/xeq.h"
 3743              		.file 10 "src/data.h"
 3744              		.file 11 "src/display.h"
ARM GAS  /tmp/ccyuyqQY.s 			page 89


 3745              		.file 12 "src/storage.h"
 3746              		.file 13 "src/pretty.h"
ARM GAS  /tmp/ccyuyqQY.s 			page 90


DEFINED SYMBOLS
                            *ABS*:0000000000000000 lcd.c
     /tmp/ccyuyqQY.s:18     .rodata.draw_BEG.part.0.str1.4:0000000000000000 $d
     /tmp/ccyuyqQY.s:22     .text.draw_BEG.part.0:0000000000000000 $t
     /tmp/ccyuyqQY.s:30     .text.draw_BEG.part.0:0000000000000000 draw_BEG.part.0
     /tmp/ccyuyqQY.s:49     .text.draw_BEG.part.0:000000000000000c $d
     /tmp/ccyuyqQY.s:56     .text.is_dot:0000000000000000 $t
     /tmp/ccyuyqQY.s:64     .text.is_dot:0000000000000000 is_dot
     /tmp/ccyuyqQY.s:84     .text.is_dot:000000000000000c $d
     /tmp/ccyuyqQY.s:89     .text.clear_disp:0000000000000000 $t
     /tmp/ccyuyqQY.s:97     .text.clear_disp:0000000000000000 clear_disp
     /tmp/ccyuyqQY.s:134    .text.clear_disp:0000000000000014 $d
     /tmp/ccyuyqQY.s:140    .text.reset_7_segment:0000000000000000 $t
     /tmp/ccyuyqQY.s:148    .text.reset_7_segment:0000000000000000 reset_7_segment
     /tmp/ccyuyqQY.s:185    .text.reset_7_segment:0000000000000014 $d
     /tmp/ccyuyqQY.s:190    .text.left_side:0000000000000000 $t
     /tmp/ccyuyqQY.s:198    .text.left_side:0000000000000000 left_side
     /tmp/ccyuyqQY.s:282    .text.left_side:0000000000000054 $d
     /tmp/ccyuyqQY.s:287    .text.left_side_top:0000000000000000 $t
     /tmp/ccyuyqQY.s:295    .text.left_side_top:0000000000000000 left_side_top
     /tmp/ccyuyqQY.s:311    .text.left_side_bottom:0000000000000000 $t
     /tmp/ccyuyqQY.s:319    .text.left_side_bottom:0000000000000000 left_side_bottom
     /tmp/ccyuyqQY.s:341    .text.right_side:0000000000000000 $t
     /tmp/ccyuyqQY.s:349    .text.right_side:0000000000000000 right_side
     /tmp/ccyuyqQY.s:433    .text.right_side:000000000000005c $d
     /tmp/ccyuyqQY.s:438    .text.right_side_top:0000000000000000 $t
     /tmp/ccyuyqQY.s:446    .text.right_side_top:0000000000000000 right_side_top
     /tmp/ccyuyqQY.s:462    .text.right_side_bottom:0000000000000000 $t
     /tmp/ccyuyqQY.s:470    .text.right_side_bottom:0000000000000000 right_side_bottom
     /tmp/ccyuyqQY.s:492    .text.top:0000000000000000 $t
     /tmp/ccyuyqQY.s:500    .text.top:0000000000000000 top
     /tmp/ccyuyqQY.s:569    .text.top:0000000000000040 $d
     /tmp/ccyuyqQY.s:574    .text.middle:0000000000000000 $t
     /tmp/ccyuyqQY.s:582    .text.middle:0000000000000000 middle
     /tmp/ccyuyqQY.s:649    .text.middle:0000000000000040 $d
     /tmp/ccyuyqQY.s:654    .text.bottom:0000000000000000 $t
     /tmp/ccyuyqQY.s:662    .text.bottom:0000000000000000 bottom
     /tmp/ccyuyqQY.s:734    .text.bottom:0000000000000048 $d
     /tmp/ccyuyqQY.s:739    .text.decimal:0000000000000000 $t
     /tmp/ccyuyqQY.s:747    .text.decimal:0000000000000000 decimal
     /tmp/ccyuyqQY.s:785    .text.decimal:0000000000000018 $d
     /tmp/ccyuyqQY.s:790    .text.comma:0000000000000000 $t
     /tmp/ccyuyqQY.s:798    .text.comma:0000000000000000 comma
     /tmp/ccyuyqQY.s:854    .text.comma:000000000000002c $d
     /tmp/ccyuyqQY.s:859    .text.exp_left_side:0000000000000000 $t
     /tmp/ccyuyqQY.s:867    .text.exp_left_side:0000000000000000 exp_left_side
     /tmp/ccyuyqQY.s:936    .text.exp_left_side:0000000000000040 $d
     /tmp/ccyuyqQY.s:941    .text.exp_left_side_top:0000000000000000 $t
     /tmp/ccyuyqQY.s:949    .text.exp_left_side_top:0000000000000000 exp_left_side_top
     /tmp/ccyuyqQY.s:968    .text.exp_left_side_bottom:0000000000000000 $t
     /tmp/ccyuyqQY.s:976    .text.exp_left_side_bottom:0000000000000000 exp_left_side_bottom
     /tmp/ccyuyqQY.s:995    .text.exp_right_side:0000000000000000 $t
     /tmp/ccyuyqQY.s:1003   .text.exp_right_side:0000000000000000 exp_right_side
     /tmp/ccyuyqQY.s:1072   .text.exp_right_side:0000000000000044 $d
     /tmp/ccyuyqQY.s:1077   .text.exp_right_side_top:0000000000000000 $t
     /tmp/ccyuyqQY.s:1085   .text.exp_right_side_top:0000000000000000 exp_right_side_top
     /tmp/ccyuyqQY.s:1101   .text.exp_right_side_bottom:0000000000000000 $t
ARM GAS  /tmp/ccyuyqQY.s 			page 91


     /tmp/ccyuyqQY.s:1109   .text.exp_right_side_bottom:0000000000000000 exp_right_side_bottom
     /tmp/ccyuyqQY.s:1131   .text.exp_top:0000000000000000 $t
     /tmp/ccyuyqQY.s:1139   .text.exp_top:0000000000000000 exp_top
     /tmp/ccyuyqQY.s:1200   .text.exp_top:0000000000000034 $d
     /tmp/ccyuyqQY.s:1205   .text.exp_bottom:0000000000000000 $t
     /tmp/ccyuyqQY.s:1213   .text.exp_bottom:0000000000000000 exp_bottom
     /tmp/ccyuyqQY.s:1277   .text.exp_bottom:0000000000000038 $d
     /tmp/ccyuyqQY.s:1282   .text.exp_middle:0000000000000000 $t
     /tmp/ccyuyqQY.s:1290   .text.exp_middle:0000000000000000 exp_middle
     /tmp/ccyuyqQY.s:1357   .text.exp_middle:0000000000000040 $d
     /tmp/ccyuyqQY.s:1362   .rodata.draw_BEG.str1.4:0000000000000000 $d
     /tmp/ccyuyqQY.s:1366   .text.draw_BEG:0000000000000000 $t
     /tmp/ccyuyqQY.s:1374   .text.draw_BEG:0000000000000000 draw_BEG
     /tmp/ccyuyqQY.s:1445   .text.draw_BEG:0000000000000030 $d
     /tmp/ccyuyqQY.s:1453   .rodata.draw_RPN.str1.4:0000000000000000 $d
     /tmp/ccyuyqQY.s:1460   .text.draw_RPN:0000000000000000 $t
     /tmp/ccyuyqQY.s:1468   .text.draw_RPN:0000000000000000 draw_RPN
     /tmp/ccyuyqQY.s:1541   .text.draw_RPN:0000000000000040 $d
     /tmp/ccyuyqQY.s:1551   .rodata.draw_RCL.str1.4:0000000000000000 $d
     /tmp/ccyuyqQY.s:1555   .text.draw_RCL:0000000000000000 $t
     /tmp/ccyuyqQY.s:1563   .text.draw_RCL:0000000000000000 draw_RCL
     /tmp/ccyuyqQY.s:1612   .text.draw_RCL:0000000000000020 $d
     /tmp/ccyuyqQY.s:1620   .rodata.draw_LEQ.str1.4:0000000000000000 $d
     /tmp/ccyuyqQY.s:1627   .text.draw_LEQ:0000000000000000 $t
     /tmp/ccyuyqQY.s:1635   .text.draw_LEQ:0000000000000000 draw_LEQ
     /tmp/ccyuyqQY.s:1714   .text.draw_LEQ:0000000000000058 $d
     /tmp/ccyuyqQY.s:1725   .rodata.draw_dot.str1.4:0000000000000000 $d
     /tmp/ccyuyqQY.s:1738   .text.draw_dot:0000000000000000 $t
     /tmp/ccyuyqQY.s:1746   .text.draw_dot:0000000000000000 draw_dot
     /tmp/ccyuyqQY.s:1805   .text.draw_dot:000000000000003c $d
     /tmp/ccyuyqQY.s:1849   .text.draw_dot:0000000000000076 $d
     /tmp/ccyuyqQY.s:1856   .text.draw_dot:0000000000000082 $t
     /tmp/ccyuyqQY.s:1982   .text.draw_dot:000000000000010c $d
     /tmp/ccyuyqQY.s:1995   .text.draw_dot:000000000000013c $t
     /tmp/ccyuyqQY.s:2477   .text.draw_dot:00000000000002d4 $d
     /tmp/ccyuyqQY.s:2496   .text.draw_dot:0000000000000300 $t
     /tmp/ccyuyqQY.s:2773   .text.draw_dot:00000000000003e8 $d
     /tmp/ccyuyqQY.s:2785   .text.set_dot:0000000000000000 $t
     /tmp/ccyuyqQY.s:2793   .text.set_dot:0000000000000000 set_dot
     /tmp/ccyuyqQY.s:2837   .text.set_dot:0000000000000020 $d
     /tmp/ccyuyqQY.s:2842   .text.clr_dot:0000000000000000 $t
     /tmp/ccyuyqQY.s:2850   .text.clr_dot:0000000000000000 clr_dot
     /tmp/ccyuyqQY.s:2894   .text.clr_dot:0000000000000020 $d
     /tmp/ccyuyqQY.s:2899   .text.reset_disp:0000000000000000 $t
     /tmp/ccyuyqQY.s:2907   .text.reset_disp:0000000000000000 reset_disp
     /tmp/ccyuyqQY.s:3077   .text.reset_disp:0000000000000074 $d
     /tmp/ccyuyqQY.s:3083   .text.finish_7_segment:0000000000000000 $t
     /tmp/ccyuyqQY.s:3091   .text.finish_7_segment:0000000000000000 finish_7_segment
     /tmp/ccyuyqQY.s:3189   .text.finish_7_segment:0000000000000038 $d
     /tmp/ccyuyqQY.s:3194   .text.finish_top_row:0000000000000000 $t
     /tmp/ccyuyqQY.s:3202   .text.finish_top_row:0000000000000000 finish_top_row
     /tmp/ccyuyqQY.s:3301   .text.finish_top_row:000000000000003c $d
     /tmp/ccyuyqQY.s:3306   .rodata.draw_PRT.str1.4:0000000000000000 $d
     /tmp/ccyuyqQY.s:3310   .text.draw_PRT:0000000000000000 $t
     /tmp/ccyuyqQY.s:3318   .text.draw_PRT:0000000000000000 draw_PRT
     /tmp/ccyuyqQY.s:3369   .text.draw_PRT:000000000000002c $d
     /tmp/ccyuyqQY.s:3378   .text.finish_display:0000000000000000 $t
ARM GAS  /tmp/ccyuyqQY.s 			page 92


     /tmp/ccyuyqQY.s:3386   .text.finish_display:0000000000000000 finish_display
     /tmp/ccyuyqQY.s:3420   .text.finish_display:0000000000000018 $d
     /tmp/ccyuyqQY.s:3425   .text.finish_PRT:0000000000000000 $t
     /tmp/ccyuyqQY.s:3433   .text.finish_PRT:0000000000000000 finish_PRT
     /tmp/ccyuyqQY.s:3461   .text.finish_PRT:0000000000000010 $d
     /tmp/ccyuyqQY.s:3466   .text.finish_LEQ:0000000000000000 $t
     /tmp/ccyuyqQY.s:3474   .text.finish_LEQ:0000000000000000 finish_LEQ
     /tmp/ccyuyqQY.s:3488   .text.finish_LEQ:0000000000000004 $d
     /tmp/ccyuyqQY.s:3493   .text.do_all_dots:0000000000000000 $t
     /tmp/ccyuyqQY.s:3501   .text.do_all_dots:0000000000000000 do_all_dots
     /tmp/ccyuyqQY.s:3641   .text.do_all_dots:0000000000000070 $d
     /tmp/ccyuyqQY.s:3646   .text.show_progtrace:0000000000000000 $t
     /tmp/ccyuyqQY.s:3654   .text.show_progtrace:0000000000000000 show_progtrace
     /tmp/ccyuyqQY.s:3668   .text.show_stack:0000000000000000 $t
     /tmp/ccyuyqQY.s:3676   .text.show_stack:0000000000000000 show_stack
     /tmp/ccyuyqQY.s:3687   .text.show_flags:0000000000000000 $t
     /tmp/ccyuyqQY.s:3695   .text.show_flags:0000000000000000 show_flags
     /tmp/ccyuyqQY.s:3706   .text.wait_for_display:0000000000000000 $t
     /tmp/ccyuyqQY.s:3714   .text.wait_for_display:0000000000000000 wait_for_display
     /tmp/ccyuyqQY.s:3727   .bss.dots:0000000000000000 $d
     /tmp/ccyuyqQY.s:3731   .bss.dots:0000000000000000 dots
     /tmp/ccyuyqQY.s:1815   .text.draw_dot:0000000000000045 $d
     /tmp/ccyuyqQY.s:1815   .text.draw_dot:0000000000000046 $t

UNDEFINED SYMBOLS
main_ram
dot
all_menu_dots
