ARM GAS  /tmp/ccPQvOwM.s 			page 1


   1              		.arch armv7e-m
   2              		.eabi_attribute 27, 1
   3              		.eabi_attribute 28, 1
   4              		.eabi_attribute 20, 1
   5              		.eabi_attribute 21, 1
   6              		.eabi_attribute 23, 3
   7              		.eabi_attribute 24, 1
   8              		.eabi_attribute 25, 1
   9              		.eabi_attribute 26, 1
  10              		.eabi_attribute 30, 2
  11              		.eabi_attribute 34, 1
  12              		.eabi_attribute 18, 4
  13              		.file	"pgm_syscalls.c"
  14              		.text
  15              	.Ltext0:
  16              		.cfi_sections	.debug_frame
  17              		.section	.text._read,"ax",%progbits
  18              		.align	1
  19              		.p2align 2,,3
  20              		.global	_read
  21              		.arch armv7e-m
  22              		.syntax unified
  23              		.thumb
  24              		.thumb_func
  25              		.fpu fpv4-sp-d16
  27              	_read:
  28              	.LVL0:
  29              	.LFB25:
  30              		.file 1 "dmcp/sys/pgm_syscalls.c"
   1:dmcp/sys/pgm_syscalls.c **** /*
   2:dmcp/sys/pgm_syscalls.c **** 
   3:dmcp/sys/pgm_syscalls.c **** BSD 3-Clause License
   4:dmcp/sys/pgm_syscalls.c **** 
   5:dmcp/sys/pgm_syscalls.c **** Copyright (c) 2015-2020, SwissMicros
   6:dmcp/sys/pgm_syscalls.c **** All rights reserved.
   7:dmcp/sys/pgm_syscalls.c **** 
   8:dmcp/sys/pgm_syscalls.c **** Redistribution and use in source and binary forms, with or without
   9:dmcp/sys/pgm_syscalls.c **** modification, are permitted provided that the following conditions are met:
  10:dmcp/sys/pgm_syscalls.c **** 
  11:dmcp/sys/pgm_syscalls.c **** * Redistributions of source code must retain the above copyright notice, this
  12:dmcp/sys/pgm_syscalls.c ****   list of conditions and the following disclaimer.
  13:dmcp/sys/pgm_syscalls.c **** 
  14:dmcp/sys/pgm_syscalls.c **** * Redistributions in binary form must reproduce the above copyright notice,
  15:dmcp/sys/pgm_syscalls.c ****   this list of conditions and the following disclaimer in the documentation
  16:dmcp/sys/pgm_syscalls.c ****   and/or other materials provided with the distribution.
  17:dmcp/sys/pgm_syscalls.c **** 
  18:dmcp/sys/pgm_syscalls.c **** * Neither the name of the copyright holder nor the names of its
  19:dmcp/sys/pgm_syscalls.c ****   contributors may be used to endorse or promote products derived from
  20:dmcp/sys/pgm_syscalls.c ****   this software without specific prior written permission.
  21:dmcp/sys/pgm_syscalls.c **** 
  22:dmcp/sys/pgm_syscalls.c **** THIS SOFTWARE IS PROVIDED BY THE COPYRIGHT HOLDERS AND CONTRIBUTORS "AS IS"
  23:dmcp/sys/pgm_syscalls.c **** AND ANY EXPRESS OR IMPLIED WARRANTIES, INCLUDING, BUT NOT LIMITED TO, THE
  24:dmcp/sys/pgm_syscalls.c **** IMPLIED WARRANTIES OF MERCHANTABILITY AND FITNESS FOR A PARTICULAR PURPOSE ARE
  25:dmcp/sys/pgm_syscalls.c **** DISCLAIMED. IN NO EVENT SHALL THE COPYRIGHT HOLDER OR CONTRIBUTORS BE LIABLE
  26:dmcp/sys/pgm_syscalls.c **** FOR ANY DIRECT, INDIRECT, INCIDENTAL, SPECIAL, EXEMPLARY, OR CONSEQUENTIAL
  27:dmcp/sys/pgm_syscalls.c **** DAMAGES (INCLUDING, BUT NOT LIMITED TO, PROCUREMENT OF SUBSTITUTE GOODS OR
  28:dmcp/sys/pgm_syscalls.c **** SERVICES; LOSS OF USE, DATA, OR PROFITS; OR BUSINESS INTERRUPTION) HOWEVER
ARM GAS  /tmp/ccPQvOwM.s 			page 2


  29:dmcp/sys/pgm_syscalls.c **** CAUSED AND ON ANY THEORY OF LIABILITY, WHETHER IN CONTRACT, STRICT LIABILITY,
  30:dmcp/sys/pgm_syscalls.c **** OR TORT (INCLUDING NEGLIGENCE OR OTHERWISE) ARISING IN ANY WAY OUT OF THE USE
  31:dmcp/sys/pgm_syscalls.c **** OF THIS SOFTWARE, EVEN IF ADVISED OF THE POSSIBILITY OF SUCH DAMAGE.
  32:dmcp/sys/pgm_syscalls.c **** 
  33:dmcp/sys/pgm_syscalls.c **** 
  34:dmcp/sys/pgm_syscalls.c ****   The software and related material is released as “NOMAS”  (NOt MAnufacturer Supported). 
  35:dmcp/sys/pgm_syscalls.c **** 
  36:dmcp/sys/pgm_syscalls.c ****   1. Info is released to assist customers using, exploring and extending the product
  37:dmcp/sys/pgm_syscalls.c ****   2. Do NOT contact the manufacturer with questions, seeking support, etc. regarding
  38:dmcp/sys/pgm_syscalls.c ****      NOMAS material as no support is implied or committed-to by the Manufacturer
  39:dmcp/sys/pgm_syscalls.c ****   3. The Manufacturer may reply and/or update materials if and when needed solely
  40:dmcp/sys/pgm_syscalls.c ****      at their discretion
  41:dmcp/sys/pgm_syscalls.c **** 
  42:dmcp/sys/pgm_syscalls.c **** */
  43:dmcp/sys/pgm_syscalls.c **** 
  44:dmcp/sys/pgm_syscalls.c **** #include <sys/stat.h>
  45:dmcp/sys/pgm_syscalls.c **** #include <stdlib.h>
  46:dmcp/sys/pgm_syscalls.c **** #include <errno.h>
  47:dmcp/sys/pgm_syscalls.c **** #include <stdio.h>
  48:dmcp/sys/pgm_syscalls.c **** #include <signal.h>
  49:dmcp/sys/pgm_syscalls.c **** #include <time.h>
  50:dmcp/sys/pgm_syscalls.c **** #include <sys/time.h>
  51:dmcp/sys/pgm_syscalls.c **** #include <sys/times.h>
  52:dmcp/sys/pgm_syscalls.c **** 
  53:dmcp/sys/pgm_syscalls.c **** #include <dmcp.h>
  54:dmcp/sys/pgm_syscalls.c **** 
  55:dmcp/sys/pgm_syscalls.c **** #include <main.h>
  56:dmcp/sys/pgm_syscalls.c **** #include <qspi_crc.h>
  57:dmcp/sys/pgm_syscalls.c **** 
  58:dmcp/sys/pgm_syscalls.c **** void Program_Entry();
  59:dmcp/sys/pgm_syscalls.c **** 
  60:dmcp/sys/pgm_syscalls.c **** #ifndef PROGRAM_KEYMAP_ID
  61:dmcp/sys/pgm_syscalls.c **** #define PROGRAM_KEYMAP_ID 0xffffffff
  62:dmcp/sys/pgm_syscalls.c **** #endif
  63:dmcp/sys/pgm_syscalls.c **** 
  64:dmcp/sys/pgm_syscalls.c **** prog_info_t const prog_info = {
  65:dmcp/sys/pgm_syscalls.c **** 	PROG_INFO_MAGIC,       // uint32_t pgm_magic;
  66:dmcp/sys/pgm_syscalls.c **** 	0,                     // uint32_t pgm_size;
  67:dmcp/sys/pgm_syscalls.c **** 	(void*)Program_Entry,  // void * pgm_entry;
  68:dmcp/sys/pgm_syscalls.c **** 	PLATFORM_IFC_CNR,      // uint32_t ifc_cnr;
  69:dmcp/sys/pgm_syscalls.c **** 	PLATFORM_IFC_VER,      // uint32_t ifc_ver;
  70:dmcp/sys/pgm_syscalls.c **** 	QSPI_DATA_SIZE,        // uint32_t qspi_size;
  71:dmcp/sys/pgm_syscalls.c **** 	QSPI_DATA_CRC,         // uint32_t qspi_crc;
  72:dmcp/sys/pgm_syscalls.c **** 	PROGRAM_NAME,          // char pgm_name[16];
  73:dmcp/sys/pgm_syscalls.c **** 	PROGRAM_VERSION,       // char pgm_version[16];
  74:dmcp/sys/pgm_syscalls.c **** 	PROGRAM_KEYMAP_ID      // uint32_t required_keymap_id;
  75:dmcp/sys/pgm_syscalls.c **** };
  76:dmcp/sys/pgm_syscalls.c **** 
  77:dmcp/sys/pgm_syscalls.c **** 
  78:dmcp/sys/pgm_syscalls.c **** 
  79:dmcp/sys/pgm_syscalls.c **** int _read(int file, char *ptr, int len)
  80:dmcp/sys/pgm_syscalls.c **** {
  31              		.loc 1 80 1 view -0
  32              		.cfi_startproc
  33              		@ args = 0, pretend = 0, frame = 0
  34              		@ frame_needed = 0, uses_anonymous_args = 0
  35              		@ link register save eliminated.
ARM GAS  /tmp/ccPQvOwM.s 			page 3


  81:dmcp/sys/pgm_syscalls.c **** 	return len;
  36              		.loc 1 81 2 view .LVU1
  82:dmcp/sys/pgm_syscalls.c **** }
  37              		.loc 1 82 1 is_stmt 0 view .LVU2
  38 0000 1046     		mov	r0, r2
  39              	.LVL1:
  40              		.loc 1 82 1 view .LVU3
  41 0002 7047     		bx	lr
  42              		.cfi_endproc
  43              	.LFE25:
  45              		.section	.text._write,"ax",%progbits
  46              		.align	1
  47              		.p2align 2,,3
  48              		.global	_write
  49              		.syntax unified
  50              		.thumb
  51              		.thumb_func
  52              		.fpu fpv4-sp-d16
  54              	_write:
  55              	.LVL2:
  56              	.LFB26:
  83:dmcp/sys/pgm_syscalls.c **** 
  84:dmcp/sys/pgm_syscalls.c **** 
  85:dmcp/sys/pgm_syscalls.c **** int _write(int file, char *ptr, int len)
  86:dmcp/sys/pgm_syscalls.c **** {
  57              		.loc 1 86 1 is_stmt 1 view -0
  58              		.cfi_startproc
  59              		@ args = 0, pretend = 0, frame = 0
  60              		@ frame_needed = 0, uses_anonymous_args = 0
  61              		@ link register save eliminated.
  87:dmcp/sys/pgm_syscalls.c **** 	// Routed to OS, where it is printed to ITM
  88:dmcp/sys/pgm_syscalls.c **** #ifdef USER_WRITE
  89:dmcp/sys/pgm_syscalls.c **** 	return USER_WRITE(file, ptr, len);
  90:dmcp/sys/pgm_syscalls.c **** #else
  91:dmcp/sys/pgm_syscalls.c **** 	return __sysfn__write(file, ptr, len);
  62              		.loc 1 91 2 view .LVU5
  63              		.loc 1 91 9 is_stmt 0 view .LVU6
  64 0000 004B     		ldr	r3, .L4
  65 0002 1847     		bx	r3
  66              	.LVL3:
  67              	.L5:
  68              		.loc 1 91 9 view .LVU7
  69              		.align	2
  70              	.L4:
  71 0004 11020008 		.word	134218257
  72              		.cfi_endproc
  73              	.LFE26:
  75              		.section	.text._close,"ax",%progbits
  76              		.align	1
  77              		.p2align 2,,3
  78              		.global	_close
  79              		.syntax unified
  80              		.thumb
  81              		.thumb_func
  82              		.fpu fpv4-sp-d16
  84              	_close:
  85              	.LVL4:
ARM GAS  /tmp/ccPQvOwM.s 			page 4


  86              	.LFB27:
  92:dmcp/sys/pgm_syscalls.c **** #endif
  93:dmcp/sys/pgm_syscalls.c **** }
  94:dmcp/sys/pgm_syscalls.c **** 
  95:dmcp/sys/pgm_syscalls.c **** 
  96:dmcp/sys/pgm_syscalls.c **** int _close(int file)
  97:dmcp/sys/pgm_syscalls.c **** {
  87              		.loc 1 97 1 is_stmt 1 view -0
  88              		.cfi_startproc
  89              		@ args = 0, pretend = 0, frame = 0
  90              		@ frame_needed = 0, uses_anonymous_args = 0
  91              		@ link register save eliminated.
  98:dmcp/sys/pgm_syscalls.c **** 	return -1;
  92              		.loc 1 98 2 view .LVU9
  99:dmcp/sys/pgm_syscalls.c **** }
  93              		.loc 1 99 1 is_stmt 0 view .LVU10
  94 0000 4FF0FF30 		mov	r0, #-1
  95              	.LVL5:
  96              		.loc 1 99 1 view .LVU11
  97 0004 7047     		bx	lr
  98              		.cfi_endproc
  99              	.LFE27:
 101 0006 00BF     		.section	.text._fstat,"ax",%progbits
 102              		.align	1
 103              		.p2align 2,,3
 104              		.global	_fstat
 105              		.syntax unified
 106              		.thumb
 107              		.thumb_func
 108              		.fpu fpv4-sp-d16
 110              	_fstat:
 111              	.LVL6:
 112              	.LFB28:
 100:dmcp/sys/pgm_syscalls.c **** 
 101:dmcp/sys/pgm_syscalls.c **** 
 102:dmcp/sys/pgm_syscalls.c **** int _fstat(int file, struct stat *st)
 103:dmcp/sys/pgm_syscalls.c **** {
 113              		.loc 1 103 1 is_stmt 1 view -0
 114              		.cfi_startproc
 115              		@ args = 0, pretend = 0, frame = 0
 116              		@ frame_needed = 0, uses_anonymous_args = 0
 117              		@ link register save eliminated.
 104:dmcp/sys/pgm_syscalls.c **** 	st->st_mode = S_IFCHR;
 118              		.loc 1 104 2 view .LVU13
 119              		.loc 1 104 14 is_stmt 0 view .LVU14
 120 0000 4FF40053 		mov	r3, #8192
 121 0004 4B60     		str	r3, [r1, #4]
 105:dmcp/sys/pgm_syscalls.c **** 	return 0;
 122              		.loc 1 105 2 is_stmt 1 view .LVU15
 106:dmcp/sys/pgm_syscalls.c **** }
 123              		.loc 1 106 1 is_stmt 0 view .LVU16
 124 0006 0020     		movs	r0, #0
 125              	.LVL7:
 126              		.loc 1 106 1 view .LVU17
 127 0008 7047     		bx	lr
 128              		.cfi_endproc
 129              	.LFE28:
ARM GAS  /tmp/ccPQvOwM.s 			page 5


 131 000a 00BF     		.section	.text._isatty,"ax",%progbits
 132              		.align	1
 133              		.p2align 2,,3
 134              		.global	_isatty
 135              		.syntax unified
 136              		.thumb
 137              		.thumb_func
 138              		.fpu fpv4-sp-d16
 140              	_isatty:
 141              	.LVL8:
 142              	.LFB29:
 107:dmcp/sys/pgm_syscalls.c **** 
 108:dmcp/sys/pgm_syscalls.c **** int _isatty(int file)
 109:dmcp/sys/pgm_syscalls.c **** {
 143              		.loc 1 109 1 is_stmt 1 view -0
 144              		.cfi_startproc
 145              		@ args = 0, pretend = 0, frame = 0
 146              		@ frame_needed = 0, uses_anonymous_args = 0
 147              		@ link register save eliminated.
 110:dmcp/sys/pgm_syscalls.c **** 	return 1;
 148              		.loc 1 110 2 view .LVU19
 111:dmcp/sys/pgm_syscalls.c **** }
 149              		.loc 1 111 1 is_stmt 0 view .LVU20
 150 0000 0120     		movs	r0, #1
 151              	.LVL9:
 152              		.loc 1 111 1 view .LVU21
 153 0002 7047     		bx	lr
 154              		.cfi_endproc
 155              	.LFE29:
 157              		.section	.text._lseek,"ax",%progbits
 158              		.align	1
 159              		.p2align 2,,3
 160              		.global	_lseek
 161              		.syntax unified
 162              		.thumb
 163              		.thumb_func
 164              		.fpu fpv4-sp-d16
 166              	_lseek:
 167              	.LVL10:
 168              	.LFB30:
 112:dmcp/sys/pgm_syscalls.c **** 
 113:dmcp/sys/pgm_syscalls.c **** int _lseek(int file, int ptr, int dir)
 114:dmcp/sys/pgm_syscalls.c **** {
 169              		.loc 1 114 1 is_stmt 1 view -0
 170              		.cfi_startproc
 171              		@ args = 0, pretend = 0, frame = 0
 172              		@ frame_needed = 0, uses_anonymous_args = 0
 173              		@ link register save eliminated.
 115:dmcp/sys/pgm_syscalls.c **** 	return 0;
 174              		.loc 1 115 2 view .LVU23
 116:dmcp/sys/pgm_syscalls.c **** }
 175              		.loc 1 116 1 is_stmt 0 view .LVU24
 176 0000 0020     		movs	r0, #0
 177              	.LVL11:
 178              		.loc 1 116 1 view .LVU25
 179 0002 7047     		bx	lr
 180              		.cfi_endproc
ARM GAS  /tmp/ccPQvOwM.s 			page 6


 181              	.LFE30:
 183              		.section	.text._kill,"ax",%progbits
 184              		.align	1
 185              		.p2align 2,,3
 186              		.global	_kill
 187              		.syntax unified
 188              		.thumb
 189              		.thumb_func
 190              		.fpu fpv4-sp-d16
 192              	_kill:
 193              	.LVL12:
 194              	.LFB31:
 117:dmcp/sys/pgm_syscalls.c **** 
 118:dmcp/sys/pgm_syscalls.c **** int _kill(int pid, int sig)
 119:dmcp/sys/pgm_syscalls.c **** {
 195              		.loc 1 119 1 is_stmt 1 view -0
 196              		.cfi_startproc
 197              		@ args = 0, pretend = 0, frame = 0
 198              		@ frame_needed = 0, uses_anonymous_args = 0
 120:dmcp/sys/pgm_syscalls.c **** 	errno = EINVAL;
 199              		.loc 1 120 2 view .LVU27
 119:dmcp/sys/pgm_syscalls.c **** 	errno = EINVAL;
 200              		.loc 1 119 1 is_stmt 0 view .LVU28
 201 0000 08B5     		push	{r3, lr}
 202              		.cfi_def_cfa_offset 8
 203              		.cfi_offset 3, -8
 204              		.cfi_offset 14, -4
 205              		.loc 1 120 2 view .LVU29
 206 0002 FFF7FEFF 		bl	__errno
 207              	.LVL13:
 208              		.loc 1 120 8 view .LVU30
 209 0006 1623     		movs	r3, #22
 210 0008 0360     		str	r3, [r0]
 121:dmcp/sys/pgm_syscalls.c **** 	return -1;
 211              		.loc 1 121 2 is_stmt 1 view .LVU31
 122:dmcp/sys/pgm_syscalls.c **** }
 212              		.loc 1 122 1 is_stmt 0 view .LVU32
 213 000a 4FF0FF30 		mov	r0, #-1
 214 000e 08BD     		pop	{r3, pc}
 215              		.cfi_endproc
 216              	.LFE31:
 218              		.section	.text._getpid,"ax",%progbits
 219              		.align	1
 220              		.p2align 2,,3
 221              		.global	_getpid
 222              		.syntax unified
 223              		.thumb
 224              		.thumb_func
 225              		.fpu fpv4-sp-d16
 227              	_getpid:
 228              	.LFB32:
 123:dmcp/sys/pgm_syscalls.c **** 
 124:dmcp/sys/pgm_syscalls.c **** int _getpid(void)
 125:dmcp/sys/pgm_syscalls.c **** {
 229              		.loc 1 125 1 is_stmt 1 view -0
 230              		.cfi_startproc
 231              		@ args = 0, pretend = 0, frame = 0
ARM GAS  /tmp/ccPQvOwM.s 			page 7


 232              		@ frame_needed = 0, uses_anonymous_args = 0
 233              		@ link register save eliminated.
 126:dmcp/sys/pgm_syscalls.c **** 	return 1;
 234              		.loc 1 126 2 view .LVU34
 127:dmcp/sys/pgm_syscalls.c **** }
 235              		.loc 1 127 1 is_stmt 0 view .LVU35
 236 0000 0120     		movs	r0, #1
 237 0002 7047     		bx	lr
 238              		.cfi_endproc
 239              	.LFE32:
 241              		.section	.text.free,"ax",%progbits
 242              		.align	1
 243              		.p2align 2,,3
 244              		.global	free
 245              		.syntax unified
 246              		.thumb
 247              		.thumb_func
 248              		.fpu fpv4-sp-d16
 250              	free:
 251              	.LVL14:
 252              	.LFB33:
 128:dmcp/sys/pgm_syscalls.c **** 
 129:dmcp/sys/pgm_syscalls.c **** 
 130:dmcp/sys/pgm_syscalls.c **** 
 131:dmcp/sys/pgm_syscalls.c **** void free(void *ptr) {
 253              		.loc 1 131 22 is_stmt 1 view -0
 254              		.cfi_startproc
 255              		@ args = 0, pretend = 0, frame = 0
 256              		@ frame_needed = 0, uses_anonymous_args = 0
 257              		@ link register save eliminated.
 132:dmcp/sys/pgm_syscalls.c **** 	__sysfn_free(ptr);
 258              		.loc 1 132 2 view .LVU37
 259 0000 004B     		ldr	r3, .L14
 260 0002 1847     		bx	r3	@ indirect register sibling call
 261              	.LVL15:
 262              	.L15:
 263              		.loc 1 132 2 is_stmt 0 view .LVU38
 264              		.align	2
 265              	.L14:
 266 0004 05020008 		.word	134218245
 267              		.cfi_endproc
 268              	.LFE33:
 270              		.section	.text.malloc,"ax",%progbits
 271              		.align	1
 272              		.p2align 2,,3
 273              		.global	malloc
 274              		.syntax unified
 275              		.thumb
 276              		.thumb_func
 277              		.fpu fpv4-sp-d16
 279              	malloc:
 280              	.LVL16:
 281              	.LFB34:
 133:dmcp/sys/pgm_syscalls.c **** }
 134:dmcp/sys/pgm_syscalls.c **** 
 135:dmcp/sys/pgm_syscalls.c **** 
 136:dmcp/sys/pgm_syscalls.c **** void *malloc(size_t size) {
ARM GAS  /tmp/ccPQvOwM.s 			page 8


 282              		.loc 1 136 27 is_stmt 1 view -0
 283              		.cfi_startproc
 284              		@ args = 0, pretend = 0, frame = 0
 285              		@ frame_needed = 0, uses_anonymous_args = 0
 286              		@ link register save eliminated.
 137:dmcp/sys/pgm_syscalls.c **** 	return __sysfn_malloc(size);
 287              		.loc 1 137 2 view .LVU40
 288              		.loc 1 137 9 is_stmt 0 view .LVU41
 289 0000 004B     		ldr	r3, .L17
 290 0002 1847     		bx	r3
 291              	.LVL17:
 292              	.L18:
 293              		.loc 1 137 9 view .LVU42
 294              		.align	2
 295              	.L17:
 296 0004 01020008 		.word	134218241
 297              		.cfi_endproc
 298              	.LFE34:
 300              		.section	.text.calloc,"ax",%progbits
 301              		.align	1
 302              		.p2align 2,,3
 303              		.global	calloc
 304              		.syntax unified
 305              		.thumb
 306              		.thumb_func
 307              		.fpu fpv4-sp-d16
 309              	calloc:
 310              	.LVL18:
 311              	.LFB35:
 138:dmcp/sys/pgm_syscalls.c **** }
 139:dmcp/sys/pgm_syscalls.c **** 
 140:dmcp/sys/pgm_syscalls.c **** 
 141:dmcp/sys/pgm_syscalls.c **** void *calloc(size_t count, size_t nbytes) {
 312              		.loc 1 141 43 is_stmt 1 view -0
 313              		.cfi_startproc
 314              		@ args = 0, pretend = 0, frame = 0
 315              		@ frame_needed = 0, uses_anonymous_args = 0
 316              		@ link register save eliminated.
 142:dmcp/sys/pgm_syscalls.c **** 	return __sysfn_calloc(count, nbytes);
 317              		.loc 1 142 2 view .LVU44
 318              		.loc 1 142 9 is_stmt 0 view .LVU45
 319 0000 004B     		ldr	r3, .L20
 320 0002 1847     		bx	r3
 321              	.LVL19:
 322              	.L21:
 323              		.loc 1 142 9 view .LVU46
 324              		.align	2
 325              	.L20:
 326 0004 09020008 		.word	134218249
 327              		.cfi_endproc
 328              	.LFE35:
 330              		.section	.text.realloc,"ax",%progbits
 331              		.align	1
 332              		.p2align 2,,3
 333              		.global	realloc
 334              		.syntax unified
 335              		.thumb
ARM GAS  /tmp/ccPQvOwM.s 			page 9


 336              		.thumb_func
 337              		.fpu fpv4-sp-d16
 339              	realloc:
 340              	.LVL20:
 341              	.LFB36:
 143:dmcp/sys/pgm_syscalls.c **** }
 144:dmcp/sys/pgm_syscalls.c **** 
 145:dmcp/sys/pgm_syscalls.c **** void *realloc(void *ptr, size_t size) {
 342              		.loc 1 145 39 is_stmt 1 view -0
 343              		.cfi_startproc
 344              		@ args = 0, pretend = 0, frame = 0
 345              		@ frame_needed = 0, uses_anonymous_args = 0
 346              		@ link register save eliminated.
 146:dmcp/sys/pgm_syscalls.c **** 	return __sysfn_realloc(ptr, size);
 347              		.loc 1 146 2 view .LVU48
 348              		.loc 1 146 9 is_stmt 0 view .LVU49
 349 0000 004B     		ldr	r3, .L23
 350 0002 1847     		bx	r3
 351              	.LVL21:
 352              	.L24:
 353              		.loc 1 146 9 view .LVU50
 354              		.align	2
 355              	.L23:
 356 0004 0D020008 		.word	134218253
 357              		.cfi_endproc
 358              	.LFE36:
 360              		.section	.text.__wrap__malloc_r,"ax",%progbits
 361              		.align	1
 362              		.p2align 2,,3
 363              		.global	__wrap__malloc_r
 364              		.syntax unified
 365              		.thumb
 366              		.thumb_func
 367              		.fpu fpv4-sp-d16
 369              	__wrap__malloc_r:
 370              	.LVL22:
 371              	.LFB37:
 147:dmcp/sys/pgm_syscalls.c **** }
 148:dmcp/sys/pgm_syscalls.c **** 
 149:dmcp/sys/pgm_syscalls.c **** 
 150:dmcp/sys/pgm_syscalls.c **** 
 151:dmcp/sys/pgm_syscalls.c **** void * __wrap__malloc_r (struct _reent *pr, size_t size) {
 372              		.loc 1 151 58 is_stmt 1 view -0
 373              		.cfi_startproc
 374              		@ args = 0, pretend = 0, frame = 0
 375              		@ frame_needed = 0, uses_anonymous_args = 0
 376              		@ link register save eliminated.
 152:dmcp/sys/pgm_syscalls.c **** 	return malloc(size);
 377              		.loc 1 152 2 view .LVU52
 378              	.LBB10:
 379              	.LBI10:
 380              		.file 2 "/usr/include/newlib/stdlib.h"
   1:/usr/include/newlib/stdlib.h **** /*
   2:/usr/include/newlib/stdlib.h ****  * stdlib.h
   3:/usr/include/newlib/stdlib.h ****  *
   4:/usr/include/newlib/stdlib.h ****  * Definitions for common types, variables, and functions.
   5:/usr/include/newlib/stdlib.h ****  */
ARM GAS  /tmp/ccPQvOwM.s 			page 10


   6:/usr/include/newlib/stdlib.h **** 
   7:/usr/include/newlib/stdlib.h **** #ifndef _STDLIB_H_
   8:/usr/include/newlib/stdlib.h **** #define _STDLIB_H_
   9:/usr/include/newlib/stdlib.h **** 
  10:/usr/include/newlib/stdlib.h **** #include <machine/ieeefp.h>
  11:/usr/include/newlib/stdlib.h **** #include "_ansi.h"
  12:/usr/include/newlib/stdlib.h **** 
  13:/usr/include/newlib/stdlib.h **** #define __need_size_t
  14:/usr/include/newlib/stdlib.h **** #define __need_wchar_t
  15:/usr/include/newlib/stdlib.h **** #define __need_NULL
  16:/usr/include/newlib/stdlib.h **** #include <stddef.h>
  17:/usr/include/newlib/stdlib.h **** 
  18:/usr/include/newlib/stdlib.h **** #include <sys/reent.h>
  19:/usr/include/newlib/stdlib.h **** #include <sys/cdefs.h>
  20:/usr/include/newlib/stdlib.h **** #include <machine/stdlib.h>
  21:/usr/include/newlib/stdlib.h **** #ifndef __STRICT_ANSI__
  22:/usr/include/newlib/stdlib.h **** #include <alloca.h>
  23:/usr/include/newlib/stdlib.h **** #endif
  24:/usr/include/newlib/stdlib.h **** 
  25:/usr/include/newlib/stdlib.h **** #ifdef __CYGWIN__
  26:/usr/include/newlib/stdlib.h **** #include <cygwin/stdlib.h>
  27:/usr/include/newlib/stdlib.h **** #endif
  28:/usr/include/newlib/stdlib.h **** 
  29:/usr/include/newlib/stdlib.h **** #if __GNU_VISIBLE
  30:/usr/include/newlib/stdlib.h **** #include <sys/_locale.h>
  31:/usr/include/newlib/stdlib.h **** #endif
  32:/usr/include/newlib/stdlib.h **** 
  33:/usr/include/newlib/stdlib.h **** _BEGIN_STD_C
  34:/usr/include/newlib/stdlib.h **** 
  35:/usr/include/newlib/stdlib.h **** typedef struct 
  36:/usr/include/newlib/stdlib.h **** {
  37:/usr/include/newlib/stdlib.h ****   int quot; /* quotient */
  38:/usr/include/newlib/stdlib.h ****   int rem; /* remainder */
  39:/usr/include/newlib/stdlib.h **** } div_t;
  40:/usr/include/newlib/stdlib.h **** 
  41:/usr/include/newlib/stdlib.h **** typedef struct 
  42:/usr/include/newlib/stdlib.h **** {
  43:/usr/include/newlib/stdlib.h ****   long quot; /* quotient */
  44:/usr/include/newlib/stdlib.h ****   long rem; /* remainder */
  45:/usr/include/newlib/stdlib.h **** } ldiv_t;
  46:/usr/include/newlib/stdlib.h **** 
  47:/usr/include/newlib/stdlib.h **** #if __ISO_C_VISIBLE >= 1999
  48:/usr/include/newlib/stdlib.h **** typedef struct
  49:/usr/include/newlib/stdlib.h **** {
  50:/usr/include/newlib/stdlib.h ****   long long int quot; /* quotient */
  51:/usr/include/newlib/stdlib.h ****   long long int rem; /* remainder */
  52:/usr/include/newlib/stdlib.h **** } lldiv_t;
  53:/usr/include/newlib/stdlib.h **** #endif
  54:/usr/include/newlib/stdlib.h **** 
  55:/usr/include/newlib/stdlib.h **** #ifndef __compar_fn_t_defined
  56:/usr/include/newlib/stdlib.h **** #define __compar_fn_t_defined
  57:/usr/include/newlib/stdlib.h **** typedef int (*__compar_fn_t) (const void *, const void *);
  58:/usr/include/newlib/stdlib.h **** #endif
  59:/usr/include/newlib/stdlib.h **** 
  60:/usr/include/newlib/stdlib.h **** #define EXIT_FAILURE 1
  61:/usr/include/newlib/stdlib.h **** #define EXIT_SUCCESS 0
  62:/usr/include/newlib/stdlib.h **** 
ARM GAS  /tmp/ccPQvOwM.s 			page 11


  63:/usr/include/newlib/stdlib.h **** #define RAND_MAX __RAND_MAX
  64:/usr/include/newlib/stdlib.h **** 
  65:/usr/include/newlib/stdlib.h **** int	__locale_mb_cur_max (void);
  66:/usr/include/newlib/stdlib.h **** 
  67:/usr/include/newlib/stdlib.h **** #define MB_CUR_MAX __locale_mb_cur_max()
  68:/usr/include/newlib/stdlib.h **** 
  69:/usr/include/newlib/stdlib.h **** void	abort (void) _ATTRIBUTE ((__noreturn__));
  70:/usr/include/newlib/stdlib.h **** int	abs (int);
  71:/usr/include/newlib/stdlib.h **** #if __BSD_VISIBLE
  72:/usr/include/newlib/stdlib.h **** __uint32_t arc4random (void);
  73:/usr/include/newlib/stdlib.h **** __uint32_t arc4random_uniform (__uint32_t);
  74:/usr/include/newlib/stdlib.h **** void    arc4random_buf (void *, size_t);
  75:/usr/include/newlib/stdlib.h **** #endif
  76:/usr/include/newlib/stdlib.h **** int	atexit (void (*__func)(void));
  77:/usr/include/newlib/stdlib.h **** double	atof (const char *__nptr);
  78:/usr/include/newlib/stdlib.h **** #if __MISC_VISIBLE
  79:/usr/include/newlib/stdlib.h **** float	atoff (const char *__nptr);
  80:/usr/include/newlib/stdlib.h **** #endif
  81:/usr/include/newlib/stdlib.h **** int	atoi (const char *__nptr);
  82:/usr/include/newlib/stdlib.h **** int	_atoi_r (struct _reent *, const char *__nptr);
  83:/usr/include/newlib/stdlib.h **** long	atol (const char *__nptr);
  84:/usr/include/newlib/stdlib.h **** long	_atol_r (struct _reent *, const char *__nptr);
  85:/usr/include/newlib/stdlib.h **** void *	bsearch (const void *__key,
  86:/usr/include/newlib/stdlib.h **** 		       const void *__base,
  87:/usr/include/newlib/stdlib.h **** 		       size_t __nmemb,
  88:/usr/include/newlib/stdlib.h **** 		       size_t __size,
  89:/usr/include/newlib/stdlib.h **** 		       __compar_fn_t _compar);
  90:/usr/include/newlib/stdlib.h **** void	*calloc(size_t, size_t) __malloc_like __result_use_check
  91:/usr/include/newlib/stdlib.h **** 	     __alloc_size2(1, 2) _NOTHROW;
  92:/usr/include/newlib/stdlib.h **** div_t	div (int __numer, int __denom);
  93:/usr/include/newlib/stdlib.h **** void	exit (int __status) _ATTRIBUTE ((__noreturn__));
  94:/usr/include/newlib/stdlib.h **** void	free (void *) _NOTHROW;
  95:/usr/include/newlib/stdlib.h **** char *  getenv (const char *__string);
  96:/usr/include/newlib/stdlib.h **** char *	_getenv_r (struct _reent *, const char *__string);
  97:/usr/include/newlib/stdlib.h **** #if __GNU_VISIBLE
  98:/usr/include/newlib/stdlib.h **** char *  secure_getenv (const char *__string);
  99:/usr/include/newlib/stdlib.h **** #endif
 100:/usr/include/newlib/stdlib.h **** char *	_findenv (const char *, int *);
 101:/usr/include/newlib/stdlib.h **** char *	_findenv_r (struct _reent *, const char *, int *);
 102:/usr/include/newlib/stdlib.h **** #if __POSIX_VISIBLE >= 200809
 103:/usr/include/newlib/stdlib.h **** extern char *suboptarg;			/* getsubopt(3) external variable */
 104:/usr/include/newlib/stdlib.h **** int	getsubopt (char **, char * const *, char **);
 105:/usr/include/newlib/stdlib.h **** #endif
 106:/usr/include/newlib/stdlib.h **** long	labs (long);
 107:/usr/include/newlib/stdlib.h **** ldiv_t	ldiv (long __numer, long __denom);
 108:/usr/include/newlib/stdlib.h **** void	*malloc(size_t) __malloc_like __result_use_check __alloc_size(1) _NOTHROW;
 381              		.loc 2 108 7 view .LVU53
 382              	.LBB11:
 137:dmcp/sys/pgm_syscalls.c **** }
 383              		.loc 1 137 2 view .LVU54
 137:dmcp/sys/pgm_syscalls.c **** }
 384              		.loc 1 137 9 is_stmt 0 view .LVU55
 385 0000 014B     		ldr	r3, .L26
 386 0002 0846     		mov	r0, r1
 387              	.LVL23:
 137:dmcp/sys/pgm_syscalls.c **** }
 388              		.loc 1 137 9 view .LVU56
ARM GAS  /tmp/ccPQvOwM.s 			page 12


 389 0004 1847     		bx	r3
 390              	.LVL24:
 391              	.L27:
 137:dmcp/sys/pgm_syscalls.c **** }
 392              		.loc 1 137 9 view .LVU57
 393 0006 00BF     		.align	2
 394              	.L26:
 395 0008 01020008 		.word	134218241
 396              	.LBE11:
 397              	.LBE10:
 398              		.cfi_endproc
 399              	.LFE37:
 401              		.section	.text._calloc_r,"ax",%progbits
 402              		.align	1
 403              		.p2align 2,,3
 404              		.global	_calloc_r
 405              		.syntax unified
 406              		.thumb
 407              		.thumb_func
 408              		.fpu fpv4-sp-d16
 410              	_calloc_r:
 411              	.LVL25:
 412              	.LFB38:
 153:dmcp/sys/pgm_syscalls.c **** }
 154:dmcp/sys/pgm_syscalls.c **** 
 155:dmcp/sys/pgm_syscalls.c **** void * _calloc_r (struct _reent *pr, size_t nmemb, size_t size) {
 413              		.loc 1 155 65 is_stmt 1 view -0
 414              		.cfi_startproc
 415              		@ args = 0, pretend = 0, frame = 0
 416              		@ frame_needed = 0, uses_anonymous_args = 0
 417              		@ link register save eliminated.
 156:dmcp/sys/pgm_syscalls.c **** 	return calloc(nmemb, size);
 418              		.loc 1 156 2 view .LVU59
 419              	.LBB12:
 420              	.LBI12:
  90:/usr/include/newlib/stdlib.h **** 	     __alloc_size2(1, 2) _NOTHROW;
 421              		.loc 2 90 7 view .LVU60
 422              	.LBB13:
 142:dmcp/sys/pgm_syscalls.c **** }
 423              		.loc 1 142 2 view .LVU61
 142:dmcp/sys/pgm_syscalls.c **** }
 424              		.loc 1 142 9 is_stmt 0 view .LVU62
 425 0000 0846     		mov	r0, r1
 426              	.LVL26:
 142:dmcp/sys/pgm_syscalls.c **** }
 427              		.loc 1 142 9 view .LVU63
 428 0002 014B     		ldr	r3, .L29
 429 0004 1146     		mov	r1, r2
 430              	.LVL27:
 142:dmcp/sys/pgm_syscalls.c **** }
 431              		.loc 1 142 9 view .LVU64
 432 0006 1847     		bx	r3
 433              	.LVL28:
 434              	.L30:
 142:dmcp/sys/pgm_syscalls.c **** }
 435              		.loc 1 142 9 view .LVU65
 436              		.align	2
ARM GAS  /tmp/ccPQvOwM.s 			page 13


 437              	.L29:
 438 0008 09020008 		.word	134218249
 439              	.LBE13:
 440              	.LBE12:
 441              		.cfi_endproc
 442              	.LFE38:
 444              		.section	.text._realloc_r,"ax",%progbits
 445              		.align	1
 446              		.p2align 2,,3
 447              		.global	_realloc_r
 448              		.syntax unified
 449              		.thumb
 450              		.thumb_func
 451              		.fpu fpv4-sp-d16
 453              	_realloc_r:
 454              	.LVL29:
 455              	.LFB39:
 157:dmcp/sys/pgm_syscalls.c **** }
 158:dmcp/sys/pgm_syscalls.c **** 
 159:dmcp/sys/pgm_syscalls.c **** void * _realloc_r (struct _reent *pr, void *ptr, size_t size) {
 456              		.loc 1 159 63 is_stmt 1 view -0
 457              		.cfi_startproc
 458              		@ args = 0, pretend = 0, frame = 0
 459              		@ frame_needed = 0, uses_anonymous_args = 0
 460              		@ link register save eliminated.
 160:dmcp/sys/pgm_syscalls.c **** 	return realloc(ptr, size);
 461              		.loc 1 160 2 view .LVU67
 462              	.LBB14:
 463              	.LBI14:
 109:/usr/include/newlib/stdlib.h **** int	mblen (const char *, size_t);
 110:/usr/include/newlib/stdlib.h **** int	_mblen_r (struct _reent *, const char *, size_t, _mbstate_t *);
 111:/usr/include/newlib/stdlib.h **** int	mbtowc (wchar_t *__restrict, const char *__restrict, size_t);
 112:/usr/include/newlib/stdlib.h **** int	_mbtowc_r (struct _reent *, wchar_t *__restrict, const char *__restrict, size_t, _mbstate_t *);
 113:/usr/include/newlib/stdlib.h **** int	wctomb (char *, wchar_t);
 114:/usr/include/newlib/stdlib.h **** int	_wctomb_r (struct _reent *, char *, wchar_t, _mbstate_t *);
 115:/usr/include/newlib/stdlib.h **** size_t	mbstowcs (wchar_t *__restrict, const char *__restrict, size_t);
 116:/usr/include/newlib/stdlib.h **** size_t	_mbstowcs_r (struct _reent *, wchar_t *__restrict, const char *__restrict, size_t, _mbstate_
 117:/usr/include/newlib/stdlib.h **** size_t	wcstombs (char *__restrict, const wchar_t *__restrict, size_t);
 118:/usr/include/newlib/stdlib.h **** size_t	_wcstombs_r (struct _reent *, char *__restrict, const wchar_t *__restrict, size_t, _mbstate_
 119:/usr/include/newlib/stdlib.h **** #ifndef _REENT_ONLY
 120:/usr/include/newlib/stdlib.h **** #if __BSD_VISIBLE || __POSIX_VISIBLE >= 200809
 121:/usr/include/newlib/stdlib.h **** char *	mkdtemp (char *);
 122:/usr/include/newlib/stdlib.h **** #endif
 123:/usr/include/newlib/stdlib.h **** #if __GNU_VISIBLE
 124:/usr/include/newlib/stdlib.h **** int	mkostemp (char *, int);
 125:/usr/include/newlib/stdlib.h **** int	mkostemps (char *, int, int);
 126:/usr/include/newlib/stdlib.h **** #endif
 127:/usr/include/newlib/stdlib.h **** #if __MISC_VISIBLE || __POSIX_VISIBLE >= 200112 || __XSI_VISIBLE >= 4
 128:/usr/include/newlib/stdlib.h **** int	mkstemp (char *);
 129:/usr/include/newlib/stdlib.h **** #endif
 130:/usr/include/newlib/stdlib.h **** #if __MISC_VISIBLE
 131:/usr/include/newlib/stdlib.h **** int	mkstemps (char *, int);
 132:/usr/include/newlib/stdlib.h **** #endif
 133:/usr/include/newlib/stdlib.h **** #if __BSD_VISIBLE || (__XSI_VISIBLE >= 4 && __POSIX_VISIBLE < 200112)
 134:/usr/include/newlib/stdlib.h **** char *	mktemp (char *) _ATTRIBUTE ((__deprecated__("the use of `mktemp' is dangerous; use `mkstemp'
 135:/usr/include/newlib/stdlib.h **** #endif
 136:/usr/include/newlib/stdlib.h **** #endif /* !_REENT_ONLY */
ARM GAS  /tmp/ccPQvOwM.s 			page 14


 137:/usr/include/newlib/stdlib.h **** char *	_mkdtemp_r (struct _reent *, char *);
 138:/usr/include/newlib/stdlib.h **** int	_mkostemp_r (struct _reent *, char *, int);
 139:/usr/include/newlib/stdlib.h **** int	_mkostemps_r (struct _reent *, char *, int, int);
 140:/usr/include/newlib/stdlib.h **** int	_mkstemp_r (struct _reent *, char *);
 141:/usr/include/newlib/stdlib.h **** int	_mkstemps_r (struct _reent *, char *, int);
 142:/usr/include/newlib/stdlib.h **** char *	_mktemp_r (struct _reent *, char *) _ATTRIBUTE ((__deprecated__("the use of `mktemp' is dang
 143:/usr/include/newlib/stdlib.h **** void	qsort (void *__base, size_t __nmemb, size_t __size, __compar_fn_t _compar);
 144:/usr/include/newlib/stdlib.h **** int	rand (void);
 145:/usr/include/newlib/stdlib.h **** void	*realloc(void *, size_t) __result_use_check __alloc_size(2) _NOTHROW;
 464              		.loc 2 145 7 view .LVU68
 465              	.LBB15:
 146:dmcp/sys/pgm_syscalls.c **** }
 466              		.loc 1 146 2 view .LVU69
 146:dmcp/sys/pgm_syscalls.c **** }
 467              		.loc 1 146 9 is_stmt 0 view .LVU70
 468 0000 0846     		mov	r0, r1
 469              	.LVL30:
 146:dmcp/sys/pgm_syscalls.c **** }
 470              		.loc 1 146 9 view .LVU71
 471 0002 014B     		ldr	r3, .L32
 472 0004 1146     		mov	r1, r2
 473              	.LVL31:
 146:dmcp/sys/pgm_syscalls.c **** }
 474              		.loc 1 146 9 view .LVU72
 475 0006 1847     		bx	r3
 476              	.LVL32:
 477              	.L33:
 146:dmcp/sys/pgm_syscalls.c **** }
 478              		.loc 1 146 9 view .LVU73
 479              		.align	2
 480              	.L32:
 481 0008 0D020008 		.word	134218253
 482              	.LBE15:
 483              	.LBE14:
 484              		.cfi_endproc
 485              	.LFE39:
 487              		.section	.text._free_r,"ax",%progbits
 488              		.align	1
 489              		.p2align 2,,3
 490              		.global	_free_r
 491              		.syntax unified
 492              		.thumb
 493              		.thumb_func
 494              		.fpu fpv4-sp-d16
 496              	_free_r:
 497              	.LVL33:
 498              	.LFB40:
 161:dmcp/sys/pgm_syscalls.c **** }
 162:dmcp/sys/pgm_syscalls.c **** 
 163:dmcp/sys/pgm_syscalls.c **** void _free_r (struct _reent *pr, void *ptr) {
 499              		.loc 1 163 45 is_stmt 1 view -0
 500              		.cfi_startproc
 501              		@ args = 0, pretend = 0, frame = 0
 502              		@ frame_needed = 0, uses_anonymous_args = 0
 503              		@ link register save eliminated.
 164:dmcp/sys/pgm_syscalls.c **** 	free(ptr);
 504              		.loc 1 164 2 view .LVU75
ARM GAS  /tmp/ccPQvOwM.s 			page 15


 505              	.LBB16:
 506              	.LBI16:
  94:/usr/include/newlib/stdlib.h **** char *  getenv (const char *__string);
 507              		.loc 2 94 6 view .LVU76
 508              	.LBB17:
 132:dmcp/sys/pgm_syscalls.c **** }
 509              		.loc 1 132 2 view .LVU77
 510 0000 014B     		ldr	r3, .L35
 511 0002 0846     		mov	r0, r1
 512              	.LVL34:
 132:dmcp/sys/pgm_syscalls.c **** }
 513              		.loc 1 132 2 is_stmt 0 view .LVU78
 514 0004 1847     		bx	r3	@ indirect register sibling call
 515              	.LVL35:
 516              	.L36:
 132:dmcp/sys/pgm_syscalls.c **** }
 517              		.loc 1 132 2 view .LVU79
 518 0006 00BF     		.align	2
 519              	.L35:
 520 0008 05020008 		.word	134218245
 521              	.LBE17:
 522              	.LBE16:
 523              		.cfi_endproc
 524              	.LFE40:
 526              		.section	.text.post_main,"ax",%progbits
 527              		.align	1
 528              		.p2align 2,,3
 529              		.global	post_main
 530              		.syntax unified
 531              		.thumb
 532              		.thumb_func
 533              		.fpu fpv4-sp-d16
 535              	post_main:
 536              	.LFB41:
 165:dmcp/sys/pgm_syscalls.c **** }
 166:dmcp/sys/pgm_syscalls.c **** 
 167:dmcp/sys/pgm_syscalls.c **** 
 168:dmcp/sys/pgm_syscalls.c **** void post_main() {
 537              		.loc 1 168 18 is_stmt 1 view -0
 538              		.cfi_startproc
 539              		@ args = 0, pretend = 0, frame = 0
 540              		@ frame_needed = 0, uses_anonymous_args = 0
 169:dmcp/sys/pgm_syscalls.c **** 	// Just start DMCP
 170:dmcp/sys/pgm_syscalls.c **** 	set_reset_magic(RUN_DMCP_MAGIC);
 541              		.loc 1 170 2 view .LVU81
 168:dmcp/sys/pgm_syscalls.c **** 	// Just start DMCP
 542              		.loc 1 168 18 is_stmt 0 view .LVU82
 543 0000 10B5     		push	{r4, lr}
 544              		.cfi_def_cfa_offset 8
 545              		.cfi_offset 4, -8
 546              		.cfi_offset 14, -4
 547              		.loc 1 170 2 view .LVU83
 548 0002 034B     		ldr	r3, .L39
 549 0004 0348     		ldr	r0, .L39+4
 550 0006 9847     		blx	r3
 551              	.LVL36:
 171:dmcp/sys/pgm_syscalls.c **** 	sys_reset();
ARM GAS  /tmp/ccPQvOwM.s 			page 16


 552              		.loc 1 171 2 is_stmt 1 view .LVU84
 172:dmcp/sys/pgm_syscalls.c **** }
 553              		.loc 1 172 1 is_stmt 0 view .LVU85
 554 0008 BDE81040 		pop	{r4, lr}
 555              		.cfi_restore 14
 556              		.cfi_restore 4
 557              		.cfi_def_cfa_offset 0
 171:dmcp/sys/pgm_syscalls.c **** 	sys_reset();
 558              		.loc 1 171 2 view .LVU86
 559 000c 024B     		ldr	r3, .L39+8
 560 000e 1847     		bx	r3	@ indirect register sibling call
 561              	.LVL37:
 562              	.L40:
 563              		.align	2
 564              	.L39:
 565 0010 11030008 		.word	134218513
 566 0014 37EAE73C 		.word	1021831735
 567 0018 21040008 		.word	134218785
 568              		.cfi_endproc
 569              	.LFE41:
 571              		.global	prog_info
 572              		.section	.rodata.prog_info,"a"
 573              		.align	2
 576              	prog_info:
 577 0000 DEC077D3 		.word	-747126562
 578 0004 00000000 		.word	0
 579 0008 00000000 		.word	Program_Entry
 580 000c 03000000 		.word	3
 581 0010 0F000000 		.word	15
 582 0014 00000000 		.word	0
 583 0018 00000000 		.word	0
 584 001c 77703334 		.ascii	"wp34c_top\000"
 584      635F746F 
 584      7000
 585 0026 00000000 		.space	6
 585      0000
 586 002c 373400   		.ascii	"74\000"
 587 002f 00000000 		.space	13
 587      00000000 
 587      00000000 
 587      00
 588 003c FFFFFFFF 		.word	-1
 589              		.text
 590              	.Letext0:
 591              		.file 3 "/usr/include/newlib/machine/_default_types.h"
 592              		.file 4 "/usr/lib/gcc/arm-none-eabi/9.2.1/include/stddef.h"
 593              		.file 5 "/usr/include/newlib/sys/_types.h"
 594              		.file 6 "/usr/include/newlib/sys/reent.h"
 595              		.file 7 "/usr/include/newlib/sys/lock.h"
 596              		.file 8 "/usr/include/newlib/sys/_stdint.h"
 597              		.file 9 "/usr/include/newlib/sys/_timeval.h"
 598              		.file 10 "/usr/include/newlib/sys/_timespec.h"
 599              		.file 11 "/usr/include/newlib/sys/types.h"
 600              		.file 12 "/usr/include/newlib/time.h"
 601              		.file 13 "/usr/include/newlib/sys/stat.h"
 602              		.file 14 "/usr/include/newlib/sys/errno.h"
 603              		.file 15 "dmcp/dmcp.h"
ARM GAS  /tmp/ccPQvOwM.s 			page 17


ARM GAS  /tmp/ccPQvOwM.s 			page 18

