ARM GAS  /tmp/cc3WwB9H.s 			page 1


   1              		.arch armv7e-m
   2              		.eabi_attribute 27, 1
   3              		.eabi_attribute 28, 1
   4              		.eabi_attribute 20, 1
   5              		.eabi_attribute 21, 1
   6              		.eabi_attribute 23, 3
   7              		.eabi_attribute 24, 1
   8              		.eabi_attribute 25, 1
   9              		.eabi_attribute 26, 1
  10              		.eabi_attribute 30, 2
  11              		.eabi_attribute 34, 1
  12              		.eabi_attribute 18, 4
  13              		.file	"printer.c"
  14              		.text
  15              	.Ltext0:
  16              		.cfi_sections	.debug_frame
  17              		.section	.text.buffer_width,"ax",%progbits
  18              		.align	1
  19              		.p2align 2,,3
  20              		.arch armv7e-m
  21              		.syntax unified
  22              		.thumb
  23              		.thumb_func
  24              		.fpu fpv4-sp-d16
  26              	buffer_width:
  27              	.LVL0:
  28              	.LFB8:
  29              		.file 1 "src/printer.c"
   1:src/printer.c **** /* This file is part of 34S.
   2:src/printer.c ****  *
   3:src/printer.c ****  * 34S is free software: you can redistribute it and/or modify
   4:src/printer.c ****  * it under the terms of the GNU General Public License as published by
   5:src/printer.c ****  * the Free Software Foundation, either version 3 of the License, or
   6:src/printer.c ****  * (at your option) any later version.
   7:src/printer.c ****  *
   8:src/printer.c ****  * 34S is distributed in the hope that it will be useful,
   9:src/printer.c ****  * but WITHOUT ANY WARRANTY; without even the implied warranty of
  10:src/printer.c ****  * MERCHANTABILITY or FITNESS FOR A PARTICULAR PURPOSE.  See the
  11:src/printer.c ****  * GNU General Public License for more details.
  12:src/printer.c ****  *
  13:src/printer.c ****  * You should have received a copy of the GNU General Public License
  14:src/printer.c ****  * along with 34S.  If not, see <http://www.gnu.org/licenses/>.
  15:src/printer.c ****  */
  16:src/printer.c **** 
  17:src/printer.c **** 
  18:src/printer.c **** 
  19:src/printer.c **** #include "dmcp.h"
  20:src/printer.c **** 
  21:src/printer.c **** #define DM42SAFE
  22:src/printer.c **** 
  23:src/printer.c **** #include "printer.h"
  24:src/printer.c **** #include "xeq.h"
  25:src/printer.c **** #include "stats.h"
  26:src/printer.c **** #include "display.h"
  27:src/printer.c **** #include "complex.h"
  28:src/printer.c **** #include "storage.h"
  29:src/printer.c **** #include "lcd.h"
ARM GAS  /tmp/cc3WwB9H.s 			page 2


  30:src/printer.c **** 
  31:src/printer.c **** #undef DM42SAFE
  32:src/printer.c **** 
  33:src/printer.c **** #ifdef INFRARED
  34:src/printer.c **** 
  35:src/printer.c **** #define RETURN_IF_PRINT_OFF if (!UState.print_on) return
  36:src/printer.c **** #define BREAK_IF_EXIT  if (key_pop() == KEY_EXIT) break
  37:src/printer.c **** 
  38:src/printer.c **** /*
  39:src/printer.c **** void goto_new_line(void) {
  40:src/printer.c ****   print('\n');
  41:src/printer.c ****   prepare_new_line();
  42:src/printer.c **** }
  43:src/printer.c **** */
  44:src/printer.c **** 
  45:src/printer.c **** void prepare_new_line(void) {
  46:src/printer.c ****   int i = 0;
  47:src/printer.c ****   UState.print_on = 0;
  48:src/printer.c ****   finish_PRT();
  49:src/printer.c ****   printer_advance_buf(PRINT_GRA_LN);
  50:src/printer.c ****   while ( printer_busy_for (PRINT_GRA_LN) && i<50 ) { // return after 5.0s anyway 
  51:src/printer.c ****     sys_timer_start(0, 100);  // Timer 0: wake up for heartbeat 
  52:src/printer.c ****     sys_sleep();
  53:src/printer.c ****     sys_timer_disable(0); // stop timer
  54:src/printer.c ****     i++;
  55:src/printer.c ****   }
  56:src/printer.c ****   UState.print_on = 1;
  57:src/printer.c ****   finish_PRT();
  58:src/printer.c **** }
  59:src/printer.c **** 
  60:src/printer.c **** void put_ir( int byte ) {
  61:src/printer.c ****   if (UState.print_on) print_byte( (uint8_t) byte);
  62:src/printer.c **** }
  63:src/printer.c **** 
  64:src/printer.c **** /*
  65:src/printer.c ****  *  Where will the next data be printed?
  66:src/printer.c ****  *  Columns are in pixel units from 0 to 165
  67:src/printer.c ****  */
  68:src/printer.c **** unsigned int PrinterColumn;
  69:src/printer.c **** 
  70:src/printer.c **** /*
  71:src/printer.c ****  *  Print to IR or serial port, depending on the PMODE setting. FINE.
  72:src/printer.c ****  */
  73:src/printer.c **** void print( int c ) { // prints a single character
  74:src/printer.c ****   const int mode = UState.print_mode;
  75:src/printer.c ****   // Serial mode code removed for DM42
  76:src/printer.c ****   if ( c == '\n' && ( mode == PMODE_GRAPHICS || mode == PMODE_SMALLGRAPHICS ) ) {
  77:src/printer.c ****     // better LF for graphics printing
  78:src/printer.c ****     put_ir( 0x04 );
  79:src/printer.c ****     return;
  80:src/printer.c ****   }
  81:src/printer.c ****   put_ir( c );
  82:src/printer.c **** }
  83:src/printer.c **** 
  84:src/printer.c **** 
  85:src/printer.c **** /*
  86:src/printer.c ****  *  New line
ARM GAS  /tmp/cc3WwB9H.s 			page 3


  87:src/printer.c ****  */
  88:src/printer.c **** void print_advance( int mode ) {
  89:src/printer.c ****   PrinterColumn = 0;
  90:src/printer.c ****   print( mode ? 0x04 : '\n' );
  91:src/printer.c ****   if (UState.print_blank_line) print( mode ? 0x04 : '\n' ); 
  92:src/printer.c ****   prepare_new_line();
  93:src/printer.c **** }
  94:src/printer.c **** 
  95:src/printer.c **** 
  96:src/printer.c **** /*
  97:src/printer.c ****  *  New line if tracing is active
  98:src/printer.c ****  */
  99:src/printer.c **** static void advance_if_trace()
 100:src/printer.c **** {
 101:src/printer.c ****   if ( PrinterColumn != 0 && Tracing ) {
 102:src/printer.c ****     print_advance( 0 );
 103:src/printer.c ****   }
 104:src/printer.c **** }
 105:src/printer.c **** 
 106:src/printer.c **** 
 107:src/printer.c **** /*
 108:src/printer.c ****  *  Move to column
 109:src/printer.c ****  */
 110:src/printer.c **** void print_tab( unsigned int col ) // pixel-aligned column
 111:src/printer.c **** {
 112:src/printer.c ****   if ( PrinterColumn > col ) {
 113:src/printer.c ****     print_advance( 0 );
 114:src/printer.c ****   }
 115:src/printer.c ****   if ( PrinterColumn < col ) {
 116:src/printer.c ****     int i = col - PrinterColumn;
 117:src/printer.c ****     int j = i / 7;
 118:src/printer.c ****     i %= 7;
 119:src/printer.c ****     PrinterColumn = col;
 120:src/printer.c ****     if ( i ) {
 121:src/printer.c ****       put_ir( 27 );
 122:src/printer.c ****       put_ir( i );
 123:src/printer.c ****       while ( i-- )
 124:src/printer.c **** 	put_ir( 0 );
 125:src/printer.c ****     }
 126:src/printer.c ****     while ( j-- )
 127:src/printer.c ****       put_ir( ' ' );
 128:src/printer.c ****   }
 129:src/printer.c **** }
 130:src/printer.c **** 
 131:src/printer.c **** 
 132:src/printer.c **** /* Print a buffer from the given tab position and add a new line
 133:src/printer.c ****  */
 134:src/printer.c **** static void print_string_from_tab(const char *s, int tab)
 135:src/printer.c **** {
 136:src/printer.c ****   print_tab(tab);
 137:src/printer.c ****   print_line(s, 1);
 138:src/printer.c **** }
 139:src/printer.c **** 
 140:src/printer.c **** 
 141:src/printer.c **** /*
 142:src/printer.c ****  *  Print a graphic sequence
 143:src/printer.c ****  */
ARM GAS  /tmp/cc3WwB9H.s 			page 4


 144:src/printer.c **** void print_graphic( int glen, const unsigned char *graphic ) {
 145:src/printer.c ****   if ( glen > 0 ) {
 146:src/printer.c ****     put_ir( 27 );
 147:src/printer.c ****     put_ir( glen );
 148:src/printer.c ****     while ( glen-- ) {
 149:src/printer.c ****       put_ir( *graphic++ );
 150:src/printer.c ****     }
 151:src/printer.c ****   }
 152:src/printer.c **** }
 153:src/printer.c **** 
 154:src/printer.c **** 
 155:src/printer.c **** /*
 156:src/printer.c ****  *  Determine the length of a string in printer pixels based on the current mode.
 157:src/printer.c ****  */
 158:src/printer.c **** static int buffer_width(const char *buff)
 159:src/printer.c **** {
  30              		.loc 1 159 1 view -0
  31              		.cfi_startproc
  32              		@ args = 0, pretend = 0, frame = 0
  33              		@ frame_needed = 0, uses_anonymous_args = 0
 160:src/printer.c ****   const int mode = UState.print_mode;
  34              		.loc 1 160 3 view .LVU1
 159:src/printer.c ****   const int mode = UState.print_mode;
  35              		.loc 1 159 1 is_stmt 0 view .LVU2
  36 0000 70B5     		push	{r4, r5, r6, lr}
  37              		.cfi_def_cfa_offset 16
  38              		.cfi_offset 4, -16
  39              		.cfi_offset 5, -12
  40              		.cfi_offset 6, -8
  41              		.cfi_offset 14, -4
  42              		.loc 1 160 26 view .LVU3
  43 0002 114B     		ldr	r3, .L15
 161:src/printer.c ****   unsigned int c;
 162:src/printer.c ****   int l = 0;
 163:src/printer.c **** 
 164:src/printer.c ****   while ((c = 0xff & *buff++) != '\0') {
  44              		.loc 1 164 27 view .LVU4
  45 0004 0446     		mov	r4, r0
 160:src/printer.c ****   unsigned int c;
  46              		.loc 1 160 26 view .LVU5
  47 0006 1B68     		ldr	r3, [r3]
  48              		.loc 1 164 13 view .LVU6
  49 0008 14F8010B 		ldrb	r0, [r4], #1	@ zero_extendqisi2
  50              	.LVL1:
 160:src/printer.c ****   unsigned int c;
  51              		.loc 1 160 26 view .LVU7
  52 000c 93F8EA57 		ldrb	r5, [r3, #2026]	@ zero_extendqisi2
  53              	.LVL2:
 161:src/printer.c ****   unsigned int c;
  54              		.loc 1 161 3 is_stmt 1 view .LVU8
 162:src/printer.c **** 
  55              		.loc 1 162 3 view .LVU9
  56              		.loc 1 164 3 view .LVU10
  57              		.loc 1 164 9 view .LVU11
  58              		.loc 1 164 9 is_stmt 0 view .LVU12
  59 0010 B0B1     		cbz	r0, .L7
  60 0012 05F00305 		and	r5, r5, #3
ARM GAS  /tmp/cc3WwB9H.s 			page 5


  61              	.LVL3:
 162:src/printer.c **** 
  62              		.loc 1 162 7 view .LVU13
  63 0016 0026     		movs	r6, #0
  64 0018 03E0     		b	.L6
  65              	.LVL4:
  66              	.L14:
  67              		.loc 1 164 13 view .LVU14
  68 001a 14F8010B 		ldrb	r0, [r4], #1	@ zero_extendqisi2
  69              	.LVL5:
 165:src/printer.c ****     switch (mode) {
 166:src/printer.c ****     default:
 167:src/printer.c ****       l += 7;
  70              		.loc 1 167 9 view .LVU15
  71 001e 0736     		adds	r6, r6, #7
  72              	.LVL6:
 168:src/printer.c ****       break;
  73              		.loc 1 168 7 is_stmt 1 view .LVU16
 164:src/printer.c ****     switch (mode) {
  74              		.loc 1 164 9 view .LVU17
 164:src/printer.c ****     switch (mode) {
  75              		.loc 1 164 9 is_stmt 0 view .LVU18
  76 0020 60B1     		cbz	r0, .L1
  77              	.LVL7:
  78              	.L6:
 165:src/printer.c ****     switch (mode) {
  79              		.loc 1 165 5 is_stmt 1 view .LVU19
  80 0022 012D     		cmp	r5, #1
  81 0024 03D0     		beq	.L3
 167:src/printer.c ****       break;
  82              		.loc 1 167 7 view .LVU20
 169:src/printer.c **** 
 170:src/printer.c ****     case PMODE_SMALLGRAPHICS:
 171:src/printer.c ****       c += 256;
  83              		.loc 1 171 7 view .LVU21
 165:src/printer.c ****     default:
  84              		.loc 1 165 5 is_stmt 0 view .LVU22
  85 0026 022D     		cmp	r5, #2
  86 0028 F7D1     		bne	.L14
  87              		.loc 1 171 9 view .LVU23
  88 002a 00F58070 		add	r0, r0, #256
  89              	.LVL8:
  90              	.L3:
 172:src/printer.c ****     case PMODE_GRAPHICS:
 173:src/printer.c ****       l += charlengths(c);
  91              		.loc 1 173 7 is_stmt 1 view .LVU24
  92              		.loc 1 173 12 is_stmt 0 view .LVU25
  93 002e FFF7FEFF 		bl	charlengths
  94              	.LVL9:
  95              		.loc 1 173 9 view .LVU26
  96 0032 0644     		add	r6, r6, r0
  97              	.LVL10:
 174:src/printer.c ****       break;
  98              		.loc 1 174 7 is_stmt 1 view .LVU27
 164:src/printer.c ****     switch (mode) {
  99              		.loc 1 164 9 view .LVU28
 164:src/printer.c ****     switch (mode) {
ARM GAS  /tmp/cc3WwB9H.s 			page 6


 100              		.loc 1 164 13 is_stmt 0 view .LVU29
 101 0034 14F8010B 		ldrb	r0, [r4], #1	@ zero_extendqisi2
 102              	.LVL11:
 164:src/printer.c ****     switch (mode) {
 103              		.loc 1 164 9 view .LVU30
 104 0038 0028     		cmp	r0, #0
 105 003a F2D1     		bne	.L6
 106              	.LVL12:
 107              	.L1:
 175:src/printer.c ****     }
 176:src/printer.c ****   }
 177:src/printer.c ****   return l;
 178:src/printer.c **** }
 108              		.loc 1 178 1 view .LVU31
 109 003c 3046     		mov	r0, r6
 110              	.LVL13:
 111              		.loc 1 178 1 view .LVU32
 112 003e 70BD     		pop	{r4, r5, r6, pc}
 113              	.LVL14:
 114              	.L7:
 162:src/printer.c **** 
 115              		.loc 1 162 7 view .LVU33
 116 0040 0646     		mov	r6, r0
 177:src/printer.c **** }
 117              		.loc 1 177 3 is_stmt 1 view .LVU34
 118              		.loc 1 178 1 is_stmt 0 view .LVU35
 119 0042 3046     		mov	r0, r6
 120              		.loc 1 178 1 view .LVU36
 121 0044 70BD     		pop	{r4, r5, r6, pc}
 122              	.LVL15:
 123              	.L16:
 124              		.loc 1 178 1 view .LVU37
 125 0046 00BF     		.align	2
 126              	.L15:
 127 0048 00000000 		.word	main_ram
 128              		.cfi_endproc
 129              	.LFE8:
 131              		.section	.text.put_ir.part.0,"ax",%progbits
 132              		.align	1
 133              		.p2align 2,,3
 134              		.syntax unified
 135              		.thumb
 136              		.thumb_func
 137              		.fpu fpv4-sp-d16
 139              	put_ir.part.0:
 140              	.LVL16:
 141              	.LFB27:
  60:src/printer.c ****   if (UState.print_on) print_byte( (uint8_t) byte);
 142              		.loc 1 60 6 is_stmt 1 view -0
 143              		.cfi_startproc
 144              		@ args = 0, pretend = 0, frame = 0
 145              		@ frame_needed = 0, uses_anonymous_args = 0
 146              		@ link register save eliminated.
  61:src/printer.c **** }
 147              		.loc 1 61 24 view .LVU39
 148 0000 014B     		ldr	r3, .L18
 149 0002 C0B2     		uxtb	r0, r0
ARM GAS  /tmp/cc3WwB9H.s 			page 7


 150              	.LVL17:
  61:src/printer.c **** }
 151              		.loc 1 61 24 is_stmt 0 view .LVU40
 152 0004 1847     		bx	r3	@ indirect register sibling call
 153              	.LVL18:
 154              	.L19:
 155 0006 00BF     		.align	2
 156              	.L18:
 157 0008 2D030008 		.word	134218541
 158              		.cfi_endproc
 159              	.LFE27:
 161              		.section	.text.prepare_new_line,"ax",%progbits
 162              		.align	1
 163              		.p2align 2,,3
 164              		.global	prepare_new_line
 165              		.syntax unified
 166              		.thumb
 167              		.thumb_func
 168              		.fpu fpv4-sp-d16
 170              	prepare_new_line:
 171              	.LFB0:
  45:src/printer.c ****   int i = 0;
 172              		.loc 1 45 29 is_stmt 1 view -0
 173              		.cfi_startproc
 174              		@ args = 0, pretend = 0, frame = 0
 175              		@ frame_needed = 0, uses_anonymous_args = 0
  46:src/printer.c ****   UState.print_on = 0;
 176              		.loc 1 46 3 view .LVU42
 177              	.LVL19:
  47:src/printer.c ****   finish_PRT();
 178              		.loc 1 47 3 view .LVU43
  45:src/printer.c ****   int i = 0;
 179              		.loc 1 45 29 is_stmt 0 view .LVU44
 180 0000 2DE9F041 		push	{r4, r5, r6, r7, r8, lr}
 181              		.cfi_def_cfa_offset 24
 182              		.cfi_offset 4, -24
 183              		.cfi_offset 5, -20
 184              		.cfi_offset 6, -16
 185              		.cfi_offset 7, -12
 186              		.cfi_offset 8, -8
 187              		.cfi_offset 14, -4
  47:src/printer.c ****   finish_PRT();
 188              		.loc 1 47 19 view .LVU45
 189 0004 DFF86C80 		ldr	r8, .L29+20
  50:src/printer.c ****     sys_timer_start(0, 100);  // Timer 0: wake up for heartbeat 
 190              		.loc 1 50 11 view .LVU46
 191 0008 154D     		ldr	r5, .L29
  47:src/printer.c ****   finish_PRT();
 192              		.loc 1 47 19 view .LVU47
 193 000a D8F80030 		ldr	r3, [r8]
  51:src/printer.c ****     sys_sleep();
 194              		.loc 1 51 5 view .LVU48
 195 000e 154F     		ldr	r7, .L29+4
  47:src/printer.c ****   finish_PRT();
 196              		.loc 1 47 19 view .LVU49
 197 0010 93F8E427 		ldrb	r2, [r3, #2020]	@ zero_extendqisi2
  52:src/printer.c ****     sys_timer_disable(0); // stop timer
ARM GAS  /tmp/cc3WwB9H.s 			page 8


 198              		.loc 1 52 5 view .LVU50
 199 0014 144E     		ldr	r6, .L29+8
  47:src/printer.c ****   finish_PRT();
 200              		.loc 1 47 19 view .LVU51
 201 0016 6FF30002 		bfc	r2, #0, #1
 202 001a 83F8E427 		strb	r2, [r3, #2020]
  48:src/printer.c ****   printer_advance_buf(PRINT_GRA_LN);
 203              		.loc 1 48 3 is_stmt 1 view .LVU52
 204 001e FFF7FEFF 		bl	finish_PRT
 205              	.LVL20:
  49:src/printer.c ****   while ( printer_busy_for (PRINT_GRA_LN) && i<50 ) { // return after 5.0s anyway 
 206              		.loc 1 49 3 view .LVU53
 207 0022 124B     		ldr	r3, .L29+12
 208 0024 0120     		movs	r0, #1
 209 0026 9847     		blx	r3
 210              	.LVL21:
  50:src/printer.c ****     sys_timer_start(0, 100);  // Timer 0: wake up for heartbeat 
 211              		.loc 1 50 3 view .LVU54
  50:src/printer.c ****     sys_timer_start(0, 100);  // Timer 0: wake up for heartbeat 
 212              		.loc 1 50 9 is_stmt 0 view .LVU55
 213 0028 3324     		movs	r4, #51
 214 002a 06E0     		b	.L21
 215              	.LVL22:
 216              	.L28:
  50:src/printer.c ****     sys_timer_start(0, 100);  // Timer 0: wake up for heartbeat 
 217              		.loc 1 50 43 discriminator 1 view .LVU56
 218 002c 013C     		subs	r4, r4, #1
 219              	.LVL23:
  50:src/printer.c ****     sys_timer_start(0, 100);  // Timer 0: wake up for heartbeat 
 220              		.loc 1 50 43 discriminator 1 view .LVU57
 221 002e 0BD0     		beq	.L22
  51:src/printer.c ****     sys_sleep();
 222              		.loc 1 51 5 view .LVU58
 223 0030 B847     		blx	r7
 224              	.LVL24:
  52:src/printer.c ****     sys_timer_disable(0); // stop timer
 225              		.loc 1 52 5 is_stmt 1 view .LVU59
 226 0032 B047     		blx	r6
 227              	.LVL25:
  53:src/printer.c ****     i++;
 228              		.loc 1 53 5 view .LVU60
 229 0034 0E4B     		ldr	r3, .L29+16
 230 0036 0020     		movs	r0, #0
 231 0038 9847     		blx	r3
 232              	.LVL26:
  54:src/printer.c ****   }
 233              		.loc 1 54 5 view .LVU61
 234              	.L21:
  50:src/printer.c ****     sys_timer_start(0, 100);  // Timer 0: wake up for heartbeat 
 235              		.loc 1 50 9 view .LVU62
  50:src/printer.c ****     sys_timer_start(0, 100);  // Timer 0: wake up for heartbeat 
 236              		.loc 1 50 11 is_stmt 0 view .LVU63
 237 003a 0120     		movs	r0, #1
 238 003c A847     		blx	r5
 239              	.LVL27:
  51:src/printer.c ****     sys_sleep();
 240              		.loc 1 51 5 is_stmt 1 view .LVU64
ARM GAS  /tmp/cc3WwB9H.s 			page 9


  50:src/printer.c ****     sys_timer_start(0, 100);  // Timer 0: wake up for heartbeat 
 241              		.loc 1 50 11 is_stmt 0 view .LVU65
 242 003e 0346     		mov	r3, r0
  51:src/printer.c ****     sys_sleep();
 243              		.loc 1 51 5 view .LVU66
 244 0040 6421     		movs	r1, #100
 245 0042 0020     		movs	r0, #0
  50:src/printer.c ****     sys_timer_start(0, 100);  // Timer 0: wake up for heartbeat 
 246              		.loc 1 50 9 view .LVU67
 247 0044 002B     		cmp	r3, #0
 248 0046 F1D1     		bne	.L28
 249              	.LVL28:
 250              	.L22:
  56:src/printer.c ****   finish_PRT();
 251              		.loc 1 56 3 is_stmt 1 view .LVU68
  56:src/printer.c ****   finish_PRT();
 252              		.loc 1 56 19 is_stmt 0 view .LVU69
 253 0048 D8F80020 		ldr	r2, [r8]
 254 004c 92F8E437 		ldrb	r3, [r2, #2020]	@ zero_extendqisi2
 255 0050 43F00103 		orr	r3, r3, #1
  58:src/printer.c **** 
 256              		.loc 1 58 1 view .LVU70
 257 0054 BDE8F041 		pop	{r4, r5, r6, r7, r8, lr}
 258              		.cfi_restore 14
 259              		.cfi_restore 8
 260              		.cfi_restore 7
 261              		.cfi_restore 6
 262              		.cfi_restore 5
 263              		.cfi_restore 4
 264              		.cfi_def_cfa_offset 0
  56:src/printer.c ****   finish_PRT();
 265              		.loc 1 56 19 view .LVU71
 266 0058 82F8E437 		strb	r3, [r2, #2020]
  57:src/printer.c **** }
 267              		.loc 1 57 3 is_stmt 1 view .LVU72
 268 005c FFF7FEBF 		b	finish_PRT
 269              	.LVL29:
 270              	.L30:
 271              		.align	2
 272              	.L29:
 273 0060 3D030008 		.word	134218557
 274 0064 F9030008 		.word	134218745
 275 0068 19040008 		.word	134218777
 276 006c 39030008 		.word	134218553
 277 0070 F5030008 		.word	134218741
 278 0074 00000000 		.word	main_ram
 279              		.cfi_endproc
 280              	.LFE0:
 282              		.section	.text.put_ir,"ax",%progbits
 283              		.align	1
 284              		.p2align 2,,3
 285              		.global	put_ir
 286              		.syntax unified
 287              		.thumb
 288              		.thumb_func
 289              		.fpu fpv4-sp-d16
 291              	put_ir:
ARM GAS  /tmp/cc3WwB9H.s 			page 10


 292              	.LVL30:
 293              	.LFB1:
  60:src/printer.c ****   if (UState.print_on) print_byte( (uint8_t) byte);
 294              		.loc 1 60 25 view -0
 295              		.cfi_startproc
 296              		@ args = 0, pretend = 0, frame = 0
 297              		@ frame_needed = 0, uses_anonymous_args = 0
 298              		@ link register save eliminated.
  61:src/printer.c **** }
 299              		.loc 1 61 3 view .LVU74
  61:src/printer.c **** }
 300              		.loc 1 61 7 is_stmt 0 view .LVU75
 301 0000 044B     		ldr	r3, .L33
 302 0002 1B68     		ldr	r3, [r3]
 303 0004 93F8E437 		ldrb	r3, [r3, #2020]	@ zero_extendqisi2
  61:src/printer.c **** }
 304              		.loc 1 61 6 view .LVU76
 305 0008 DB07     		lsls	r3, r3, #31
 306 000a 01D5     		bpl	.L31
 307 000c FFF7FEBF 		b	put_ir.part.0
 308              	.LVL31:
 309              	.L31:
  62:src/printer.c **** 
 310              		.loc 1 62 1 view .LVU77
 311 0010 7047     		bx	lr
 312              	.L34:
 313 0012 00BF     		.align	2
 314              	.L33:
 315 0014 00000000 		.word	main_ram
 316              		.cfi_endproc
 317              	.LFE1:
 319              		.section	.text.print,"ax",%progbits
 320              		.align	1
 321              		.p2align 2,,3
 322              		.global	print
 323              		.syntax unified
 324              		.thumb
 325              		.thumb_func
 326              		.fpu fpv4-sp-d16
 328              	print:
 329              	.LVL32:
 330              	.LFB2:
  73:src/printer.c ****   const int mode = UState.print_mode;
 331              		.loc 1 73 21 is_stmt 1 view -0
 332              		.cfi_startproc
 333              		@ args = 0, pretend = 0, frame = 0
 334              		@ frame_needed = 0, uses_anonymous_args = 0
 335              		@ link register save eliminated.
  74:src/printer.c ****   // Serial mode code removed for DM42
 336              		.loc 1 74 3 view .LVU79
  74:src/printer.c ****   // Serial mode code removed for DM42
 337              		.loc 1 74 20 is_stmt 0 view .LVU80
 338 0000 0C4B     		ldr	r3, .L46
  76:src/printer.c ****     // better LF for graphics printing
 339              		.loc 1 76 6 view .LVU81
 340 0002 0A28     		cmp	r0, #10
  74:src/printer.c ****   // Serial mode code removed for DM42
ARM GAS  /tmp/cc3WwB9H.s 			page 11


 341              		.loc 1 74 20 view .LVU82
 342 0004 1B68     		ldr	r3, [r3]
 343              	.LVL33:
  76:src/printer.c ****     // better LF for graphics printing
 344              		.loc 1 76 3 is_stmt 1 view .LVU83
  76:src/printer.c ****     // better LF for graphics printing
 345              		.loc 1 76 6 is_stmt 0 view .LVU84
 346 0006 05D0     		beq	.L44
 347              	.L36:
  81:src/printer.c **** }
 348              		.loc 1 81 3 is_stmt 1 view .LVU85
 349              	.LVL34:
 350              	.LBB57:
 351              	.LBI57:
  60:src/printer.c ****   if (UState.print_on) print_byte( (uint8_t) byte);
 352              		.loc 1 60 6 view .LVU86
 353              	.LBB58:
  61:src/printer.c **** }
 354              		.loc 1 61 3 view .LVU87
  61:src/printer.c **** }
 355              		.loc 1 61 7 is_stmt 0 view .LVU88
 356 0008 93F8E437 		ldrb	r3, [r3, #2020]	@ zero_extendqisi2
 357              	.LVL35:
  61:src/printer.c **** }
 358              		.loc 1 61 6 view .LVU89
 359 000c DB07     		lsls	r3, r3, #31
 360 000e 0CD5     		bpl	.L35
 361 0010 FFF7FEBF 		b	put_ir.part.0
 362              	.LVL36:
 363              	.L44:
  61:src/printer.c **** }
 364              		.loc 1 61 6 view .LVU90
 365              	.LBE58:
 366              	.LBE57:
  74:src/printer.c ****   // Serial mode code removed for DM42
 367              		.loc 1 74 26 discriminator 1 view .LVU91
 368 0014 93F8EA27 		ldrb	r2, [r3, #2026]	@ zero_extendqisi2
  76:src/printer.c ****     // better LF for graphics printing
 369              		.loc 1 76 46 discriminator 1 view .LVU92
 370 0018 02F00302 		and	r2, r2, #3
 371 001c 013A     		subs	r2, r2, #1
  76:src/printer.c ****     // better LF for graphics printing
 372              		.loc 1 76 18 discriminator 1 view .LVU93
 373 001e 012A     		cmp	r2, #1
 374 0020 F2D8     		bhi	.L36
  78:src/printer.c ****     return;
 375              		.loc 1 78 5 is_stmt 1 view .LVU94
 376              	.LVL37:
 377              	.LBB59:
 378              	.LBI59:
  60:src/printer.c ****   if (UState.print_on) print_byte( (uint8_t) byte);
 379              		.loc 1 60 6 view .LVU95
 380              	.LBB60:
  61:src/printer.c **** }
 381              		.loc 1 61 3 view .LVU96
  61:src/printer.c **** }
 382              		.loc 1 61 7 is_stmt 0 view .LVU97
ARM GAS  /tmp/cc3WwB9H.s 			page 12


 383 0022 93F8E437 		ldrb	r3, [r3, #2020]	@ zero_extendqisi2
 384              	.LVL38:
  61:src/printer.c **** }
 385              		.loc 1 61 6 view .LVU98
 386 0026 DA07     		lsls	r2, r3, #31
 387 0028 00D4     		bmi	.L45
 388              	.LVL39:
 389              	.L35:
  61:src/printer.c **** }
 390              		.loc 1 61 6 view .LVU99
 391              	.LBE60:
 392              	.LBE59:
  82:src/printer.c **** 
 393              		.loc 1 82 1 view .LVU100
 394 002a 7047     		bx	lr
 395              	.LVL40:
 396              	.L45:
 397              	.LBB62:
 398              	.LBB61:
  82:src/printer.c **** 
 399              		.loc 1 82 1 view .LVU101
 400 002c 0420     		movs	r0, #4
 401              	.LVL41:
  82:src/printer.c **** 
 402              		.loc 1 82 1 view .LVU102
 403 002e FFF7FEBF 		b	put_ir.part.0
 404              	.LVL42:
 405              	.L47:
  82:src/printer.c **** 
 406              		.loc 1 82 1 view .LVU103
 407 0032 00BF     		.align	2
 408              	.L46:
 409 0034 00000000 		.word	main_ram
 410              	.LBE61:
 411              	.LBE62:
 412              		.cfi_endproc
 413              	.LFE2:
 415              		.section	.text.print_advance,"ax",%progbits
 416              		.align	1
 417              		.p2align 2,,3
 418              		.global	print_advance
 419              		.syntax unified
 420              		.thumb
 421              		.thumb_func
 422              		.fpu fpv4-sp-d16
 424              	print_advance:
 425              	.LVL43:
 426              	.LFB3:
  88:src/printer.c ****   PrinterColumn = 0;
 427              		.loc 1 88 32 is_stmt 1 view -0
 428              		.cfi_startproc
 429              		@ args = 0, pretend = 0, frame = 8
 430              		@ frame_needed = 0, uses_anonymous_args = 0
  89:src/printer.c ****   print( mode ? 0x04 : '\n' );
 431              		.loc 1 89 3 view .LVU105
  88:src/printer.c ****   PrinterColumn = 0;
 432              		.loc 1 88 32 is_stmt 0 view .LVU106
ARM GAS  /tmp/cc3WwB9H.s 			page 13


 433 0000 00B5     		push	{lr}
 434              		.cfi_def_cfa_offset 4
 435              		.cfi_offset 14, -4
  90:src/printer.c ****   if (UState.print_blank_line) print( mode ? 0x04 : '\n' ); 
 436              		.loc 1 90 3 view .LVU107
 437 0002 0028     		cmp	r0, #0
  89:src/printer.c ****   print( mode ? 0x04 : '\n' );
 438              		.loc 1 89 17 view .LVU108
 439 0004 0E4B     		ldr	r3, .L57
  88:src/printer.c ****   PrinterColumn = 0;
 440              		.loc 1 88 32 view .LVU109
 441 0006 83B0     		sub	sp, sp, #12
 442              		.cfi_def_cfa_offset 16
  90:src/printer.c ****   if (UState.print_blank_line) print( mode ? 0x04 : '\n' ); 
 443              		.loc 1 90 3 view .LVU110
 444 0008 14BF     		ite	ne
 445 000a 0420     		movne	r0, #4
 446              	.LVL44:
  90:src/printer.c ****   if (UState.print_blank_line) print( mode ? 0x04 : '\n' ); 
 447              		.loc 1 90 3 view .LVU111
 448 000c 0A20     		moveq	r0, #10
  89:src/printer.c ****   print( mode ? 0x04 : '\n' );
 449              		.loc 1 89 17 view .LVU112
 450 000e 0022     		movs	r2, #0
  90:src/printer.c ****   if (UState.print_blank_line) print( mode ? 0x04 : '\n' ); 
 451              		.loc 1 90 3 view .LVU113
 452 0010 0190     		str	r0, [sp, #4]
  89:src/printer.c ****   print( mode ? 0x04 : '\n' );
 453              		.loc 1 89 17 view .LVU114
 454 0012 1A60     		str	r2, [r3]
  90:src/printer.c ****   if (UState.print_blank_line) print( mode ? 0x04 : '\n' ); 
 455              		.loc 1 90 3 is_stmt 1 view .LVU115
 456 0014 FFF7FEFF 		bl	print
 457              	.LVL45:
  91:src/printer.c ****   prepare_new_line();
 458              		.loc 1 91 3 view .LVU116
  91:src/printer.c ****   prepare_new_line();
 459              		.loc 1 91 7 is_stmt 0 view .LVU117
 460 0018 0A4B     		ldr	r3, .L57+4
  91:src/printer.c ****   prepare_new_line();
 461              		.loc 1 91 6 view .LVU118
 462 001a 0198     		ldr	r0, [sp, #4]
  91:src/printer.c ****   prepare_new_line();
 463              		.loc 1 91 7 view .LVU119
 464 001c 1B68     		ldr	r3, [r3]
 465 001e 93F8E437 		ldrb	r3, [r3, #2020]	@ zero_extendqisi2
  91:src/printer.c ****   prepare_new_line();
 466              		.loc 1 91 6 view .LVU120
 467 0022 13F0020F 		tst	r3, #2
 468 0026 04D1     		bne	.L56
  92:src/printer.c **** }
 469              		.loc 1 92 3 is_stmt 1 view .LVU121
  93:src/printer.c **** 
 470              		.loc 1 93 1 is_stmt 0 view .LVU122
 471 0028 03B0     		add	sp, sp, #12
 472              		.cfi_remember_state
 473              		.cfi_def_cfa_offset 4
ARM GAS  /tmp/cc3WwB9H.s 			page 14


 474              		@ sp needed
 475 002a 5DF804EB 		ldr	lr, [sp], #4
 476              		.cfi_restore 14
 477              		.cfi_def_cfa_offset 0
  92:src/printer.c **** }
 478              		.loc 1 92 3 view .LVU123
 479 002e FFF7FEBF 		b	prepare_new_line
 480              	.LVL46:
 481              	.L56:
 482              		.cfi_restore_state
  91:src/printer.c ****   prepare_new_line();
 483              		.loc 1 91 32 is_stmt 1 discriminator 5 view .LVU124
 484 0032 FFF7FEFF 		bl	print
 485              	.LVL47:
  92:src/printer.c **** }
 486              		.loc 1 92 3 discriminator 5 view .LVU125
  93:src/printer.c **** 
 487              		.loc 1 93 1 is_stmt 0 discriminator 5 view .LVU126
 488 0036 03B0     		add	sp, sp, #12
 489              		.cfi_def_cfa_offset 4
 490              		@ sp needed
 491 0038 5DF804EB 		ldr	lr, [sp], #4
 492              		.cfi_restore 14
 493              		.cfi_def_cfa_offset 0
  92:src/printer.c **** }
 494              		.loc 1 92 3 discriminator 5 view .LVU127
 495 003c FFF7FEBF 		b	prepare_new_line
 496              	.LVL48:
 497              	.L58:
 498              		.align	2
 499              	.L57:
 500 0040 00000000 		.word	PrinterColumn
 501 0044 00000000 		.word	main_ram
 502              		.cfi_endproc
 503              	.LFE3:
 505              		.section	.text.wrap,"ax",%progbits
 506              		.align	1
 507              		.p2align 2,,3
 508              		.syntax unified
 509              		.thumb
 510              		.thumb_func
 511              		.fpu fpv4-sp-d16
 513              	wrap:
 514              	.LVL49:
 515              	.LFB9:
 179:src/printer.c **** 
 180:src/printer.c **** 
 181:src/printer.c **** /*
 182:src/printer.c ****  *  Wrap if line is full
 183:src/printer.c ****  */
 184:src/printer.c **** static void wrap( int width ) {
 516              		.loc 1 184 31 is_stmt 1 view -0
 517              		.cfi_startproc
 518              		@ args = 0, pretend = 0, frame = 0
 519              		@ frame_needed = 0, uses_anonymous_args = 0
 185:src/printer.c ****   if ( PrinterColumn + width > PAPER_WIDTH ) {
 520              		.loc 1 185 3 view .LVU129
ARM GAS  /tmp/cc3WwB9H.s 			page 15


 184:src/printer.c ****   if ( PrinterColumn + width > PAPER_WIDTH ) {
 521              		.loc 1 184 31 is_stmt 0 view .LVU130
 522 0000 38B5     		push	{r3, r4, r5, lr}
 523              		.cfi_def_cfa_offset 16
 524              		.cfi_offset 3, -16
 525              		.cfi_offset 4, -12
 526              		.cfi_offset 5, -8
 527              		.cfi_offset 14, -4
 528              		.loc 1 185 22 view .LVU131
 529 0002 094D     		ldr	r5, .L64
 530 0004 2B68     		ldr	r3, [r5]
 531 0006 0344     		add	r3, r3, r0
 532              		.loc 1 185 6 view .LVU132
 533 0008 A62B     		cmp	r3, #166
 534 000a 01D8     		bhi	.L63
 535              	.LVL50:
 186:src/printer.c ****     print_advance (0);
 187:src/printer.c ****     if ( width == 7 ) width = 5;
 188:src/printer.c ****   }
 189:src/printer.c ****   PrinterColumn += width;
 536              		.loc 1 189 3 is_stmt 1 view .LVU133
 537              		.loc 1 189 17 is_stmt 0 view .LVU134
 538 000c 2B60     		str	r3, [r5]
 190:src/printer.c **** }
 539              		.loc 1 190 1 view .LVU135
 540 000e 38BD     		pop	{r3, r4, r5, pc}
 541              	.LVL51:
 542              	.L63:
 543              		.loc 1 190 1 view .LVU136
 544 0010 0446     		mov	r4, r0
 186:src/printer.c ****     print_advance (0);
 545              		.loc 1 186 5 is_stmt 1 view .LVU137
 546 0012 0020     		movs	r0, #0
 547              	.LVL52:
 186:src/printer.c ****     print_advance (0);
 548              		.loc 1 186 5 is_stmt 0 view .LVU138
 549 0014 FFF7FEFF 		bl	print_advance
 550              	.LVL53:
 187:src/printer.c ****   }
 551              		.loc 1 187 5 is_stmt 1 view .LVU139
 552 0018 2B68     		ldr	r3, [r5]
 187:src/printer.c ****   }
 553              		.loc 1 187 8 is_stmt 0 view .LVU140
 554 001a 072C     		cmp	r4, #7
 555 001c 0CBF     		ite	eq
 556 001e 0533     		addeq	r3, r3, #5
 557 0020 1B19     		addne	r3, r3, r4
 558              	.LVL54:
 189:src/printer.c **** }
 559              		.loc 1 189 3 is_stmt 1 view .LVU141
 189:src/printer.c **** }
 560              		.loc 1 189 17 is_stmt 0 view .LVU142
 561 0022 2B60     		str	r3, [r5]
 562              		.loc 1 190 1 view .LVU143
 563 0024 38BD     		pop	{r3, r4, r5, pc}
 564              	.L65:
 565 0026 00BF     		.align	2
ARM GAS  /tmp/cc3WwB9H.s 			page 16


 566              	.L64:
 567 0028 00000000 		.word	PrinterColumn
 568              		.cfi_endproc
 569              	.LFE9:
 571              		.section	.text.advance_if_trace.part.0,"ax",%progbits
 572              		.align	1
 573              		.p2align 2,,3
 574              		.syntax unified
 575              		.thumb
 576              		.thumb_func
 577              		.fpu fpv4-sp-d16
 579              	advance_if_trace.part.0:
 580              	.LFB28:
  99:src/printer.c **** {
 581              		.loc 1 99 13 is_stmt 1 view -0
 582              		.cfi_startproc
 583              		@ args = 0, pretend = 0, frame = 0
 584              		@ frame_needed = 0, uses_anonymous_args = 0
 585              		@ link register save eliminated.
 101:src/printer.c ****     print_advance( 0 );
 586              		.loc 1 101 27 is_stmt 0 view .LVU145
 587 0000 034B     		ldr	r3, .L69
 588 0002 1B68     		ldr	r3, [r3]
 589 0004 03B9     		cbnz	r3, .L68
 104:src/printer.c **** 
 590              		.loc 1 104 1 view .LVU146
 591 0006 7047     		bx	lr
 592              	.L68:
 102:src/printer.c ****   }
 593              		.loc 1 102 5 is_stmt 1 view .LVU147
 594 0008 0020     		movs	r0, #0
 595 000a FFF7FEBF 		b	print_advance
 596              	.LVL55:
 597              	.L70:
 598 000e 00BF     		.align	2
 599              	.L69:
 600 0010 00000000 		.word	Tracing
 601              		.cfi_endproc
 602              	.LFE28:
 604              		.section	.text.print_tab,"ax",%progbits
 605              		.align	1
 606              		.p2align 2,,3
 607              		.global	print_tab
 608              		.syntax unified
 609              		.thumb
 610              		.thumb_func
 611              		.fpu fpv4-sp-d16
 613              	print_tab:
 614              	.LVL56:
 615              	.LFB5:
 111:src/printer.c ****   if ( PrinterColumn > col ) {
 616              		.loc 1 111 1 view -0
 617              		.cfi_startproc
 618              		@ args = 0, pretend = 0, frame = 0
 619              		@ frame_needed = 0, uses_anonymous_args = 0
 112:src/printer.c ****     print_advance( 0 );
 620              		.loc 1 112 3 view .LVU149
ARM GAS  /tmp/cc3WwB9H.s 			page 17


 111:src/printer.c ****   if ( PrinterColumn > col ) {
 621              		.loc 1 111 1 is_stmt 0 view .LVU150
 622 0000 70B5     		push	{r4, r5, r6, lr}
 623              		.cfi_def_cfa_offset 16
 624              		.cfi_offset 4, -16
 625              		.cfi_offset 5, -12
 626              		.cfi_offset 6, -8
 627              		.cfi_offset 14, -4
 112:src/printer.c ****     print_advance( 0 );
 628              		.loc 1 112 22 view .LVU151
 629 0002 2A4D     		ldr	r5, .L107
 630 0004 2B68     		ldr	r3, [r5]
 112:src/printer.c ****     print_advance( 0 );
 631              		.loc 1 112 6 view .LVU152
 632 0006 8342     		cmp	r3, r0
 111:src/printer.c ****   if ( PrinterColumn > col ) {
 633              		.loc 1 111 1 view .LVU153
 634 0008 0446     		mov	r4, r0
 112:src/printer.c ****     print_advance( 0 );
 635              		.loc 1 112 6 view .LVU154
 636 000a 36D8     		bhi	.L104
 637              	.LVL57:
 638              	.L72:
 115:src/printer.c ****     int i = col - PrinterColumn;
 639              		.loc 1 115 3 is_stmt 1 view .LVU155
 115:src/printer.c ****     int i = col - PrinterColumn;
 640              		.loc 1 115 6 is_stmt 0 view .LVU156
 641 000c A342     		cmp	r3, r4
 642 000e 33D2     		bcs	.L71
 643              	.LBB63:
 116:src/printer.c ****     int j = i / 7;
 644              		.loc 1 116 5 is_stmt 1 view .LVU157
 117:src/printer.c ****     i %= 7;
 645              		.loc 1 117 9 is_stmt 0 view .LVU158
 646 0010 274E     		ldr	r6, .L107+4
 119:src/printer.c ****     if ( i ) {
 647              		.loc 1 119 19 view .LVU159
 648 0012 2C60     		str	r4, [r5]
 116:src/printer.c ****     int j = i / 7;
 649              		.loc 1 116 17 view .LVU160
 650 0014 E41A     		subs	r4, r4, r3
 651              	.LVL58:
 117:src/printer.c ****     i %= 7;
 652              		.loc 1 117 5 is_stmt 1 view .LVU161
 117:src/printer.c ****     i %= 7;
 653              		.loc 1 117 9 is_stmt 0 view .LVU162
 654 0016 86FB0436 		smull	r3, r6, r6, r4
 655 001a 3319     		adds	r3, r6, r4
 656 001c E617     		asrs	r6, r4, #31
 657 001e C6EBA306 		rsb	r6, r6, r3, asr #2
 658              	.LVL59:
 118:src/printer.c ****     PrinterColumn = col;
 659              		.loc 1 118 5 is_stmt 1 view .LVU163
 118:src/printer.c ****     PrinterColumn = col;
 660              		.loc 1 118 7 is_stmt 0 view .LVU164
 661 0022 C6EBC603 		rsb	r3, r6, r6, lsl #3
 662              	.LVL60:
ARM GAS  /tmp/cc3WwB9H.s 			page 18


 119:src/printer.c ****     if ( i ) {
 663              		.loc 1 119 5 is_stmt 1 view .LVU165
 120:src/printer.c ****       put_ir( 27 );
 664              		.loc 1 120 5 view .LVU166
 120:src/printer.c ****       put_ir( 27 );
 665              		.loc 1 120 8 is_stmt 0 view .LVU167
 666 0026 E41A     		subs	r4, r4, r3
 667              	.LVL61:
 120:src/printer.c ****       put_ir( 27 );
 668              		.loc 1 120 8 view .LVU168
 669 0028 15D0     		beq	.L74
 121:src/printer.c ****       put_ir( i );
 670              		.loc 1 121 7 is_stmt 1 view .LVU169
 671              	.LVL62:
 672              	.LBB64:
 673              	.LBI64:
  60:src/printer.c ****   if (UState.print_on) print_byte( (uint8_t) byte);
 674              		.loc 1 60 6 view .LVU170
 675              	.LBB65:
  61:src/printer.c **** }
 676              		.loc 1 61 3 view .LVU171
  61:src/printer.c **** }
 677              		.loc 1 61 7 is_stmt 0 view .LVU172
 678 002a 224D     		ldr	r5, .L107+8
  61:src/printer.c **** }
 679              		.loc 1 61 7 view .LVU173
 680 002c 2B68     		ldr	r3, [r5]
 681 002e 93F8E437 		ldrb	r3, [r3, #2020]	@ zero_extendqisi2
  61:src/printer.c **** }
 682              		.loc 1 61 6 view .LVU174
 683 0032 D807     		lsls	r0, r3, #31
  61:src/printer.c **** }
 684              		.loc 1 61 7 view .LVU175
 685 0034 03F00102 		and	r2, r3, #1
  61:src/printer.c **** }
 686              		.loc 1 61 6 view .LVU176
 687 0038 24D4     		bmi	.L105
 688              	.LVL63:
 689              	.L75:
  61:src/printer.c **** }
 690              		.loc 1 61 6 view .LVU177
 691              	.LBE65:
 692              	.LBE64:
 123:src/printer.c **** 	put_ir( 0 );
 693              		.loc 1 123 13 is_stmt 1 view .LVU178
 123:src/printer.c **** 	put_ir( 0 );
 694              		.loc 1 123 16 is_stmt 0 view .LVU179
 695 003a 013C     		subs	r4, r4, #1
 696              	.LVL64:
 123:src/printer.c **** 	put_ir( 0 );
 697              		.loc 1 123 16 view .LVU180
 698 003c 04E0     		b	.L77
 699              	.L106:
 123:src/printer.c **** 	put_ir( 0 );
 700              		.loc 1 123 16 view .LVU181
 701 003e 2B68     		ldr	r3, [r5]
 702 0040 93F8E437 		ldrb	r3, [r3, #2020]	@ zero_extendqisi2
ARM GAS  /tmp/cc3WwB9H.s 			page 19


 703 0044 03F00102 		and	r2, r3, #1
 704              	.L77:
 124:src/printer.c ****     }
 705              		.loc 1 124 2 is_stmt 1 view .LVU182
 706              	.LVL65:
 707              	.LBB67:
 708              	.LBI67:
  60:src/printer.c ****   if (UState.print_on) print_byte( (uint8_t) byte);
 709              		.loc 1 60 6 view .LVU183
 710              	.LBB68:
  61:src/printer.c **** }
 711              		.loc 1 61 3 view .LVU184
 712              	.LBE68:
 713              	.LBE67:
 123:src/printer.c **** 	put_ir( 0 );
 714              		.loc 1 123 16 is_stmt 0 view .LVU185
 715 0048 013C     		subs	r4, r4, #1
 716              	.LVL66:
 717              	.LBB70:
 718              	.LBB69:
 123:src/printer.c **** 	put_ir( 0 );
 719              		.loc 1 123 16 view .LVU186
 720 004a 0020     		movs	r0, #0
  61:src/printer.c **** }
 721              		.loc 1 61 6 view .LVU187
 722 004c 0AB1     		cbz	r2, .L76
 723 004e FFF7FEFF 		bl	put_ir.part.0
 724              	.LVL67:
 725              	.L76:
  61:src/printer.c **** }
 726              		.loc 1 61 6 view .LVU188
 727              	.LBE69:
 728              	.LBE70:
 123:src/printer.c **** 	put_ir( 0 );
 729              		.loc 1 123 13 is_stmt 1 view .LVU189
 123:src/printer.c **** 	put_ir( 0 );
 730              		.loc 1 123 13 is_stmt 0 view .LVU190
 731 0052 621C     		adds	r2, r4, #1
 732 0054 F3D1     		bne	.L106
 733              	.LVL68:
 734              	.L74:
 126:src/printer.c ****       put_ir( ' ' );
 735              		.loc 1 126 11 is_stmt 1 view .LVU191
 126:src/printer.c ****       put_ir( ' ' );
 736              		.loc 1 126 14 is_stmt 0 view .LVU192
 737 0056 741E     		subs	r4, r6, #1
 738              	.LVL69:
 126:src/printer.c ****       put_ir( ' ' );
 739              		.loc 1 126 11 view .LVU193
 740 0058 76B1     		cbz	r6, .L71
 741 005a 164D     		ldr	r5, .L107+8
 742              	.L80:
 127:src/printer.c ****   }
 743              		.loc 1 127 7 is_stmt 1 view .LVU194
 744              	.LVL70:
 745              	.LBB71:
 746              	.LBI71:
ARM GAS  /tmp/cc3WwB9H.s 			page 20


  60:src/printer.c ****   if (UState.print_on) print_byte( (uint8_t) byte);
 747              		.loc 1 60 6 view .LVU195
 748              	.LBB72:
  61:src/printer.c **** }
 749              		.loc 1 61 3 view .LVU196
  61:src/printer.c **** }
 750              		.loc 1 61 7 is_stmt 0 view .LVU197
 751 005c 2B68     		ldr	r3, [r5]
 752 005e 93F8E437 		ldrb	r3, [r3, #2020]	@ zero_extendqisi2
  61:src/printer.c **** }
 753              		.loc 1 61 6 view .LVU198
 754 0062 13F0010F 		tst	r3, #1
 755              	.LBE72:
 756              	.LBE71:
 126:src/printer.c ****       put_ir( ' ' );
 757              		.loc 1 126 14 view .LVU199
 758 0066 04F1FF34 		add	r4, r4, #-1
 759              	.LVL71:
 760              	.LBB74:
 761              	.LBB73:
 126:src/printer.c ****       put_ir( ' ' );
 762              		.loc 1 126 14 view .LVU200
 763 006a 4FF02000 		mov	r0, #32
  61:src/printer.c **** }
 764              		.loc 1 61 6 view .LVU201
 765 006e 01D0     		beq	.L79
 766 0070 FFF7FEFF 		bl	put_ir.part.0
 767              	.LVL72:
 768              	.L79:
  61:src/printer.c **** }
 769              		.loc 1 61 6 view .LVU202
 770              	.LBE73:
 771              	.LBE74:
 126:src/printer.c ****       put_ir( ' ' );
 772              		.loc 1 126 11 is_stmt 1 view .LVU203
 126:src/printer.c ****       put_ir( ' ' );
 773              		.loc 1 126 11 is_stmt 0 view .LVU204
 774 0074 631C     		adds	r3, r4, #1
 775 0076 F1D1     		bne	.L80
 776              	.LVL73:
 777              	.L71:
 126:src/printer.c ****       put_ir( ' ' );
 778              		.loc 1 126 11 view .LVU205
 779              	.LBE63:
 129:src/printer.c **** 
 780              		.loc 1 129 1 view .LVU206
 781 0078 70BD     		pop	{r4, r5, r6, pc}
 782              	.LVL74:
 783              	.L104:
 113:src/printer.c ****   }
 784              		.loc 1 113 5 is_stmt 1 view .LVU207
 785 007a 0020     		movs	r0, #0
 786              	.LVL75:
 113:src/printer.c ****   }
 787              		.loc 1 113 5 is_stmt 0 view .LVU208
 788 007c FFF7FEFF 		bl	print_advance
 789              	.LVL76:
ARM GAS  /tmp/cc3WwB9H.s 			page 21


 790 0080 2B68     		ldr	r3, [r5]
 791 0082 C3E7     		b	.L72
 792              	.LVL77:
 793              	.L105:
 794              	.LBB78:
 795              	.LBB75:
 796              	.LBB66:
 113:src/printer.c ****   }
 797              		.loc 1 113 5 view .LVU209
 798 0084 1B20     		movs	r0, #27
 799 0086 FFF7FEFF 		bl	put_ir.part.0
 800              	.LVL78:
 113:src/printer.c ****   }
 801              		.loc 1 113 5 view .LVU210
 802              	.LBE66:
 803              	.LBE75:
 122:src/printer.c ****       while ( i-- )
 804              		.loc 1 122 7 is_stmt 1 view .LVU211
 805              	.LBB76:
 806              	.LBI76:
  60:src/printer.c ****   if (UState.print_on) print_byte( (uint8_t) byte);
 807              		.loc 1 60 6 view .LVU212
 808              	.LBB77:
  61:src/printer.c **** }
 809              		.loc 1 61 3 view .LVU213
  61:src/printer.c **** }
 810              		.loc 1 61 7 is_stmt 0 view .LVU214
 811 008a 2B68     		ldr	r3, [r5]
 812 008c 93F8E437 		ldrb	r3, [r3, #2020]	@ zero_extendqisi2
  61:src/printer.c **** }
 813              		.loc 1 61 6 view .LVU215
 814 0090 D907     		lsls	r1, r3, #31
  61:src/printer.c **** }
 815              		.loc 1 61 7 view .LVU216
 816 0092 03F00102 		and	r2, r3, #1
  61:src/printer.c **** }
 817              		.loc 1 61 6 view .LVU217
 818 0096 D0D5     		bpl	.L75
 819 0098 2046     		mov	r0, r4
 820 009a FFF7FEFF 		bl	put_ir.part.0
 821              	.LVL79:
 822 009e 2B68     		ldr	r3, [r5]
 823 00a0 93F8E437 		ldrb	r3, [r3, #2020]	@ zero_extendqisi2
 824 00a4 03F00102 		and	r2, r3, #1
 825 00a8 C7E7     		b	.L75
 826              	.L108:
 827 00aa 00BF     		.align	2
 828              	.L107:
 829 00ac 00000000 		.word	PrinterColumn
 830 00b0 93244992 		.word	-1840700269
 831 00b4 00000000 		.word	main_ram
 832              	.LBE77:
 833              	.LBE76:
 834              	.LBE78:
 835              		.cfi_endproc
 836              	.LFE5:
 838              		.section	.text.print_graphic,"ax",%progbits
ARM GAS  /tmp/cc3WwB9H.s 			page 22


 839              		.align	1
 840              		.p2align 2,,3
 841              		.global	print_graphic
 842              		.syntax unified
 843              		.thumb
 844              		.thumb_func
 845              		.fpu fpv4-sp-d16
 847              	print_graphic:
 848              	.LVL80:
 849              	.LFB7:
 144:src/printer.c ****   if ( glen > 0 ) {
 850              		.loc 1 144 62 is_stmt 1 view -0
 851              		.cfi_startproc
 852              		@ args = 0, pretend = 0, frame = 0
 853              		@ frame_needed = 0, uses_anonymous_args = 0
 145:src/printer.c ****     put_ir( 27 );
 854              		.loc 1 145 3 view .LVU219
 144:src/printer.c ****   if ( glen > 0 ) {
 855              		.loc 1 144 62 is_stmt 0 view .LVU220
 856 0000 70B5     		push	{r4, r5, r6, lr}
 857              		.cfi_def_cfa_offset 16
 858              		.cfi_offset 4, -16
 859              		.cfi_offset 5, -12
 860              		.cfi_offset 6, -8
 861              		.cfi_offset 14, -4
 145:src/printer.c ****     put_ir( 27 );
 862              		.loc 1 145 6 view .LVU221
 863 0002 051E     		subs	r5, r0, #0
 864 0004 17DD     		ble	.L109
 146:src/printer.c ****     put_ir( glen );
 865              		.loc 1 146 5 is_stmt 1 view .LVU222
 866              	.LVL81:
 867              	.LBB89:
 868              	.LBI89:
  60:src/printer.c ****   if (UState.print_on) print_byte( (uint8_t) byte);
 869              		.loc 1 60 6 view .LVU223
 870              	.LBB90:
  61:src/printer.c **** }
 871              		.loc 1 61 3 view .LVU224
  61:src/printer.c **** }
 872              		.loc 1 61 7 is_stmt 0 view .LVU225
 873 0006 164E     		ldr	r6, .L126
 874 0008 3368     		ldr	r3, [r6]
 875 000a 93F8E437 		ldrb	r3, [r3, #2020]	@ zero_extendqisi2
 876 000e 0C46     		mov	r4, r1
  61:src/printer.c **** }
 877              		.loc 1 61 6 view .LVU226
 878 0010 D907     		lsls	r1, r3, #31
 879              	.LVL82:
  61:src/printer.c **** }
 880              		.loc 1 61 7 view .LVU227
 881 0012 03F00102 		and	r2, r3, #1
  61:src/printer.c **** }
 882              		.loc 1 61 6 view .LVU228
 883 0016 0FD4     		bmi	.L124
 884              	.LVL83:
 885              	.L111:
ARM GAS  /tmp/cc3WwB9H.s 			page 23


  61:src/printer.c **** }
 886              		.loc 1 61 6 view .LVU229
 887              	.LBE90:
 888              	.LBE89:
 889              	.LBB92:
 890              	.LBB93:
 148:src/printer.c ****       put_ir( *graphic++ );
 891              		.loc 1 148 11 is_stmt 1 view .LVU230
 148:src/printer.c ****       put_ir( *graphic++ );
 892              		.loc 1 148 11 is_stmt 0 view .LVU231
 893 0018 2544     		add	r5, r5, r4
 894              	.LVL84:
 148:src/printer.c ****       put_ir( *graphic++ );
 895              		.loc 1 148 11 view .LVU232
 896 001a 04E0     		b	.L113
 897              	.LVL85:
 898              	.L125:
 148:src/printer.c ****       put_ir( *graphic++ );
 899              		.loc 1 148 11 view .LVU233
 900 001c 3368     		ldr	r3, [r6]
 901 001e 93F8E437 		ldrb	r3, [r3, #2020]	@ zero_extendqisi2
 902 0022 03F00102 		and	r2, r3, #1
 903              	.LVL86:
 904              	.L113:
 149:src/printer.c ****     }
 905              		.loc 1 149 7 is_stmt 1 view .LVU234
 149:src/printer.c ****     }
 906              		.loc 1 149 23 is_stmt 0 view .LVU235
 907 0026 0134     		adds	r4, r4, #1
 908              	.LVL87:
 909              	.LBB94:
 910              	.LBI94:
  60:src/printer.c ****   if (UState.print_on) print_byte( (uint8_t) byte);
 911              		.loc 1 60 6 is_stmt 1 view .LVU236
 912              	.LBB95:
  61:src/printer.c **** }
 913              		.loc 1 61 3 view .LVU237
  61:src/printer.c **** }
 914              		.loc 1 61 6 is_stmt 0 view .LVU238
 915 0028 1AB1     		cbz	r2, .L112
 916 002a 14F8010C 		ldrb	r0, [r4, #-1]	@ zero_extendqisi2
 917 002e FFF7FEFF 		bl	put_ir.part.0
 918              	.LVL88:
 919              	.L112:
  61:src/printer.c **** }
 920              		.loc 1 61 6 view .LVU239
 921              	.LBE95:
 922              	.LBE94:
 148:src/printer.c ****       put_ir( *graphic++ );
 923              		.loc 1 148 11 is_stmt 1 view .LVU240
 148:src/printer.c ****       put_ir( *graphic++ );
 924              		.loc 1 148 11 is_stmt 0 view .LVU241
 925 0032 AC42     		cmp	r4, r5
 926 0034 F2D1     		bne	.L125
 927              	.LVL89:
 928              	.L109:
 148:src/printer.c ****       put_ir( *graphic++ );
ARM GAS  /tmp/cc3WwB9H.s 			page 24


 929              		.loc 1 148 11 view .LVU242
 930              	.LBE93:
 931              	.LBE92:
 152:src/printer.c **** 
 932              		.loc 1 152 1 view .LVU243
 933 0036 70BD     		pop	{r4, r5, r6, pc}
 934              	.LVL90:
 935              	.L124:
 936              	.LBB99:
 937              	.LBB91:
 152:src/printer.c **** 
 938              		.loc 1 152 1 view .LVU244
 939 0038 1B20     		movs	r0, #27
 940              	.LVL91:
 152:src/printer.c **** 
 941              		.loc 1 152 1 view .LVU245
 942 003a FFF7FEFF 		bl	put_ir.part.0
 943              	.LVL92:
 152:src/printer.c **** 
 944              		.loc 1 152 1 view .LVU246
 945              	.LBE91:
 946              	.LBE99:
 947              	.LBB100:
 948              	.LBI92:
 144:src/printer.c ****   if ( glen > 0 ) {
 949              		.loc 1 144 6 is_stmt 1 view .LVU247
 950              	.LBB98:
 147:src/printer.c ****     while ( glen-- ) {
 951              		.loc 1 147 5 view .LVU248
 952              	.LBB96:
 953              	.LBI96:
  60:src/printer.c ****   if (UState.print_on) print_byte( (uint8_t) byte);
 954              		.loc 1 60 6 view .LVU249
 955              	.LBB97:
  61:src/printer.c **** }
 956              		.loc 1 61 3 view .LVU250
  61:src/printer.c **** }
 957              		.loc 1 61 7 is_stmt 0 view .LVU251
 958 003e 3368     		ldr	r3, [r6]
 959 0040 93F8E437 		ldrb	r3, [r3, #2020]	@ zero_extendqisi2
 960 0044 03F00102 		and	r2, r3, #1
  61:src/printer.c **** }
 961              		.loc 1 61 6 view .LVU252
 962 0048 DB07     		lsls	r3, r3, #31
 963 004a E5D5     		bpl	.L111
 964 004c 2846     		mov	r0, r5
 965 004e FFF7FEFF 		bl	put_ir.part.0
 966              	.LVL93:
 967 0052 3368     		ldr	r3, [r6]
 968 0054 93F8E437 		ldrb	r3, [r3, #2020]	@ zero_extendqisi2
 969 0058 03F00102 		and	r2, r3, #1
 970 005c DCE7     		b	.L111
 971              	.L127:
 972 005e 00BF     		.align	2
 973              	.L126:
 974 0060 00000000 		.word	main_ram
 975              	.LBE97:
ARM GAS  /tmp/cc3WwB9H.s 			page 25


 976              	.LBE96:
 977              	.LBE98:
 978              	.LBE100:
 979              		.cfi_endproc
 980              	.LFE7:
 982              		.section	.text.print_line,"ax",%progbits
 983              		.align	1
 984              		.p2align 2,,3
 985              		.global	print_line
 986              		.syntax unified
 987              		.thumb
 988              		.thumb_func
 989              		.fpu fpv4-sp-d16
 991              	print_line:
 992              	.LVL94:
 993              	.LFB10:
 191:src/printer.c **** 
 192:src/printer.c **** /*
 193:src/printer.c ****  *  Print a complete line using character set translation
 194:src/printer.c ****  */
 195:src/printer.c **** void print_line( const char *buff, int with_lf )
 196:src/printer.c **** {
 994              		.loc 1 196 1 is_stmt 1 view -0
 995              		.cfi_startproc
 996              		@ args = 0, pretend = 0, frame = 864
 997              		@ frame_needed = 0, uses_anonymous_args = 0
 197:src/printer.c ****   const int mode = UState.print_mode;
 998              		.loc 1 197 3 view .LVU254
 196:src/printer.c ****   const int mode = UState.print_mode;
 999              		.loc 1 196 1 is_stmt 0 view .LVU255
 1000 0000 2DE9F04F 		push	{r4, r5, r6, r7, r8, r9, r10, fp, lr}
 1001              		.cfi_def_cfa_offset 36
 1002              		.cfi_offset 4, -36
 1003              		.cfi_offset 5, -32
 1004              		.cfi_offset 6, -28
 1005              		.cfi_offset 7, -24
 1006              		.cfi_offset 8, -20
 1007              		.cfi_offset 9, -16
 1008              		.cfi_offset 10, -12
 1009              		.cfi_offset 11, -8
 1010              		.cfi_offset 14, -4
 1011              		.loc 1 197 26 view .LVU256
 1012 0004 AB4B     		ldr	r3, .L207
 1013 0006 1B68     		ldr	r3, [r3]
 1014 0008 93F8EAA7 		ldrb	r10, [r3, #2026]	@ zero_extendqisi2
 196:src/printer.c ****   const int mode = UState.print_mode;
 1015              		.loc 1 196 1 view .LVU257
 1016 000c 2DED028B 		vpush.64	{d8}
 1017              		.cfi_def_cfa_offset 44
 1018              		.cfi_offset 80, -44
 1019              		.cfi_offset 81, -40
 1020              		.loc 1 197 26 view .LVU258
 1021 0010 0AF0030A 		and	r10, r10, #3
 1022              	.LVL95:
 198:src/printer.c ****   unsigned int c;
 1023              		.loc 1 198 3 is_stmt 1 view .LVU259
 199:src/printer.c ****   unsigned short int posns[ 257 ];
ARM GAS  /tmp/cc3WwB9H.s 			page 26


 1024              		.loc 1 199 3 view .LVU260
 200:src/printer.c ****   unsigned char pattern[ 6 ];	// Rows
 1025              		.loc 1 200 3 view .LVU261
 201:src/printer.c ****   unsigned char graphic[ PAPER_WIDTH ];	// Columns
 1026              		.loc 1 201 3 view .LVU262
 202:src/printer.c ****   unsigned char glen = 0;
 1027              		.loc 1 202 3 view .LVU263
 203:src/printer.c ****   unsigned char i, j, m, w = 0;
 1028              		.loc 1 203 3 view .LVU264
 204:src/printer.c **** 
 205:src/printer.c ****   // Import code from generated file font.c
 206:src/printer.c ****   //  extern const unsigned char printer_chars[ 31 + 129 ];
 207:src/printer.c ****   /* Translation table to printer character set
 208:src/printer.c ****    */
 209:src/printer.c **** 
 210:src/printer.c ****   const unsigned char printer_chars[31+129] = {
 1029              		.loc 1 210 3 view .LVU265
 211:src/printer.c ****     0x00, 0x00, 0x83, 0x84, 0xB3, 0x20, 0x00, 0xFE, 0x89, 0x8A, 0x8B, 0x00,
 212:src/printer.c ****     0x8D, 0x8E, 0x00, 0x00, 0x00, 0x00, 0x00, 0x00, 0xD2, 0xD6, 0x00, 0xDE,
 213:src/printer.c ****     0x00, 0x00, 0x00, 0x82, 0x00, 0xBB, 0xBC, 0x00, 0x98, 0x00, 0x00, 0x00,
 214:src/printer.c ****     0xE3, 0xE4, 0x00, 0x00, 0xD3, 0xD7, 0x00, 0x00, 0x00, 0x00, 0x00, 0x00,
 215:src/printer.c ****     0x00, 0x85, 0x00, 0x00, 0x00, 0x00, 0x00, 0x00, 0x00, 0x00, 0x97, 0x00,
 216:src/printer.c ****     0x00, 0x00, 0x00, 0x00, 0x8C, 0x00, 0x00, 0x88, 0x00, 0x00, 0x00, 0x00,
 217:src/printer.c ****     0x00, 0x00, 0x00, 0x8F, 0x00, 0x00, 0x00, 0x87, 0x00, 0x00, 0x00, 0x00,
 218:src/printer.c ****     0x00, 0x00, 0x00, 0x00, 0x00, 0x95, 0x96, 0x00, 0x00, 0x00, 0x00, 0x00,
 219:src/printer.c ****     0xA1, 0xE0, 0xA2, 0xD8, 0xD0, 0x00, 0x00, 0xB4, 0xA4, 0xDC, 0xA4, 0xA5,
 220:src/printer.c ****     0xE6, 0xE5, 0xA6, 0xA7, 0xB6, 0xE8, 0xE7, 0x00, 0xDA, 0x00, 0xEB, 0x00,
 221:src/printer.c ****     0xAD, 0xED, 0xAE, 0xDA, 0x00, 0xB1, 0xEE, 0x00, 0xC8, 0xC4, 0xC0, 0xCC,
 222:src/printer.c ****     0xD4, 0x00, 0x00, 0xB5, 0xC9, 0xC5, 0xC1, 0xCD, 0xD9, 0xD5, 0xD1, 0xDD,
 223:src/printer.c ****     0xB7, 0xCA, 0xC6, 0xC2, 0xCE, 0x00, 0xEC, 0x00, 0xCB, 0xC7, 0xC4, 0xCF,
 224:src/printer.c ****     0x00, 0xB2, 0xEF, 0x00, };
 225:src/printer.c **** 
 226:src/printer.c ****   // Determine character sizes and pointers
 227:src/printer.c ****   findlengths( posns, mode == PMODE_SMALLGRAPHICS );
 1030              		.loc 1 227 3 is_stmt 0 view .LVU266
 1031 0014 AAF10204 		sub	r4, r10, #2
 196:src/printer.c ****   const int mode = UState.print_mode;
 1032              		.loc 1 196 1 view .LVU267
 1033 0018 ADF5597D 		sub	sp, sp, #868
 1034              		.cfi_def_cfa_offset 912
 1035              		.loc 1 227 3 view .LVU268
 1036 001c B4FA84F4 		clz	r4, r4
 196:src/printer.c ****   const int mode = UState.print_mode;
 1037              		.loc 1 196 1 view .LVU269
 1038 0020 0B46     		mov	r3, r1
 1039              	.LVL96:
 228:src/printer.c **** 
 229:src/printer.c ****   // Print line
 230:src/printer.c ****   while ( ( c = *( (const unsigned char *) buff++ ) ) != '\0') {
 1040              		.loc 1 230 20 view .LVU270
 1041 0022 8146     		mov	r9, r0
 210:src/printer.c ****     0x00, 0x00, 0x83, 0x84, 0xB3, 0x20, 0x00, 0xFE, 0x89, 0x8A, 0x8B, 0x00,
 1042              		.loc 1 210 23 view .LVU271
 1043 0024 A449     		ldr	r1, .L207+4
 1044              	.LVL97:
 196:src/printer.c ****   const int mode = UState.print_mode;
 1045              		.loc 1 196 1 view .LVU272
ARM GAS  /tmp/cc3WwB9H.s 			page 27


 1046 0026 0193     		str	r3, [sp, #4]
 210:src/printer.c ****     0x00, 0x00, 0x83, 0x84, 0xB3, 0x20, 0x00, 0xFE, 0x89, 0x8A, 0x8B, 0x00,
 1047              		.loc 1 210 23 view .LVU273
 1048 0028 A022     		movs	r2, #160
 227:src/printer.c **** 
 1049              		.loc 1 227 3 view .LVU274
 1050 002a 6409     		lsrs	r4, r4, #5
 210:src/printer.c ****     0x00, 0x00, 0x83, 0x84, 0xB3, 0x20, 0x00, 0xFE, 0x89, 0x8A, 0x8B, 0x00,
 1051              		.loc 1 210 23 view .LVU275
 1052 002c 05A8     		add	r0, sp, #20
 1053              	.LVL98:
 210:src/printer.c ****     0x00, 0x00, 0x83, 0x84, 0xB3, 0x20, 0x00, 0xFE, 0x89, 0x8A, 0x8B, 0x00,
 1054              		.loc 1 210 23 view .LVU276
 1055 002e FFF7FEFF 		bl	memcpy
 1056              	.LVL99:
 227:src/printer.c **** 
 1057              		.loc 1 227 3 is_stmt 1 view .LVU277
 1058 0032 57A8     		add	r0, sp, #348
 1059 0034 2146     		mov	r1, r4
 1060 0036 FFF7FEFF 		bl	findlengths
 1061              	.LVL100:
 1062              		.loc 1 230 3 view .LVU278
 1063              		.loc 1 230 9 view .LVU279
 1064              		.loc 1 230 17 is_stmt 0 view .LVU280
 1065 003a 19F8010B 		ldrb	r0, [r9], #1	@ zero_extendqisi2
 1066              	.LVL101:
 1067              		.loc 1 230 9 view .LVU281
 1068 003e 0028     		cmp	r0, #0
 1069 0040 00F03381 		beq	.L169
 1070 0044 08EE104A 		vmov	s16, r4	@ int
 1071 0048 8346     		mov	fp, r0
 202:src/printer.c ****   unsigned char i, j, m, w = 0;
 1072              		.loc 1 202 17 view .LVU282
 1073 004a 0025     		movs	r5, #0
 1074 004c 0DF1B408 		add	r8, sp, #180
 231:src/printer.c **** 
 232:src/printer.c ****     w= 0;
 233:src/printer.c ****     switch ( mode ) {
 234:src/printer.c **** 
 235:src/printer.c ****     case PMODE_DEFAULT:			// Mixed character and graphic printing
 236:src/printer.c ****       if ( c == 006 && *buff == 006 ) {
 237:src/printer.c **** 	// merge small spaces
 238:src/printer.c **** 	continue;
 239:src/printer.c ****       }
 240:src/printer.c ****       i = c < ' ' ? printer_chars[ c - 1 ]
 241:src/printer.c **** 	: c > 126 ? printer_chars[ c - 127 + 31 ]
 242:src/printer.c **** 	: c;
 243:src/printer.c **** #ifdef INCLUDE_C_LOCK
 244:src/printer.c ****       if (C_LOCKED && POLAR_DISPLAY && c == 160) { // pass angle char through untranslated
 245:src/printer.c **** 	i = c;
 246:src/printer.c ****       }
 247:src/printer.c **** #endif
 248:src/printer.c ****       if ( i != 0 ) {
 249:src/printer.c **** 	// Use printer character set
 250:src/printer.c **** 	w = PrinterColumn == 0 || PrinterColumn == 160 ? 6 : 7;
 251:src/printer.c **** 	print_graphic( glen, graphic );
 252:src/printer.c **** 	glen = 0;
ARM GAS  /tmp/cc3WwB9H.s 			page 28


 253:src/printer.c **** 	wrap( w );
 254:src/printer.c **** 	put_ir( i );
 255:src/printer.c ****       }
 256:src/printer.c ****       else {
 257:src/printer.c **** 	// graphic printing of characters unknown to the printer
 258:src/printer.c **** 	w = 6;
 259:src/printer.c **** 	if ( PrinterColumn > 0 && PrinterColumn < PAPER_WIDTH ) {
 260:src/printer.c **** 	  // Add horizontal spacing
 261:src/printer.c **** 	  graphic[ glen++ ] = 0;
 262:src/printer.c **** 	  ++PrinterColumn;
 263:src/printer.c **** 	  if ( PrinterColumn == 161 ) {
 264:src/printer.c **** 	    w = 5;
 265:src/printer.c **** 	  }
 266:src/printer.c **** 	}
 267:src/printer.c **** 	goto graphic_print;
 268:src/printer.c ****       }
 269:src/printer.c ****       break;
 270:src/printer.c **** 
 271:src/printer.c ****     case PMODE_SMALLGRAPHICS:		// Small font
 272:src/printer.c ****       c += 256;
 273:src/printer.c ****       
 274:src/printer.c ****     case PMODE_GRAPHICS:			// Standard font
 275:src/printer.c ****     graphic_print:
 276:src/printer.c ****       // Spit out the character as a graphic
 277:src/printer.c **** #ifdef INCLUDE_C_LOCK
 278:src/printer.c ****       if ( ((C_LOCKED) && (POLAR_DISPLAY)) && c == (256+'<') ) {
 279:src/printer.c **** 	w = 4;
 280:src/printer.c **** 	pattern[0] = 8;
 281:src/printer.c **** 	pattern[1] = 4;
 282:src/printer.c **** 	pattern[2] = 2;
 283:src/printer.c **** 	pattern[3] = 15;
 284:src/printer.c **** 	pattern[4] = 0;
 285:src/printer.c **** 	pattern[5] = 0;
 286:src/printer.c ****       }
 287:src/printer.c ****       else {
 288:src/printer.c **** 	unpackchar( c, pattern, mode == PMODE_SMALLGRAPHICS, posns );
 289:src/printer.c ****       }
 290:src/printer.c **** #else
 291:src/printer.c ****       unpackchar( c, pattern, mode == PMODE_SMALLGRAPHICS, posns );
 292:src/printer.c **** #endif
 293:src/printer.c ****       if ( w == 0 ) {
 294:src/printer.c **** 	w = charlengths( c );
 295:src/printer.c **** 	if ( PrinterColumn + w == 167 ) {
 296:src/printer.c **** 	  // drop last column on last character in line
 297:src/printer.c **** 	  --w;
 298:src/printer.c **** 	}
 299:src/printer.c ****       }
 300:src/printer.c ****       if ( PrinterColumn + w > PAPER_WIDTH ) {
 301:src/printer.c **** 	print_graphic( glen, graphic ); 
 302:src/printer.c **** 	glen = 0;
 303:src/printer.c ****       }
 304:src/printer.c ****       wrap( w );
 305:src/printer.c ****       // Transpose the pattern
 306:src/printer.c ****       m = 1;
 307:src/printer.c ****       for ( i = 0; i < w; ++i ) {
 308:src/printer.c **** 	c = 0;
 309:src/printer.c **** 	for ( j = 0; j < 6; ++j ) {
ARM GAS  /tmp/cc3WwB9H.s 			page 29


 310:src/printer.c **** 	  if ( pattern[ j ] & m ) {
 311:src/printer.c **** 	    c |= ( 2 << j );
 1075              		.loc 1 311 15 view .LVU283
 1076 0050 0224     		movs	r4, #2
 1077 0052 0BE0     		b	.L160
 1078              	.LVL102:
 1079              	.L199:
 233:src/printer.c **** 
 1080              		.loc 1 233 5 view .LVU284
 1081 0054 BAF1000F 		cmp	r10, #0
 1082 0058 00F08A80 		beq	.L198
 1083              	.LVL103:
 1084              	.L132:
 233:src/printer.c **** 
 1085              		.loc 1 233 5 view .LVU285
 1086 005c 99F80000 		ldrb	r0, [r9]	@ zero_extendqisi2
 1087 0060 2B46     		mov	r3, r5
 1088              	.L144:
 1089              	.LVL104:
 230:src/printer.c **** 
 1090              		.loc 1 230 9 is_stmt 1 view .LVU286
 230:src/printer.c **** 
 1091              		.loc 1 230 20 is_stmt 0 view .LVU287
 1092 0062 09F10109 		add	r9, r9, #1
 1093              	.LVL105:
 230:src/printer.c **** 
 1094              		.loc 1 230 15 view .LVU288
 1095 0066 8346     		mov	fp, r0
 1096              	.LVL106:
 230:src/printer.c **** 
 1097              		.loc 1 230 9 view .LVU289
 1098 0068 0028     		cmp	r0, #0
 1099 006a 6AD0     		beq	.L129
 1100              	.LVL107:
 1101              	.L160:
 232:src/printer.c ****     switch ( mode ) {
 1102              		.loc 1 232 5 is_stmt 1 view .LVU290
 233:src/printer.c **** 
 1103              		.loc 1 233 5 view .LVU291
 1104 006c BAF1010F 		cmp	r10, #1
 1105 0070 75D0     		beq	.L148
 233:src/printer.c **** 
 1106              		.loc 1 233 5 is_stmt 0 view .LVU292
 1107 0072 BAF1020F 		cmp	r10, #2
 1108 0076 EDD1     		bne	.L199
 272:src/printer.c ****       
 1109              		.loc 1 272 7 is_stmt 1 view .LVU293
 278:src/printer.c **** 	w = 4;
 1110              		.loc 1 278 14 is_stmt 0 view .LVU294
 1111 0078 8E4B     		ldr	r3, .L207
 1112 007a 1B68     		ldr	r3, [r3]
 1113 007c 93F8E427 		ldrb	r2, [r3, #2020]	@ zero_extendqisi2
 278:src/printer.c **** 	w = 4;
 1114              		.loc 1 278 10 view .LVU295
 1115 0080 5207     		lsls	r2, r2, #29
 272:src/printer.c ****       
 1116              		.loc 1 272 9 view .LVU296
ARM GAS  /tmp/cc3WwB9H.s 			page 30


 1117 0082 0BF5807B 		add	fp, fp, #256
 1118              	.LVL108:
 278:src/printer.c **** 	w = 4;
 1119              		.loc 1 278 7 is_stmt 1 view .LVU297
 278:src/printer.c **** 	w = 4;
 1120              		.loc 1 278 10 is_stmt 0 view .LVU298
 1121 0086 40F1CB80 		bpl	.L194
 278:src/printer.c **** 	w = 4;
 1122              		.loc 1 278 24 view .LVU299
 1123 008a 93F8DE37 		ldrb	r3, [r3, #2014]	@ zero_extendqisi2
 1124 008e 03F00C03 		and	r3, r3, #12
 1125 0092 0C2B     		cmp	r3, #12
 1126 0094 40F0C480 		bne	.L194
 1127              	.L130:
 278:src/printer.c **** 	w = 4;
 1128              		.loc 1 278 44 discriminator 2 view .LVU300
 1129 0098 BBF59E7F 		cmp	fp, #316
 280:src/printer.c **** 	pattern[1] = 4;
 1130              		.loc 1 280 13 discriminator 2 view .LVU301
 1131 009c 03AF     		add	r7, sp, #12
 278:src/printer.c **** 	w = 4;
 1132              		.loc 1 278 44 discriminator 2 view .LVU302
 1133 009e 00F0D680 		beq	.L200
 1134              	.L150:
 288:src/printer.c ****       }
 1135              		.loc 1 288 2 is_stmt 1 view .LVU303
 1136 00a2 3946     		mov	r1, r7
 1137 00a4 57AB     		add	r3, sp, #348
 1138 00a6 0122     		movs	r2, #1
 1139 00a8 5846     		mov	r0, fp
 1140 00aa FFF7FEFF 		bl	unpackchar
 1141              	.LVL109:
 293:src/printer.c **** 	w = charlengths( c );
 1142              		.loc 1 293 7 view .LVU304
 1143              	.L152:
 294:src/printer.c **** 	if ( PrinterColumn + w == 167 ) {
 1144              		.loc 1 294 2 view .LVU305
 294:src/printer.c **** 	if ( PrinterColumn + w == 167 ) {
 1145              		.loc 1 294 6 is_stmt 0 view .LVU306
 1146 00ae 5846     		mov	r0, fp
 1147 00b0 FFF7FEFF 		bl	charlengths
 1148              	.LVL110:
 295:src/printer.c **** 	  // drop last column on last character in line
 1149              		.loc 1 295 21 view .LVU307
 1150 00b4 814B     		ldr	r3, .L207+8
 1151 00b6 1A68     		ldr	r2, [r3]
 294:src/printer.c **** 	if ( PrinterColumn + w == 167 ) {
 1152              		.loc 1 294 4 view .LVU308
 1153 00b8 C6B2     		uxtb	r6, r0
 1154              	.LVL111:
 295:src/printer.c **** 	  // drop last column on last character in line
 1155              		.loc 1 295 2 is_stmt 1 view .LVU309
 295:src/printer.c **** 	  // drop last column on last character in line
 1156              		.loc 1 295 21 is_stmt 0 view .LVU310
 1157 00ba B318     		adds	r3, r6, r2
 295:src/printer.c **** 	  // drop last column on last character in line
 1158              		.loc 1 295 5 view .LVU311
ARM GAS  /tmp/cc3WwB9H.s 			page 31


 1159 00bc A72B     		cmp	r3, #167
 1160 00be 02D1     		bne	.L153
 297:src/printer.c **** 	}
 1161              		.loc 1 297 4 is_stmt 1 view .LVU312
 1162 00c0 013E     		subs	r6, r6, #1
 1163              	.LVL112:
 297:src/printer.c **** 	}
 1164              		.loc 1 297 4 is_stmt 0 view .LVU313
 1165 00c2 F6B2     		uxtb	r6, r6
 1166              	.LVL113:
 297:src/printer.c **** 	}
 1167              		.loc 1 297 4 view .LVU314
 1168 00c4 B318     		adds	r3, r6, r2
 1169              	.L153:
 300:src/printer.c **** 	print_graphic( glen, graphic ); 
 1170              		.loc 1 300 7 is_stmt 1 view .LVU315
 300:src/printer.c **** 	print_graphic( glen, graphic ); 
 1171              		.loc 1 300 10 is_stmt 0 view .LVU316
 1172 00c6 A62B     		cmp	r3, #166
 1173 00c8 00F2B980 		bhi	.L154
 300:src/printer.c **** 	print_graphic( glen, graphic ); 
 1174              		.loc 1 300 10 view .LVU317
 1175 00cc 2B46     		mov	r3, r5
 1176 00ce B346     		mov	fp, r6
 1177              	.LVL114:
 1178              	.L155:
 304:src/printer.c ****       // Transpose the pattern
 1179              		.loc 1 304 7 is_stmt 1 view .LVU318
 1180 00d0 5846     		mov	r0, fp
 1181 00d2 0093     		str	r3, [sp]
 1182 00d4 FFF7FEFF 		bl	wrap
 1183              	.LVL115:
 306:src/printer.c ****       for ( i = 0; i < w; ++i ) {
 1184              		.loc 1 306 7 view .LVU319
 307:src/printer.c **** 	c = 0;
 1185              		.loc 1 307 7 view .LVU320
 307:src/printer.c **** 	c = 0;
 1186              		.loc 1 307 20 view .LVU321
 307:src/printer.c **** 	c = 0;
 1187              		.loc 1 307 7 is_stmt 0 view .LVU322
 1188 00d8 009B     		ldr	r3, [sp]
 1189 00da 5EB3     		cbz	r6, .L197
 1190              	.L156:
 302:src/printer.c ****       }
 1191              		.loc 1 302 7 view .LVU323
 1192 00dc 0120     		movs	r0, #1
 1193 00de 4FF0000E 		mov	lr, #0
 1194              	.LVL116:
 1195              	.L159:
 302:src/printer.c ****       }
 1196              		.loc 1 302 7 view .LVU324
 1197 00e2 0EEB050B 		add	fp, lr, r5
 1198 00e6 0023     		movs	r3, #0
 1199 00e8 5FFA8BFB 		uxtb	fp, fp
 1200              	.LVL117:
 308:src/printer.c **** 	for ( j = 0; j < 6; ++j ) {
 1201              		.loc 1 308 4 view .LVU325
ARM GAS  /tmp/cc3WwB9H.s 			page 32


 1202 00ec 9C46     		mov	ip, r3
 1203 00ee 3A46     		mov	r2, r7
 1204              	.L158:
 1205              	.LVL118:
 310:src/printer.c **** 	    c |= ( 2 << j );
 1206              		.loc 1 310 4 is_stmt 1 view .LVU326
 1207              		.loc 1 311 6 view .LVU327
 310:src/printer.c **** 	    c |= ( 2 << j );
 1208              		.loc 1 310 16 is_stmt 0 view .LVU328
 1209 00f0 12F8011B 		ldrb	r1, [r2], #1	@ zero_extendqisi2
 310:src/printer.c **** 	    c |= ( 2 << j );
 1210              		.loc 1 310 7 view .LVU329
 1211 00f4 0142     		tst	r1, r0
 1212              		.loc 1 311 15 view .LVU330
 1213 00f6 18BF     		it	ne
 1214 00f8 04FA03F1 		lslne	r1, r4, r3
 1215 00fc 03F10103 		add	r3, r3, #1
 1216              	.LVL119:
 1217              		.loc 1 311 8 view .LVU331
 1218 0100 18BF     		it	ne
 1219 0102 4CEA010C 		orrne	ip, ip, r1
 1220              	.LVL120:
 309:src/printer.c **** 	  if ( pattern[ j ] & m ) {
 1221              		.loc 1 309 22 is_stmt 1 view .LVU332
 309:src/printer.c **** 	  if ( pattern[ j ] & m ) {
 1222              		.loc 1 309 15 view .LVU333
 309:src/printer.c **** 	  if ( pattern[ j ] & m ) {
 1223              		.loc 1 309 2 is_stmt 0 view .LVU334
 1224 0106 062B     		cmp	r3, #6
 1225 0108 F2D1     		bne	.L158
 312:src/printer.c **** 	  }
 313:src/printer.c **** 	}
 314:src/printer.c **** 	graphic[ glen++ ] = c;
 1226              		.loc 1 314 2 is_stmt 1 discriminator 2 view .LVU335
 1227              	.LVL121:
 307:src/printer.c **** 	c = 0;
 1228              		.loc 1 307 27 is_stmt 0 discriminator 2 view .LVU336
 1229 010a 0EF1010E 		add	lr, lr, #1
 1230              	.LVL122:
 307:src/printer.c **** 	c = 0;
 1231              		.loc 1 307 27 discriminator 2 view .LVU337
 1232 010e 5FFA8EFE 		uxtb	lr, lr
 315:src/printer.c **** 	m <<= 1;
 1233              		.loc 1 315 4 discriminator 2 view .LVU338
 1234 0112 4000     		lsls	r0, r0, #1
 1235              	.LVL123:
 307:src/printer.c **** 	c = 0;
 1236              		.loc 1 307 7 discriminator 2 view .LVU339
 1237 0114 B645     		cmp	lr, r6
 314:src/printer.c **** 	m <<= 1;
 1238              		.loc 1 314 20 discriminator 2 view .LVU340
 1239 0116 08F80BC0 		strb	ip, [r8, fp]
 1240              		.loc 1 315 2 is_stmt 1 discriminator 2 view .LVU341
 1241              		.loc 1 315 4 is_stmt 0 discriminator 2 view .LVU342
 1242 011a C0B2     		uxtb	r0, r0
 1243              	.LVL124:
 307:src/printer.c **** 	c = 0;
ARM GAS  /tmp/cc3WwB9H.s 			page 33


 1244              		.loc 1 307 27 is_stmt 1 discriminator 2 view .LVU343
 307:src/printer.c **** 	c = 0;
 1245              		.loc 1 307 20 discriminator 2 view .LVU344
 307:src/printer.c **** 	c = 0;
 1246              		.loc 1 307 7 is_stmt 0 discriminator 2 view .LVU345
 1247 011c E1D3     		bcc	.L159
 1248 011e 002E     		cmp	r6, #0
 1249 0120 06F1FF33 		add	r3, r6, #-1
 1250 0124 05F10105 		add	r5, r5, #1
 1251 0128 08BF     		it	eq
 1252 012a 0023     		moveq	r3, #0
 1253 012c 53FA85F5 		uxtab	r5, r3, r5
 1254 0130 EDB2     		uxtb	r5, r5
 1255 0132 2B46     		mov	r3, r5
 1256              	.LVL125:
 1257              	.L197:
 307:src/printer.c **** 	c = 0;
 1258              		.loc 1 307 7 discriminator 2 view .LVU346
 1259 0134 99F80000 		ldrb	r0, [r9]	@ zero_extendqisi2
 1260              	.LVL126:
 230:src/printer.c **** 
 1261              		.loc 1 230 9 is_stmt 1 view .LVU347
 230:src/printer.c **** 
 1262              		.loc 1 230 20 is_stmt 0 view .LVU348
 1263 0138 09F10109 		add	r9, r9, #1
 1264              	.LVL127:
 230:src/printer.c **** 
 1265              		.loc 1 230 15 view .LVU349
 1266 013c 8346     		mov	fp, r0
 1267              	.LVL128:
 230:src/printer.c **** 
 1268              		.loc 1 230 9 view .LVU350
 1269 013e 0028     		cmp	r0, #0
 1270 0140 94D1     		bne	.L160
 1271              	.LVL129:
 1272              	.L129:
 316:src/printer.c ****       }
 317:src/printer.c ****       break;
 318:src/printer.c ****     }
 319:src/printer.c ****   }
 320:src/printer.c ****   print_graphic( glen, graphic );
 1273              		.loc 1 320 3 is_stmt 1 view .LVU351
 1274 0142 1846     		mov	r0, r3
 1275              	.LVL130:
 1276              		.loc 1 320 3 is_stmt 0 view .LVU352
 1277 0144 4146     		mov	r1, r8
 1278 0146 FFF7FEFF 		bl	print_graphic
 1279              	.LVL131:
 321:src/printer.c ****   if ( with_lf ) {
 1280              		.loc 1 321 3 is_stmt 1 view .LVU353
 1281              		.loc 1 321 6 is_stmt 0 view .LVU354
 1282 014a 019B     		ldr	r3, [sp, #4]
 1283 014c 002B     		cmp	r3, #0
 1284 014e 40F08E80 		bne	.L201
 322:src/printer.c ****     print_advance( 0 );
 323:src/printer.c ****   }
 324:src/printer.c **** }
ARM GAS  /tmp/cc3WwB9H.s 			page 34


 1285              		.loc 1 324 1 view .LVU355
 1286 0152 0DF5597D 		add	sp, sp, #868
 1287              		.cfi_remember_state
 1288              		.cfi_def_cfa_offset 44
 1289              		@ sp needed
 1290 0156 BDEC028B 		vldm	sp!, {d8}
 1291              		.cfi_restore 80
 1292              		.cfi_restore 81
 1293              		.cfi_def_cfa_offset 36
 1294 015a BDE8F08F 		pop	{r4, r5, r6, r7, r8, r9, r10, fp, pc}
 1295              	.LVL132:
 1296              	.L148:
 1297              		.cfi_restore_state
 288:src/printer.c ****       }
 1298              		.loc 1 288 2 is_stmt 1 view .LVU356
 1299 015e 03AF     		add	r7, sp, #12
 1300 0160 18EE102A 		vmov	r2, s16	@ int
 1301 0164 3946     		mov	r1, r7
 1302 0166 57AB     		add	r3, sp, #348
 1303 0168 5846     		mov	r0, fp
 1304              	.LVL133:
 288:src/printer.c ****       }
 1305              		.loc 1 288 2 is_stmt 0 view .LVU357
 1306 016a FFF7FEFF 		bl	unpackchar
 1307              	.LVL134:
 293:src/printer.c **** 	w = charlengths( c );
 1308              		.loc 1 293 7 is_stmt 1 view .LVU358
 1309 016e 9EE7     		b	.L152
 1310              	.LVL135:
 1311              	.L198:
 236:src/printer.c **** 	// merge small spaces
 1312              		.loc 1 236 7 view .LVU359
 236:src/printer.c **** 	// merge small spaces
 1313              		.loc 1 236 10 is_stmt 0 view .LVU360
 1314 0170 BBF1060F 		cmp	fp, #6
 1315 0174 27D0     		beq	.L189
 240:src/printer.c **** 	: c > 126 ? printer_chars[ c - 127 + 31 ]
 1316              		.loc 1 240 7 is_stmt 1 view .LVU361
 240:src/printer.c **** 	: c > 126 ? printer_chars[ c - 127 + 31 ]
 1317              		.loc 1 240 9 is_stmt 0 view .LVU362
 1318 0176 BBF11F0F 		cmp	fp, #31
 1319 017a 28D9     		bls	.L134
 240:src/printer.c **** 	: c > 126 ? printer_chars[ c - 127 + 31 ]
 1320              		.loc 1 240 9 discriminator 2 view .LVU363
 1321 017c BBF17E0F 		cmp	fp, #126
 1322 0180 52D8     		bhi	.L202
 1323              	.LVL136:
 1324              	.L164:
 240:src/printer.c **** 	: c > 126 ? printer_chars[ c - 127 + 31 ]
 1325              		.loc 1 240 9 discriminator 2 view .LVU364
 1326 0182 8346     		mov	fp, r0
 1327              	.L140:
 1328              	.LVL137:
 250:src/printer.c **** 	print_graphic( glen, graphic );
 1329              		.loc 1 250 2 is_stmt 1 view .LVU365
 250:src/printer.c **** 	print_graphic( glen, graphic );
 1330              		.loc 1 250 20 is_stmt 0 view .LVU366
ARM GAS  /tmp/cc3WwB9H.s 			page 35


 1331 0184 4D4B     		ldr	r3, .L207+8
 1332 0186 1B68     		ldr	r3, [r3]
 250:src/printer.c **** 	print_graphic( glen, graphic );
 1333              		.loc 1 250 4 view .LVU367
 1334 0188 002B     		cmp	r3, #0
 1335 018a 4BD0     		beq	.L171
 250:src/printer.c **** 	print_graphic( glen, graphic );
 1336              		.loc 1 250 25 discriminator 2 view .LVU368
 1337 018c A02B     		cmp	r3, #160
 1338 018e 0CBF     		ite	eq
 1339 0190 0626     		moveq	r6, #6
 1340 0192 0726     		movne	r6, #7
 1341              	.L142:
 1342              	.LVL138:
 251:src/printer.c **** 	glen = 0;
 1343              		.loc 1 251 2 is_stmt 1 discriminator 6 view .LVU369
 1344 0194 2846     		mov	r0, r5
 1345 0196 4146     		mov	r1, r8
 1346 0198 FFF7FEFF 		bl	print_graphic
 1347              	.LVL139:
 252:src/printer.c **** 	wrap( w );
 1348              		.loc 1 252 2 discriminator 6 view .LVU370
 253:src/printer.c **** 	put_ir( i );
 1349              		.loc 1 253 2 discriminator 6 view .LVU371
 1350 019c 3046     		mov	r0, r6
 1351 019e FFF7FEFF 		bl	wrap
 1352              	.LVL140:
 254:src/printer.c ****       }
 1353              		.loc 1 254 2 discriminator 6 view .LVU372
 1354              	.LBB101:
 1355              	.LBI101:
  60:src/printer.c ****   if (UState.print_on) print_byte( (uint8_t) byte);
 1356              		.loc 1 60 6 discriminator 6 view .LVU373
 1357              	.LBB102:
  61:src/printer.c **** }
 1358              		.loc 1 61 3 discriminator 6 view .LVU374
  61:src/printer.c **** }
 1359              		.loc 1 61 7 is_stmt 0 discriminator 6 view .LVU375
 1360 01a2 444B     		ldr	r3, .L207
 1361 01a4 1B68     		ldr	r3, [r3]
 1362 01a6 93F8E457 		ldrb	r5, [r3, #2020]	@ zero_extendqisi2
  61:src/printer.c **** }
 1363              		.loc 1 61 6 discriminator 6 view .LVU376
 1364 01aa 15F00105 		ands	r5, r5, #1
 1365 01ae 3FF455AF 		beq	.L132
 1366 01b2 5846     		mov	r0, fp
 1367 01b4 0025     		movs	r5, #0
 1368 01b6 FFF7FEFF 		bl	put_ir.part.0
 1369              	.LVL141:
 1370 01ba 99F80000 		ldrb	r0, [r9]	@ zero_extendqisi2
 1371              	.LBE102:
 1372              	.LBE101:
 252:src/printer.c **** 	wrap( w );
 1373              		.loc 1 252 7 view .LVU377
 1374 01be 2B46     		mov	r3, r5
 1375 01c0 4FE7     		b	.L144
 1376              	.LVL142:
ARM GAS  /tmp/cc3WwB9H.s 			page 36


 1377              	.L203:
 230:src/printer.c **** 
 1378              		.loc 1 230 9 is_stmt 1 view .LVU378
 230:src/printer.c **** 
 1379              		.loc 1 230 20 is_stmt 0 view .LVU379
 1380 01c2 09F10109 		add	r9, r9, #1
 1381              	.LVL143:
 1382              	.L189:
 236:src/printer.c **** 	// merge small spaces
 1383              		.loc 1 236 24 discriminator 1 view .LVU380
 1384 01c6 99F80030 		ldrb	r3, [r9]	@ zero_extendqisi2
 236:src/printer.c **** 	// merge small spaces
 1385              		.loc 1 236 21 discriminator 1 view .LVU381
 1386 01ca 062B     		cmp	r3, #6
 1387 01cc F9D0     		beq	.L203
 1388              	.L134:
 240:src/printer.c **** 	: c > 126 ? printer_chars[ c - 127 + 31 ]
 1389              		.loc 1 240 9 discriminator 1 view .LVU382
 1390 01ce 05AB     		add	r3, sp, #20
 1391 01d0 5B44     		add	r3, r3, fp
 1392 01d2 13F8010C 		ldrb	r0, [r3, #-1]	@ zero_extendqisi2
 1393              	.L137:
 1394              	.LVL144:
 244:src/printer.c **** 	i = c;
 1395              		.loc 1 244 7 is_stmt 1 discriminator 8 view .LVU383
 244:src/printer.c **** 	i = c;
 1396              		.loc 1 244 11 is_stmt 0 discriminator 8 view .LVU384
 1397 01d6 374B     		ldr	r3, .L207
 1398 01d8 1B68     		ldr	r3, [r3]
 1399 01da 93F8E427 		ldrb	r2, [r3, #2020]	@ zero_extendqisi2
 244:src/printer.c **** 	i = c;
 1400              		.loc 1 244 10 discriminator 8 view .LVU385
 1401 01de 5107     		lsls	r1, r2, #29
 1402 01e0 05D5     		bpl	.L139
 244:src/printer.c **** 	i = c;
 1403              		.loc 1 244 20 discriminator 1 view .LVU386
 1404 01e2 93F8DE37 		ldrb	r3, [r3, #2014]	@ zero_extendqisi2
 1405 01e6 03F00C03 		and	r3, r3, #12
 1406 01ea 0C2B     		cmp	r3, #12
 1407 01ec 21D0     		beq	.L204
 1408              	.L139:
 248:src/printer.c **** 	// Use printer character set
 1409              		.loc 1 248 7 is_stmt 1 view .LVU387
 248:src/printer.c **** 	// Use printer character set
 1410              		.loc 1 248 10 is_stmt 0 view .LVU388
 1411 01ee 0028     		cmp	r0, #0
 1412 01f0 C7D1     		bne	.L164
 1413              	.L141:
 258:src/printer.c **** 	if ( PrinterColumn > 0 && PrinterColumn < PAPER_WIDTH ) {
 1414              		.loc 1 258 2 is_stmt 1 view .LVU389
 1415              	.LVL145:
 259:src/printer.c **** 	  // Add horizontal spacing
 1416              		.loc 1 259 2 view .LVU390
 259:src/printer.c **** 	  // Add horizontal spacing
 1417              		.loc 1 259 25 is_stmt 0 view .LVU391
 1418 01f2 3249     		ldr	r1, .L207+8
 1419 01f4 0B68     		ldr	r3, [r1]
ARM GAS  /tmp/cc3WwB9H.s 			page 37


 1420 01f6 5A1E     		subs	r2, r3, #1
 259:src/printer.c **** 	  // Add horizontal spacing
 1421              		.loc 1 259 5 view .LVU392
 1422 01f8 A42A     		cmp	r2, #164
 1423 01fa 41D9     		bls	.L205
 258:src/printer.c **** 	if ( PrinterColumn > 0 && PrinterColumn < PAPER_WIDTH ) {
 1424              		.loc 1 258 4 view .LVU393
 1425 01fc 0626     		movs	r6, #6
 1426              	.LVL146:
 1427              	.L145:
 278:src/printer.c **** 	w = 4;
 1428              		.loc 1 278 7 is_stmt 1 view .LVU394
 278:src/printer.c **** 	w = 4;
 1429              		.loc 1 278 14 is_stmt 0 view .LVU395
 1430 01fe 2D4B     		ldr	r3, .L207
 1431 0200 1B68     		ldr	r3, [r3]
 1432 0202 93F8E427 		ldrb	r2, [r3, #2020]	@ zero_extendqisi2
 278:src/printer.c **** 	w = 4;
 1433              		.loc 1 278 10 view .LVU396
 1434 0206 12F00402 		ands	r2, r2, #4
 1435 020a 45D0     		beq	.L206
 288:src/printer.c ****       }
 1436              		.loc 1 288 2 is_stmt 1 view .LVU397
 1437 020c 03AF     		add	r7, sp, #12
 1438 020e 5846     		mov	r0, fp
 1439              	.LVL147:
 288:src/printer.c ****       }
 1440              		.loc 1 288 2 is_stmt 0 view .LVU398
 1441 0210 57AB     		add	r3, sp, #348
 1442 0212 3946     		mov	r1, r7
 1443 0214 0022     		movs	r2, #0
 1444 0216 FFF7FEFF 		bl	unpackchar
 1445              	.LVL148:
 293:src/printer.c **** 	w = charlengths( c );
 1446              		.loc 1 293 7 is_stmt 1 view .LVU399
 293:src/printer.c **** 	w = charlengths( c );
 1447              		.loc 1 293 7 is_stmt 0 view .LVU400
 1448 021a B346     		mov	fp, r6
 1449              	.LVL149:
 293:src/printer.c **** 	w = charlengths( c );
 1450              		.loc 1 293 7 view .LVU401
 1451 021c 3346     		mov	r3, r6
 1452 021e 1DE0     		b	.L151
 1453              	.LVL150:
 1454              	.L194:
 288:src/printer.c ****       }
 1455              		.loc 1 288 2 is_stmt 1 view .LVU402
 1456 0220 03AF     		add	r7, sp, #12
 1457 0222 3EE7     		b	.L150
 1458              	.LVL151:
 1459              	.L171:
 288:src/printer.c ****       }
 1460              		.loc 1 288 2 is_stmt 0 view .LVU403
 1461 0224 0626     		movs	r6, #6
 1462 0226 B5E7     		b	.L142
 1463              	.LVL152:
 1464              	.L202:
ARM GAS  /tmp/cc3WwB9H.s 			page 38


 240:src/printer.c **** 	: c > 126 ? printer_chars[ c - 127 + 31 ]
 1465              		.loc 1 240 9 discriminator 4 view .LVU404
 1466 0228 05AB     		add	r3, sp, #20
 1467 022a 5B44     		add	r3, r3, fp
 1468 022c 13F8600C 		ldrb	r0, [r3, #-96]	@ zero_extendqisi2
 1469              	.LVL153:
 240:src/printer.c **** 	: c > 126 ? printer_chars[ c - 127 + 31 ]
 1470              		.loc 1 240 9 discriminator 4 view .LVU405
 1471 0230 D1E7     		b	.L137
 1472              	.LVL154:
 1473              	.L204:
 244:src/printer.c **** 	i = c;
 1474              		.loc 1 244 37 discriminator 2 view .LVU406
 1475 0232 BBF1A00F 		cmp	fp, #160
 1476 0236 A5D0     		beq	.L140
 248:src/printer.c **** 	// Use printer character set
 1477              		.loc 1 248 7 is_stmt 1 view .LVU407
 248:src/printer.c **** 	// Use printer character set
 1478              		.loc 1 248 10 is_stmt 0 view .LVU408
 1479 0238 0028     		cmp	r0, #0
 1480 023a A2D1     		bne	.L164
 1481 023c D9E7     		b	.L141
 1482              	.LVL155:
 1483              	.L154:
 248:src/printer.c **** 	// Use printer character set
 1484              		.loc 1 248 10 view .LVU409
 1485 023e B346     		mov	fp, r6
 1486              	.LVL156:
 1487              	.L165:
 301:src/printer.c **** 	glen = 0;
 1488              		.loc 1 301 2 is_stmt 1 view .LVU410
 1489 0240 2846     		mov	r0, r5
 1490 0242 4146     		mov	r1, r8
 1491 0244 0025     		movs	r5, #0
 1492              	.LVL157:
 301:src/printer.c **** 	glen = 0;
 1493              		.loc 1 301 2 is_stmt 0 view .LVU411
 1494 0246 FFF7FEFF 		bl	print_graphic
 1495              	.LVL158:
 302:src/printer.c ****       }
 1496              		.loc 1 302 2 is_stmt 1 view .LVU412
 302:src/printer.c ****       }
 1497              		.loc 1 302 7 is_stmt 0 view .LVU413
 1498 024a 2B46     		mov	r3, r5
 1499 024c 40E7     		b	.L155
 1500              	.LVL159:
 1501              	.L200:
 279:src/printer.c **** 	pattern[0] = 8;
 1502              		.loc 1 279 2 is_stmt 1 view .LVU414
 280:src/printer.c **** 	pattern[1] = 4;
 1503              		.loc 1 280 2 view .LVU415
 281:src/printer.c **** 	pattern[2] = 2;
 1504              		.loc 1 281 2 view .LVU416
 282:src/printer.c **** 	pattern[3] = 15;
 1505              		.loc 1 282 2 view .LVU417
 283:src/printer.c **** 	pattern[4] = 0;
 1506              		.loc 1 283 2 view .LVU418
ARM GAS  /tmp/cc3WwB9H.s 			page 39


 284:src/printer.c **** 	pattern[5] = 0;
 1507              		.loc 1 284 2 view .LVU419
 285:src/printer.c ****       }
 1508              		.loc 1 285 2 view .LVU420
 284:src/printer.c **** 	pattern[5] = 0;
 1509              		.loc 1 284 13 is_stmt 0 view .LVU421
 1510 024e 0423     		movs	r3, #4
 280:src/printer.c **** 	pattern[1] = 4;
 1511              		.loc 1 280 13 view .LVU422
 1512 0250 1B49     		ldr	r1, .L207+12
 1513 0252 3960     		str	r1, [r7]
 284:src/printer.c **** 	pattern[5] = 0;
 1514              		.loc 1 284 13 view .LVU423
 1515 0254 0022     		movs	r2, #0
 1516 0256 BA80     		strh	r2, [r7, #4]	@ movhi
 293:src/printer.c **** 	w = charlengths( c );
 1517              		.loc 1 293 7 is_stmt 1 view .LVU424
 284:src/printer.c **** 	pattern[5] = 0;
 1518              		.loc 1 284 13 is_stmt 0 view .LVU425
 1519 0258 9B46     		mov	fp, r3
 1520              	.LVL160:
 279:src/printer.c **** 	pattern[0] = 8;
 1521              		.loc 1 279 4 view .LVU426
 1522 025a 1E46     		mov	r6, r3
 1523              	.LVL161:
 1524              	.L151:
 300:src/printer.c **** 	print_graphic( glen, graphic ); 
 1525              		.loc 1 300 7 is_stmt 1 view .LVU427
 300:src/printer.c **** 	print_graphic( glen, graphic ); 
 1526              		.loc 1 300 26 is_stmt 0 view .LVU428
 1527 025c 174A     		ldr	r2, .L207+8
 1528 025e 1268     		ldr	r2, [r2]
 1529 0260 1344     		add	r3, r3, r2
 300:src/printer.c **** 	print_graphic( glen, graphic ); 
 1530              		.loc 1 300 10 view .LVU429
 1531 0262 A62B     		cmp	r3, #166
 1532 0264 ECD8     		bhi	.L165
 304:src/printer.c ****       // Transpose the pattern
 1533              		.loc 1 304 7 is_stmt 1 view .LVU430
 1534 0266 5846     		mov	r0, fp
 1535 0268 FFF7FEFF 		bl	wrap
 1536              	.LVL162:
 306:src/printer.c ****       for ( i = 0; i < w; ++i ) {
 1537              		.loc 1 306 7 view .LVU431
 307:src/printer.c **** 	c = 0;
 1538              		.loc 1 307 7 view .LVU432
 307:src/printer.c **** 	c = 0;
 1539              		.loc 1 307 20 view .LVU433
 1540 026c 36E7     		b	.L156
 1541              	.LVL163:
 1542              	.L201:
 322:src/printer.c ****   }
 1543              		.loc 1 322 5 view .LVU434
 1544 026e 0020     		movs	r0, #0
 1545 0270 FFF7FEFF 		bl	print_advance
 1546              	.LVL164:
 1547              		.loc 1 324 1 is_stmt 0 view .LVU435
ARM GAS  /tmp/cc3WwB9H.s 			page 40


 1548 0274 0DF5597D 		add	sp, sp, #868
 1549              		.cfi_remember_state
 1550              		.cfi_def_cfa_offset 44
 1551              		@ sp needed
 1552 0278 BDEC028B 		vldm	sp!, {d8}
 1553              		.cfi_restore 80
 1554              		.cfi_restore 81
 1555              		.cfi_def_cfa_offset 36
 1556 027c BDE8F08F 		pop	{r4, r5, r6, r7, r8, r9, r10, fp, pc}
 1557              	.LVL165:
 1558              	.L205:
 1559              		.cfi_restore_state
 261:src/printer.c **** 	  ++PrinterColumn;
 1560              		.loc 1 261 4 is_stmt 1 view .LVU436
 262:src/printer.c **** 	  if ( PrinterColumn == 161 ) {
 1561              		.loc 1 262 4 is_stmt 0 view .LVU437
 1562 0280 0133     		adds	r3, r3, #1
 261:src/printer.c **** 	  ++PrinterColumn;
 1563              		.loc 1 261 17 view .LVU438
 1564 0282 A12B     		cmp	r3, #161
 1565 0284 05F10102 		add	r2, r5, #1
 1566              	.LVL166:
 261:src/printer.c **** 	  ++PrinterColumn;
 1567              		.loc 1 261 22 view .LVU439
 1568 0288 08F80500 		strb	r0, [r8, r5]
 262:src/printer.c **** 	  if ( PrinterColumn == 161 ) {
 1569              		.loc 1 262 4 is_stmt 1 view .LVU440
 263:src/printer.c **** 	    w = 5;
 1570              		.loc 1 263 4 view .LVU441
 262:src/printer.c **** 	  if ( PrinterColumn == 161 ) {
 1571              		.loc 1 262 4 is_stmt 0 view .LVU442
 1572 028c 0B60     		str	r3, [r1]
 261:src/printer.c **** 	  ++PrinterColumn;
 1573              		.loc 1 261 17 view .LVU443
 1574 028e 14BF     		ite	ne
 1575 0290 0626     		movne	r6, #6
 1576 0292 0526     		moveq	r6, #5
 1577 0294 D5B2     		uxtb	r5, r2
 1578 0296 B2E7     		b	.L145
 1579              	.LVL167:
 1580              	.L206:
 288:src/printer.c ****       }
 1581              		.loc 1 288 2 is_stmt 1 view .LVU444
 1582 0298 03AF     		add	r7, sp, #12
 1583 029a 5846     		mov	r0, fp
 1584              	.LVL168:
 288:src/printer.c ****       }
 1585              		.loc 1 288 2 is_stmt 0 view .LVU445
 1586 029c 57AB     		add	r3, sp, #348
 1587 029e 3946     		mov	r1, r7
 1588 02a0 FFF7FEFF 		bl	unpackchar
 1589              	.LVL169:
 293:src/printer.c **** 	w = charlengths( c );
 1590              		.loc 1 293 7 is_stmt 1 view .LVU446
 1591 02a4 B346     		mov	fp, r6
 1592              	.LVL170:
 293:src/printer.c **** 	w = charlengths( c );
ARM GAS  /tmp/cc3WwB9H.s 			page 41


 1593              		.loc 1 293 7 is_stmt 0 view .LVU447
 1594 02a6 3346     		mov	r3, r6
 1595 02a8 D8E7     		b	.L151
 1596              	.LVL171:
 1597              	.L169:
 230:src/printer.c **** 
 1598              		.loc 1 230 9 view .LVU448
 1599 02aa 0346     		mov	r3, r0
 1600 02ac 0DF1B408 		add	r8, sp, #180
 1601 02b0 47E7     		b	.L129
 1602              	.L208:
 1603 02b2 00BF     		.align	2
 1604              	.L207:
 1605 02b4 00000000 		.word	main_ram
 1606 02b8 00000000 		.word	.LANCHOR0
 1607 02bc 00000000 		.word	PrinterColumn
 1608 02c0 0804020F 		.word	251790344
 1609              		.cfi_endproc
 1610              	.LFE10:
 1612              		.section	.text.print_justified,"ax",%progbits
 1613              		.align	1
 1614              		.p2align 2,,3
 1615              		.global	print_justified
 1616              		.syntax unified
 1617              		.thumb
 1618              		.thumb_func
 1619              		.fpu fpv4-sp-d16
 1621              	print_justified:
 1622              	.LVL172:
 1623              	.LFB11:
 325:src/printer.c **** 
 326:src/printer.c **** 
 327:src/printer.c **** /*
 328:src/printer.c ****  *  Print buffer right justified
 329:src/printer.c ****  */
 330:src/printer.c **** void print_justified( const char *buff )
 331:src/printer.c **** {
 1624              		.loc 1 331 1 is_stmt 1 view -0
 1625              		.cfi_startproc
 1626              		@ args = 0, pretend = 0, frame = 0
 1627              		@ frame_needed = 0, uses_anonymous_args = 0
 332:src/printer.c ****   const int pmode = UState.print_mode;
 1628              		.loc 1 332 3 view .LVU450
 1629              		.loc 1 332 27 is_stmt 0 view .LVU451
 1630 0000 134B     		ldr	r3, .L217
 1631 0002 1B68     		ldr	r3, [r3]
 1632 0004 93F8EA17 		ldrb	r1, [r3, #2026]	@ zero_extendqisi2
 1633              	.LVL173:
 333:src/printer.c ****   int len = pmode == PMODE_DEFAULT ? slen( buff ) * 7 - 1
 1634              		.loc 1 333 3 is_stmt 1 view .LVU452
 334:src/printer.c ****     : pixel_length( buff, pmode == PMODE_SMALLGRAPHICS );
 1635              		.loc 1 334 5 is_stmt 0 view .LVU453
 1636 0008 11F00301 		ands	r1, r1, #3
 1637              	.LVL174:
 331:src/printer.c ****   const int pmode = UState.print_mode;
 1638              		.loc 1 331 1 view .LVU454
 1639 000c 10B5     		push	{r4, lr}
ARM GAS  /tmp/cc3WwB9H.s 			page 42


 1640              		.cfi_def_cfa_offset 8
 1641              		.cfi_offset 4, -8
 1642              		.cfi_offset 14, -4
 331:src/printer.c ****   const int pmode = UState.print_mode;
 1643              		.loc 1 331 1 view .LVU455
 1644 000e 0446     		mov	r4, r0
 1645              		.loc 1 334 5 view .LVU456
 1646 0010 12D1     		bne	.L210
 333:src/printer.c ****   int len = pmode == PMODE_DEFAULT ? slen( buff ) * 7 - 1
 1647              		.loc 1 333 38 discriminator 1 view .LVU457
 1648 0012 FFF7FEFF 		bl	slen
 1649              	.LVL175:
 333:src/printer.c ****   int len = pmode == PMODE_DEFAULT ? slen( buff ) * 7 - 1
 1650              		.loc 1 333 51 discriminator 1 view .LVU458
 1651 0016 C0EBC003 		rsb	r3, r0, r0, lsl #3
 1652              		.loc 1 334 5 discriminator 1 view .LVU459
 1653 001a 581E     		subs	r0, r3, #1
 1654              	.LVL176:
 335:src/printer.c **** 
 336:src/printer.c ****   if ( len >= PAPER_WIDTH ) {
 1655              		.loc 1 336 3 is_stmt 1 discriminator 1 view .LVU460
 1656              		.loc 1 336 6 is_stmt 0 discriminator 1 view .LVU461
 1657 001c A528     		cmp	r0, #165
 1658 001e 14DC     		bgt	.L214
 1659              	.L216:
 337:src/printer.c ****     len = PAPER_WIDTH;
 338:src/printer.c ****   }
 339:src/printer.c ****   if ( len > 0 ) {
 1660              		.loc 1 339 3 is_stmt 1 view .LVU462
 1661              		.loc 1 339 6 is_stmt 0 view .LVU463
 1662 0020 0028     		cmp	r0, #0
 1663 0022 03DD     		ble	.L213
 1664              		.loc 1 339 6 view .LVU464
 1665 0024 C0F1A600 		rsb	r0, r0, #166
 1666              	.LVL177:
 1667              	.L212:
 340:src/printer.c ****     print_tab( PAPER_WIDTH - len );
 1668              		.loc 1 340 5 is_stmt 1 view .LVU465
 1669 0028 FFF7FEFF 		bl	print_tab
 1670              	.LVL178:
 1671              	.L213:
 341:src/printer.c ****   }
 342:src/printer.c ****   print_line( buff, 1 );
 1672              		.loc 1 342 3 view .LVU466
 1673 002c 2046     		mov	r0, r4
 1674 002e 0121     		movs	r1, #1
 343:src/printer.c **** }
 1675              		.loc 1 343 1 is_stmt 0 view .LVU467
 1676 0030 BDE81040 		pop	{r4, lr}
 1677              		.cfi_remember_state
 1678              		.cfi_restore 14
 1679              		.cfi_restore 4
 1680              		.cfi_def_cfa_offset 0
 1681              	.LVL179:
 342:src/printer.c **** }
 1682              		.loc 1 342 3 view .LVU468
 1683 0034 FFF7FEBF 		b	print_line
ARM GAS  /tmp/cc3WwB9H.s 			page 43


 1684              	.LVL180:
 1685              	.L210:
 1686              		.cfi_restore_state
 334:src/printer.c **** 
 1687              		.loc 1 334 7 discriminator 2 view .LVU469
 1688 0038 A1F10201 		sub	r1, #2
 1689              	.LVL181:
 334:src/printer.c **** 
 1690              		.loc 1 334 7 discriminator 2 view .LVU470
 1691 003c B1FA81F1 		clz	r1, r1
 1692              	.LVL182:
 334:src/printer.c **** 
 1693              		.loc 1 334 7 discriminator 2 view .LVU471
 1694 0040 4909     		lsrs	r1, r1, #5
 1695 0042 FFF7FEFF 		bl	pixel_length
 1696              	.LVL183:
 336:src/printer.c ****     len = PAPER_WIDTH;
 1697              		.loc 1 336 3 is_stmt 1 discriminator 2 view .LVU472
 336:src/printer.c ****     len = PAPER_WIDTH;
 1698              		.loc 1 336 6 is_stmt 0 discriminator 2 view .LVU473
 1699 0046 A528     		cmp	r0, #165
 1700 0048 EADD     		ble	.L216
 1701              	.L214:
 336:src/printer.c ****     len = PAPER_WIDTH;
 1702              		.loc 1 336 6 discriminator 2 view .LVU474
 1703 004a 0020     		movs	r0, #0
 1704              	.LVL184:
 336:src/printer.c ****     len = PAPER_WIDTH;
 1705              		.loc 1 336 6 discriminator 2 view .LVU475
 1706 004c ECE7     		b	.L212
 1707              	.L218:
 1708 004e 00BF     		.align	2
 1709              	.L217:
 1710 0050 00000000 		.word	main_ram
 1711              		.cfi_endproc
 1712              	.LFE11:
 1714              		.section	.rodata.print_reg_cmplx.part.0.str1.4,"aMS",%progbits,1
 1715              		.align	2
 1716              	.LC1:
 1717 0000 6A2000   		.ascii	"j \000"
 1718 0003 00       		.align	2
 1719              	.LC2:
 1720 0004 692000   		.ascii	"i \000"
 1721 0007 00       		.align	2
 1722              	.LC3:
 1723 0008 203D00   		.ascii	" =\000"
 1724 000b 00       		.align	2
 1725              	.LC4:
 1726 000c 202000   		.ascii	"  \000"
 1727 000f 00       		.align	2
 1728              	.LC5:
 1729 0010 A02000   		.ascii	"\240 \000"
 1730 0013 00       		.align	2
 1731              	.LC6:
 1732 0014 3C2000   		.ascii	"< \000"
 1733 0017 00       		.align	2
 1734              	.LC7:
ARM GAS  /tmp/cc3WwB9H.s 			page 44


 1735 0018 3C062000 		.ascii	"<\006 \000"
 1736              		.section	.text.print_reg_cmplx.part.0,"ax",%progbits
 1737              		.align	1
 1738              		.p2align 2,,3
 1739              		.syntax unified
 1740              		.thumb
 1741              		.thumb_func
 1742              		.fpu fpv4-sp-d16
 1744              	print_reg_cmplx.part.0:
 1745              	.LVL185:
 1746              	.LFB30:
 344:src/printer.c **** 
 345:src/printer.c **** 
 346:src/printer.c **** /*
 347:src/printer.c ****  *  Print a single register
 348:src/printer.c ****  */
 349:src/printer.c **** void print_reg( int reg, const char *label, int eq )
 350:src/printer.c **** {
 351:src/printer.c ****   char buffer[ 65 ];
 352:src/printer.c ****   if ( label != NULL ) {
 353:src/printer.c ****     print_line( label, 0 );
 354:src/printer.c ****     if ( eq ) print_line( " =", 0 );
 355:src/printer.c ****   }
 356:src/printer.c ****   xset( buffer, '\0', sizeof( buffer ) );
 357:src/printer.c ****   format_reg( reg, buffer );
 358:src/printer.c ****   print_justified( buffer );
 359:src/printer.c **** }	
 360:src/printer.c **** 
 361:src/printer.c **** 
 362:src/printer.c **** /*
 363:src/printer.c ****  *  Print a block of registers with labels
 364:src/printer.c ****  */
 365:src/printer.c **** void print_registers( enum nilop op )
 366:src/printer.c **** {
 367:src/printer.c ****   int s, n;
 368:src/printer.c **** 
 369:src/printer.c ****   RETURN_IF_PRINT_OFF;
 370:src/printer.c ****   advance_if_trace();
 371:src/printer.c **** 
 372:src/printer.c **** #ifdef INCLUDE_C_LOCK  
 373:src/printer.c ****   if (State2.cmplx || C_LOCKED) {
 374:src/printer.c ****     print_registers_cmplx (op);
 375:src/printer.c ****     State2.cmplx = 0;
 376:src/printer.c ****     return;
 377:src/printer.c ****   }
 378:src/printer.c **** #else
 379:src/printer.c ****   if (State2.cmplx) {
 380:src/printer.c ****     print_registers_cmplx (op);
 381:src/printer.c ****     State2.cmplx = 0;
 382:src/printer.c ****     return;
 383:src/printer.c ****   }
 384:src/printer.c **** #endif
 385:src/printer.c ****   
 386:src/printer.c ****   if ( op == OP_PRINT_STACK ) {
 387:src/printer.c ****     s = regX_idx;
 388:src/printer.c ****     n = stack_size();
 389:src/printer.c ****   }
ARM GAS  /tmp/cc3WwB9H.s 			page 45


 390:src/printer.c ****   else {
 391:src/printer.c ****     if ( reg_decode( &s, &n, (int *) NULL, 0 ) ) {
 392:src/printer.c ****       return;
 393:src/printer.c ****     }
 394:src/printer.c ****   }
 395:src/printer.c **** 
 396:src/printer.c ****   while ( n-- ) {
 397:src/printer.c ****     int r = s;
 398:src/printer.c ****     char name[ 6 ], *p = name;
 399:src/printer.c **** 
 400:src/printer.c ****     if ( r >= regX_idx && r <= regK_idx ) {
 401:src/printer.c ****       *p++ = REGNAMES[ r - regX_idx ] | 0x60; // force lower case
 402:src/printer.c ****     }
 403:src/printer.c ****     else {
 404:src/printer.c ****       *p++ = 'r';
 405:src/printer.c ****       if ( r > LOCAL_REG_BASE ) {
 406:src/printer.c **** 	*p++ = '.';
 407:src/printer.c **** 	r -= LOCAL_REG_BASE;
 408:src/printer.c **** 	if ( r >= 100 ) {
 409:src/printer.c **** 	  *p++ = '1';
 410:src/printer.c **** 	  r -= 100;
 411:src/printer.c **** 	}
 412:src/printer.c ****       }
 413:src/printer.c ****       p = num_arg_0( p, r, 2 );
 414:src/printer.c ****     }
 415:src/printer.c ****     *p = '\0';
 416:src/printer.c ****     print_reg( s++, name, 1 );
 417:src/printer.c ****     BREAK_IF_EXIT;
 418:src/printer.c ****   }
 419:src/printer.c ****   if ( op == OP_PRINT_STACK ) {
 420:src/printer.c ****     print_reg( regL_idx, "l", 1 );
 421:src/printer.c ****     print_reg( regI_idx, "i", 1 );
 422:src/printer.c ****   }
 423:src/printer.c **** }
 424:src/printer.c **** 
 425:src/printer.c **** /*
 426:src/printer.c ****  *  Print the statistical registers
 427:src/printer.c ****  */
 428:src/printer.c **** void print_sigma( enum nilop op )
 429:src/printer.c **** {
 430:src/printer.c ****   // Use the user commands to get the values
 431:src/printer.c **** 
 432:src/printer.c ****   static const char ops[] = {
 433:src/printer.c ****     OP_sigmaN,
 434:src/printer.c ****     OP_sigmaX, OP_sigmaY, 
 435:src/printer.c ****     OP_sigmaX2, OP_sigmaY2, OP_sigmaXY, OP_sigmaX2Y, 
 436:src/printer.c ****     OP_sigmalnX, OP_sigmalnY, 
 437:src/printer.c ****     OP_sigmaXlnY, OP_sigmaYlnX,
 438:src/printer.c ****     OP_sigmalnXlnX, OP_sigmalnYlnY,
 439:src/printer.c ****     OP_sigmalnXlnY, 
 440:src/printer.c ****   };
 441:src/printer.c ****   int i;
 442:src/printer.c ****   RETURN_IF_PRINT_OFF;
 443:src/printer.c ****   advance_if_trace();
 444:src/printer.c ****   REGISTER save_x;
 445:src/printer.c ****   char buffer[ 16 ];
 446:src/printer.c **** 
ARM GAS  /tmp/cc3WwB9H.s 			page 46


 447:src/printer.c ****   // We need to save and restore X
 448:src/printer.c ****   copyreg( &save_x, StackBase );
 449:src/printer.c **** 
 450:src/printer.c ****   for ( i = 0; i < sizeof( ops ); ++i ) {
 451:src/printer.c ****     const char *p;
 452:src/printer.c ****     sigma_val( (enum nilop) ops[ i ] );
 453:src/printer.c ****     p = prt( OP_NIL | ops[ i ], buffer );
 454:src/printer.c ****     print_reg( regX_idx, p, 1 );
 455:src/printer.c ****   }
 456:src/printer.c ****   copyreg( StackBase, &save_x );
 457:src/printer.c **** }
 458:src/printer.c **** 
 459:src/printer.c **** /*
 460:src/printer.c ****  *  Print the contents of the Alpha register, terminated by a LF
 461:src/printer.c ****  */
 462:src/printer.c **** void print_alpha( enum nilop op )
 463:src/printer.c **** {
 464:src/printer.c ****   RETURN_IF_PRINT_OFF;
 465:src/printer.c ****   advance_if_trace();
 466:src/printer.c ****   if ( op == OP_PRINT_ALPHA_JUST ) {
 467:src/printer.c ****     print_justified( Alpha );
 468:src/printer.c ****   }
 469:src/printer.c ****   else {
 470:src/printer.c ****     print_line( Alpha, op == OP_PRINT_ALPHA );
 471:src/printer.c ****   }  
 472:src/printer.c **** }
 473:src/printer.c **** 
 474:src/printer.c **** /*
 475:src/printer.c ****  *  Send a LF to the printer
 476:src/printer.c ****  */
 477:src/printer.c **** void print_lf( enum nilop op ) {
 478:src/printer.c ****   RETURN_IF_PRINT_OFF;
 479:src/printer.c ****   advance_if_trace();
 480:src/printer.c ****   print_advance( 0 );
 481:src/printer.c **** }
 482:src/printer.c **** 
 483:src/printer.c **** /*
 484:src/printer.c ****  *  Print a single character or control code
 485:src/printer.c ****  */
 486:src/printer.c **** void cmdprint( unsigned int arg, enum rarg op )
 487:src/printer.c **** {
 488:src/printer.c ****   char buff[ 2 ];
 489:src/printer.c ****   RETURN_IF_PRINT_OFF;
 490:src/printer.c **** 
 491:src/printer.c ****   switch ( op ) {
 492:src/printer.c **** 
 493:src/printer.c ****   case RARG_PRINT_BYTE:
 494:src/printer.c ****     // Transparent printing of bytes
 495:src/printer.c ****     print( arg ); // might be a line feed, so...
 496:src/printer.c ****     if (arg == '\n' || arg == 0x04)
 497:src/printer.c ****       prepare_new_line();
 498:src/printer.c ****     break;
 499:src/printer.c **** 	
 500:src/printer.c ****   case RARG_PRINT_CHAR:
 501:src/printer.c ****     // Character printing, depending on mode
 502:src/printer.c ****     buff[ 0 ] = (char) arg;
 503:src/printer.c ****     buff[ 1 ] = '\0';
ARM GAS  /tmp/cc3WwB9H.s 			page 47


 504:src/printer.c ****     print_line( buff, 0 );
 505:src/printer.c ****     break;
 506:src/printer.c **** 
 507:src/printer.c ****   case RARG_PRINT_TAB:
 508:src/printer.c ****     // Move to specific column
 509:src/printer.c ****     print_tab( arg );
 510:src/printer.c ****     break;
 511:src/printer.c **** 
 512:src/printer.c ****   default:
 513:src/printer.c ****     break;
 514:src/printer.c ****   }
 515:src/printer.c **** }
 516:src/printer.c **** 
 517:src/printer.c **** 
 518:src/printer.c **** /*
 519:src/printer.c ****  *  Print a named register
 520:src/printer.c ****  */
 521:src/printer.c **** void cmdprintreg( unsigned int arg, enum rarg op )
 522:src/printer.c **** {
 523:src/printer.c ****   RETURN_IF_PRINT_OFF;
 524:src/printer.c **** #ifdef INCLUDE_C_LOCK
 525:src/printer.c ****   if (State2.cmplx || C_LOCKED) {
 526:src/printer.c ****     print_reg_cmplx( arg, CNULL, 0);
 527:src/printer.c ****     State2.cmplx = 0;
 528:src/printer.c ****   }
 529:src/printer.c **** #else
 530:src/printer.c ****   if (State2.cmplx) {
 531:src/printer.c ****     print_reg_cmplx( arg, CNULL, 0);
 532:src/printer.c ****     State2.cmplx = 0;
 533:src/printer.c ****   }
 534:src/printer.c **** #endif
 535:src/printer.c ****   else {
 536:src/printer.c ****     print_reg( arg, CNULL, 0 );
 537:src/printer.c ****   }
 538:src/printer.c **** }
 539:src/printer.c **** 
 540:src/printer.c **** /*
 541:src/printer.c ****  *  Print a pair of registers as a complex number.
 542:src/printer.c ****  */
 543:src/printer.c **** void cmdprintcmplxreg( unsigned int reg, enum rarg op){
 544:src/printer.c ****   RETURN_IF_PRINT_OFF;
 545:src/printer.c ****   print_reg_cmplx (reg, CNULL, 0);
 546:src/printer.c **** }
 547:src/printer.c **** 
 548:src/printer.c **** void print_reg_cmplx (int reg, const char *label, int eq) {
 1747              		.loc 1 548 6 is_stmt 1 view -0
 1748              		.cfi_startproc
 1749              		@ args = 0, pretend = 0, frame = 368
 1750              		@ frame_needed = 0, uses_anonymous_args = 0
 549:src/printer.c ****   decNumber x, y;
 550:src/printer.c **** #ifdef INCLUDE_C_LOCK
 551:src/printer.c ****   decNumber rx, ry;
 552:src/printer.c ****   char *q;
 553:src/printer.c **** #endif
 554:src/printer.c ****   int lenx, leny, lenlab = 0, maxlen;
 555:src/printer.c ****   char bufx[ 50 ];
 556:src/printer.c ****   char bufy[ 54 ];
ARM GAS  /tmp/cc3WwB9H.s 			page 48


 557:src/printer.c ****   char buffer[104];
 558:src/printer.c ****   char *p, *r;
 559:src/printer.c **** 
 560:src/printer.c ****   advance_if_trace();
 561:src/printer.c **** 
 562:src/printer.c ****   if (is_intmode()) {
 563:src/printer.c ****     bad_mode_error();
 564:src/printer.c ****     return;
 565:src/printer.c ****   }
 566:src/printer.c **** 
 567:src/printer.c ****   xset( bufx, '\0', sizeof( bufx ) );
 1751              		.loc 1 567 3 view .LVU477
 548:src/printer.c ****   decNumber x, y;
 1752              		.loc 1 548 6 is_stmt 0 view .LVU478
 1753 0000 F0B5     		push	{r4, r5, r6, r7, lr}
 1754              		.cfi_def_cfa_offset 20
 1755              		.cfi_offset 4, -20
 1756              		.cfi_offset 5, -16
 1757              		.cfi_offset 6, -12
 1758              		.cfi_offset 7, -8
 1759              		.cfi_offset 14, -4
 1760 0002 DDB0     		sub	sp, sp, #372
 1761              		.cfi_def_cfa_offset 392
 548:src/printer.c ****   decNumber x, y;
 1762              		.loc 1 548 6 view .LVU479
 1763 0004 0D46     		mov	r5, r1
 1764 0006 0446     		mov	r4, r0
 1765 0008 1646     		mov	r6, r2
 1766              		.loc 1 567 3 view .LVU480
 1767 000a 27A8     		add	r0, sp, #156
 1768              	.LVL186:
 1769              		.loc 1 567 3 view .LVU481
 1770 000c 3222     		movs	r2, #50
 1771              	.LVL187:
 1772              		.loc 1 567 3 view .LVU482
 1773 000e 0021     		movs	r1, #0
 1774              	.LVL188:
 1775              		.loc 1 567 3 view .LVU483
 1776 0010 FFF7FEFF 		bl	xset
 1777              	.LVL189:
 568:src/printer.c ****   p = bufx;
 1778              		.loc 1 568 3 is_stmt 1 view .LVU484
 569:src/printer.c **** 
 570:src/printer.c ****   if ( label != NULL ) {
 1779              		.loc 1 570 3 view .LVU485
 1780              		.loc 1 570 6 is_stmt 0 view .LVU486
 1781 0014 75B1     		cbz	r5, .L220
 571:src/printer.c ****     p = scopy(p, label);
 1782              		.loc 1 571 5 is_stmt 1 view .LVU487
 1783              		.loc 1 571 9 is_stmt 0 view .LVU488
 1784 0016 2946     		mov	r1, r5
 1785 0018 27A8     		add	r0, sp, #156
 1786              	.LVL190:
 1787              		.loc 1 571 9 view .LVU489
 1788 001a FFF7FEFF 		bl	scopy
 1789              	.LVL191:
 572:src/printer.c ****     if ( eq ) p = scopy(p, " ="); // put label and = at left of line
ARM GAS  /tmp/cc3WwB9H.s 			page 49


 1790              		.loc 1 572 5 is_stmt 1 view .LVU490
 1791              		.loc 1 572 8 is_stmt 0 view .LVU491
 1792 001e 002E     		cmp	r6, #0
 1793 0020 40F08E80 		bne	.L241
 1794              	.LVL192:
 1795              	.L221:
 573:src/printer.c ****     lenlab = buffer_width(bufx);
 1796              		.loc 1 573 5 is_stmt 1 view .LVU492
 1797              		.loc 1 573 14 is_stmt 0 view .LVU493
 1798 0024 27A8     		add	r0, sp, #156
 1799 0026 FFF7FEFF 		bl	buffer_width
 1800              	.LVL193:
 574:src/printer.c ****     print_line (bufx, 0);
 1801              		.loc 1 574 5 view .LVU494
 1802 002a 0021     		movs	r1, #0
 573:src/printer.c ****     lenlab = buffer_width(bufx);
 1803              		.loc 1 573 14 view .LVU495
 1804 002c 0546     		mov	r5, r0
 1805              	.LVL194:
 1806              		.loc 1 574 5 view .LVU496
 1807 002e 27A8     		add	r0, sp, #156
 1808              	.LVL195:
 1809              		.loc 1 574 5 is_stmt 1 view .LVU497
 1810 0030 FFF7FEFF 		bl	print_line
 1811              	.LVL196:
 1812              	.L220:
 575:src/printer.c ****   }
 576:src/printer.c ****   // So far as I can see this doesn't work for double precision
 577:src/printer.c ****   // Calling set_x instead of set_x_dn would be a start (both in display.c)
 578:src/printer.c ****   
 579:src/printer.c ****   getRegister(&x, reg);
 1813              		.loc 1 579 3 view .LVU498
 1814 0034 2146     		mov	r1, r4
 580:src/printer.c ****   getRegister(&y, reg+1);
 581:src/printer.c **** 
 582:src/printer.c **** #ifdef INCLUDE_C_LOCK
 583:src/printer.c ****   if (C_LOCKED && POLAR_DISPLAY) {
 1815              		.loc 1 583 7 is_stmt 0 view .LVU499
 1816 0036 564F     		ldr	r7, .L245
 579:src/printer.c ****   getRegister(&y, reg+1);
 1817              		.loc 1 579 3 view .LVU500
 1818 0038 03A8     		add	r0, sp, #12
 1819 003a FFF7FEFF 		bl	getRegister
 1820              	.LVL197:
 580:src/printer.c ****   getRegister(&y, reg+1);
 1821              		.loc 1 580 3 is_stmt 1 view .LVU501
 1822 003e 611C     		adds	r1, r4, #1
 1823 0040 0CA8     		add	r0, sp, #48
 1824 0042 FFF7FEFF 		bl	getRegister
 1825              	.LVL198:
 1826              		.loc 1 583 3 view .LVU502
 1827              		.loc 1 583 7 is_stmt 0 view .LVU503
 1828 0046 3B68     		ldr	r3, [r7]
 1829 0048 93F8E427 		ldrb	r2, [r3, #2020]	@ zero_extendqisi2
 1830              		.loc 1 583 6 view .LVU504
 1831 004c 5207     		lsls	r2, r2, #29
 1832 004e 06D5     		bpl	.L222
ARM GAS  /tmp/cc3WwB9H.s 			page 50


 1833              		.loc 1 583 16 view .LVU505
 1834 0050 93F8DE37 		ldrb	r3, [r3, #2014]	@ zero_extendqisi2
 1835 0054 03F00C03 		and	r3, r3, #12
 1836 0058 0C2B     		cmp	r3, #12
 1837 005a 00F08380 		beq	.L242
 1838              	.L222:
 584:src/printer.c ****     cmplxToPolar (&rx, &ry, &x, &y);
 585:src/printer.c ****     cvt_rad2 (&y, &ry);
 586:src/printer.c ****     decNumberCopy(&x, &rx); // x, y now contain r, theta
 587:src/printer.c ****   }
 588:src/printer.c **** #endif
 589:src/printer.c ****   // x, y now contain the numbers to print
 590:src/printer.c ****   
 591:src/printer.c ****   xset( bufx, '\0', sizeof( bufx ) );
 1839              		.loc 1 591 3 is_stmt 1 view .LVU506
 592:src/printer.c ****   p = bufx;
 593:src/printer.c ****   lenx = DISPLAY_DIGITS;
 1840              		.loc 1 593 8 is_stmt 0 view .LVU507
 1841 005e 0C26     		movs	r6, #12
 1842              	.LVL199:
 591:src/printer.c ****   p = bufx;
 1843              		.loc 1 591 3 view .LVU508
 1844 0060 3222     		movs	r2, #50
 1845 0062 0021     		movs	r1, #0
 1846 0064 27A8     		add	r0, sp, #156
 1847 0066 FFF7FEFF 		bl	xset
 1848              	.LVL200:
 592:src/printer.c ****   p = bufx;
 1849              		.loc 1 592 3 is_stmt 1 view .LVU509
 1850              		.loc 1 593 3 view .LVU510
 594:src/printer.c ****   set_x_dn( &x, p, &lenx);
 1851              		.loc 1 594 3 is_stmt 0 view .LVU511
 1852 006a 01AA     		add	r2, sp, #4
 1853 006c 0DEB0600 		add	r0, sp, r6
 1854 0070 27A9     		add	r1, sp, #156
 1855              	.LVL201:
 593:src/printer.c ****   set_x_dn( &x, p, &lenx);
 1856              		.loc 1 593 8 view .LVU512
 1857 0072 0196     		str	r6, [sp, #4]
 1858              		.loc 1 594 3 is_stmt 1 view .LVU513
 1859 0074 FFF7FEFF 		bl	set_x_dn
 1860              	.LVL202:
 595:src/printer.c ****   p = find_char(bufx, '\0');
 1861              		.loc 1 595 3 view .LVU514
 1862              		.loc 1 595 7 is_stmt 0 view .LVU515
 1863 0078 0021     		movs	r1, #0
 1864 007a 27A8     		add	r0, sp, #156
 1865              	.LVL203:
 1866              		.loc 1 595 7 view .LVU516
 1867 007c FFF7FEFF 		bl	find_char
 1868              	.LVL204:
 596:src/printer.c ****   scopy(p, "  ");
 1869              		.loc 1 596 3 view .LVU517
 1870 0080 4449     		ldr	r1, .L245+4
 595:src/printer.c ****   p = find_char(bufx, '\0');
 1871              		.loc 1 595 7 view .LVU518
 1872 0082 0446     		mov	r4, r0
ARM GAS  /tmp/cc3WwB9H.s 			page 51


 1873              	.LVL205:
 1874              		.loc 1 596 3 is_stmt 1 view .LVU519
 1875 0084 FFF7FEFF 		bl	scopy
 1876              	.LVL206:
 597:src/printer.c ****   lenx = buffer_width(bufx);
 1877              		.loc 1 597 3 view .LVU520
 1878              		.loc 1 597 10 is_stmt 0 view .LVU521
 1879 0088 27A8     		add	r0, sp, #156
 1880 008a FFF7FEFF 		bl	buffer_width
 1881              	.LVL207:
 598:src/printer.c ****   
 599:src/printer.c ****   xset( bufy, '\0', sizeof( bufy ) );
 1882              		.loc 1 599 3 view .LVU522
 1883 008e 3622     		movs	r2, #54
 597:src/printer.c ****   lenx = buffer_width(bufx);
 1884              		.loc 1 597 10 view .LVU523
 1885 0090 0346     		mov	r3, r0
 1886              		.loc 1 599 3 view .LVU524
 1887 0092 0021     		movs	r1, #0
 1888 0094 34A8     		add	r0, sp, #208
 597:src/printer.c ****   lenx = buffer_width(bufx);
 1889              		.loc 1 597 8 view .LVU525
 1890 0096 0193     		str	r3, [sp, #4]
 1891              		.loc 1 599 3 is_stmt 1 view .LVU526
 1892 0098 FFF7FEFF 		bl	xset
 1893              	.LVL208:
 600:src/printer.c ****   leny = DISPLAY_DIGITS;
 1894              		.loc 1 600 3 view .LVU527
 601:src/printer.c **** 
 602:src/printer.c **** #ifdef INCLUDE_C_LOCK
 603:src/printer.c ****   if (C_LOCKED && POLAR_DISPLAY) {
 1895              		.loc 1 603 7 is_stmt 0 view .LVU528
 1896 009c 3B68     		ldr	r3, [r7]
 600:src/printer.c ****   leny = DISPLAY_DIGITS;
 1897              		.loc 1 600 8 view .LVU529
 1898 009e 0296     		str	r6, [sp, #8]
 1899              		.loc 1 603 3 is_stmt 1 view .LVU530
 1900              		.loc 1 603 7 is_stmt 0 view .LVU531
 1901 00a0 93F8E427 		ldrb	r2, [r3, #2020]	@ zero_extendqisi2
 1902              		.loc 1 603 6 view .LVU532
 1903 00a4 12F0040F 		tst	r2, #4
 1904              		.loc 1 603 16 view .LVU533
 1905 00a8 93F8DE27 		ldrb	r2, [r3, #2014]	@ zero_extendqisi2
 1906              		.loc 1 603 6 view .LVU534
 1907 00ac 03D0     		beq	.L224
 1908              		.loc 1 603 16 view .LVU535
 1909 00ae 02EA0601 		and	r1, r2, r6
 1910 00b2 B142     		cmp	r1, r6
 1911 00b4 48D0     		beq	.L243
 1912              	.L224:
 604:src/printer.c ****     if (UState.print_mode == PMODE_DEFAULT) {
 605:src/printer.c ****       r = scopy (bufy, "\xA0 "); // assumes ROMAN8 character set; angle symbol
 606:src/printer.c ****     }
 607:src/printer.c ****     else if (UState.print_mode == PMODE_GRAPHICS) { // graphics modes
 608:src/printer.c ****       r = scopy(bufy, "< "); // < is angle symbol in MODE 1; 
 609:src/printer.c ****     }
 610:src/printer.c ****     else {
ARM GAS  /tmp/cc3WwB9H.s 			page 52


 611:src/printer.c ****       r = scopy(bufy, "<\006 "); // '<' one px smaller than what will be printed; 
 612:src/printer.c ****     }
 613:src/printer.c ****   }
 614:src/printer.c ****   else {
 615:src/printer.c ****     q = CPX_J ? "j " : "i ";
 1913              		.loc 1 615 5 is_stmt 1 view .LVU536
 1914              		.loc 1 615 22 is_stmt 0 view .LVU537
 1915 00b6 384B     		ldr	r3, .L245+8
 1916 00b8 3849     		ldr	r1, .L245+12
 1917 00ba 12F0020F 		tst	r2, #2
 1918              	.LVL209:
 616:src/printer.c ****     r = scopy (bufy, q);
 1919              		.loc 1 616 5 is_stmt 1 view .LVU538
 1920              		.loc 1 616 9 is_stmt 0 view .LVU539
 1921 00be 08BF     		it	eq
 1922 00c0 1946     		moveq	r1, r3
 1923              	.LVL210:
 1924              		.loc 1 616 9 view .LVU540
 1925 00c2 34A8     		add	r0, sp, #208
 1926 00c4 FFF7FEFF 		bl	scopy
 1927              	.LVL211:
 1928              		.loc 1 616 9 view .LVU541
 1929 00c8 0146     		mov	r1, r0
 1930              	.LVL212:
 1931              	.L226:
 617:src/printer.c ****   }
 618:src/printer.c **** #else
 619:src/printer.c ****   r = bufy;
 620:src/printer.c **** #endif
 621:src/printer.c ****   set_x_dn( &y, r, &leny); // copy y after complex prefix
 1932              		.loc 1 621 3 is_stmt 1 view .LVU542
 1933 00ca 0CA8     		add	r0, sp, #48
 1934              	.LVL213:
 1935              		.loc 1 621 3 is_stmt 0 view .LVU543
 1936 00cc 02AA     		add	r2, sp, #8
 1937 00ce FFF7FEFF 		bl	set_x_dn
 1938              	.LVL214:
 622:src/printer.c ****   leny = buffer_width(bufy); // bufy is still the start of the buffer
 1939              		.loc 1 622 3 is_stmt 1 view .LVU544
 1940              		.loc 1 622 10 is_stmt 0 view .LVU545
 1941 00d2 34A8     		add	r0, sp, #208
 1942 00d4 FFF7FEFF 		bl	buffer_width
 1943              	.LVL215:
 623:src/printer.c **** 
 624:src/printer.c ****   if (lenx + leny + lenlab > PAPER_WIDTH) {
 1944              		.loc 1 624 12 view .LVU546
 1945 00d8 019B     		ldr	r3, [sp, #4]
 622:src/printer.c ****   leny = buffer_width(bufy); // bufy is still the start of the buffer
 1946              		.loc 1 622 8 view .LVU547
 1947 00da 0290     		str	r0, [sp, #8]
 1948              		.loc 1 624 3 is_stmt 1 view .LVU548
 1949              		.loc 1 624 12 is_stmt 0 view .LVU549
 1950 00dc 0344     		add	r3, r3, r0
 1951              		.loc 1 624 19 view .LVU550
 1952 00de 1D44     		add	r5, r5, r3
 1953              	.LVL216:
 1954              		.loc 1 624 6 view .LVU551
ARM GAS  /tmp/cc3WwB9H.s 			page 53


 1955 00e0 A62D     		cmp	r5, #166
 1956 00e2 21DD     		ble	.L229
 625:src/printer.c ****     if (lenx + leny > PAPER_WIDTH) {
 1957              		.loc 1 625 5 is_stmt 1 view .LVU552
 1958              		.loc 1 625 8 is_stmt 0 view .LVU553
 1959 00e4 A62B     		cmp	r3, #166
 1960 00e6 1CDD     		ble	.L230
 626:src/printer.c ****       p[2] = '\0'; // end bufx after " " - p still points near end of bufx
 1961              		.loc 1 626 7 is_stmt 1 view .LVU554
 1962              		.loc 1 626 12 is_stmt 0 view .LVU555
 1963 00e8 0023     		movs	r3, #0
 1964 00ea A370     		strb	r3, [r4, #2]
 627:src/printer.c ****       lenx = buffer_width(bufx);
 1965              		.loc 1 627 7 is_stmt 1 view .LVU556
 1966              		.loc 1 627 14 is_stmt 0 view .LVU557
 1967 00ec 27A8     		add	r0, sp, #156
 1968 00ee FFF7FEFF 		bl	buffer_width
 1969              	.LVL217:
 628:src/printer.c ****       maxlen = PAPER_WIDTH - (lenx > leny ? lenx : leny);
 1970              		.loc 1 628 50 view .LVU558
 1971 00f2 029C     		ldr	r4, [sp, #8]
 1972              	.LVL218:
 1973              		.loc 1 628 50 view .LVU559
 1974 00f4 8442     		cmp	r4, r0
 1975 00f6 B8BF     		it	lt
 1976 00f8 0446     		movlt	r4, r0
 1977              		.loc 1 628 14 view .LVU560
 1978 00fa C4F1A604 		rsb	r4, r4, #166
 627:src/printer.c ****       lenx = buffer_width(bufx);
 1979              		.loc 1 627 14 view .LVU561
 1980 00fe 0346     		mov	r3, r0
 1981              	.LBB103:
 1982              	.LBB104:
 136:src/printer.c ****   print_line(s, 1);
 1983              		.loc 1 136 3 view .LVU562
 1984 0100 2046     		mov	r0, r4
 1985              	.LBE104:
 1986              	.LBE103:
 627:src/printer.c ****       lenx = buffer_width(bufx);
 1987              		.loc 1 627 12 view .LVU563
 1988 0102 0193     		str	r3, [sp, #4]
 1989              		.loc 1 628 7 is_stmt 1 view .LVU564
 1990              	.LVL219:
 629:src/printer.c ****       print_string_from_tab(bufx, maxlen);
 1991              		.loc 1 629 7 view .LVU565
 1992              	.LBB106:
 1993              	.LBI103:
 134:src/printer.c **** {
 1994              		.loc 1 134 13 view .LVU566
 1995              	.LBB105:
 136:src/printer.c ****   print_line(s, 1);
 1996              		.loc 1 136 3 view .LVU567
 1997 0104 FFF7FEFF 		bl	print_tab
 1998              	.LVL220:
 137:src/printer.c **** }
 1999              		.loc 1 137 3 view .LVU568
 2000 0108 27A8     		add	r0, sp, #156
ARM GAS  /tmp/cc3WwB9H.s 			page 54


 2001              	.LVL221:
 137:src/printer.c **** }
 2002              		.loc 1 137 3 is_stmt 0 view .LVU569
 2003 010a 0121     		movs	r1, #1
 2004 010c FFF7FEFF 		bl	print_line
 2005              	.LVL222:
 137:src/printer.c **** }
 2006              		.loc 1 137 3 view .LVU570
 2007              	.LBE105:
 2008              	.LBE106:
 630:src/printer.c ****       print_string_from_tab(bufy, maxlen);
 2009              		.loc 1 630 7 is_stmt 1 view .LVU571
 2010              	.LBB107:
 2011              	.LBI107:
 134:src/printer.c **** {
 2012              		.loc 1 134 13 view .LVU572
 2013              	.LBB108:
 136:src/printer.c ****   print_line(s, 1);
 2014              		.loc 1 136 3 view .LVU573
 2015 0110 2046     		mov	r0, r4
 2016 0112 FFF7FEFF 		bl	print_tab
 2017              	.LVL223:
 137:src/printer.c **** }
 2018              		.loc 1 137 3 view .LVU574
 2019 0116 34A8     		add	r0, sp, #208
 2020              	.LVL224:
 137:src/printer.c **** }
 2021              		.loc 1 137 3 is_stmt 0 view .LVU575
 2022 0118 0121     		movs	r1, #1
 2023 011a FFF7FEFF 		bl	print_line
 2024              	.LVL225:
 137:src/printer.c **** }
 2025              		.loc 1 137 3 view .LVU576
 2026              	.LBE108:
 2027              	.LBE107:
 631:src/printer.c ****     }
 632:src/printer.c ****     else {
 633:src/printer.c ****       print_advance(1); // print label by itself, followed by ...
 634:src/printer.c ****       scopy(scopy(buffer, bufx), bufy);
 635:src/printer.c ****       print_justified(buffer); // the two numbers
 636:src/printer.c ****     }
 637:src/printer.c ****   }
 638:src/printer.c ****   else {
 639:src/printer.c ****     scopy(scopy(buffer, bufx), bufy);
 640:src/printer.c ****     print_justified(buffer);
 641:src/printer.c ****   }
 642:src/printer.c **** }
 2028              		.loc 1 642 1 view .LVU577
 2029 011e 5DB0     		add	sp, sp, #372
 2030              		.cfi_remember_state
 2031              		.cfi_def_cfa_offset 20
 2032              		@ sp needed
 2033 0120 F0BD     		pop	{r4, r5, r6, r7, pc}
 2034              	.LVL226:
 2035              	.L230:
 2036              		.cfi_restore_state
 633:src/printer.c ****       scopy(scopy(buffer, bufx), bufy);
ARM GAS  /tmp/cc3WwB9H.s 			page 55


 2037              		.loc 1 633 7 is_stmt 1 view .LVU578
 2038 0122 0120     		movs	r0, #1
 2039 0124 FFF7FEFF 		bl	print_advance
 2040              	.LVL227:
 634:src/printer.c ****       print_justified(buffer); // the two numbers
 2041              		.loc 1 634 7 view .LVU579
 2042              	.L229:
 639:src/printer.c ****     print_justified(buffer);
 2043              		.loc 1 639 5 view .LVU580
 2044 0128 27A9     		add	r1, sp, #156
 2045 012a 42A8     		add	r0, sp, #264
 2046 012c FFF7FEFF 		bl	scopy
 2047              	.LVL228:
 2048 0130 34A9     		add	r1, sp, #208
 2049 0132 FFF7FEFF 		bl	scopy
 2050              	.LVL229:
 640:src/printer.c ****   }
 2051              		.loc 1 640 5 view .LVU581
 2052 0136 42A8     		add	r0, sp, #264
 2053 0138 FFF7FEFF 		bl	print_justified
 2054              	.LVL230:
 2055              		.loc 1 642 1 is_stmt 0 view .LVU582
 2056 013c 5DB0     		add	sp, sp, #372
 2057              		.cfi_remember_state
 2058              		.cfi_def_cfa_offset 20
 2059              		@ sp needed
 2060 013e F0BD     		pop	{r4, r5, r6, r7, pc}
 2061              	.LVL231:
 2062              	.L241:
 2063              		.cfi_restore_state
 572:src/printer.c ****     lenlab = buffer_width(bufx);
 2064              		.loc 1 572 15 is_stmt 1 view .LVU583
 572:src/printer.c ****     lenlab = buffer_width(bufx);
 2065              		.loc 1 572 19 is_stmt 0 view .LVU584
 2066 0140 1749     		ldr	r1, .L245+16
 2067 0142 FFF7FEFF 		bl	scopy
 2068              	.LVL232:
 572:src/printer.c ****     lenlab = buffer_width(bufx);
 2069              		.loc 1 572 19 view .LVU585
 2070 0146 6DE7     		b	.L221
 2071              	.LVL233:
 2072              	.L243:
 604:src/printer.c ****       r = scopy (bufy, "\xA0 "); // assumes ROMAN8 character set; angle symbol
 2073              		.loc 1 604 5 is_stmt 1 view .LVU586
 604:src/printer.c ****       r = scopy (bufy, "\xA0 "); // assumes ROMAN8 character set; angle symbol
 2074              		.loc 1 604 27 is_stmt 0 view .LVU587
 2075 0148 93F8EA37 		ldrb	r3, [r3, #2026]	@ zero_extendqisi2
 604:src/printer.c ****       r = scopy (bufy, "\xA0 "); // assumes ROMAN8 character set; angle symbol
 2076              		.loc 1 604 8 view .LVU588
 2077 014c 13F00303 		ands	r3, r3, #3
 2078 0150 17D0     		beq	.L244
 607:src/printer.c ****       r = scopy(bufy, "< "); // < is angle symbol in MODE 1; 
 2079              		.loc 1 607 10 is_stmt 1 view .LVU589
 607:src/printer.c ****       r = scopy(bufy, "< "); // < is angle symbol in MODE 1; 
 2080              		.loc 1 607 13 is_stmt 0 view .LVU590
 2081 0152 012B     		cmp	r3, #1
 608:src/printer.c ****     }
ARM GAS  /tmp/cc3WwB9H.s 			page 56


 2082              		.loc 1 608 7 is_stmt 1 view .LVU591
 608:src/printer.c ****     }
 2083              		.loc 1 608 11 is_stmt 0 view .LVU592
 2084 0154 0CBF     		ite	eq
 2085 0156 1349     		ldreq	r1, .L245+20
 611:src/printer.c ****     }
 2086              		.loc 1 611 7 is_stmt 1 view .LVU593
 611:src/printer.c ****     }
 2087              		.loc 1 611 11 is_stmt 0 view .LVU594
 2088 0158 1349     		ldrne	r1, .L245+24
 2089 015a 34A8     		add	r0, sp, #208
 2090 015c FFF7FEFF 		bl	scopy
 2091              	.LVL234:
 2092 0160 0146     		mov	r1, r0
 2093              	.LVL235:
 611:src/printer.c ****     }
 2094              		.loc 1 611 11 view .LVU595
 2095 0162 B2E7     		b	.L226
 2096              	.LVL236:
 2097              	.L242:
 584:src/printer.c ****     cvt_rad2 (&y, &ry);
 2098              		.loc 1 584 5 is_stmt 1 view .LVU596
 2099 0164 1EA9     		add	r1, sp, #120
 2100 0166 15A8     		add	r0, sp, #84
 2101 0168 0CAB     		add	r3, sp, #48
 2102 016a 03AA     		add	r2, sp, #12
 2103 016c FFF7FEFF 		bl	cmplxToPolar
 2104              	.LVL237:
 585:src/printer.c ****     decNumberCopy(&x, &rx); // x, y now contain r, theta
 2105              		.loc 1 585 5 view .LVU597
 2106 0170 1EA9     		add	r1, sp, #120
 2107 0172 0CA8     		add	r0, sp, #48
 2108 0174 FFF7FEFF 		bl	cvt_rad2
 2109              	.LVL238:
 586:src/printer.c ****   }
 2110              		.loc 1 586 5 view .LVU598
 2111 0178 15A9     		add	r1, sp, #84
 2112 017a 03A8     		add	r0, sp, #12
 2113 017c FFF7FEFF 		bl	decNumberCopy
 2114              	.LVL239:
 2115 0180 6DE7     		b	.L222
 2116              	.LVL240:
 2117              	.L244:
 605:src/printer.c ****     }
 2118              		.loc 1 605 7 view .LVU599
 605:src/printer.c ****     }
 2119              		.loc 1 605 11 is_stmt 0 view .LVU600
 2120 0182 0A49     		ldr	r1, .L245+28
 2121 0184 34A8     		add	r0, sp, #208
 2122 0186 FFF7FEFF 		bl	scopy
 2123              	.LVL241:
 2124 018a 0146     		mov	r1, r0
 2125              	.LVL242:
 605:src/printer.c ****     }
 2126              		.loc 1 605 11 view .LVU601
 2127 018c 9DE7     		b	.L226
 2128              	.L246:
ARM GAS  /tmp/cc3WwB9H.s 			page 57


 2129 018e 00BF     		.align	2
 2130              	.L245:
 2131 0190 00000000 		.word	main_ram
 2132 0194 0C000000 		.word	.LC4
 2133 0198 04000000 		.word	.LC2
 2134 019c 00000000 		.word	.LC1
 2135 01a0 08000000 		.word	.LC3
 2136 01a4 14000000 		.word	.LC6
 2137 01a8 18000000 		.word	.LC7
 2138 01ac 10000000 		.word	.LC5
 2139              		.cfi_endproc
 2140              	.LFE30:
 2142              		.section	.text.print_reg,"ax",%progbits
 2143              		.align	1
 2144              		.p2align 2,,3
 2145              		.global	print_reg
 2146              		.syntax unified
 2147              		.thumb
 2148              		.thumb_func
 2149              		.fpu fpv4-sp-d16
 2151              	print_reg:
 2152              	.LVL243:
 2153              	.LFB12:
 350:src/printer.c ****   char buffer[ 65 ];
 2154              		.loc 1 350 1 is_stmt 1 view -0
 2155              		.cfi_startproc
 2156              		@ args = 0, pretend = 0, frame = 72
 2157              		@ frame_needed = 0, uses_anonymous_args = 0
 351:src/printer.c ****   if ( label != NULL ) {
 2158              		.loc 1 351 3 view .LVU603
 352:src/printer.c ****     print_line( label, 0 );
 2159              		.loc 1 352 3 view .LVU604
 350:src/printer.c ****   char buffer[ 65 ];
 2160              		.loc 1 350 1 is_stmt 0 view .LVU605
 2161 0000 30B5     		push	{r4, r5, lr}
 2162              		.cfi_def_cfa_offset 12
 2163              		.cfi_offset 4, -12
 2164              		.cfi_offset 5, -8
 2165              		.cfi_offset 14, -4
 2166 0002 0446     		mov	r4, r0
 2167 0004 93B0     		sub	sp, sp, #76
 2168              		.cfi_def_cfa_offset 88
 352:src/printer.c ****     print_line( label, 0 );
 2169              		.loc 1 352 6 view .LVU606
 2170 0006 29B1     		cbz	r1, .L249
 353:src/printer.c ****     if ( eq ) print_line( " =", 0 );
 2171              		.loc 1 353 5 is_stmt 1 view .LVU607
 2172 0008 1546     		mov	r5, r2
 2173 000a 0846     		mov	r0, r1
 2174              	.LVL244:
 353:src/printer.c ****     if ( eq ) print_line( " =", 0 );
 2175              		.loc 1 353 5 is_stmt 0 view .LVU608
 2176 000c 0021     		movs	r1, #0
 2177              	.LVL245:
 353:src/printer.c ****     if ( eq ) print_line( " =", 0 );
 2178              		.loc 1 353 5 view .LVU609
 2179 000e FFF7FEFF 		bl	print_line
ARM GAS  /tmp/cc3WwB9H.s 			page 58


 2180              	.LVL246:
 354:src/printer.c ****   }
 2181              		.loc 1 354 5 is_stmt 1 view .LVU610
 354:src/printer.c ****   }
 2182              		.loc 1 354 8 is_stmt 0 view .LVU611
 2183 0012 6DB9     		cbnz	r5, .L255
 2184              	.LVL247:
 2185              	.L249:
 356:src/printer.c ****   format_reg( reg, buffer );
 2186              		.loc 1 356 3 is_stmt 1 view .LVU612
 2187 0014 4122     		movs	r2, #65
 2188 0016 01A8     		add	r0, sp, #4
 2189 0018 0021     		movs	r1, #0
 2190 001a FFF7FEFF 		bl	xset
 2191              	.LVL248:
 357:src/printer.c ****   print_justified( buffer );
 2192              		.loc 1 357 3 view .LVU613
 2193 001e 01A9     		add	r1, sp, #4
 2194 0020 2046     		mov	r0, r4
 2195 0022 FFF7FEFF 		bl	format_reg
 2196              	.LVL249:
 358:src/printer.c **** }	
 2197              		.loc 1 358 3 view .LVU614
 2198 0026 01A8     		add	r0, sp, #4
 2199 0028 FFF7FEFF 		bl	print_justified
 2200              	.LVL250:
 359:src/printer.c **** 
 2201              		.loc 1 359 1 is_stmt 0 view .LVU615
 2202 002c 13B0     		add	sp, sp, #76
 2203              		.cfi_remember_state
 2204              		.cfi_def_cfa_offset 12
 2205              		@ sp needed
 2206 002e 30BD     		pop	{r4, r5, pc}
 2207              	.LVL251:
 2208              	.L255:
 2209              		.cfi_restore_state
 354:src/printer.c ****   }
 2210              		.loc 1 354 15 is_stmt 1 discriminator 1 view .LVU616
 2211 0030 0248     		ldr	r0, .L256
 2212 0032 0021     		movs	r1, #0
 2213 0034 FFF7FEFF 		bl	print_line
 2214              	.LVL252:
 2215 0038 ECE7     		b	.L249
 2216              	.L257:
 2217 003a 00BF     		.align	2
 2218              	.L256:
 2219 003c 08000000 		.word	.LC3
 2220              		.cfi_endproc
 2221              	.LFE12:
 2223              		.section	.text.print_sigma,"ax",%progbits
 2224              		.align	1
 2225              		.p2align 2,,3
 2226              		.global	print_sigma
 2227              		.syntax unified
 2228              		.thumb
 2229              		.thumb_func
 2230              		.fpu fpv4-sp-d16
ARM GAS  /tmp/cc3WwB9H.s 			page 59


 2232              	print_sigma:
 2233              	.LVL253:
 2234              	.LFB14:
 429:src/printer.c ****   // Use the user commands to get the values
 2235              		.loc 1 429 1 view -0
 2236              		.cfi_startproc
 2237              		@ args = 0, pretend = 0, frame = 32
 2238              		@ frame_needed = 0, uses_anonymous_args = 0
 432:src/printer.c ****     OP_sigmaN,
 2239              		.loc 1 432 3 view .LVU618
 441:src/printer.c ****   RETURN_IF_PRINT_OFF;
 2240              		.loc 1 441 3 view .LVU619
 442:src/printer.c ****   advance_if_trace();
 2241              		.loc 1 442 3 view .LVU620
 2242 0000 174B     		ldr	r3, .L273
 2243 0002 1B68     		ldr	r3, [r3]
 2244 0004 93F8E437 		ldrb	r3, [r3, #2020]	@ zero_extendqisi2
 2245 0008 DB07     		lsls	r3, r3, #31
 2246 000a 28D5     		bpl	.L268
 443:src/printer.c ****   REGISTER save_x;
 2247              		.loc 1 443 3 view .LVU621
 2248              	.LBB109:
 2249              	.LBI109:
  99:src/printer.c **** {
 2250              		.loc 1 99 13 view .LVU622
 2251              	.LBB110:
 101:src/printer.c ****     print_advance( 0 );
 2252              		.loc 1 101 3 view .LVU623
 2253              	.LBE110:
 2254              	.LBE109:
 429:src/printer.c ****   // Use the user commands to get the values
 2255              		.loc 1 429 1 is_stmt 0 view .LVU624
 2256 000c F0B5     		push	{r4, r5, r6, r7, lr}
 2257              		.cfi_def_cfa_offset 20
 2258              		.cfi_offset 4, -20
 2259              		.cfi_offset 5, -16
 2260              		.cfi_offset 6, -12
 2261              		.cfi_offset 7, -8
 2262              		.cfi_offset 14, -4
 2263              	.LBB114:
 2264              	.LBB111:
 101:src/printer.c ****     print_advance( 0 );
 2265              		.loc 1 101 22 view .LVU625
 2266 000e 154B     		ldr	r3, .L273+4
 101:src/printer.c ****     print_advance( 0 );
 2267              		.loc 1 101 6 view .LVU626
 2268 0010 1B68     		ldr	r3, [r3]
 2269              	.LBE111:
 2270              	.LBE114:
 429:src/printer.c ****   // Use the user commands to get the values
 2271              		.loc 1 429 1 view .LVU627
 2272 0012 89B0     		sub	sp, sp, #36
 2273              		.cfi_def_cfa_offset 56
 2274              	.LBB115:
 2275              	.LBB112:
 101:src/printer.c ****     print_advance( 0 );
 2276              		.loc 1 101 6 view .LVU628
ARM GAS  /tmp/cc3WwB9H.s 			page 60


 2277 0014 03BB     		cbnz	r3, .L271
 2278              	.LVL254:
 2279              	.L261:
 101:src/printer.c ****     print_advance( 0 );
 2280              		.loc 1 101 6 view .LVU629
 2281              	.LBE112:
 2282              	.LBE115:
 444:src/printer.c ****   char buffer[ 16 ];
 2283              		.loc 1 444 3 is_stmt 1 view .LVU630
 445:src/printer.c **** 
 2284              		.loc 1 445 3 view .LVU631
 448:src/printer.c **** 
 2285              		.loc 1 448 3 view .LVU632
 2286 0016 144F     		ldr	r7, .L273+8
 2287 0018 144C     		ldr	r4, .L273+12
 2288 001a 3968     		ldr	r1, [r7]
 2289 001c 6846     		mov	r0, sp
 2290 001e FFF7FEFF 		bl	copyreg
 2291              	.LVL255:
 450:src/printer.c ****     const char *p;
 2292              		.loc 1 450 3 view .LVU633
 450:src/printer.c ****     const char *p;
 2293              		.loc 1 450 16 view .LVU634
 2294 0022 04F10D06 		add	r6, r4, #13
 448:src/printer.c **** 
 2295              		.loc 1 448 3 is_stmt 0 view .LVU635
 2296 0026 1D25     		movs	r5, #29
 2297 0028 01E0     		b	.L263
 2298              	.LVL256:
 2299              	.L272:
 448:src/printer.c **** 
 2300              		.loc 1 448 3 view .LVU636
 2301 002a 14F8015B 		ldrb	r5, [r4], #1	@ zero_extendqisi2
 2302              	.LVL257:
 2303              	.L263:
 2304              	.LBB116:
 451:src/printer.c ****     sigma_val( (enum nilop) ops[ i ] );
 2305              		.loc 1 451 5 is_stmt 1 discriminator 3 view .LVU637
 452:src/printer.c ****     p = prt( OP_NIL | ops[ i ], buffer );
 2306              		.loc 1 452 5 discriminator 3 view .LVU638
 2307 002e 2846     		mov	r0, r5
 2308 0030 FFF7FEFF 		bl	sigma_val
 2309              	.LVL258:
 453:src/printer.c ****     print_reg( regX_idx, p, 1 );
 2310              		.loc 1 453 5 discriminator 3 view .LVU639
 453:src/printer.c ****     print_reg( regX_idx, p, 1 );
 2311              		.loc 1 453 9 is_stmt 0 discriminator 3 view .LVU640
 2312 0034 04A9     		add	r1, sp, #16
 2313 0036 45F48070 		orr	r0, r5, #256
 2314 003a FFF7FEFF 		bl	prt
 2315              	.LVL259:
 454:src/printer.c ****   }
 2316              		.loc 1 454 5 discriminator 3 view .LVU641
 2317 003e 0122     		movs	r2, #1
 453:src/printer.c ****     print_reg( regX_idx, p, 1 );
 2318              		.loc 1 453 9 discriminator 3 view .LVU642
 2319 0040 0146     		mov	r1, r0
ARM GAS  /tmp/cc3WwB9H.s 			page 61


 2320              	.LVL260:
 454:src/printer.c ****   }
 2321              		.loc 1 454 5 is_stmt 1 discriminator 3 view .LVU643
 2322 0042 6420     		movs	r0, #100
 2323              	.LVL261:
 454:src/printer.c ****   }
 2324              		.loc 1 454 5 is_stmt 0 discriminator 3 view .LVU644
 2325 0044 FFF7FEFF 		bl	print_reg
 2326              	.LVL262:
 454:src/printer.c ****   }
 2327              		.loc 1 454 5 discriminator 3 view .LVU645
 2328              	.LBE116:
 450:src/printer.c ****     const char *p;
 2329              		.loc 1 450 35 is_stmt 1 discriminator 3 view .LVU646
 450:src/printer.c ****     const char *p;
 2330              		.loc 1 450 16 discriminator 3 view .LVU647
 450:src/printer.c ****     const char *p;
 2331              		.loc 1 450 3 is_stmt 0 discriminator 3 view .LVU648
 2332 0048 A642     		cmp	r6, r4
 2333 004a EED1     		bne	.L272
 456:src/printer.c **** }
 2334              		.loc 1 456 3 is_stmt 1 view .LVU649
 2335 004c 3868     		ldr	r0, [r7]
 2336 004e 6946     		mov	r1, sp
 2337 0050 FFF7FEFF 		bl	copyreg
 2338              	.LVL263:
 457:src/printer.c **** 
 2339              		.loc 1 457 1 is_stmt 0 view .LVU650
 2340 0054 09B0     		add	sp, sp, #36
 2341              		.cfi_remember_state
 2342              		.cfi_def_cfa_offset 20
 2343              		@ sp needed
 2344 0056 F0BD     		pop	{r4, r5, r6, r7, pc}
 2345              	.LVL264:
 2346              	.L271:
 2347              		.cfi_restore_state
 2348              	.LBB117:
 2349              	.LBB113:
 457:src/printer.c **** 
 2350              		.loc 1 457 1 view .LVU651
 2351 0058 FFF7FEFF 		bl	advance_if_trace.part.0
 2352              	.LVL265:
 457:src/printer.c **** 
 2353              		.loc 1 457 1 view .LVU652
 2354 005c DBE7     		b	.L261
 2355              	.LVL266:
 2356              	.L268:
 2357              		.cfi_def_cfa_offset 0
 2358              		.cfi_restore 4
 2359              		.cfi_restore 5
 2360              		.cfi_restore 6
 2361              		.cfi_restore 7
 2362              		.cfi_restore 14
 457:src/printer.c **** 
 2363              		.loc 1 457 1 view .LVU653
 2364 005e 7047     		bx	lr
 2365              	.L274:
ARM GAS  /tmp/cc3WwB9H.s 			page 62


 2366              		.align	2
 2367              	.L273:
 2368 0060 00000000 		.word	main_ram
 2369 0064 00000000 		.word	PrinterColumn
 2370 0068 00000000 		.word	StackBase
 2371 006c 01000000 		.word	.LANCHOR1+1
 2372              	.LBE113:
 2373              	.LBE117:
 2374              		.cfi_endproc
 2375              	.LFE14:
 2377              		.section	.text.print_alpha,"ax",%progbits
 2378              		.align	1
 2379              		.p2align 2,,3
 2380              		.global	print_alpha
 2381              		.syntax unified
 2382              		.thumb
 2383              		.thumb_func
 2384              		.fpu fpv4-sp-d16
 2386              	print_alpha:
 2387              	.LVL267:
 2388              	.LFB15:
 463:src/printer.c ****   RETURN_IF_PRINT_OFF;
 2389              		.loc 1 463 1 is_stmt 1 view -0
 2390              		.cfi_startproc
 2391              		@ args = 0, pretend = 0, frame = 0
 2392              		@ frame_needed = 0, uses_anonymous_args = 0
 464:src/printer.c ****   advance_if_trace();
 2393              		.loc 1 464 3 view .LVU655
 463:src/printer.c ****   RETURN_IF_PRINT_OFF;
 2394              		.loc 1 463 1 is_stmt 0 view .LVU656
 2395 0000 38B5     		push	{r3, r4, r5, lr}
 2396              		.cfi_def_cfa_offset 16
 2397              		.cfi_offset 3, -16
 2398              		.cfi_offset 4, -12
 2399              		.cfi_offset 5, -8
 2400              		.cfi_offset 14, -4
 464:src/printer.c ****   advance_if_trace();
 2401              		.loc 1 464 3 view .LVU657
 2402 0002 104D     		ldr	r5, .L284
 2403 0004 2B68     		ldr	r3, [r5]
 2404 0006 93F8E427 		ldrb	r2, [r3, #2020]	@ zero_extendqisi2
 2405 000a D207     		lsls	r2, r2, #31
 2406 000c 19D5     		bpl	.L275
 465:src/printer.c ****   if ( op == OP_PRINT_ALPHA_JUST ) {
 2407              		.loc 1 465 3 is_stmt 1 view .LVU658
 2408              	.LBB118:
 2409              	.LBI118:
  99:src/printer.c **** {
 2410              		.loc 1 99 13 view .LVU659
 2411              	.LBB119:
 101:src/printer.c ****     print_advance( 0 );
 2412              		.loc 1 101 3 view .LVU660
 101:src/printer.c ****     print_advance( 0 );
 2413              		.loc 1 101 22 is_stmt 0 view .LVU661
 2414 000e 0E4A     		ldr	r2, .L284+4
 101:src/printer.c ****     print_advance( 0 );
 2415              		.loc 1 101 6 view .LVU662
ARM GAS  /tmp/cc3WwB9H.s 			page 63


 2416 0010 1268     		ldr	r2, [r2]
 2417 0012 0446     		mov	r4, r0
 2418 0014 12B1     		cbz	r2, .L277
 2419 0016 FFF7FEFF 		bl	advance_if_trace.part.0
 2420              	.LVL268:
 101:src/printer.c ****     print_advance( 0 );
 2421              		.loc 1 101 6 view .LVU663
 2422 001a 2B68     		ldr	r3, [r5]
 2423              	.L277:
 2424              	.LBE119:
 2425              	.LBE118:
 466:src/printer.c ****     print_justified( Alpha );
 2426              		.loc 1 466 3 is_stmt 1 view .LVU664
 466:src/printer.c ****     print_justified( Alpha );
 2427              		.loc 1 466 6 is_stmt 0 view .LVU665
 2428 001c C22C     		cmp	r4, #194
 2429 001e 0AD0     		beq	.L283
 470:src/printer.c ****   }  
 2430              		.loc 1 470 5 is_stmt 1 view .LVU666
 2431 0020 A4F1C001 		sub	r1, r4, #192
 2432 0024 B1FA81F1 		clz	r1, r1
 2433 0028 03F5F660 		add	r0, r3, #1968
 2434 002c 4909     		lsrs	r1, r1, #5
 472:src/printer.c **** 
 2435              		.loc 1 472 1 is_stmt 0 view .LVU667
 2436 002e BDE83840 		pop	{r3, r4, r5, lr}
 2437              		.cfi_remember_state
 2438              		.cfi_restore 14
 2439              		.cfi_restore 5
 2440              		.cfi_restore 4
 2441              		.cfi_restore 3
 2442              		.cfi_def_cfa_offset 0
 470:src/printer.c ****   }  
 2443              		.loc 1 470 5 view .LVU668
 2444 0032 FFF7FEBF 		b	print_line
 2445              	.LVL269:
 2446              	.L283:
 2447              		.cfi_restore_state
 467:src/printer.c ****   }
 2448              		.loc 1 467 5 is_stmt 1 view .LVU669
 2449 0036 03F5F660 		add	r0, r3, #1968
 472:src/printer.c **** 
 2450              		.loc 1 472 1 is_stmt 0 view .LVU670
 2451 003a BDE83840 		pop	{r3, r4, r5, lr}
 2452              		.cfi_remember_state
 2453              		.cfi_restore 14
 2454              		.cfi_restore 5
 2455              		.cfi_restore 4
 2456              		.cfi_restore 3
 2457              		.cfi_def_cfa_offset 0
 467:src/printer.c ****   }
 2458              		.loc 1 467 5 view .LVU671
 2459 003e FFF7FEBF 		b	print_justified
 2460              	.LVL270:
 2461              	.L275:
 2462              		.cfi_restore_state
 472:src/printer.c **** 
ARM GAS  /tmp/cc3WwB9H.s 			page 64


 2463              		.loc 1 472 1 view .LVU672
 2464 0042 38BD     		pop	{r3, r4, r5, pc}
 2465              	.L285:
 2466              		.align	2
 2467              	.L284:
 2468 0044 00000000 		.word	main_ram
 2469 0048 00000000 		.word	PrinterColumn
 2470              		.cfi_endproc
 2471              	.LFE15:
 2473              		.section	.text.print_lf,"ax",%progbits
 2474              		.align	1
 2475              		.p2align 2,,3
 2476              		.global	print_lf
 2477              		.syntax unified
 2478              		.thumb
 2479              		.thumb_func
 2480              		.fpu fpv4-sp-d16
 2482              	print_lf:
 2483              	.LVL271:
 2484              	.LFB16:
 477:src/printer.c ****   RETURN_IF_PRINT_OFF;
 2485              		.loc 1 477 32 is_stmt 1 view -0
 2486              		.cfi_startproc
 2487              		@ args = 0, pretend = 0, frame = 0
 2488              		@ frame_needed = 0, uses_anonymous_args = 0
 478:src/printer.c ****   advance_if_trace();
 2489              		.loc 1 478 3 view .LVU674
 477:src/printer.c ****   RETURN_IF_PRINT_OFF;
 2490              		.loc 1 477 32 is_stmt 0 view .LVU675
 2491 0000 08B5     		push	{r3, lr}
 2492              		.cfi_def_cfa_offset 8
 2493              		.cfi_offset 3, -8
 2494              		.cfi_offset 14, -4
 478:src/printer.c ****   advance_if_trace();
 2495              		.loc 1 478 3 view .LVU676
 2496 0002 084B     		ldr	r3, .L293
 2497 0004 1B68     		ldr	r3, [r3]
 2498 0006 93F8E437 		ldrb	r3, [r3, #2020]	@ zero_extendqisi2
 2499 000a DB07     		lsls	r3, r3, #31
 2500 000c 09D5     		bpl	.L286
 479:src/printer.c ****   print_advance( 0 );
 2501              		.loc 1 479 3 is_stmt 1 view .LVU677
 2502              	.LBB120:
 2503              	.LBI120:
  99:src/printer.c **** {
 2504              		.loc 1 99 13 view .LVU678
 2505              	.LBB121:
 101:src/printer.c ****     print_advance( 0 );
 2506              		.loc 1 101 3 view .LVU679
 101:src/printer.c ****     print_advance( 0 );
 2507              		.loc 1 101 22 is_stmt 0 view .LVU680
 2508 000e 064B     		ldr	r3, .L293+4
 101:src/printer.c ****     print_advance( 0 );
 2509              		.loc 1 101 6 view .LVU681
 2510 0010 1B68     		ldr	r3, [r3]
 2511 0012 0BB1     		cbz	r3, .L288
 2512 0014 FFF7FEFF 		bl	advance_if_trace.part.0
ARM GAS  /tmp/cc3WwB9H.s 			page 65


 2513              	.LVL272:
 2514              	.L288:
 101:src/printer.c ****     print_advance( 0 );
 2515              		.loc 1 101 6 view .LVU682
 2516              	.LBE121:
 2517              	.LBE120:
 480:src/printer.c **** }
 2518              		.loc 1 480 3 is_stmt 1 view .LVU683
 481:src/printer.c **** 
 2519              		.loc 1 481 1 is_stmt 0 view .LVU684
 2520 0018 BDE80840 		pop	{r3, lr}
 2521              		.cfi_remember_state
 2522              		.cfi_restore 14
 2523              		.cfi_restore 3
 2524              		.cfi_def_cfa_offset 0
 480:src/printer.c **** }
 2525              		.loc 1 480 3 view .LVU685
 2526 001c 0020     		movs	r0, #0
 2527 001e FFF7FEBF 		b	print_advance
 2528              	.LVL273:
 2529              	.L286:
 2530              		.cfi_restore_state
 481:src/printer.c **** 
 2531              		.loc 1 481 1 view .LVU686
 2532 0022 08BD     		pop	{r3, pc}
 2533              	.L294:
 2534              		.align	2
 2535              	.L293:
 2536 0024 00000000 		.word	main_ram
 2537 0028 00000000 		.word	PrinterColumn
 2538              		.cfi_endproc
 2539              	.LFE16:
 2541              		.section	.text.cmdprint,"ax",%progbits
 2542              		.align	1
 2543              		.p2align 2,,3
 2544              		.global	cmdprint
 2545              		.syntax unified
 2546              		.thumb
 2547              		.thumb_func
 2548              		.fpu fpv4-sp-d16
 2550              	cmdprint:
 2551              	.LVL274:
 2552              	.LFB17:
 487:src/printer.c ****   char buff[ 2 ];
 2553              		.loc 1 487 1 is_stmt 1 view -0
 2554              		.cfi_startproc
 2555              		@ args = 0, pretend = 0, frame = 8
 2556              		@ frame_needed = 0, uses_anonymous_args = 0
 488:src/printer.c ****   RETURN_IF_PRINT_OFF;
 2557              		.loc 1 488 3 view .LVU688
 489:src/printer.c **** 
 2558              		.loc 1 489 3 view .LVU689
 2559 0000 144B     		ldr	r3, .L310
 2560 0002 1B68     		ldr	r3, [r3]
 2561 0004 93F8E437 		ldrb	r3, [r3, #2020]	@ zero_extendqisi2
 2562 0008 DB07     		lsls	r3, r3, #31
 2563 000a 0AD5     		bpl	.L306
ARM GAS  /tmp/cc3WwB9H.s 			page 66


 487:src/printer.c ****   char buff[ 2 ];
 2564              		.loc 1 487 1 is_stmt 0 view .LVU690
 2565 000c 10B5     		push	{r4, lr}
 2566              		.cfi_def_cfa_offset 8
 2567              		.cfi_offset 4, -8
 2568              		.cfi_offset 14, -4
 491:src/printer.c **** 
 2569              		.loc 1 491 3 view .LVU691
 2570 000e 8D29     		cmp	r1, #141
 487:src/printer.c ****   char buff[ 2 ];
 2571              		.loc 1 487 1 view .LVU692
 2572 0010 82B0     		sub	sp, sp, #8
 2573              		.cfi_def_cfa_offset 16
 2574 0012 0446     		mov	r4, r0
 491:src/printer.c **** 
 2575              		.loc 1 491 3 is_stmt 1 view .LVU693
 2576 0014 13D0     		beq	.L298
 2577 0016 8E29     		cmp	r1, #142
 2578 0018 0DD0     		beq	.L299
 2579 001a 8C29     		cmp	r1, #140
 2580 001c 02D0     		beq	.L309
 2581              	.LVL275:
 2582              	.L295:
 515:src/printer.c **** 
 2583              		.loc 1 515 1 is_stmt 0 view .LVU694
 2584 001e 02B0     		add	sp, sp, #8
 2585              		.cfi_def_cfa_offset 8
 2586              		@ sp needed
 2587 0020 10BD     		pop	{r4, pc}
 2588              	.LVL276:
 2589              	.L306:
 2590              		.cfi_def_cfa_offset 0
 2591              		.cfi_restore 4
 2592              		.cfi_restore 14
 515:src/printer.c **** 
 2593              		.loc 1 515 1 view .LVU695
 2594 0022 7047     		bx	lr
 2595              	.L309:
 2596              		.cfi_def_cfa_offset 16
 2597              		.cfi_offset 4, -8
 2598              		.cfi_offset 14, -4
 495:src/printer.c ****     if (arg == '\n' || arg == 0x04)
 2599              		.loc 1 495 5 is_stmt 1 view .LVU696
 2600 0024 FFF7FEFF 		bl	print
 2601              	.LVL277:
 496:src/printer.c ****       prepare_new_line();
 2602              		.loc 1 496 5 view .LVU697
 496:src/printer.c ****       prepare_new_line();
 2603              		.loc 1 496 8 is_stmt 0 view .LVU698
 2604 0028 0A2C     		cmp	r4, #10
 2605 002a 01D0     		beq	.L301
 496:src/printer.c ****       prepare_new_line();
 2606              		.loc 1 496 21 discriminator 1 view .LVU699
 2607 002c 042C     		cmp	r4, #4
 2608 002e F6D1     		bne	.L295
 2609              	.L301:
 497:src/printer.c ****     break;
ARM GAS  /tmp/cc3WwB9H.s 			page 67


 2610              		.loc 1 497 7 is_stmt 1 view .LVU700
 2611 0030 FFF7FEFF 		bl	prepare_new_line
 2612              	.LVL278:
 2613 0034 F3E7     		b	.L295
 2614              	.LVL279:
 2615              	.L299:
 509:src/printer.c ****     break;
 2616              		.loc 1 509 5 view .LVU701
 2617 0036 FFF7FEFF 		bl	print_tab
 2618              	.LVL280:
 510:src/printer.c **** 
 2619              		.loc 1 510 5 view .LVU702
 515:src/printer.c **** 
 2620              		.loc 1 515 1 is_stmt 0 view .LVU703
 2621 003a 02B0     		add	sp, sp, #8
 2622              		.cfi_remember_state
 2623              		.cfi_def_cfa_offset 8
 2624              		@ sp needed
 2625 003c 10BD     		pop	{r4, pc}
 2626              	.LVL281:
 2627              	.L298:
 2628              		.cfi_restore_state
 502:src/printer.c ****     buff[ 1 ] = '\0';
 2629              		.loc 1 502 5 is_stmt 1 view .LVU704
 503:src/printer.c ****     print_line( buff, 0 );
 2630              		.loc 1 503 15 is_stmt 0 view .LVU705
 2631 003e 0021     		movs	r1, #0
 2632              	.LVL282:
 504:src/printer.c ****     break;
 2633              		.loc 1 504 5 view .LVU706
 2634 0040 01A8     		add	r0, sp, #4
 2635              	.LVL283:
 502:src/printer.c ****     buff[ 1 ] = '\0';
 2636              		.loc 1 502 17 view .LVU707
 2637 0042 8DF80440 		strb	r4, [sp, #4]
 503:src/printer.c ****     print_line( buff, 0 );
 2638              		.loc 1 503 5 is_stmt 1 view .LVU708
 503:src/printer.c ****     print_line( buff, 0 );
 2639              		.loc 1 503 15 is_stmt 0 view .LVU709
 2640 0046 8DF80510 		strb	r1, [sp, #5]
 504:src/printer.c ****     break;
 2641              		.loc 1 504 5 is_stmt 1 view .LVU710
 2642 004a FFF7FEFF 		bl	print_line
 2643              	.LVL284:
 505:src/printer.c **** 
 2644              		.loc 1 505 5 view .LVU711
 515:src/printer.c **** 
 2645              		.loc 1 515 1 is_stmt 0 view .LVU712
 2646 004e 02B0     		add	sp, sp, #8
 2647              		.cfi_def_cfa_offset 8
 2648              		@ sp needed
 2649 0050 10BD     		pop	{r4, pc}
 2650              	.LVL285:
 2651              	.L311:
 515:src/printer.c **** 
 2652              		.loc 1 515 1 view .LVU713
 2653 0052 00BF     		.align	2
ARM GAS  /tmp/cc3WwB9H.s 			page 68


 2654              	.L310:
 2655 0054 00000000 		.word	main_ram
 2656              		.cfi_endproc
 2657              	.LFE17:
 2659              		.section	.text.print_reg_cmplx,"ax",%progbits
 2660              		.align	1
 2661              		.p2align 2,,3
 2662              		.global	print_reg_cmplx
 2663              		.syntax unified
 2664              		.thumb
 2665              		.thumb_func
 2666              		.fpu fpv4-sp-d16
 2668              	print_reg_cmplx:
 2669              	.LVL286:
 2670              	.LFB20:
 548:src/printer.c ****   decNumber x, y;
 2671              		.loc 1 548 59 is_stmt 1 view -0
 2672              		.cfi_startproc
 2673              		@ args = 0, pretend = 0, frame = 0
 2674              		@ frame_needed = 0, uses_anonymous_args = 0
 549:src/printer.c **** #ifdef INCLUDE_C_LOCK
 2675              		.loc 1 549 3 view .LVU715
 551:src/printer.c ****   char *q;
 2676              		.loc 1 551 3 view .LVU716
 552:src/printer.c **** #endif
 2677              		.loc 1 552 3 view .LVU717
 554:src/printer.c ****   char bufx[ 50 ];
 2678              		.loc 1 554 3 view .LVU718
 555:src/printer.c ****   char bufy[ 54 ];
 2679              		.loc 1 555 3 view .LVU719
 556:src/printer.c ****   char buffer[104];
 2680              		.loc 1 556 3 view .LVU720
 557:src/printer.c ****   char *p, *r;
 2681              		.loc 1 557 3 view .LVU721
 558:src/printer.c **** 
 2682              		.loc 1 558 3 view .LVU722
 560:src/printer.c **** 
 2683              		.loc 1 560 3 view .LVU723
 2684              	.LBB122:
 2685              	.LBI122:
  99:src/printer.c **** {
 2686              		.loc 1 99 13 view .LVU724
 2687              	.LBB123:
 101:src/printer.c ****     print_advance( 0 );
 2688              		.loc 1 101 3 view .LVU725
 101:src/printer.c ****     print_advance( 0 );
 2689              		.loc 1 101 22 is_stmt 0 view .LVU726
 2690 0000 0C4B     		ldr	r3, .L320
 101:src/printer.c ****     print_advance( 0 );
 2691              		.loc 1 101 6 view .LVU727
 2692 0002 1B68     		ldr	r3, [r3]
 2693              	.LBE123:
 2694              	.LBE122:
 548:src/printer.c ****   decNumber x, y;
 2695              		.loc 1 548 59 view .LVU728
 2696 0004 70B5     		push	{r4, r5, r6, lr}
 2697              		.cfi_def_cfa_offset 16
ARM GAS  /tmp/cc3WwB9H.s 			page 69


 2698              		.cfi_offset 4, -16
 2699              		.cfi_offset 5, -12
 2700              		.cfi_offset 6, -8
 2701              		.cfi_offset 14, -4
 548:src/printer.c ****   decNumber x, y;
 2702              		.loc 1 548 59 view .LVU729
 2703 0006 0446     		mov	r4, r0
 2704 0008 0D46     		mov	r5, r1
 2705 000a 1646     		mov	r6, r2
 2706              	.LBB125:
 2707              	.LBB124:
 101:src/printer.c ****     print_advance( 0 );
 2708              		.loc 1 101 6 view .LVU730
 2709 000c 0BB1     		cbz	r3, .L313
 2710 000e FFF7FEFF 		bl	advance_if_trace.part.0
 2711              	.LVL287:
 2712              	.L313:
 101:src/printer.c ****     print_advance( 0 );
 2713              		.loc 1 101 6 view .LVU731
 2714              	.LBE124:
 2715              	.LBE125:
 562:src/printer.c ****     bad_mode_error();
 2716              		.loc 1 562 3 is_stmt 1 view .LVU732
 562:src/printer.c ****     bad_mode_error();
 2717              		.loc 1 562 7 is_stmt 0 view .LVU733
 2718 0012 094B     		ldr	r3, .L320+4
 2719 0014 1B68     		ldr	r3, [r3]
 2720 0016 93F8E837 		ldrb	r3, [r3, #2024]	@ zero_extendqisi2
 562:src/printer.c ****     bad_mode_error();
 2721              		.loc 1 562 6 view .LVU734
 2722 001a DB07     		lsls	r3, r3, #31
 2723 001c 06D4     		bmi	.L319
 2724 001e 3246     		mov	r2, r6
 2725 0020 2946     		mov	r1, r5
 2726 0022 2046     		mov	r0, r4
 2727              		.loc 1 642 1 view .LVU735
 2728 0024 BDE87040 		pop	{r4, r5, r6, lr}
 2729              		.cfi_remember_state
 2730              		.cfi_restore 14
 2731              		.cfi_restore 6
 2732              		.cfi_restore 5
 2733              		.cfi_restore 4
 2734              		.cfi_def_cfa_offset 0
 2735              	.LVL288:
 2736              		.loc 1 642 1 view .LVU736
 2737 0028 FFF7FEBF 		b	print_reg_cmplx.part.0
 2738              	.LVL289:
 2739              	.L319:
 2740              		.cfi_restore_state
 563:src/printer.c ****     return;
 2741              		.loc 1 563 5 is_stmt 1 view .LVU737
 2742              		.loc 1 642 1 is_stmt 0 view .LVU738
 2743 002c BDE87040 		pop	{r4, r5, r6, lr}
 2744              		.cfi_restore 14
 2745              		.cfi_restore 6
 2746              		.cfi_restore 5
 2747              		.cfi_restore 4
ARM GAS  /tmp/cc3WwB9H.s 			page 70


 2748              		.cfi_def_cfa_offset 0
 2749              	.LVL290:
 563:src/printer.c ****     return;
 2750              		.loc 1 563 5 view .LVU739
 2751 0030 FFF7FEBF 		b	bad_mode_error
 2752              	.LVL291:
 2753              	.L321:
 2754              		.align	2
 2755              	.L320:
 2756 0034 00000000 		.word	PrinterColumn
 2757 0038 00000000 		.word	main_ram
 2758              		.cfi_endproc
 2759              	.LFE20:
 2761              		.section	.text.cmdprintreg,"ax",%progbits
 2762              		.align	1
 2763              		.p2align 2,,3
 2764              		.global	cmdprintreg
 2765              		.syntax unified
 2766              		.thumb
 2767              		.thumb_func
 2768              		.fpu fpv4-sp-d16
 2770              	cmdprintreg:
 2771              	.LVL292:
 2772              	.LFB18:
 522:src/printer.c ****   RETURN_IF_PRINT_OFF;
 2773              		.loc 1 522 1 is_stmt 1 view -0
 2774              		.cfi_startproc
 2775              		@ args = 0, pretend = 0, frame = 0
 2776              		@ frame_needed = 0, uses_anonymous_args = 0
 523:src/printer.c **** #ifdef INCLUDE_C_LOCK
 2777              		.loc 1 523 3 view .LVU741
 2778 0000 104B     		ldr	r3, .L339
 2779 0002 1A68     		ldr	r2, [r3]
 2780 0004 92F8E437 		ldrb	r3, [r2, #2020]	@ zero_extendqisi2
 2781 0008 D907     		lsls	r1, r3, #31
 2782              	.LVL293:
 523:src/printer.c **** #ifdef INCLUDE_C_LOCK
 2783              		.loc 1 523 3 is_stmt 0 view .LVU742
 2784 000a 19D5     		bpl	.L336
 525:src/printer.c ****     print_reg_cmplx( arg, CNULL, 0);
 2785              		.loc 1 525 3 is_stmt 1 view .LVU743
 522:src/printer.c ****   RETURN_IF_PRINT_OFF;
 2786              		.loc 1 522 1 is_stmt 0 view .LVU744
 2787 000c 10B5     		push	{r4, lr}
 2788              		.cfi_def_cfa_offset 8
 2789              		.cfi_offset 4, -8
 2790              		.cfi_offset 14, -4
 525:src/printer.c ****     print_reg_cmplx( arg, CNULL, 0);
 2791              		.loc 1 525 7 view .LVU745
 2792 000e 0E4C     		ldr	r4, .L339+4
 2793 0010 617D     		ldrb	r1, [r4, #21]	@ zero_extendqisi2
 525:src/printer.c ****     print_reg_cmplx( arg, CNULL, 0);
 2794              		.loc 1 525 6 view .LVU746
 2795 0012 8907     		lsls	r1, r1, #30
 2796 0014 05D4     		bmi	.L324
 525:src/printer.c ****     print_reg_cmplx( arg, CNULL, 0);
 2797              		.loc 1 525 20 discriminator 1 view .LVU747
ARM GAS  /tmp/cc3WwB9H.s 			page 71


 2798 0016 5907     		lsls	r1, r3, #29
 2799 0018 0CD5     		bpl	.L325
 525:src/printer.c ****     print_reg_cmplx( arg, CNULL, 0);
 2800              		.loc 1 525 23 discriminator 2 view .LVU748
 2801 001a 92F8DE37 		ldrb	r3, [r2, #2014]	@ zero_extendqisi2
 2802 001e 5B07     		lsls	r3, r3, #29
 2803 0020 08D5     		bpl	.L325
 2804              	.L324:
 526:src/printer.c ****     State2.cmplx = 0;
 2805              		.loc 1 526 5 is_stmt 1 view .LVU749
 2806 0022 0022     		movs	r2, #0
 2807 0024 1146     		mov	r1, r2
 2808 0026 FFF7FEFF 		bl	print_reg_cmplx
 2809              	.LVL294:
 527:src/printer.c ****   }
 2810              		.loc 1 527 5 view .LVU750
 527:src/printer.c ****   }
 2811              		.loc 1 527 18 is_stmt 0 view .LVU751
 2812 002a 637D     		ldrb	r3, [r4, #21]	@ zero_extendqisi2
 2813 002c 6FF34103 		bfc	r3, #1, #1
 2814 0030 6375     		strb	r3, [r4, #21]
 538:src/printer.c **** 
 2815              		.loc 1 538 1 view .LVU752
 2816 0032 10BD     		pop	{r4, pc}
 2817              	.LVL295:
 2818              	.L325:
 536:src/printer.c ****   }
 2819              		.loc 1 536 5 is_stmt 1 view .LVU753
 2820 0034 0022     		movs	r2, #0
 538:src/printer.c **** 
 2821              		.loc 1 538 1 is_stmt 0 view .LVU754
 2822 0036 BDE81040 		pop	{r4, lr}
 2823              		.cfi_restore 14
 2824              		.cfi_restore 4
 2825              		.cfi_def_cfa_offset 0
 536:src/printer.c ****   }
 2826              		.loc 1 536 5 view .LVU755
 2827 003a 1146     		mov	r1, r2
 2828 003c FFF7FEBF 		b	print_reg
 2829              	.LVL296:
 2830              	.L336:
 536:src/printer.c ****   }
 2831              		.loc 1 536 5 view .LVU756
 2832 0040 7047     		bx	lr
 2833              	.L340:
 2834 0042 00BF     		.align	2
 2835              	.L339:
 2836 0044 00000000 		.word	main_ram
 2837 0048 00000000 		.word	StateWhileOn
 2838              		.cfi_endproc
 2839              	.LFE18:
 2841              		.section	.text.cmdprintcmplxreg,"ax",%progbits
 2842              		.align	1
 2843              		.p2align 2,,3
 2844              		.global	cmdprintcmplxreg
 2845              		.syntax unified
 2846              		.thumb
ARM GAS  /tmp/cc3WwB9H.s 			page 72


 2847              		.thumb_func
 2848              		.fpu fpv4-sp-d16
 2850              	cmdprintcmplxreg:
 2851              	.LVL297:
 2852              	.LFB19:
 543:src/printer.c ****   RETURN_IF_PRINT_OFF;
 2853              		.loc 1 543 55 is_stmt 1 view -0
 2854              		.cfi_startproc
 2855              		@ args = 0, pretend = 0, frame = 0
 2856              		@ frame_needed = 0, uses_anonymous_args = 0
 2857              		@ link register save eliminated.
 544:src/printer.c ****   print_reg_cmplx (reg, CNULL, 0);
 2858              		.loc 1 544 3 view .LVU758
 2859 0000 054B     		ldr	r3, .L344
 2860 0002 1B68     		ldr	r3, [r3]
 2861 0004 93F8E437 		ldrb	r3, [r3, #2020]	@ zero_extendqisi2
 2862 0008 DB07     		lsls	r3, r3, #31
 2863 000a 00D4     		bmi	.L343
 546:src/printer.c **** 
 2864              		.loc 1 546 1 is_stmt 0 view .LVU759
 2865 000c 7047     		bx	lr
 2866              	.L343:
 545:src/printer.c **** }
 2867              		.loc 1 545 3 is_stmt 1 view .LVU760
 2868 000e 0022     		movs	r2, #0
 2869 0010 1146     		mov	r1, r2
 2870              	.LVL298:
 545:src/printer.c **** }
 2871              		.loc 1 545 3 is_stmt 0 view .LVU761
 2872 0012 FFF7FEBF 		b	print_reg_cmplx
 2873              	.LVL299:
 2874              	.L345:
 545:src/printer.c **** }
 2875              		.loc 1 545 3 view .LVU762
 2876 0016 00BF     		.align	2
 2877              	.L344:
 2878 0018 00000000 		.word	main_ram
 2879              		.cfi_endproc
 2880              	.LFE19:
 2882              		.section	.rodata.print_registers_cmplx.str1.4,"aMS",%progbits,1
 2883              		.align	2
 2884              	.LC9:
 2885 0000 4C00     		.ascii	"L\000"
 2886 0002 0000     		.align	2
 2887              	.LC8:
 2888 0004 5A3F553F 		.ascii	"Z?U?V?W?L?J?\000"
 2888      563F573F 
 2888      4C3F4A3F 
 2888      00
 2889              		.section	.text.print_registers_cmplx,"ax",%progbits
 2890              		.align	1
 2891              		.p2align 2,,3
 2892              		.global	print_registers_cmplx
 2893              		.syntax unified
 2894              		.thumb
 2895              		.thumb_func
 2896              		.fpu fpv4-sp-d16
ARM GAS  /tmp/cc3WwB9H.s 			page 73


 2898              	print_registers_cmplx:
 2899              	.LVL300:
 2900              	.LFB21:
 643:src/printer.c **** 
 644:src/printer.c **** /*
 645:src/printer.c ****  *  Print a block of registers with labels
 646:src/printer.c ****  */
 647:src/printer.c **** void print_registers_cmplx( enum nilop op )
 648:src/printer.c **** {
 2901              		.loc 1 648 1 is_stmt 1 view -0
 2902              		.cfi_startproc
 2903              		@ args = 0, pretend = 0, frame = 16
 2904              		@ frame_needed = 0, uses_anonymous_args = 0
 649:src/printer.c ****   int s, n;
 2905              		.loc 1 649 3 view .LVU764
 650:src/printer.c **** 
 651:src/printer.c ****   RETURN_IF_PRINT_OFF;
 2906              		.loc 1 651 3 view .LVU765
 648:src/printer.c ****   int s, n;
 2907              		.loc 1 648 1 is_stmt 0 view .LVU766
 2908 0000 F0B5     		push	{r4, r5, r6, r7, lr}
 2909              		.cfi_def_cfa_offset 20
 2910              		.cfi_offset 4, -20
 2911              		.cfi_offset 5, -16
 2912              		.cfi_offset 6, -12
 2913              		.cfi_offset 7, -8
 2914              		.cfi_offset 14, -4
 2915              		.loc 1 651 3 view .LVU767
 2916 0002 3D4C     		ldr	r4, .L384
 2917 0004 2368     		ldr	r3, [r4]
 2918 0006 93F8E437 		ldrb	r3, [r3, #2020]	@ zero_extendqisi2
 2919 000a DD07     		lsls	r5, r3, #31
 648:src/printer.c ****   int s, n;
 2920              		.loc 1 648 1 view .LVU768
 2921 000c 85B0     		sub	sp, sp, #20
 2922              		.cfi_def_cfa_offset 40
 2923              		.loc 1 651 3 view .LVU769
 2924 000e 5AD5     		bpl	.L346
 652:src/printer.c ****   advance_if_trace();
 2925              		.loc 1 652 3 is_stmt 1 view .LVU770
 2926              	.LBB126:
 2927              	.LBI126:
  99:src/printer.c **** {
 2928              		.loc 1 99 13 view .LVU771
 2929              	.LBB127:
 101:src/printer.c ****     print_advance( 0 );
 2930              		.loc 1 101 3 view .LVU772
 101:src/printer.c ****     print_advance( 0 );
 2931              		.loc 1 101 22 is_stmt 0 view .LVU773
 2932 0010 3A4B     		ldr	r3, .L384+4
 101:src/printer.c ****     print_advance( 0 );
 2933              		.loc 1 101 6 view .LVU774
 2934 0012 1B68     		ldr	r3, [r3]
 2935 0014 0646     		mov	r6, r0
 2936 0016 0BB1     		cbz	r3, .L348
 2937 0018 FFF7FEFF 		bl	advance_if_trace.part.0
 2938              	.LVL301:
ARM GAS  /tmp/cc3WwB9H.s 			page 74


 2939              	.L348:
 101:src/printer.c ****     print_advance( 0 );
 2940              		.loc 1 101 6 view .LVU775
 2941              	.LBE127:
 2942              	.LBE126:
 653:src/printer.c **** 
 654:src/printer.c ****   if ( op == OP_PRINT_STACK ) {
 2943              		.loc 1 654 3 is_stmt 1 view .LVU776
 2944              		.loc 1 654 6 is_stmt 0 view .LVU777
 2945 001c BE2E     		cmp	r6, #190
 2946 001e 54D0     		beq	.L381
 655:src/printer.c ****     s = regX_idx;
 656:src/printer.c ****     n = stack_size();
 657:src/printer.c ****   }
 658:src/printer.c ****   else {
 659:src/printer.c ****     if ( reg_decode( &s, &n, (int *) NULL, 0 ) ) {
 2947              		.loc 1 659 5 is_stmt 1 view .LVU778
 2948              		.loc 1 659 10 is_stmt 0 view .LVU779
 2949 0020 0023     		movs	r3, #0
 2950 0022 1A46     		mov	r2, r3
 2951 0024 01A9     		add	r1, sp, #4
 2952 0026 6846     		mov	r0, sp
 2953 0028 FFF7FEFF 		bl	reg_decode
 2954              	.LVL302:
 2955              		.loc 1 659 8 view .LVU780
 2956 002c 0028     		cmp	r0, #0
 2957 002e 4AD1     		bne	.L346
 2958              	.L350:
 660:src/printer.c ****       return;
 661:src/printer.c ****     }
 662:src/printer.c ****   }
 663:src/printer.c ****   
 664:src/printer.c **** #ifdef INCLUDE_C_LOCK
 665:src/printer.c ****   if ( (C_LOCKED) && (s & 1) ) {
 2959              		.loc 1 665 3 is_stmt 1 view .LVU781
 2960              		.loc 1 665 9 is_stmt 0 view .LVU782
 2961 0030 2368     		ldr	r3, [r4]
 2962 0032 93F8E427 		ldrb	r2, [r3, #2020]	@ zero_extendqisi2
 2963              		.loc 1 665 6 view .LVU783
 2964 0036 5107     		lsls	r1, r2, #29
 2965 0038 03D5     		bpl	.L354
 2966              		.loc 1 665 9 discriminator 1 view .LVU784
 2967 003a 93F8DE37 		ldrb	r3, [r3, #2014]	@ zero_extendqisi2
 2968 003e 5A07     		lsls	r2, r3, #29
 2969 0040 52D4     		bmi	.L382
 2970              	.L354:
 666:src/printer.c ****     error_message(ERR_ODD_REG);
 667:src/printer.c ****     return;
 668:src/printer.c ****   }
 669:src/printer.c **** #endif  
 670:src/printer.c **** 
 671:src/printer.c ****   while ( n>0 ) { // changed from while(n) in case an odd n is entered in non-c_lock mode
 2971              		.loc 1 671 9 is_stmt 1 view .LVU785
 2972              		.loc 1 671 12 is_stmt 0 view .LVU786
 2973 0042 019B     		ldr	r3, [sp, #4]
 2974              		.loc 1 671 9 view .LVU787
 2975 0044 002B     		cmp	r3, #0
ARM GAS  /tmp/cc3WwB9H.s 			page 75


 2976 0046 37DD     		ble	.L353
 2977              	.LBB128:
 672:src/printer.c ****     int r = s;
 673:src/printer.c ****     char name[ 6 ], *p = name;
 674:src/printer.c **** 
 675:src/printer.c ****     n -= 2;
 676:src/printer.c ****     
 677:src/printer.c ****     if ( r >= regX_idx && r <= regK_idx ) {
 678:src/printer.c ****       *p++ = "Z?U?V?W?L?J?"[ r - regX_idx ]; // no space as = used
 2978              		.loc 1 678 28 view .LVU788
 2979 0048 2D4D     		ldr	r5, .L384+8
 679:src/printer.c ****     }
 680:src/printer.c ****     else {
 681:src/printer.c ****       *p++ = 'r';
 682:src/printer.c ****       if ( r > LOCAL_REG_BASE ) {
 683:src/printer.c **** 	*p++ = '.';
 684:src/printer.c **** 	r -= LOCAL_REG_BASE;
 685:src/printer.c **** 	if ( r >= 100 ) {
 686:src/printer.c **** 	  *p++ = '1';
 687:src/printer.c **** 	  r -= 100;
 688:src/printer.c **** 	}
 689:src/printer.c ****       }
 690:src/printer.c ****       p = num_arg_0( p, r, 2 );
 691:src/printer.c ****     }
 692:src/printer.c ****     *p = '\0';
 693:src/printer.c ****     print_reg_cmplx( s, name, 1);
 694:src/printer.c ****     s +=2;
 695:src/printer.c ****     BREAK_IF_EXIT;
 2980              		.loc 1 695 5 view .LVU789
 2981 004a 2E4C     		ldr	r4, .L384+12
 681:src/printer.c ****       if ( r > LOCAL_REG_BASE ) {
 2982              		.loc 1 681 12 view .LVU790
 2983 004c 7227     		movs	r7, #114
 2984 004e 15E0     		b	.L352
 2985              	.LVL303:
 2986              	.L383:
 678:src/printer.c ****     }
 2987              		.loc 1 678 12 view .LVU791
 2988 0050 10F8643C 		ldrb	r3, [r0, #-100]	@ zero_extendqisi2
 2989 0054 8DF80830 		strb	r3, [sp, #8]
 678:src/printer.c ****     }
 2990              		.loc 1 678 9 view .LVU792
 2991 0058 0DF10900 		add	r0, sp, #9
 2992              	.LVL304:
 2993              	.L357:
 692:src/printer.c ****     print_reg_cmplx( s, name, 1);
 2994              		.loc 1 692 5 is_stmt 1 view .LVU793
 692:src/printer.c ****     print_reg_cmplx( s, name, 1);
 2995              		.loc 1 692 8 is_stmt 0 view .LVU794
 2996 005c 0023     		movs	r3, #0
 2997 005e 0370     		strb	r3, [r0]
 693:src/printer.c ****     s +=2;
 2998              		.loc 1 693 5 is_stmt 1 view .LVU795
 2999 0060 0098     		ldr	r0, [sp]
 3000              	.LVL305:
 693:src/printer.c ****     s +=2;
 3001              		.loc 1 693 5 is_stmt 0 view .LVU796
ARM GAS  /tmp/cc3WwB9H.s 			page 76


 3002 0062 0122     		movs	r2, #1
 3003 0064 02A9     		add	r1, sp, #8
 3004 0066 FFF7FEFF 		bl	print_reg_cmplx
 3005              	.LVL306:
 694:src/printer.c ****     BREAK_IF_EXIT;
 3006              		.loc 1 694 5 is_stmt 1 view .LVU797
 694:src/printer.c ****     BREAK_IF_EXIT;
 3007              		.loc 1 694 7 is_stmt 0 view .LVU798
 3008 006a 009B     		ldr	r3, [sp]
 3009 006c 0233     		adds	r3, r3, #2
 3010 006e 0093     		str	r3, [sp]
 3011              		.loc 1 695 5 is_stmt 1 view .LVU799
 3012 0070 A047     		blx	r4
 3013              	.LVL307:
 3014              	.LBE128:
 671:src/printer.c ****     int r = s;
 3015              		.loc 1 671 9 view .LVU800
 3016              	.LBB129:
 3017              		.loc 1 695 5 is_stmt 0 view .LVU801
 3018 0072 2128     		cmp	r0, #33
 3019 0074 20D0     		beq	.L353
 3020              	.LBE129:
 671:src/printer.c ****     int r = s;
 3021              		.loc 1 671 12 view .LVU802
 3022 0076 019B     		ldr	r3, [sp, #4]
 671:src/printer.c ****     int r = s;
 3023              		.loc 1 671 9 view .LVU803
 3024 0078 002B     		cmp	r3, #0
 3025 007a 1DDD     		ble	.L353
 3026              	.L352:
 3027              	.LBB130:
 672:src/printer.c ****     char name[ 6 ], *p = name;
 3028              		.loc 1 672 5 is_stmt 1 view .LVU804
 678:src/printer.c ****     }
 3029              		.loc 1 678 7 view .LVU805
 3030              	.LVL308:
 681:src/printer.c ****       if ( r > LOCAL_REG_BASE ) {
 3031              		.loc 1 681 7 view .LVU806
 672:src/printer.c ****     char name[ 6 ], *p = name;
 3032              		.loc 1 672 9 is_stmt 0 view .LVU807
 3033 007c 0099     		ldr	r1, [sp]
 3034              	.LVL309:
 673:src/printer.c **** 
 3035              		.loc 1 673 5 is_stmt 1 view .LVU808
 675:src/printer.c ****     
 3036              		.loc 1 675 5 view .LVU809
 677:src/printer.c ****       *p++ = "Z?U?V?W?L?J?"[ r - regX_idx ]; // no space as = used
 3037              		.loc 1 677 24 is_stmt 0 view .LVU810
 3038 007e A1F16402 		sub	r2, r1, #100
 675:src/printer.c ****     
 3039              		.loc 1 675 7 view .LVU811
 3040 0082 023B     		subs	r3, r3, #2
 677:src/printer.c ****       *p++ = "Z?U?V?W?L?J?"[ r - regX_idx ]; // no space as = used
 3041              		.loc 1 677 8 view .LVU812
 3042 0084 0B2A     		cmp	r2, #11
 678:src/printer.c ****     }
 3043              		.loc 1 678 28 view .LVU813
ARM GAS  /tmp/cc3WwB9H.s 			page 77


 3044 0086 05EB0100 		add	r0, r5, r1
 675:src/printer.c ****     
 3045              		.loc 1 675 7 view .LVU814
 3046 008a 0193     		str	r3, [sp, #4]
 677:src/printer.c ****       *p++ = "Z?U?V?W?L?J?"[ r - regX_idx ]; // no space as = used
 3047              		.loc 1 677 5 is_stmt 1 view .LVU815
 677:src/printer.c ****       *p++ = "Z?U?V?W?L?J?"[ r - regX_idx ]; // no space as = used
 3048              		.loc 1 677 8 is_stmt 0 view .LVU816
 3049 008c E0D9     		bls	.L383
 683:src/printer.c **** 	r -= LOCAL_REG_BASE;
 3050              		.loc 1 683 2 is_stmt 1 view .LVU817
 3051              	.LVL310:
 682:src/printer.c **** 	*p++ = '.';
 3052              		.loc 1 682 10 is_stmt 0 view .LVU818
 3053 008e 7029     		cmp	r1, #112
 684:src/printer.c **** 	if ( r >= 100 ) {
 3054              		.loc 1 684 4 view .LVU819
 3055 0090 A1F17003 		sub	r3, r1, #112
 683:src/printer.c **** 	r -= LOCAL_REG_BASE;
 3056              		.loc 1 683 7 view .LVU820
 3057 0094 4FF02E02 		mov	r2, #46
 681:src/printer.c ****       if ( r > LOCAL_REG_BASE ) {
 3058              		.loc 1 681 12 view .LVU821
 3059 0098 8DF80870 		strb	r7, [sp, #8]
 682:src/printer.c **** 	*p++ = '.';
 3060              		.loc 1 682 7 is_stmt 1 view .LVU822
 682:src/printer.c **** 	*p++ = '.';
 3061              		.loc 1 682 10 is_stmt 0 view .LVU823
 3062 009c 1BDD     		ble	.L362
 686:src/printer.c **** 	  r -= 100;
 3063              		.loc 1 686 4 is_stmt 1 view .LVU824
 3064              	.LVL311:
 685:src/printer.c **** 	  *p++ = '1';
 3065              		.loc 1 685 5 is_stmt 0 view .LVU825
 3066 009e 632B     		cmp	r3, #99
 683:src/printer.c **** 	r -= LOCAL_REG_BASE;
 3067              		.loc 1 683 7 view .LVU826
 3068 00a0 8DF80920 		strb	r2, [sp, #9]
 684:src/printer.c **** 	if ( r >= 100 ) {
 3069              		.loc 1 684 2 is_stmt 1 view .LVU827
 3070              	.LVL312:
 685:src/printer.c **** 	  *p++ = '1';
 3071              		.loc 1 685 2 view .LVU828
 686:src/printer.c **** 	  r -= 100;
 3072              		.loc 1 686 9 is_stmt 0 view .LVU829
 3073 00a4 4FF03102 		mov	r2, #49
 685:src/printer.c **** 	  *p++ = '1';
 3074              		.loc 1 685 5 view .LVU830
 3075 00a8 18DC     		bgt	.L359
 3076 00aa 1946     		mov	r1, r3
 683:src/printer.c **** 	r -= LOCAL_REG_BASE;
 3077              		.loc 1 683 4 view .LVU831
 3078 00ac 0DF10A00 		add	r0, sp, #10
 3079              	.LVL313:
 3080              	.L358:
 690:src/printer.c ****     }
 3081              		.loc 1 690 7 is_stmt 1 view .LVU832
ARM GAS  /tmp/cc3WwB9H.s 			page 78


 690:src/printer.c ****     }
 3082              		.loc 1 690 11 is_stmt 0 view .LVU833
 3083 00b0 0222     		movs	r2, #2
 3084 00b2 FFF7FEFF 		bl	num_arg_0
 3085              	.LVL314:
 690:src/printer.c ****     }
 3086              		.loc 1 690 11 view .LVU834
 3087 00b6 D1E7     		b	.L357
 3088              	.LVL315:
 3089              	.L353:
 690:src/printer.c ****     }
 3090              		.loc 1 690 11 view .LVU835
 3091              	.LBE130:
 696:src/printer.c ****   }
 697:src/printer.c ****   if ( op == OP_PRINT_STACK ) {
 3092              		.loc 1 697 3 is_stmt 1 view .LVU836
 3093              		.loc 1 697 6 is_stmt 0 view .LVU837
 3094 00b8 BE2E     		cmp	r6, #190
 3095 00ba 04D1     		bne	.L346
 698:src/printer.c ****     print_reg_cmplx( regL_idx, "L", 1);
 3096              		.loc 1 698 5 is_stmt 1 view .LVU838
 3097 00bc 1249     		ldr	r1, .L384+16
 3098 00be 0122     		movs	r2, #1
 3099 00c0 6C20     		movs	r0, #108
 3100 00c2 FFF7FEFF 		bl	print_reg_cmplx
 3101              	.LVL316:
 3102              	.L346:
 699:src/printer.c ****   }
 700:src/printer.c **** }
 3103              		.loc 1 700 1 is_stmt 0 view .LVU839
 3104 00c6 05B0     		add	sp, sp, #20
 3105              		.cfi_remember_state
 3106              		.cfi_def_cfa_offset 20
 3107              		@ sp needed
 3108 00c8 F0BD     		pop	{r4, r5, r6, r7, pc}
 3109              	.L381:
 3110              		.cfi_restore_state
 655:src/printer.c ****     n = stack_size();
 3111              		.loc 1 655 5 is_stmt 1 view .LVU840
 655:src/printer.c ****     n = stack_size();
 3112              		.loc 1 655 7 is_stmt 0 view .LVU841
 3113 00ca 6423     		movs	r3, #100
 3114 00cc 0093     		str	r3, [sp]
 656:src/printer.c ****   }
 3115              		.loc 1 656 5 is_stmt 1 view .LVU842
 656:src/printer.c ****   }
 3116              		.loc 1 656 9 is_stmt 0 view .LVU843
 3117 00ce FFF7FEFF 		bl	stack_size
 3118              	.LVL317:
 656:src/printer.c ****   }
 3119              		.loc 1 656 7 view .LVU844
 3120 00d2 0190     		str	r0, [sp, #4]
 3121 00d4 ACE7     		b	.L350
 3122              	.LVL318:
 3123              	.L362:
 3124              	.LBB131:
 681:src/printer.c ****       if ( r > LOCAL_REG_BASE ) {
ARM GAS  /tmp/cc3WwB9H.s 			page 79


 3125              		.loc 1 681 9 view .LVU845
 3126 00d6 0DF10900 		add	r0, sp, #9
 3127 00da E9E7     		b	.L358
 3128              	.LVL319:
 3129              	.L359:
 686:src/printer.c **** 	  r -= 100;
 3130              		.loc 1 686 9 view .LVU846
 3131 00dc 8DF80A20 		strb	r2, [sp, #10]
 687:src/printer.c **** 	}
 3132              		.loc 1 687 4 is_stmt 1 view .LVU847
 3133              	.LVL320:
 686:src/printer.c **** 	  r -= 100;
 3134              		.loc 1 686 6 is_stmt 0 view .LVU848
 3135 00e0 0DF10B00 		add	r0, sp, #11
 3136              	.LVL321:
 687:src/printer.c **** 	}
 3137              		.loc 1 687 6 view .LVU849
 3138 00e4 D439     		subs	r1, r1, #212
 3139              	.LVL322:
 687:src/printer.c **** 	}
 3140              		.loc 1 687 6 view .LVU850
 3141 00e6 E3E7     		b	.L358
 3142              	.LVL323:
 3143              	.L382:
 687:src/printer.c **** 	}
 3144              		.loc 1 687 6 view .LVU851
 3145              	.LBE131:
 665:src/printer.c ****     error_message(ERR_ODD_REG);
 3146              		.loc 1 665 25 discriminator 2 view .LVU852
 3147 00e8 009B     		ldr	r3, [sp]
 665:src/printer.c ****     error_message(ERR_ODD_REG);
 3148              		.loc 1 665 19 discriminator 2 view .LVU853
 3149 00ea DB07     		lsls	r3, r3, #31
 3150 00ec A9D5     		bpl	.L354
 666:src/printer.c ****     return;
 3151              		.loc 1 666 5 is_stmt 1 view .LVU854
 3152 00ee 1920     		movs	r0, #25
 3153 00f0 FFF7FEFF 		bl	error_message
 3154              	.LVL324:
 667:src/printer.c ****   }
 3155              		.loc 1 667 5 view .LVU855
 3156 00f4 E7E7     		b	.L346
 3157              	.L385:
 3158 00f6 00BF     		.align	2
 3159              	.L384:
 3160 00f8 00000000 		.word	main_ram
 3161 00fc 00000000 		.word	PrinterColumn
 3162 0100 04000000 		.word	.LC8
 3163 0104 89030008 		.word	134218633
 3164 0108 00000000 		.word	.LC9
 3165              		.cfi_endproc
 3166              	.LFE21:
 3168              		.section	.rodata.print_registers.str1.4,"aMS",%progbits,1
 3169              		.align	2
 3170              	.LC10:
 3171 0000 6C00     		.ascii	"l\000"
 3172 0002 0000     		.align	2
ARM GAS  /tmp/cc3WwB9H.s 			page 80


 3173              	.LC11:
 3174 0004 6900     		.ascii	"i\000"
 3175 0006 0000     		.align	2
 3176              	.LC12:
 3177 0008 58595A54 		.ascii	"XYZTABCDLIJK\000"
 3177      41424344 
 3177      4C494A4B 
 3177      00
 3178              		.section	.text.print_registers,"ax",%progbits
 3179              		.align	1
 3180              		.p2align 2,,3
 3181              		.global	print_registers
 3182              		.syntax unified
 3183              		.thumb
 3184              		.thumb_func
 3185              		.fpu fpv4-sp-d16
 3187              	print_registers:
 3188              	.LVL325:
 3189              	.LFB13:
 366:src/printer.c ****   int s, n;
 3190              		.loc 1 366 1 view -0
 3191              		.cfi_startproc
 3192              		@ args = 0, pretend = 0, frame = 16
 3193              		@ frame_needed = 0, uses_anonymous_args = 0
 367:src/printer.c **** 
 3194              		.loc 1 367 3 view .LVU857
 369:src/printer.c ****   advance_if_trace();
 3195              		.loc 1 369 3 view .LVU858
 366:src/printer.c ****   int s, n;
 3196              		.loc 1 366 1 is_stmt 0 view .LVU859
 3197 0000 F0B5     		push	{r4, r5, r6, r7, lr}
 3198              		.cfi_def_cfa_offset 20
 3199              		.cfi_offset 4, -20
 3200              		.cfi_offset 5, -16
 3201              		.cfi_offset 6, -12
 3202              		.cfi_offset 7, -8
 3203              		.cfi_offset 14, -4
 369:src/printer.c ****   advance_if_trace();
 3204              		.loc 1 369 3 view .LVU860
 3205 0002 484D     		ldr	r5, .L431
 3206 0004 2B68     		ldr	r3, [r5]
 3207 0006 93F8E437 		ldrb	r3, [r3, #2020]	@ zero_extendqisi2
 3208 000a DC07     		lsls	r4, r3, #31
 366:src/printer.c ****   int s, n;
 3209              		.loc 1 366 1 view .LVU861
 3210 000c 85B0     		sub	sp, sp, #20
 3211              		.cfi_def_cfa_offset 40
 369:src/printer.c ****   advance_if_trace();
 3212              		.loc 1 369 3 view .LVU862
 3213 000e 60D5     		bpl	.L386
 370:src/printer.c **** 
 3214              		.loc 1 370 3 is_stmt 1 view .LVU863
 3215              	.LBB132:
 3216              	.LBI132:
  99:src/printer.c **** {
 3217              		.loc 1 99 13 view .LVU864
 3218              	.LBB133:
ARM GAS  /tmp/cc3WwB9H.s 			page 81


 101:src/printer.c ****     print_advance( 0 );
 3219              		.loc 1 101 3 view .LVU865
 101:src/printer.c ****     print_advance( 0 );
 3220              		.loc 1 101 22 is_stmt 0 view .LVU866
 3221 0010 454B     		ldr	r3, .L431+4
 101:src/printer.c ****     print_advance( 0 );
 3222              		.loc 1 101 6 view .LVU867
 3223 0012 1B68     		ldr	r3, [r3]
 3224 0014 0446     		mov	r4, r0
 3225 0016 002B     		cmp	r3, #0
 3226 0018 5DD1     		bne	.L426
 3227              	.LBE133:
 3228              	.LBE132:
 373:src/printer.c ****     print_registers_cmplx (op);
 3229              		.loc 1 373 3 is_stmt 1 view .LVU868
 373:src/printer.c ****     print_registers_cmplx (op);
 3230              		.loc 1 373 7 is_stmt 0 view .LVU869
 3231 001a 444E     		ldr	r6, .L431+8
 3232 001c 737D     		ldrb	r3, [r6, #21]	@ zero_extendqisi2
 373:src/printer.c ****     print_registers_cmplx (op);
 3233              		.loc 1 373 6 view .LVU870
 3234 001e 9907     		lsls	r1, r3, #30
 3235 0020 5FD4     		bmi	.L389
 3236              	.LVL326:
 3237              	.L430:
 373:src/printer.c ****     print_registers_cmplx (op);
 3238              		.loc 1 373 23 discriminator 1 view .LVU871
 3239 0022 2B68     		ldr	r3, [r5]
 3240 0024 93F8E427 		ldrb	r2, [r3, #2020]	@ zero_extendqisi2
 373:src/printer.c ****     print_registers_cmplx (op);
 3241              		.loc 1 373 20 discriminator 1 view .LVU872
 3242 0028 5207     		lsls	r2, r2, #29
 3243 002a 63D4     		bmi	.L427
 386:src/printer.c ****     s = regX_idx;
 3244              		.loc 1 386 3 is_stmt 1 view .LVU873
 386:src/printer.c ****     s = regX_idx;
 3245              		.loc 1 386 6 is_stmt 0 view .LVU874
 3246 002c BE2C     		cmp	r4, #190
 3247 002e 67D0     		beq	.L428
 3248              	.L392:
 391:src/printer.c ****       return;
 3249              		.loc 1 391 5 is_stmt 1 view .LVU875
 391:src/printer.c ****       return;
 3250              		.loc 1 391 10 is_stmt 0 view .LVU876
 3251 0030 0023     		movs	r3, #0
 3252 0032 1A46     		mov	r2, r3
 3253 0034 01A9     		add	r1, sp, #4
 3254 0036 6846     		mov	r0, sp
 3255 0038 FFF7FEFF 		bl	reg_decode
 3256              	.LVL327:
 391:src/printer.c ****       return;
 3257              		.loc 1 391 8 view .LVU877
 3258 003c 0028     		cmp	r0, #0
 3259 003e 48D1     		bne	.L386
 396:src/printer.c ****     int r = s;
 3260              		.loc 1 396 9 is_stmt 1 view .LVU878
 396:src/printer.c ****     int r = s;
ARM GAS  /tmp/cc3WwB9H.s 			page 82


 3261              		.loc 1 396 12 is_stmt 0 view .LVU879
 3262 0040 019B     		ldr	r3, [sp, #4]
 3263 0042 5A1E     		subs	r2, r3, #1
 3264 0044 0192     		str	r2, [sp, #4]
 396:src/printer.c ****     int r = s;
 3265              		.loc 1 396 9 view .LVU880
 3266 0046 002B     		cmp	r3, #0
 3267 0048 43D0     		beq	.L386
 3268              	.L393:
 3269              	.LBB135:
 401:src/printer.c ****     }
 3270              		.loc 1 401 22 view .LVU881
 3271 004a 394E     		ldr	r6, .L431+12
 417:src/printer.c ****   }
 3272              		.loc 1 417 5 view .LVU882
 3273 004c 394D     		ldr	r5, .L431+16
 404:src/printer.c ****       if ( r > LOCAL_REG_BASE ) {
 3274              		.loc 1 404 12 view .LVU883
 3275 004e 7227     		movs	r7, #114
 3276 0050 17E0     		b	.L400
 3277              	.LVL328:
 3278              	.L429:
 401:src/printer.c ****     }
 3279              		.loc 1 401 12 view .LVU884
 3280 0052 12F8643C 		ldrb	r3, [r2, #-100]	@ zero_extendqisi2
 3281 0056 43F06003 		orr	r3, r3, #96
 3282 005a 8DF80830 		strb	r3, [sp, #8]
 401:src/printer.c ****     }
 3283              		.loc 1 401 9 view .LVU885
 3284 005e 0DF10900 		add	r0, sp, #9
 3285              	.LVL329:
 3286              	.L396:
 415:src/printer.c ****     print_reg( s++, name, 1 );
 3287              		.loc 1 415 5 is_stmt 1 view .LVU886
 415:src/printer.c ****     print_reg( s++, name, 1 );
 3288              		.loc 1 415 8 is_stmt 0 view .LVU887
 3289 0062 0023     		movs	r3, #0
 3290 0064 0370     		strb	r3, [r0]
 416:src/printer.c ****     BREAK_IF_EXIT;
 3291              		.loc 1 416 5 is_stmt 1 view .LVU888
 3292 0066 0098     		ldr	r0, [sp]
 3293              	.LVL330:
 416:src/printer.c ****     BREAK_IF_EXIT;
 3294              		.loc 1 416 5 is_stmt 0 view .LVU889
 3295 0068 0122     		movs	r2, #1
 3296 006a 8318     		adds	r3, r0, r2
 3297 006c 02A9     		add	r1, sp, #8
 3298 006e 0093     		str	r3, [sp]
 3299 0070 FFF7FEFF 		bl	print_reg
 3300              	.LVL331:
 417:src/printer.c ****   }
 3301              		.loc 1 417 5 is_stmt 1 view .LVU890
 3302 0074 A847     		blx	r5
 3303              	.LVL332:
 3304              	.LBE135:
 396:src/printer.c ****     int r = s;
 3305              		.loc 1 396 9 view .LVU891
ARM GAS  /tmp/cc3WwB9H.s 			page 83


 3306              	.LBB136:
 417:src/printer.c ****   }
 3307              		.loc 1 417 5 is_stmt 0 view .LVU892
 3308 0076 2128     		cmp	r0, #33
 3309 0078 1FD0     		beq	.L401
 3310              	.LBE136:
 396:src/printer.c ****     int r = s;
 3311              		.loc 1 396 12 view .LVU893
 3312 007a 019B     		ldr	r3, [sp, #4]
 3313 007c 5A1E     		subs	r2, r3, #1
 3314 007e 0192     		str	r2, [sp, #4]
 396:src/printer.c ****     int r = s;
 3315              		.loc 1 396 9 view .LVU894
 3316 0080 DBB1     		cbz	r3, .L401
 3317              	.L400:
 3318              	.LBB137:
 397:src/printer.c ****     char name[ 6 ], *p = name;
 3319              		.loc 1 397 5 is_stmt 1 view .LVU895
 401:src/printer.c ****     }
 3320              		.loc 1 401 7 view .LVU896
 3321              	.LVL333:
 404:src/printer.c ****       if ( r > LOCAL_REG_BASE ) {
 3322              		.loc 1 404 7 view .LVU897
 397:src/printer.c ****     char name[ 6 ], *p = name;
 3323              		.loc 1 397 9 is_stmt 0 view .LVU898
 3324 0082 0099     		ldr	r1, [sp]
 398:src/printer.c **** 
 3325              		.loc 1 398 5 is_stmt 1 view .LVU899
 3326              	.LVL334:
 400:src/printer.c ****       *p++ = REGNAMES[ r - regX_idx ] | 0x60; // force lower case
 3327              		.loc 1 400 5 view .LVU900
 400:src/printer.c ****       *p++ = REGNAMES[ r - regX_idx ] | 0x60; // force lower case
 3328              		.loc 1 400 24 is_stmt 0 view .LVU901
 3329 0084 A1F16403 		sub	r3, r1, #100
 400:src/printer.c ****       *p++ = REGNAMES[ r - regX_idx ] | 0x60; // force lower case
 3330              		.loc 1 400 8 view .LVU902
 3331 0088 0B2B     		cmp	r3, #11
 401:src/printer.c ****     }
 3332              		.loc 1 401 22 view .LVU903
 3333 008a 06EB0102 		add	r2, r6, r1
 400:src/printer.c ****       *p++ = REGNAMES[ r - regX_idx ] | 0x60; // force lower case
 3334              		.loc 1 400 8 view .LVU904
 3335 008e E0D9     		bls	.L429
 406:src/printer.c **** 	r -= LOCAL_REG_BASE;
 3336              		.loc 1 406 2 is_stmt 1 view .LVU905
 3337              	.LVL335:
 405:src/printer.c **** 	*p++ = '.';
 3338              		.loc 1 405 10 is_stmt 0 view .LVU906
 3339 0090 7029     		cmp	r1, #112
 407:src/printer.c **** 	if ( r >= 100 ) {
 3340              		.loc 1 407 4 view .LVU907
 3341 0092 A1F17003 		sub	r3, r1, #112
 406:src/printer.c **** 	r -= LOCAL_REG_BASE;
 3342              		.loc 1 406 7 view .LVU908
 3343 0096 4FF02E02 		mov	r2, #46
 404:src/printer.c ****       if ( r > LOCAL_REG_BASE ) {
 3344              		.loc 1 404 12 view .LVU909
ARM GAS  /tmp/cc3WwB9H.s 			page 84


 3345 009a 8DF80870 		strb	r7, [sp, #8]
 405:src/printer.c **** 	*p++ = '.';
 3346              		.loc 1 405 7 is_stmt 1 view .LVU910
 405:src/printer.c **** 	*p++ = '.';
 3347              		.loc 1 405 10 is_stmt 0 view .LVU911
 3348 009e 38DD     		ble	.L403
 409:src/printer.c **** 	  r -= 100;
 3349              		.loc 1 409 4 is_stmt 1 view .LVU912
 3350              	.LVL336:
 408:src/printer.c **** 	  *p++ = '1';
 3351              		.loc 1 408 5 is_stmt 0 view .LVU913
 3352 00a0 632B     		cmp	r3, #99
 406:src/printer.c **** 	r -= LOCAL_REG_BASE;
 3353              		.loc 1 406 7 view .LVU914
 3354 00a2 8DF80920 		strb	r2, [sp, #9]
 407:src/printer.c **** 	if ( r >= 100 ) {
 3355              		.loc 1 407 2 is_stmt 1 view .LVU915
 3356              	.LVL337:
 408:src/printer.c **** 	  *p++ = '1';
 3357              		.loc 1 408 2 view .LVU916
 409:src/printer.c **** 	  r -= 100;
 3358              		.loc 1 409 9 is_stmt 0 view .LVU917
 3359 00a6 4FF03102 		mov	r2, #49
 408:src/printer.c **** 	  *p++ = '1';
 3360              		.loc 1 408 5 view .LVU918
 3361 00aa 35DC     		bgt	.L398
 3362 00ac 1946     		mov	r1, r3
 406:src/printer.c **** 	r -= LOCAL_REG_BASE;
 3363              		.loc 1 406 4 view .LVU919
 3364 00ae 0DF10A00 		add	r0, sp, #10
 3365              	.LVL338:
 3366              	.L397:
 413:src/printer.c ****     }
 3367              		.loc 1 413 7 is_stmt 1 view .LVU920
 413:src/printer.c ****     }
 3368              		.loc 1 413 11 is_stmt 0 view .LVU921
 3369 00b2 0222     		movs	r2, #2
 3370 00b4 FFF7FEFF 		bl	num_arg_0
 3371              	.LVL339:
 413:src/printer.c ****     }
 3372              		.loc 1 413 11 view .LVU922
 3373 00b8 D3E7     		b	.L396
 3374              	.LVL340:
 3375              	.L401:
 413:src/printer.c ****     }
 3376              		.loc 1 413 11 view .LVU923
 3377              	.LBE137:
 419:src/printer.c ****     print_reg( regL_idx, "l", 1 );
 3378              		.loc 1 419 3 is_stmt 1 view .LVU924
 419:src/printer.c ****     print_reg( regL_idx, "l", 1 );
 3379              		.loc 1 419 6 is_stmt 0 view .LVU925
 3380 00ba BE2C     		cmp	r4, #190
 3381 00bc 09D1     		bne	.L386
 3382              	.L402:
 420:src/printer.c ****     print_reg( regI_idx, "i", 1 );
 3383              		.loc 1 420 5 is_stmt 1 view .LVU926
 3384 00be 1E49     		ldr	r1, .L431+20
ARM GAS  /tmp/cc3WwB9H.s 			page 85


 3385 00c0 0122     		movs	r2, #1
 3386 00c2 6C20     		movs	r0, #108
 3387 00c4 FFF7FEFF 		bl	print_reg
 3388              	.LVL341:
 421:src/printer.c ****   }
 3389              		.loc 1 421 5 view .LVU927
 3390 00c8 1C49     		ldr	r1, .L431+24
 3391 00ca 0122     		movs	r2, #1
 3392 00cc 6D20     		movs	r0, #109
 3393 00ce FFF7FEFF 		bl	print_reg
 3394              	.LVL342:
 3395              	.L386:
 423:src/printer.c **** 
 3396              		.loc 1 423 1 is_stmt 0 view .LVU928
 3397 00d2 05B0     		add	sp, sp, #20
 3398              		.cfi_remember_state
 3399              		.cfi_def_cfa_offset 20
 3400              		@ sp needed
 3401 00d4 F0BD     		pop	{r4, r5, r6, r7, pc}
 3402              	.LVL343:
 3403              	.L426:
 3404              		.cfi_restore_state
 373:src/printer.c ****     print_registers_cmplx (op);
 3405              		.loc 1 373 7 view .LVU929
 3406 00d6 154E     		ldr	r6, .L431+8
 3407              	.LBB138:
 3408              	.LBB134:
 3409 00d8 FFF7FEFF 		bl	advance_if_trace.part.0
 3410              	.LVL344:
 373:src/printer.c ****     print_registers_cmplx (op);
 3411              		.loc 1 373 7 view .LVU930
 3412              	.LBE134:
 3413              	.LBE138:
 373:src/printer.c ****     print_registers_cmplx (op);
 3414              		.loc 1 373 3 is_stmt 1 view .LVU931
 373:src/printer.c ****     print_registers_cmplx (op);
 3415              		.loc 1 373 7 is_stmt 0 view .LVU932
 3416 00dc 737D     		ldrb	r3, [r6, #21]	@ zero_extendqisi2
 373:src/printer.c ****     print_registers_cmplx (op);
 3417              		.loc 1 373 6 view .LVU933
 3418 00de 9907     		lsls	r1, r3, #30
 3419 00e0 9FD5     		bpl	.L430
 3420              	.L389:
 374:src/printer.c ****     State2.cmplx = 0;
 3421              		.loc 1 374 5 is_stmt 1 view .LVU934
 3422 00e2 2046     		mov	r0, r4
 3423 00e4 FFF7FEFF 		bl	print_registers_cmplx
 3424              	.LVL345:
 375:src/printer.c ****     return;
 3425              		.loc 1 375 5 view .LVU935
 375:src/printer.c ****     return;
 3426              		.loc 1 375 18 is_stmt 0 view .LVU936
 3427 00e8 737D     		ldrb	r3, [r6, #21]	@ zero_extendqisi2
 3428 00ea 6FF34103 		bfc	r3, #1, #1
 3429 00ee 7375     		strb	r3, [r6, #21]
 376:src/printer.c ****   }
 3430              		.loc 1 376 5 is_stmt 1 view .LVU937
ARM GAS  /tmp/cc3WwB9H.s 			page 86


 423:src/printer.c **** 
 3431              		.loc 1 423 1 is_stmt 0 view .LVU938
 3432 00f0 05B0     		add	sp, sp, #20
 3433              		.cfi_remember_state
 3434              		.cfi_def_cfa_offset 20
 3435              		@ sp needed
 3436 00f2 F0BD     		pop	{r4, r5, r6, r7, pc}
 3437              	.L427:
 3438              		.cfi_restore_state
 373:src/printer.c ****     print_registers_cmplx (op);
 3439              		.loc 1 373 23 discriminator 2 view .LVU939
 3440 00f4 93F8DE37 		ldrb	r3, [r3, #2014]	@ zero_extendqisi2
 3441 00f8 5B07     		lsls	r3, r3, #29
 3442 00fa F2D4     		bmi	.L389
 386:src/printer.c ****     s = regX_idx;
 3443              		.loc 1 386 3 is_stmt 1 view .LVU940
 386:src/printer.c ****     s = regX_idx;
 3444              		.loc 1 386 6 is_stmt 0 view .LVU941
 3445 00fc BE2C     		cmp	r4, #190
 3446 00fe 97D1     		bne	.L392
 3447              	.L428:
 387:src/printer.c ****     n = stack_size();
 3448              		.loc 1 387 5 is_stmt 1 view .LVU942
 387:src/printer.c ****     n = stack_size();
 3449              		.loc 1 387 7 is_stmt 0 view .LVU943
 3450 0100 6423     		movs	r3, #100
 3451 0102 0093     		str	r3, [sp]
 388:src/printer.c ****   }
 3452              		.loc 1 388 5 is_stmt 1 view .LVU944
 388:src/printer.c ****   }
 3453              		.loc 1 388 9 is_stmt 0 view .LVU945
 3454 0104 FFF7FEFF 		bl	stack_size
 3455              	.LVL346:
 396:src/printer.c ****     int r = s;
 3456              		.loc 1 396 9 is_stmt 1 view .LVU946
 396:src/printer.c ****     int r = s;
 3457              		.loc 1 396 12 is_stmt 0 view .LVU947
 3458 0108 431E     		subs	r3, r0, #1
 3459 010a 0193     		str	r3, [sp, #4]
 396:src/printer.c ****     int r = s;
 3460              		.loc 1 396 9 view .LVU948
 3461 010c 0028     		cmp	r0, #0
 3462 010e 9CD1     		bne	.L393
 3463 0110 D5E7     		b	.L402
 3464              	.LVL347:
 3465              	.L403:
 3466              	.LBB139:
 404:src/printer.c ****       if ( r > LOCAL_REG_BASE ) {
 3467              		.loc 1 404 9 view .LVU949
 3468 0112 0DF10900 		add	r0, sp, #9
 3469 0116 CCE7     		b	.L397
 3470              	.LVL348:
 3471              	.L398:
 409:src/printer.c **** 	  r -= 100;
 3472              		.loc 1 409 9 view .LVU950
 3473 0118 8DF80A20 		strb	r2, [sp, #10]
 410:src/printer.c **** 	}
ARM GAS  /tmp/cc3WwB9H.s 			page 87


 3474              		.loc 1 410 4 is_stmt 1 view .LVU951
 3475              	.LVL349:
 409:src/printer.c **** 	  r -= 100;
 3476              		.loc 1 409 6 is_stmt 0 view .LVU952
 3477 011c 0DF10B00 		add	r0, sp, #11
 3478              	.LVL350:
 410:src/printer.c **** 	}
 3479              		.loc 1 410 6 view .LVU953
 3480 0120 D439     		subs	r1, r1, #212
 3481              	.LVL351:
 410:src/printer.c **** 	}
 3482              		.loc 1 410 6 view .LVU954
 3483 0122 C6E7     		b	.L397
 3484              	.L432:
 3485              		.align	2
 3486              	.L431:
 3487 0124 00000000 		.word	main_ram
 3488 0128 00000000 		.word	PrinterColumn
 3489 012c 00000000 		.word	StateWhileOn
 3490 0130 08000000 		.word	.LC12
 3491 0134 89030008 		.word	134218633
 3492 0138 00000000 		.word	.LC10
 3493 013c 04000000 		.word	.LC11
 3494              	.LBE139:
 3495              		.cfi_endproc
 3496              	.LFE13:
 3498              		.section	.text.cmdprintwidth,"ax",%progbits
 3499              		.align	1
 3500              		.p2align 2,,3
 3501              		.global	cmdprintwidth
 3502              		.syntax unified
 3503              		.thumb
 3504              		.thumb_func
 3505              		.fpu fpv4-sp-d16
 3507              	cmdprintwidth:
 3508              	.LVL352:
 3509              	.LFB22:
 701:src/printer.c **** 
 702:src/printer.c **** 
 703:src/printer.c **** /*
 704:src/printer.c ****  *  Return the width of alpha to x
 705:src/printer.c ****  */
 706:src/printer.c **** void cmdprintwidth(enum nilop op)
 707:src/printer.c **** {
 3510              		.loc 1 707 1 is_stmt 1 view -0
 3511              		.cfi_startproc
 3512              		@ args = 0, pretend = 0, frame = 0
 3513              		@ frame_needed = 0, uses_anonymous_args = 0
 708:src/printer.c ****   setX_int_sgn(buffer_width(Alpha), 0);
 3514              		.loc 1 708 3 view .LVU956
 707:src/printer.c ****   setX_int_sgn(buffer_width(Alpha), 0);
 3515              		.loc 1 707 1 is_stmt 0 view .LVU957
 3516 0000 08B5     		push	{r3, lr}
 3517              		.cfi_def_cfa_offset 8
 3518              		.cfi_offset 3, -8
 3519              		.cfi_offset 14, -4
 3520              		.loc 1 708 29 view .LVU958
ARM GAS  /tmp/cc3WwB9H.s 			page 88


 3521 0002 064B     		ldr	r3, .L435
 3522 0004 1868     		ldr	r0, [r3]
 3523              	.LVL353:
 3524              		.loc 1 708 16 view .LVU959
 3525 0006 00F5F660 		add	r0, r0, #1968
 3526 000a FFF7FEFF 		bl	buffer_width
 3527              	.LVL354:
 709:src/printer.c **** }
 3528              		.loc 1 709 1 view .LVU960
 3529 000e BDE80840 		pop	{r3, lr}
 3530              		.cfi_restore 14
 3531              		.cfi_restore 3
 3532              		.cfi_def_cfa_offset 0
 708:src/printer.c ****   setX_int_sgn(buffer_width(Alpha), 0);
 3533              		.loc 1 708 3 view .LVU961
 3534 0012 C117     		asrs	r1, r0, #31
 3535 0014 0022     		movs	r2, #0
 3536 0016 FFF7FEBF 		b	setX_int_sgn
 3537              	.LVL355:
 3538              	.L436:
 3539 001a 00BF     		.align	2
 3540              	.L435:
 3541 001c 00000000 		.word	main_ram
 3542              		.cfi_endproc
 3543              	.LFE22:
 3545              		.section	.text.print_on_off,"ax",%progbits
 3546              		.align	1
 3547              		.p2align 2,,3
 3548              		.global	print_on_off
 3549              		.syntax unified
 3550              		.thumb
 3551              		.thumb_func
 3552              		.fpu fpv4-sp-d16
 3554              	print_on_off:
 3555              	.LVL356:
 3556              	.LFB23:
 710:src/printer.c **** 
 711:src/printer.c **** /*
 712:src/printer.c ****  *  Turn printing on or off
 713:src/printer.c ****  */
 714:src/printer.c **** void print_on_off (enum nilop op) {
 3557              		.loc 1 714 35 is_stmt 1 view -0
 3558              		.cfi_startproc
 3559              		@ args = 0, pretend = 0, frame = 0
 3560              		@ frame_needed = 0, uses_anonymous_args = 0
 3561              		@ link register save eliminated.
 715:src/printer.c ****   if (op == OP_PRINT_ON) {
 3562              		.loc 1 715 3 view .LVU963
 3563              		.loc 1 715 6 is_stmt 0 view .LVU964
 3564 0000 D928     		cmp	r0, #217
 3565 0002 0BD0     		beq	.L440
 716:src/printer.c ****     UState.print_on = 1;
 717:src/printer.c ****   }
 718:src/printer.c ****   else if (op == OP_PRINT_OFF) {
 3566              		.loc 1 718 8 is_stmt 1 view .LVU965
 3567              		.loc 1 718 11 is_stmt 0 view .LVU966
 3568 0004 DA28     		cmp	r0, #218
ARM GAS  /tmp/cc3WwB9H.s 			page 89


 3569 0006 00D0     		beq	.L441
 719:src/printer.c ****     UState.print_on = 0;
 720:src/printer.c ****   }
 721:src/printer.c **** }
 3570              		.loc 1 721 1 view .LVU967
 3571 0008 7047     		bx	lr
 3572              	.L441:
 719:src/printer.c ****     UState.print_on = 0;
 3573              		.loc 1 719 5 is_stmt 1 view .LVU968
 719:src/printer.c ****     UState.print_on = 0;
 3574              		.loc 1 719 21 is_stmt 0 view .LVU969
 3575 000a 094B     		ldr	r3, .L442
 3576 000c 1B68     		ldr	r3, [r3]
 3577 000e 93F8E427 		ldrb	r2, [r3, #2020]	@ zero_extendqisi2
 3578 0012 6FF30002 		bfc	r2, #0, #1
 3579 0016 83F8E427 		strb	r2, [r3, #2020]
 3580              		.loc 1 721 1 view .LVU970
 3581 001a 7047     		bx	lr
 3582              	.L440:
 716:src/printer.c ****     UState.print_on = 1;
 3583              		.loc 1 716 5 is_stmt 1 view .LVU971
 716:src/printer.c ****     UState.print_on = 1;
 3584              		.loc 1 716 21 is_stmt 0 view .LVU972
 3585 001c 044B     		ldr	r3, .L442
 3586 001e 1A68     		ldr	r2, [r3]
 3587 0020 92F8E437 		ldrb	r3, [r2, #2020]	@ zero_extendqisi2
 3588 0024 43F00103 		orr	r3, r3, #1
 3589 0028 82F8E437 		strb	r3, [r2, #2020]
 3590 002c 7047     		bx	lr
 3591              	.L443:
 3592 002e 00BF     		.align	2
 3593              	.L442:
 3594 0030 00000000 		.word	main_ram
 3595              		.cfi_endproc
 3596              	.LFE23:
 3598              		.section	.text.cmdprintmode,"ax",%progbits
 3599              		.align	1
 3600              		.p2align 2,,3
 3601              		.global	cmdprintmode
 3602              		.syntax unified
 3603              		.thumb
 3604              		.thumb_func
 3605              		.fpu fpv4-sp-d16
 3607              	cmdprintmode:
 3608              	.LVL357:
 3609              	.LFB24:
 722:src/printer.c **** 
 723:src/printer.c **** /*
 724:src/printer.c ****  *  Set printing modes
 725:src/printer.c ****  */
 726:src/printer.c **** void cmdprintmode( unsigned int arg, enum rarg op )
 727:src/printer.c **** {
 3610              		.loc 1 727 1 is_stmt 1 view -0
 3611              		.cfi_startproc
 3612              		@ args = 0, pretend = 0, frame = 0
 3613              		@ frame_needed = 0, uses_anonymous_args = 0
 3614              		@ link register save eliminated.
ARM GAS  /tmp/cc3WwB9H.s 			page 90


 728:src/printer.c ****   if ( op == RARG_PMODE ) {
 3615              		.loc 1 728 3 view .LVU974
 3616              		.loc 1 728 6 is_stmt 0 view .LVU975
 3617 0000 8F29     		cmp	r1, #143
 3618 0002 11D0     		beq	.L448
 729:src/printer.c ****     UState.print_mode = arg;
 730:src/printer.c ****   }
 731:src/printer.c ****   else if ( op == RARG_PDELAY ) { // DM42 replacement
 3619              		.loc 1 731 8 is_stmt 1 view .LVU976
 3620              		.loc 1 731 11 is_stmt 0 view .LVU977
 3621 0004 9029     		cmp	r1, #144
 3622 0006 0AD0     		beq	.L449
 732:src/printer.c ****     printer_set_delay(arg*100); // arg is still in ticks, so convert to ms.
 733:src/printer.c ****   }
 734:src/printer.c ****   else if ( op == RARG_DBLSP ) {
 3623              		.loc 1 734 8 is_stmt 1 view .LVU978
 3624              		.loc 1 734 11 is_stmt 0 view .LVU979
 3625 0008 9629     		cmp	r1, #150
 3626 000a 07D1     		bne	.L444
 735:src/printer.c ****     UState.print_blank_line = arg;
 3627              		.loc 1 735 5 is_stmt 1 view .LVU980
 3628              		.loc 1 735 29 is_stmt 0 view .LVU981
 3629 000c 0B4B     		ldr	r3, .L450
 3630 000e 1B68     		ldr	r3, [r3]
 3631 0010 93F8E427 		ldrb	r2, [r3, #2020]	@ zero_extendqisi2
 3632 0014 60F34102 		bfi	r2, r0, #1, #1
 3633 0018 83F8E427 		strb	r2, [r3, #2020]
 3634              	.L444:
 736:src/printer.c ****   }
 737:src/printer.c **** }
 3635              		.loc 1 737 1 view .LVU982
 3636 001c 7047     		bx	lr
 3637              	.L449:
 732:src/printer.c ****   }
 3638              		.loc 1 732 5 is_stmt 1 view .LVU983
 3639 001e 6423     		movs	r3, #100
 3640 0020 03FB00F0 		mul	r0, r3, r0
 3641              	.LVL358:
 732:src/printer.c ****   }
 3642              		.loc 1 732 5 is_stmt 0 view .LVU984
 3643 0024 064B     		ldr	r3, .L450+4
 3644 0026 1847     		bx	r3	@ indirect register sibling call
 3645              	.LVL359:
 3646              	.L448:
 729:src/printer.c ****   }
 3647              		.loc 1 729 5 is_stmt 1 view .LVU985
 729:src/printer.c ****   }
 3648              		.loc 1 729 23 is_stmt 0 view .LVU986
 3649 0028 044B     		ldr	r3, .L450
 3650 002a 1B68     		ldr	r3, [r3]
 3651 002c 93F8EA27 		ldrb	r2, [r3, #2026]	@ zero_extendqisi2
 3652 0030 60F30102 		bfi	r2, r0, #0, #2
 3653              	.LVL360:
 729:src/printer.c ****   }
 3654              		.loc 1 729 23 view .LVU987
 3655 0034 83F8EA27 		strb	r2, [r3, #2026]
 3656 0038 7047     		bx	lr
ARM GAS  /tmp/cc3WwB9H.s 			page 91


 3657              	.L451:
 3658 003a 00BF     		.align	2
 3659              	.L450:
 3660 003c 00000000 		.word	main_ram
 3661 0040 35030008 		.word	134218549
 3662              		.cfi_endproc
 3663              	.LFE24:
 3665              		.section	.rodata.print_trace.str1.4,"aMS",%progbits,1
 3666              		.align	2
 3667              	.LC13:
 3668 0000 3E3E3E00 		.ascii	">>>\000"
 3669              		.align	2
 3670              	.LC14:
 3671 0004 2A2A2A00 		.ascii	"***\000"
 3672              		.align	2
 3673              	.LC15:
 3674 0008 2000     		.ascii	" \000"
 3675 000a 0000     		.align	2
 3676              	.LC16:
 3677 000c 63707800 		.ascii	"cpx\000"
 3678              		.section	.text.print_trace,"ax",%progbits
 3679              		.align	1
 3680              		.p2align 2,,3
 3681              		.global	print_trace
 3682              		.syntax unified
 3683              		.thumb
 3684              		.thumb_func
 3685              		.fpu fpv4-sp-d16
 3687              	print_trace:
 3688              	.LVL361:
 3689              	.LFB25:
 738:src/printer.c **** 
 739:src/printer.c **** /*
 740:src/printer.c ****  *  Trace an instruction
 741:src/printer.c ****  */
 742:src/printer.c **** void print_trace( opcode op, int phase )
 743:src/printer.c **** {
 3690              		.loc 1 743 1 is_stmt 1 view -0
 3691              		.cfi_startproc
 3692              		@ args = 0, pretend = 0, frame = 16
 3693              		@ frame_needed = 0, uses_anonymous_args = 0
 744:src/printer.c ****   char buffer[ 16 ];
 3694              		.loc 1 744 3 view .LVU989
 745:src/printer.c ****   const char *p;
 3695              		.loc 1 745 3 view .LVU990
 746:src/printer.c **** 	
 747:src/printer.c ****   if ( (Tracing || op == RARG( RARG_SF, T_FLAG )) && UState.print_on ) {
 3696              		.loc 1 747 3 view .LVU991
 743:src/printer.c ****   char buffer[ 16 ];
 3697              		.loc 1 743 1 is_stmt 0 view .LVU992
 3698 0000 2DE9F041 		push	{r4, r5, r6, r7, r8, lr}
 3699              		.cfi_def_cfa_offset 24
 3700              		.cfi_offset 4, -24
 3701              		.cfi_offset 5, -20
 3702              		.cfi_offset 6, -16
 3703              		.cfi_offset 7, -12
 3704              		.cfi_offset 8, -8
ARM GAS  /tmp/cc3WwB9H.s 			page 92


 3705              		.cfi_offset 14, -4
 3706              		.loc 1 747 9 view .LVU993
 3707 0004 4D4E     		ldr	r6, .L506
 3708              		.loc 1 747 6 view .LVU994
 3709 0006 3368     		ldr	r3, [r6]
 743:src/printer.c ****   char buffer[ 16 ];
 3710              		.loc 1 743 1 view .LVU995
 3711 0008 84B0     		sub	sp, sp, #16
 3712              		.cfi_def_cfa_offset 40
 743:src/printer.c ****   char buffer[ 16 ];
 3713              		.loc 1 743 1 view .LVU996
 3714 000a 0D46     		mov	r5, r1
 3715 000c 0446     		mov	r4, r0
 3716              		.loc 1 747 6 view .LVU997
 3717 000e 33B9     		cbnz	r3, .L453
 3718              		.loc 1 747 17 discriminator 2 view .LVU998
 3719 0010 47F26713 		movw	r3, #29031
 3720 0014 9842     		cmp	r0, r3
 3721 0016 32D0     		beq	.L503
 3722              	.LVL362:
 3723              	.L452:
 748:src/printer.c ****     /*
 749:src/printer.c ****      *  We trace when flag T has been set and printing is on
 750:src/printer.c ****      */
 751:src/printer.c ****     if (op == (OP_SPEC | OP_CHS)) {
 752:src/printer.c ****       if (CmdLineLength > 0)
 753:src/printer.c **** 	return;
 754:src/printer.c ****     }
 755:src/printer.c ****     else if (op >= (OP_SPEC | OP_EEX) && op <= (OP_SPEC | OP_F))
 756:src/printer.c ****       return;
 757:src/printer.c ****     else if (op == (OP_SPEC | OP_CLX)) {
 758:src/printer.c ****       if (CmdLineLength || (phase==1 && PrinterColumn==0))
 759:src/printer.c **** 	return;
 760:src/printer.c ****       op = OP_NIL | OP_rCLX;
 761:src/printer.c ****     }
 762:src/printer.c ****     else if (! Running && isRARG(op) && RARG_CMD(op) == RARG_ALPHA )
 763:src/printer.c ****       return;
 764:src/printer.c **** 
 765:src/printer.c ****     // Format the command
 766:src/printer.c ****     p = prt( op, buffer );
 767:src/printer.c **** 
 768:src/printer.c ****     if ( phase == 0 ) {
 769:src/printer.c ****       // Left part of print
 770:src/printer.c ****       if ( CmdLineLength ) {
 771:src/printer.c **** 	process_cmdline();
 772:src/printer.c ****       }
 773:src/printer.c ****       print_tab( 0 );
 774:src/printer.c ****       print_line( prt( op, buffer ), 0 );
 775:src/printer.c ****       print_line( " ", 0 );
 776:src/printer.c ****     }
 777:src/printer.c ****     else {
 778:src/printer.c ****       // right part of print
 779:src/printer.c ****       print_reg( regX_idx,
 780:src/printer.c **** 		 op == TRACE_DATA_ENTRY ? ">>>" :
 781:src/printer.c **** 		 PrinterColumn == 0     ? ( !Tracing ? p : "***"  ) :
 782:src/printer.c **** 		 CNULL,
 783:src/printer.c **** 		 0 );
ARM GAS  /tmp/cc3WwB9H.s 			page 93


 784:src/printer.c ****       if ( State2.wascomplex ) {
 785:src/printer.c **** 	print_reg( regY_idx, "cpx", 0 );
 786:src/printer.c ****       }
 787:src/printer.c ****     }
 788:src/printer.c ****   }
 789:src/printer.c **** }
 3724              		.loc 1 789 1 view .LVU999
 3725 0018 04B0     		add	sp, sp, #16
 3726              		.cfi_remember_state
 3727              		.cfi_def_cfa_offset 24
 3728              		@ sp needed
 3729 001a BDE8F081 		pop	{r4, r5, r6, r7, r8, pc}
 3730              	.LVL363:
 3731              	.L453:
 3732              		.cfi_restore_state
 747:src/printer.c ****     /*
 3733              		.loc 1 747 51 discriminator 3 view .LVU1000
 3734 001e 484B     		ldr	r3, .L506+4
 3735 0020 1B68     		ldr	r3, [r3]
 3736 0022 93F8E437 		ldrb	r3, [r3, #2020]	@ zero_extendqisi2
 3737 0026 DA07     		lsls	r2, r3, #31
 3738 0028 F6D5     		bpl	.L452
 751:src/printer.c ****       if (CmdLineLength > 0)
 3739              		.loc 1 751 5 is_stmt 1 view .LVU1001
 751:src/printer.c ****       if (CmdLineLength > 0)
 3740              		.loc 1 751 8 is_stmt 0 view .LVU1002
 3741 002a 0328     		cmp	r0, #3
 3742 002c 44D0     		beq	.L504
 755:src/printer.c ****       return;
 3743              		.loc 1 755 10 is_stmt 1 view .LVU1003
 755:src/printer.c ****       return;
 3744              		.loc 1 755 39 is_stmt 0 view .LVU1004
 3745 002e 831E     		subs	r3, r0, #2
 755:src/printer.c ****       return;
 3746              		.loc 1 755 13 view .LVU1005
 3747 0030 122B     		cmp	r3, #18
 3748 0032 F1D9     		bls	.L452
 757:src/printer.c ****       if (CmdLineLength || (phase==1 && PrinterColumn==0))
 3749              		.loc 1 757 10 is_stmt 1 view .LVU1006
 757:src/printer.c ****       if (CmdLineLength || (phase==1 && PrinterColumn==0))
 3750              		.loc 1 757 13 is_stmt 0 view .LVU1007
 3751 0034 0128     		cmp	r0, #1
 3752 0036 28D1     		bne	.L460
 758:src/printer.c **** 	return;
 3753              		.loc 1 758 7 is_stmt 1 view .LVU1008
 758:src/printer.c **** 	return;
 3754              		.loc 1 758 11 is_stmt 0 view .LVU1009
 3755 0038 424F     		ldr	r7, .L506+8
 758:src/printer.c **** 	return;
 3756              		.loc 1 758 10 view .LVU1010
 3757 003a 3B7F     		ldrb	r3, [r7, #28]	@ zero_extendqisi2
 3758 003c 002B     		cmp	r3, #0
 3759 003e EBD1     		bne	.L452
 758:src/printer.c **** 	return;
 3760              		.loc 1 758 25 discriminator 1 view .LVU1011
 3761 0040 0129     		cmp	r1, #1
 3762 0042 6CD0     		beq	.L461
ARM GAS  /tmp/cc3WwB9H.s 			page 94


 3763              	.LVL364:
 766:src/printer.c **** 
 3764              		.loc 1 766 5 is_stmt 1 view .LVU1012
 766:src/printer.c **** 
 3765              		.loc 1 766 9 is_stmt 0 view .LVU1013
 3766 0044 E846     		mov	r8, sp
 3767 0046 4146     		mov	r1, r8
 3768              	.LVL365:
 766:src/printer.c **** 
 3769              		.loc 1 766 9 view .LVU1014
 3770 0048 40F23F10 		movw	r0, #319
 3771 004c FFF7FEFF 		bl	prt
 3772              	.LVL366:
 3773 0050 0146     		mov	r1, r0
 3774              	.LVL367:
 768:src/printer.c ****       // Left part of print
 3775              		.loc 1 768 5 is_stmt 1 view .LVU1015
 768:src/printer.c ****       // Left part of print
 3776              		.loc 1 768 8 is_stmt 0 view .LVU1016
 3777 0052 002D     		cmp	r5, #0
 3778 0054 3BD1     		bne	.L501
 760:src/printer.c ****     }
 3779              		.loc 1 760 10 view .LVU1017
 3780 0056 40F23F14 		movw	r4, #319
 3781              	.LVL368:
 3782              	.L458:
 770:src/printer.c **** 	process_cmdline();
 3783              		.loc 1 770 7 is_stmt 1 view .LVU1018
 770:src/printer.c **** 	process_cmdline();
 3784              		.loc 1 770 10 is_stmt 0 view .LVU1019
 3785 005a 3B7F     		ldrb	r3, [r7, #28]	@ zero_extendqisi2
 3786 005c 002B     		cmp	r3, #0
 3787 005e 59D1     		bne	.L505
 3788              	.LVL369:
 3789              	.L465:
 773:src/printer.c ****       print_line( prt( op, buffer ), 0 );
 3790              		.loc 1 773 7 is_stmt 1 view .LVU1020
 3791 0060 0020     		movs	r0, #0
 3792 0062 FFF7FEFF 		bl	print_tab
 3793              	.LVL370:
 774:src/printer.c ****       print_line( " ", 0 );
 3794              		.loc 1 774 7 view .LVU1021
 3795 0066 4146     		mov	r1, r8
 3796 0068 2046     		mov	r0, r4
 3797 006a FFF7FEFF 		bl	prt
 3798              	.LVL371:
 3799 006e 0021     		movs	r1, #0
 3800 0070 FFF7FEFF 		bl	print_line
 3801              	.LVL372:
 775:src/printer.c ****     }
 3802              		.loc 1 775 7 view .LVU1022
 3803 0074 3448     		ldr	r0, .L506+12
 3804 0076 0021     		movs	r1, #0
 3805 0078 FFF7FEFF 		bl	print_line
 3806              	.LVL373:
 3807 007c CCE7     		b	.L452
 3808              	.LVL374:
ARM GAS  /tmp/cc3WwB9H.s 			page 95


 3809              	.L503:
 747:src/printer.c ****     /*
 3810              		.loc 1 747 51 is_stmt 0 view .LVU1023
 3811 007e 304B     		ldr	r3, .L506+4
 3812 0080 1B68     		ldr	r3, [r3]
 3813 0082 93F8E437 		ldrb	r3, [r3, #2020]	@ zero_extendqisi2
 3814 0086 DB07     		lsls	r3, r3, #31
 3815 0088 C6D5     		bpl	.L452
 3816              	.L460:
 762:src/printer.c ****       return;
 3817              		.loc 1 762 10 is_stmt 1 view .LVU1024
 762:src/printer.c ****       return;
 3818              		.loc 1 762 14 is_stmt 0 view .LVU1025
 3819 008a 304B     		ldr	r3, .L506+16
 762:src/printer.c ****       return;
 3820              		.loc 1 762 13 view .LVU1026
 3821 008c 1B68     		ldr	r3, [r3]
 3822 008e 3BBB     		cbnz	r3, .L462
 762:src/printer.c ****       return;
 3823              		.loc 1 762 24 discriminator 1 view .LVU1027
 3824 0090 14F47043 		ands	r3, r4, #61440
 3825 0094 24D0     		beq	.L462
 762:src/printer.c ****       return;
 3826              		.loc 1 762 27 discriminator 2 view .LVU1028
 3827 0096 B3F5704F 		cmp	r3, #61440
 3828 009a 21D0     		beq	.L462
 762:src/printer.c ****       return;
 3829              		.loc 1 762 38 discriminator 3 view .LVU1029
 3830 009c C4F30723 		ubfx	r3, r4, #8, #8
 3831 00a0 442B     		cmp	r3, #68
 3832 00a2 B9D0     		beq	.L452
 766:src/printer.c **** 
 3833              		.loc 1 766 5 is_stmt 1 view .LVU1030
 766:src/printer.c **** 
 3834              		.loc 1 766 9 is_stmt 0 view .LVU1031
 3835 00a4 E846     		mov	r8, sp
 3836 00a6 4146     		mov	r1, r8
 3837              	.LVL375:
 766:src/printer.c **** 
 3838              		.loc 1 766 9 view .LVU1032
 3839 00a8 2046     		mov	r0, r4
 766:src/printer.c **** 
 3840              		.loc 1 766 9 view .LVU1033
 3841 00aa FFF7FEFF 		bl	prt
 3842              	.LVL376:
 766:src/printer.c **** 
 3843              		.loc 1 766 9 view .LVU1034
 3844 00ae 0146     		mov	r1, r0
 3845              	.LVL377:
 768:src/printer.c ****       // Left part of print
 3846              		.loc 1 768 5 is_stmt 1 view .LVU1035
 768:src/printer.c ****       // Left part of print
 3847              		.loc 1 768 8 is_stmt 0 view .LVU1036
 3848 00b0 002D     		cmp	r5, #0
 3849 00b2 40D1     		bne	.L502
 3850              	.L481:
 768:src/printer.c ****       // Left part of print
ARM GAS  /tmp/cc3WwB9H.s 			page 96


 3851              		.loc 1 768 8 view .LVU1037
 3852 00b4 234F     		ldr	r7, .L506+8
 3853 00b6 D0E7     		b	.L458
 3854              	.LVL378:
 3855              	.L504:
 752:src/printer.c **** 	return;
 3856              		.loc 1 752 7 is_stmt 1 view .LVU1038
 752:src/printer.c **** 	return;
 3857              		.loc 1 752 11 is_stmt 0 view .LVU1039
 3858 00b8 224F     		ldr	r7, .L506+8
 752:src/printer.c **** 	return;
 3859              		.loc 1 752 10 view .LVU1040
 3860 00ba 3B7F     		ldrb	r3, [r7, #28]	@ zero_extendqisi2
 3861 00bc 002B     		cmp	r3, #0
 3862 00be ABD1     		bne	.L452
 3863              	.LVL379:
 766:src/printer.c **** 
 3864              		.loc 1 766 5 is_stmt 1 view .LVU1041
 766:src/printer.c **** 
 3865              		.loc 1 766 9 is_stmt 0 view .LVU1042
 3866 00c0 E846     		mov	r8, sp
 3867 00c2 4146     		mov	r1, r8
 3868              	.LVL380:
 766:src/printer.c **** 
 3869              		.loc 1 766 9 view .LVU1043
 3870 00c4 FFF7FEFF 		bl	prt
 3871              	.LVL381:
 3872 00c8 0146     		mov	r1, r0
 3873              	.LVL382:
 768:src/printer.c ****       // Left part of print
 3874              		.loc 1 768 5 is_stmt 1 view .LVU1044
 768:src/printer.c ****       // Left part of print
 3875              		.loc 1 768 8 is_stmt 0 view .LVU1045
 3876 00ca 002D     		cmp	r5, #0
 3877 00cc C5D0     		beq	.L458
 3878              	.LVL383:
 3879              	.L501:
 768:src/printer.c ****       // Left part of print
 3880              		.loc 1 768 8 view .LVU1046
 3881 00ce 204C     		ldr	r4, .L506+20
 3882              	.L459:
 781:src/printer.c **** 		 CNULL,
 3883              		.loc 1 781 55 view .LVU1047
 3884 00d0 2368     		ldr	r3, [r4]
 3885 00d2 13BB     		cbnz	r3, .L470
 781:src/printer.c **** 		 CNULL,
 3886              		.loc 1 781 44 discriminator 1 view .LVU1048
 3887 00d4 3268     		ldr	r2, [r6]
 3888 00d6 1F4B     		ldr	r3, .L506+24
 3889 00d8 002A     		cmp	r2, #0
 3890 00da 18BF     		it	ne
 3891 00dc 1946     		movne	r1, r3
 3892 00de 0BE0     		b	.L466
 3893              	.LVL384:
 3894              	.L462:
 766:src/printer.c **** 
 3895              		.loc 1 766 5 is_stmt 1 view .LVU1049
ARM GAS  /tmp/cc3WwB9H.s 			page 97


 766:src/printer.c **** 
 3896              		.loc 1 766 9 is_stmt 0 view .LVU1050
 3897 00e0 E846     		mov	r8, sp
 3898 00e2 4146     		mov	r1, r8
 3899              	.LVL385:
 766:src/printer.c **** 
 3900              		.loc 1 766 9 view .LVU1051
 3901 00e4 2046     		mov	r0, r4
 766:src/printer.c **** 
 3902              		.loc 1 766 9 view .LVU1052
 3903 00e6 FFF7FEFF 		bl	prt
 3904              	.LVL386:
 766:src/printer.c **** 
 3905              		.loc 1 766 9 view .LVU1053
 3906 00ea 0146     		mov	r1, r0
 3907              	.LVL387:
 768:src/printer.c ****       // Left part of print
 3908              		.loc 1 768 5 is_stmt 1 view .LVU1054
 768:src/printer.c ****       // Left part of print
 3909              		.loc 1 768 8 is_stmt 0 view .LVU1055
 3910 00ec 002D     		cmp	r5, #0
 3911 00ee E1D0     		beq	.L481
 779:src/printer.c **** 		 op == TRACE_DATA_ENTRY ? ">>>" :
 3912              		.loc 1 779 7 is_stmt 1 view .LVU1056
 3913 00f0 0134     		adds	r4, r4, #1
 3914              	.LVL388:
 779:src/printer.c **** 		 op == TRACE_DATA_ENTRY ? ">>>" :
 3915              		.loc 1 779 7 is_stmt 0 view .LVU1057
 3916 00f2 20D1     		bne	.L502
 3917 00f4 1849     		ldr	r1, .L506+28
 3918 00f6 134F     		ldr	r7, .L506+8
 3919              	.LVL389:
 3920              	.L466:
 779:src/printer.c **** 		 op == TRACE_DATA_ENTRY ? ">>>" :
 3921              		.loc 1 779 7 discriminator 3 view .LVU1058
 3922 00f8 0022     		movs	r2, #0
 3923 00fa 6420     		movs	r0, #100
 3924              	.LVL390:
 779:src/printer.c **** 		 op == TRACE_DATA_ENTRY ? ">>>" :
 3925              		.loc 1 779 7 discriminator 3 view .LVU1059
 3926 00fc FFF7FEFF 		bl	print_reg
 3927              	.LVL391:
 784:src/printer.c **** 	print_reg( regY_idx, "cpx", 0 );
 3928              		.loc 1 784 7 is_stmt 1 discriminator 3 view .LVU1060
 784:src/printer.c **** 	print_reg( regY_idx, "cpx", 0 );
 3929              		.loc 1 784 12 is_stmt 0 discriminator 3 view .LVU1061
 3930 0100 3B7D     		ldrb	r3, [r7, #20]	@ zero_extendqisi2
 784:src/printer.c **** 	print_reg( regY_idx, "cpx", 0 );
 3931              		.loc 1 784 10 discriminator 3 view .LVU1062
 3932 0102 13F0C00F 		tst	r3, #192
 3933 0106 87D0     		beq	.L452
 785:src/printer.c ****       }
 3934              		.loc 1 785 2 is_stmt 1 view .LVU1063
 3935 0108 1449     		ldr	r1, .L506+32
 3936 010a 0022     		movs	r2, #0
 3937 010c 6520     		movs	r0, #101
 3938 010e FFF7FEFF 		bl	print_reg
ARM GAS  /tmp/cc3WwB9H.s 			page 98


 3939              	.LVL392:
 3940 0112 81E7     		b	.L452
 3941              	.LVL393:
 3942              	.L505:
 771:src/printer.c ****       }
 3943              		.loc 1 771 2 view .LVU1064
 3944 0114 FFF7FEFF 		bl	process_cmdline
 3945              	.LVL394:
 771:src/printer.c ****       }
 3946              		.loc 1 771 2 is_stmt 0 view .LVU1065
 3947 0118 A2E7     		b	.L465
 3948              	.LVL395:
 3949              	.L470:
 781:src/printer.c **** 		 CNULL,
 3950              		.loc 1 781 55 view .LVU1066
 3951 011a 0021     		movs	r1, #0
 3952 011c ECE7     		b	.L466
 3953              	.LVL396:
 3954              	.L461:
 758:src/printer.c **** 	return;
 3955              		.loc 1 758 54 discriminator 2 view .LVU1067
 3956 011e 0C4C     		ldr	r4, .L506+20
 758:src/printer.c **** 	return;
 3957              		.loc 1 758 38 discriminator 2 view .LVU1068
 3958 0120 2368     		ldr	r3, [r4]
 3959 0122 002B     		cmp	r3, #0
 3960 0124 3FF478AF 		beq	.L452
 3961              	.LVL397:
 766:src/printer.c **** 
 3962              		.loc 1 766 5 is_stmt 1 view .LVU1069
 766:src/printer.c **** 
 3963              		.loc 1 766 9 is_stmt 0 view .LVU1070
 3964 0128 6946     		mov	r1, sp
 3965              	.LVL398:
 766:src/printer.c **** 
 3966              		.loc 1 766 9 view .LVU1071
 3967 012a 40F23F10 		movw	r0, #319
 3968 012e FFF7FEFF 		bl	prt
 3969              	.LVL399:
 3970 0132 0146     		mov	r1, r0
 3971              	.LVL400:
 768:src/printer.c ****       // Left part of print
 3972              		.loc 1 768 5 is_stmt 1 view .LVU1072
 3973 0134 CCE7     		b	.L459
 3974              	.LVL401:
 3975              	.L502:
 768:src/printer.c ****       // Left part of print
 3976              		.loc 1 768 5 is_stmt 0 view .LVU1073
 3977 0136 034F     		ldr	r7, .L506+8
 3978 0138 C9E7     		b	.L501
 3979              	.L507:
 3980 013a 00BF     		.align	2
 3981              	.L506:
 3982 013c 00000000 		.word	Tracing
 3983 0140 00000000 		.word	main_ram
 3984 0144 00000000 		.word	StateWhileOn
 3985 0148 08000000 		.word	.LC15
ARM GAS  /tmp/cc3WwB9H.s 			page 99


 3986 014c 00000000 		.word	Running
 3987 0150 00000000 		.word	PrinterColumn
 3988 0154 04000000 		.word	.LC14
 3989 0158 00000000 		.word	.LC13
 3990 015c 0C000000 		.word	.LC16
 3991              		.cfi_endproc
 3992              	.LFE25:
 3994              		.section	.text.print_program,"ax",%progbits
 3995              		.align	1
 3996              		.p2align 2,,3
 3997              		.global	print_program
 3998              		.syntax unified
 3999              		.thumb
 4000              		.thumb_func
 4001              		.fpu fpv4-sp-d16
 4003              	print_program:
 4004              	.LVL402:
 4005              	.LFB26:
 790:src/printer.c **** 
 791:src/printer.c **** /*
 792:src/printer.c ****  *  Print a program listing
 793:src/printer.c ****  *  Start at the PC location
 794:src/printer.c ****  */
 795:src/printer.c **** void print_program( enum nilop op )
 796:src/printer.c **** {
 4006              		.loc 1 796 1 is_stmt 1 view -0
 4007              		.cfi_startproc
 4008              		@ args = 0, pretend = 0, frame = 16
 4009              		@ frame_needed = 0, uses_anonymous_args = 0
 797:src/printer.c ****   unsigned int pc = state_pc();
 4010              		.loc 1 797 3 view .LVU1075
 796:src/printer.c ****   unsigned int pc = state_pc();
 4011              		.loc 1 796 1 is_stmt 0 view .LVU1076
 4012 0000 2DE9F04F 		push	{r4, r5, r6, r7, r8, r9, r10, fp, lr}
 4013              		.cfi_def_cfa_offset 36
 4014              		.cfi_offset 4, -36
 4015              		.cfi_offset 5, -32
 4016              		.cfi_offset 6, -28
 4017              		.cfi_offset 7, -24
 4018              		.cfi_offset 8, -20
 4019              		.cfi_offset 9, -16
 4020              		.cfi_offset 10, -12
 4021              		.cfi_offset 11, -8
 4022              		.cfi_offset 14, -4
 4023              		.loc 1 797 21 view .LVU1077
 4024 0004 364D     		ldr	r5, .L532
 4025 0006 2B68     		ldr	r3, [r5]
 4026 0008 B3F8E047 		ldrh	r4, [r3, #2016]
 4027              	.LVL403:
 798:src/printer.c ****   const int runmode = State2.runmode;
 4028              		.loc 1 798 3 is_stmt 1 view .LVU1078
 799:src/printer.c ****   const int pmode = UState.print_mode;
 4029              		.loc 1 799 3 view .LVU1079
 800:src/printer.c ****   const int numlen = isRAM( pc ) ? 3 : 4;
 4030              		.loc 1 800 3 view .LVU1080
 801:src/printer.c ****   const int tab = numlen * ( 6 - pmode ) + 1;
 802:src/printer.c **** 
ARM GAS  /tmp/cc3WwB9H.s 			page 100


 803:src/printer.c ****   RETURN_IF_PRINT_OFF;
 4031              		.loc 1 803 3 is_stmt 0 view .LVU1081
 4032 000c 93F8E427 		ldrb	r2, [r3, #2020]	@ zero_extendqisi2
 796:src/printer.c ****   unsigned int pc = state_pc();
 4033              		.loc 1 796 1 view .LVU1082
 4034 0010 2DED028B 		vpush.64	{d8}
 4035              		.cfi_def_cfa_offset 44
 4036              		.cfi_offset 80, -44
 4037              		.cfi_offset 81, -40
 800:src/printer.c ****   const int numlen = isRAM( pc ) ? 3 : 4;
 4038              		.loc 1 800 38 view .LVU1083
 4039 0014 14F4704F 		tst	r4, #61440
 4040 0018 0CBF     		ite	eq
 4041 001a 4FF00309 		moveq	r9, #3
 4042 001e 4FF00409 		movne	r9, #4
 4043              	.LVL404:
 801:src/printer.c ****   const int tab = numlen * ( 6 - pmode ) + 1;
 4044              		.loc 1 801 3 is_stmt 1 view .LVU1084
 4045              		.loc 1 803 3 view .LVU1085
 4046 0022 D207     		lsls	r2, r2, #31
 796:src/printer.c ****   unsigned int pc = state_pc();
 4047              		.loc 1 796 1 is_stmt 0 view .LVU1086
 4048 0024 85B0     		sub	sp, sp, #20
 4049              		.cfi_def_cfa_offset 64
 4050              		.loc 1 803 3 view .LVU1087
 4051 0026 52D5     		bpl	.L508
 798:src/printer.c ****   const int pmode = UState.print_mode;
 4052              		.loc 1 798 29 view .LVU1088
 4053 0028 2E49     		ldr	r1, .L532+4
 4054              	.LBB140:
 4055              	.LBB141:
 101:src/printer.c ****     print_advance( 0 );
 4056              		.loc 1 101 22 view .LVU1089
 4057 002a 2F4A     		ldr	r2, .L532+8
 4058              	.LBE141:
 4059              	.LBE140:
 799:src/printer.c ****   const int numlen = isRAM( pc ) ? 3 : 4;
 4060              		.loc 1 799 27 view .LVU1090
 4061 002c 93F8EA67 		ldrb	r6, [r3, #2026]	@ zero_extendqisi2
 798:src/printer.c ****   const int pmode = UState.print_mode;
 4062              		.loc 1 798 29 view .LVU1091
 4063 0030 91F81680 		ldrb	r8, [r1, #22]	@ zero_extendqisi2
 4064              	.LBB145:
 4065              	.LBB142:
 101:src/printer.c ****     print_advance( 0 );
 4066              		.loc 1 101 6 view .LVU1092
 4067 0034 1368     		ldr	r3, [r2]
 4068              	.LVL405:
 101:src/printer.c ****     print_advance( 0 );
 4069              		.loc 1 101 6 view .LVU1093
 4070              	.LBE142:
 4071              	.LBE145:
 799:src/printer.c ****   const int numlen = isRAM( pc ) ? 3 : 4;
 4072              		.loc 1 799 27 view .LVU1094
 4073 0036 06F00306 		and	r6, r6, #3
 804:src/printer.c ****   advance_if_trace();
 4074              		.loc 1 804 3 is_stmt 1 view .LVU1095
ARM GAS  /tmp/cc3WwB9H.s 			page 101


 4075              	.LBB146:
 4076              	.LBI140:
  99:src/printer.c **** {
 4077              		.loc 1 99 13 view .LVU1096
 4078              	.LBB143:
 101:src/printer.c ****     print_advance( 0 );
 4079              		.loc 1 101 3 view .LVU1097
 4080              	.LBE143:
 4081              	.LBE146:
 798:src/printer.c ****   const int pmode = UState.print_mode;
 4082              		.loc 1 798 29 is_stmt 0 view .LVU1098
 4083 003a C8F38018 		ubfx	r8, r8, #6, #1
 4084              	.LBB147:
 4085              	.LBB144:
 101:src/printer.c ****     print_advance( 0 );
 4086              		.loc 1 101 6 view .LVU1099
 4087 003e 0BB1     		cbz	r3, .L512
 4088 0040 FFF7FEFF 		bl	advance_if_trace.part.0
 4089              	.LVL406:
 4090              	.L512:
 101:src/printer.c ****     print_advance( 0 );
 4091              		.loc 1 101 6 view .LVU1100
 4092              	.LBE144:
 4093              	.LBE147:
 805:src/printer.c ****   
 806:src/printer.c ****   if ( runmode ) {
 4094              		.loc 1 806 3 is_stmt 1 view .LVU1101
 4095              		.loc 1 806 6 is_stmt 0 view .LVU1102
 4096 0044 B8F1000F 		cmp	r8, #0
 4097 0048 46D1     		bne	.L531
 4098              	.LVL407:
 4099              	.L513:
 801:src/printer.c **** 
 4100              		.loc 1 801 32 view .LVU1103
 4101 004a C6F10603 		rsb	r3, r6, #6
 807:src/printer.c ****     pc = ProgBegin;
 808:src/printer.c ****   }
 809:src/printer.c ****   if ( pc == 0 ) {
 810:src/printer.c ****     ++pc;
 811:src/printer.c ****   }
 812:src/printer.c **** 
 813:src/printer.c ****   PcWrapped = 0;
 4102              		.loc 1 813 13 view .LVU1104
 4103 004e DFF89CA0 		ldr	r10, .L532+12
 4104              	.LBB148:
 814:src/printer.c ****   while ( !PcWrapped ) {
 815:src/printer.c ****     char buffer[ 16 ];
 816:src/printer.c ****     const char *p;
 817:src/printer.c ****     opcode op = getprog( pc );
 818:src/printer.c ****     unsigned int upc = user_pc( pc );
 819:src/printer.c ****     *num_arg_0( buffer, upc, numlen ) = '\0';
 820:src/printer.c ****     print_line( buffer, 0 );
 821:src/printer.c ****     if ( pmode == PMODE_GRAPHICS || pmode == PMODE_SMALLGRAPHICS ) {
 822:src/printer.c ****       print_tab( tab );
 823:src/printer.c ****     }
 824:src/printer.c ****     print( ' ' );
 825:src/printer.c ****     p = prt( op, buffer );
ARM GAS  /tmp/cc3WwB9H.s 			page 102


 826:src/printer.c ****     print_line( p, 1 );
 827:src/printer.c ****     BREAK_IF_EXIT;
 4105              		.loc 1 827 5 view .LVU1105
 4106 0052 DFF89CB0 		ldr	fp, .L532+16
 4107              	.LBE148:
 801:src/printer.c **** 
 4108              		.loc 1 801 26 view .LVU1106
 4109 0056 09FB03F3 		mul	r3, r9, r3
 813:src/printer.c ****   while ( !PcWrapped ) {
 4110              		.loc 1 813 13 view .LVU1107
 4111 005a 0027     		movs	r7, #0
 4112 005c 012C     		cmp	r4, #1
 801:src/printer.c **** 
 4113              		.loc 1 801 13 view .LVU1108
 4114 005e 03F10103 		add	r3, r3, #1
 4115 0062 08EE103A 		vmov	s16, r3	@ int
 4116              	.LVL408:
 809:src/printer.c ****     ++pc;
 4117              		.loc 1 809 3 is_stmt 1 view .LVU1109
 4118 0066 38BF     		it	cc
 4119 0068 0124     		movcc	r4, #1
 4120              	.LVL409:
 813:src/printer.c ****   while ( !PcWrapped ) {
 4121              		.loc 1 813 3 view .LVU1110
 4122 006a 013E     		subs	r6, r6, #1
 813:src/printer.c ****   while ( !PcWrapped ) {
 4123              		.loc 1 813 13 is_stmt 0 view .LVU1111
 4124 006c CAF80070 		str	r7, [r10]
 814:src/printer.c ****     char buffer[ 16 ];
 4125              		.loc 1 814 3 is_stmt 1 view .LVU1112
 814:src/printer.c ****     char buffer[ 16 ];
 4126              		.loc 1 814 9 view .LVU1113
 4127 0070 15E0     		b	.L516
 4128              	.LVL410:
 4129              	.L514:
 4130              	.LBB149:
 824:src/printer.c ****     p = prt( op, buffer );
 4131              		.loc 1 824 5 view .LVU1114
 4132 0072 2020     		movs	r0, #32
 4133 0074 FFF7FEFF 		bl	print
 4134              	.LVL411:
 825:src/printer.c ****     print_line( p, 1 );
 4135              		.loc 1 825 5 view .LVU1115
 825:src/printer.c ****     print_line( p, 1 );
 4136              		.loc 1 825 9 is_stmt 0 view .LVU1116
 4137 0078 6946     		mov	r1, sp
 4138 007a 2846     		mov	r0, r5
 4139 007c FFF7FEFF 		bl	prt
 4140              	.LVL412:
 826:src/printer.c ****     BREAK_IF_EXIT;
 4141              		.loc 1 826 5 is_stmt 1 view .LVU1117
 4142 0080 0121     		movs	r1, #1
 4143 0082 FFF7FEFF 		bl	print_line
 4144              	.LVL413:
 4145              		.loc 1 827 5 view .LVU1118
 4146 0086 D847     		blx	fp
 4147              	.LVL414:
ARM GAS  /tmp/cc3WwB9H.s 			page 103


 828:src/printer.c ****     pc = do_inc( pc, runmode );
 4148              		.loc 1 828 5 view .LVU1119
 827:src/printer.c ****     pc = do_inc( pc, runmode );
 4149              		.loc 1 827 5 is_stmt 0 view .LVU1120
 4150 0088 0346     		mov	r3, r0
 4151 008a 212B     		cmp	r3, #33
 4152              		.loc 1 828 10 view .LVU1121
 4153 008c 4146     		mov	r1, r8
 4154 008e 2046     		mov	r0, r4
 827:src/printer.c ****     pc = do_inc( pc, runmode );
 4155              		.loc 1 827 5 view .LVU1122
 4156 0090 1DD0     		beq	.L508
 4157              	.LVL415:
 4158              		.loc 1 828 10 view .LVU1123
 4159 0092 FFF7FEFF 		bl	do_inc
 4160              	.LVL416:
 4161              		.loc 1 828 10 view .LVU1124
 4162              	.LBE149:
 814:src/printer.c ****     char buffer[ 16 ];
 4163              		.loc 1 814 9 view .LVU1125
 4164 0096 DAF80030 		ldr	r3, [r10]
 4165              	.LBB150:
 4166              		.loc 1 828 10 view .LVU1126
 4167 009a 0446     		mov	r4, r0
 4168              	.LVL417:
 4169              		.loc 1 828 10 view .LVU1127
 4170              	.LBE150:
 814:src/printer.c ****     char buffer[ 16 ];
 4171              		.loc 1 814 9 is_stmt 1 view .LVU1128
 4172 009c BBB9     		cbnz	r3, .L508
 4173              	.LVL418:
 4174              	.L516:
 4175              	.LBB151:
 815:src/printer.c ****     const char *p;
 4176              		.loc 1 815 5 view .LVU1129
 816:src/printer.c ****     opcode op = getprog( pc );
 4177              		.loc 1 816 5 view .LVU1130
 817:src/printer.c ****     unsigned int upc = user_pc( pc );
 4178              		.loc 1 817 5 view .LVU1131
 817:src/printer.c ****     unsigned int upc = user_pc( pc );
 4179              		.loc 1 817 17 is_stmt 0 view .LVU1132
 4180 009e 2046     		mov	r0, r4
 4181 00a0 FFF7FEFF 		bl	getprog
 4182              	.LVL419:
 4183 00a4 0546     		mov	r5, r0
 818:src/printer.c ****     *num_arg_0( buffer, upc, numlen ) = '\0';
 4184              		.loc 1 818 24 view .LVU1133
 4185 00a6 2046     		mov	r0, r4
 4186              	.LVL420:
 818:src/printer.c ****     *num_arg_0( buffer, upc, numlen ) = '\0';
 4187              		.loc 1 818 5 is_stmt 1 view .LVU1134
 818:src/printer.c ****     *num_arg_0( buffer, upc, numlen ) = '\0';
 4188              		.loc 1 818 24 is_stmt 0 view .LVU1135
 4189 00a8 FFF7FEFF 		bl	user_pc
 4190              	.LVL421:
 819:src/printer.c ****     print_line( buffer, 0 );
 4191              		.loc 1 819 6 view .LVU1136
ARM GAS  /tmp/cc3WwB9H.s 			page 104


 4192 00ac 4A46     		mov	r2, r9
 818:src/printer.c ****     *num_arg_0( buffer, upc, numlen ) = '\0';
 4193              		.loc 1 818 24 view .LVU1137
 4194 00ae 0146     		mov	r1, r0
 4195              	.LVL422:
 819:src/printer.c ****     print_line( buffer, 0 );
 4196              		.loc 1 819 5 is_stmt 1 view .LVU1138
 819:src/printer.c ****     print_line( buffer, 0 );
 4197              		.loc 1 819 6 is_stmt 0 view .LVU1139
 4198 00b0 6846     		mov	r0, sp
 4199              	.LVL423:
 819:src/printer.c ****     print_line( buffer, 0 );
 4200              		.loc 1 819 6 view .LVU1140
 4201 00b2 FFF7FEFF 		bl	num_arg_0
 4202              	.LVL424:
 820:src/printer.c ****     if ( pmode == PMODE_GRAPHICS || pmode == PMODE_SMALLGRAPHICS ) {
 4203              		.loc 1 820 5 view .LVU1141
 4204 00b6 0021     		movs	r1, #0
 819:src/printer.c ****     print_line( buffer, 0 );
 4205              		.loc 1 819 39 view .LVU1142
 4206 00b8 0770     		strb	r7, [r0]
 820:src/printer.c ****     if ( pmode == PMODE_GRAPHICS || pmode == PMODE_SMALLGRAPHICS ) {
 4207              		.loc 1 820 5 is_stmt 1 view .LVU1143
 4208 00ba 6846     		mov	r0, sp
 4209 00bc FFF7FEFF 		bl	print_line
 4210              	.LVL425:
 821:src/printer.c ****       print_tab( tab );
 4211              		.loc 1 821 5 view .LVU1144
 821:src/printer.c ****       print_tab( tab );
 4212              		.loc 1 821 8 is_stmt 0 view .LVU1145
 4213 00c0 012E     		cmp	r6, #1
 4214 00c2 D6D8     		bhi	.L514
 822:src/printer.c ****     }
 4215              		.loc 1 822 7 is_stmt 1 view .LVU1146
 4216 00c4 18EE100A 		vmov	r0, s16	@ int
 4217 00c8 FFF7FEFF 		bl	print_tab
 4218              	.LVL426:
 4219 00cc D1E7     		b	.L514
 4220              	.LVL427:
 4221              	.L508:
 822:src/printer.c ****     }
 4222              		.loc 1 822 7 is_stmt 0 view .LVU1147
 4223              	.LBE151:
 829:src/printer.c ****   }
 830:src/printer.c **** }
 4224              		.loc 1 830 1 view .LVU1148
 4225 00ce 05B0     		add	sp, sp, #20
 4226              		.cfi_remember_state
 4227              		.cfi_def_cfa_offset 44
 4228              		@ sp needed
 4229 00d0 BDEC028B 		vldm	sp!, {d8}
 4230              		.cfi_restore 80
 4231              		.cfi_restore 81
 4232              		.cfi_def_cfa_offset 36
 4233 00d4 BDE8F08F 		pop	{r4, r5, r6, r7, r8, r9, r10, fp, pc}
 4234              	.LVL428:
 4235              	.L531:
ARM GAS  /tmp/cc3WwB9H.s 			page 105


 4236              		.cfi_restore_state
 807:src/printer.c ****   }
 4237              		.loc 1 807 5 is_stmt 1 view .LVU1149
 807:src/printer.c ****   }
 4238              		.loc 1 807 10 is_stmt 0 view .LVU1150
 4239 00d8 2B68     		ldr	r3, [r5]
 4240 00da B3F8EC47 		ldrh	r4, [r3, #2028]
 4241              	.LVL429:
 807:src/printer.c ****   }
 4242              		.loc 1 807 10 view .LVU1151
 4243 00de B4E7     		b	.L513
 4244              	.L533:
 4245              		.align	2
 4246              	.L532:
 4247 00e0 00000000 		.word	main_ram
 4248 00e4 00000000 		.word	StateWhileOn
 4249 00e8 00000000 		.word	PrinterColumn
 4250 00ec 00000000 		.word	PcWrapped
 4251 00f0 89030008 		.word	134218633
 4252              		.cfi_endproc
 4253              	.LFE26:
 4255              		.comm	PrinterColumn,4,4
 4256              		.section	.rodata
 4257              		.align	2
 4258              		.set	.LANCHOR0,. + 0
 4259              	.LC0:
 4260 0000 00008384 		.ascii	"\000\000\203\204\263 \000\376\211\212\213\000\215\216"
 4260      B32000FE 
 4260      898A8B00 
 4260      8D8E
 4261 000e 00000000 		.ascii	"\000\000\000\000\000\000\322\326\000\336\000\000\000"
 4261      0000D2D6 
 4261      00DE0000 
 4261      00
 4262 001b 8200BBBC 		.ascii	"\202\000\273\274\000\230\000\000\000\343\344\000\000"
 4262      00980000 
 4262      00E3E400 
 4262      00
 4263 0028 D3D70000 		.ascii	"\323\327\000\000\000\000\000\000\000\205\000\000\000"
 4263      00000000 
 4263      00850000 
 4263      00
 4264 0035 00000000 		.ascii	"\000\000\000\000\000\227\000\000\000\000\000\214\000"
 4264      00970000 
 4264      0000008C 
 4264      00
 4265 0042 00880000 		.ascii	"\000\210\000\000\000\000\000\000\000\217\000\000\000"
 4265      00000000 
 4265      008F0000 
 4265      00
 4266 004f 87000000 		.ascii	"\207\000\000\000\000\000\000\000\000\000\225\226\000"
 4266      00000000 
 4266      00009596 
 4266      00
 4267 005c 00000000 		.ascii	"\000\000\000\000\241\340\242\330\320\000\000\264\244"
 4267      A1E0A2D8 
 4267      D00000B4 
ARM GAS  /tmp/cc3WwB9H.s 			page 106


 4267      A4
 4268 0069 DCA4A5E6 		.ascii	"\334\244\245\346\345\246\247\266\350\347\000\332\000"
 4268      E5A6A7B6 
 4268      E8E700DA 
 4268      00
 4269 0076 EB00ADED 		.ascii	"\353\000\255\355\256\332\000\261\356\000\310\304\300"
 4269      AEDA00B1 
 4269      EE00C8C4 
 4269      C0
 4270 0083 CCD40000 		.ascii	"\314\324\000\000\265\311\305\301\315\331\325\321\335"
 4270      B5C9C5C1 
 4270      CDD9D5D1 
 4270      DD
 4271 0090 B7CAC6C2 		.ascii	"\267\312\306\302\316\000\354\000\313\307\304\317\000"
 4271      CE00EC00 
 4271      CBC7C4CF 
 4271      00
 4272 009d B2EF00   		.ascii	"\262\357\000"
 4273              		.section	.rodata.ops.9082,"a"
 4274              		.align	2
 4275              		.set	.LANCHOR1,. + 0
 4278              	ops.9082:
 4279 0000 1D141511 		.ascii	"\035\024\025\021\022\023\020\026\030\033\034\027\031"
 4279      12131016 
 4279      181B1C17 
 4279      19
 4280 000d 1A       		.ascii	"\032"
 4281              		.text
 4282              	.Letext0:
 4283              		.file 2 "/usr/lib/gcc/arm-none-eabi/9.2.1/include/stdint.h"
 4284              		.file 3 "dmcp/dmcp.h"
 4285              		.file 4 "src/decNumber/decContext.h"
 4286              		.file 5 "src/decNumber/decNumber.h"
 4287              		.file 6 "src/decNumber/decimal64.h"
 4288              		.file 7 "src/decNumber/decimal128.h"
 4289              		.file 8 "src/xeq.h"
 4290              		.file 9 "src/data.h"
 4291              		.file 10 "src/printer.h"
 4292              		.file 11 "src/stats.h"
 4293              		.file 12 "src/display.h"
 4294              		.file 13 "src/storage.h"
 4295              		.file 14 "src/lcd.h"
 4296              		.file 15 "src/complex.h"
 4297              		.file 16 "src/decn.h"
 4298              		.file 17 "<built-in>"
ARM GAS  /tmp/cc3WwB9H.s 			page 107


DEFINED SYMBOLS
                            *ABS*:0000000000000000 printer.c
     /tmp/cc3WwB9H.s:18     .text.buffer_width:0000000000000000 $t
     /tmp/cc3WwB9H.s:26     .text.buffer_width:0000000000000000 buffer_width
     /tmp/cc3WwB9H.s:127    .text.buffer_width:0000000000000048 $d
     /tmp/cc3WwB9H.s:132    .text.put_ir.part.0:0000000000000000 $t
     /tmp/cc3WwB9H.s:139    .text.put_ir.part.0:0000000000000000 put_ir.part.0
     /tmp/cc3WwB9H.s:157    .text.put_ir.part.0:0000000000000008 $d
     /tmp/cc3WwB9H.s:162    .text.prepare_new_line:0000000000000000 $t
     /tmp/cc3WwB9H.s:170    .text.prepare_new_line:0000000000000000 prepare_new_line
     /tmp/cc3WwB9H.s:273    .text.prepare_new_line:0000000000000060 $d
     /tmp/cc3WwB9H.s:283    .text.put_ir:0000000000000000 $t
     /tmp/cc3WwB9H.s:291    .text.put_ir:0000000000000000 put_ir
     /tmp/cc3WwB9H.s:315    .text.put_ir:0000000000000014 $d
     /tmp/cc3WwB9H.s:320    .text.print:0000000000000000 $t
     /tmp/cc3WwB9H.s:328    .text.print:0000000000000000 print
     /tmp/cc3WwB9H.s:409    .text.print:0000000000000034 $d
     /tmp/cc3WwB9H.s:416    .text.print_advance:0000000000000000 $t
     /tmp/cc3WwB9H.s:424    .text.print_advance:0000000000000000 print_advance
     /tmp/cc3WwB9H.s:500    .text.print_advance:0000000000000040 $d
                            *COM*:0000000000000004 PrinterColumn
     /tmp/cc3WwB9H.s:506    .text.wrap:0000000000000000 $t
     /tmp/cc3WwB9H.s:513    .text.wrap:0000000000000000 wrap
     /tmp/cc3WwB9H.s:567    .text.wrap:0000000000000028 $d
     /tmp/cc3WwB9H.s:572    .text.advance_if_trace.part.0:0000000000000000 $t
     /tmp/cc3WwB9H.s:579    .text.advance_if_trace.part.0:0000000000000000 advance_if_trace.part.0
     /tmp/cc3WwB9H.s:600    .text.advance_if_trace.part.0:0000000000000010 $d
     /tmp/cc3WwB9H.s:605    .text.print_tab:0000000000000000 $t
     /tmp/cc3WwB9H.s:613    .text.print_tab:0000000000000000 print_tab
     /tmp/cc3WwB9H.s:829    .text.print_tab:00000000000000ac $d
     /tmp/cc3WwB9H.s:839    .text.print_graphic:0000000000000000 $t
     /tmp/cc3WwB9H.s:847    .text.print_graphic:0000000000000000 print_graphic
     /tmp/cc3WwB9H.s:974    .text.print_graphic:0000000000000060 $d
     /tmp/cc3WwB9H.s:983    .text.print_line:0000000000000000 $t
     /tmp/cc3WwB9H.s:991    .text.print_line:0000000000000000 print_line
     /tmp/cc3WwB9H.s:1605   .text.print_line:00000000000002b4 $d
     /tmp/cc3WwB9H.s:1613   .text.print_justified:0000000000000000 $t
     /tmp/cc3WwB9H.s:1621   .text.print_justified:0000000000000000 print_justified
     /tmp/cc3WwB9H.s:1710   .text.print_justified:0000000000000050 $d
     /tmp/cc3WwB9H.s:1715   .rodata.print_reg_cmplx.part.0.str1.4:0000000000000000 $d
     /tmp/cc3WwB9H.s:1737   .text.print_reg_cmplx.part.0:0000000000000000 $t
     /tmp/cc3WwB9H.s:1744   .text.print_reg_cmplx.part.0:0000000000000000 print_reg_cmplx.part.0
     /tmp/cc3WwB9H.s:2131   .text.print_reg_cmplx.part.0:0000000000000190 $d
     /tmp/cc3WwB9H.s:2143   .text.print_reg:0000000000000000 $t
     /tmp/cc3WwB9H.s:2151   .text.print_reg:0000000000000000 print_reg
     /tmp/cc3WwB9H.s:2219   .text.print_reg:000000000000003c $d
     /tmp/cc3WwB9H.s:2224   .text.print_sigma:0000000000000000 $t
     /tmp/cc3WwB9H.s:2232   .text.print_sigma:0000000000000000 print_sigma
     /tmp/cc3WwB9H.s:2368   .text.print_sigma:0000000000000060 $d
     /tmp/cc3WwB9H.s:2378   .text.print_alpha:0000000000000000 $t
     /tmp/cc3WwB9H.s:2386   .text.print_alpha:0000000000000000 print_alpha
     /tmp/cc3WwB9H.s:2468   .text.print_alpha:0000000000000044 $d
     /tmp/cc3WwB9H.s:2474   .text.print_lf:0000000000000000 $t
     /tmp/cc3WwB9H.s:2482   .text.print_lf:0000000000000000 print_lf
     /tmp/cc3WwB9H.s:2536   .text.print_lf:0000000000000024 $d
     /tmp/cc3WwB9H.s:2542   .text.cmdprint:0000000000000000 $t
     /tmp/cc3WwB9H.s:2550   .text.cmdprint:0000000000000000 cmdprint
ARM GAS  /tmp/cc3WwB9H.s 			page 108


     /tmp/cc3WwB9H.s:2655   .text.cmdprint:0000000000000054 $d
     /tmp/cc3WwB9H.s:2660   .text.print_reg_cmplx:0000000000000000 $t
     /tmp/cc3WwB9H.s:2668   .text.print_reg_cmplx:0000000000000000 print_reg_cmplx
     /tmp/cc3WwB9H.s:2756   .text.print_reg_cmplx:0000000000000034 $d
     /tmp/cc3WwB9H.s:2762   .text.cmdprintreg:0000000000000000 $t
     /tmp/cc3WwB9H.s:2770   .text.cmdprintreg:0000000000000000 cmdprintreg
     /tmp/cc3WwB9H.s:2836   .text.cmdprintreg:0000000000000044 $d
     /tmp/cc3WwB9H.s:2842   .text.cmdprintcmplxreg:0000000000000000 $t
     /tmp/cc3WwB9H.s:2850   .text.cmdprintcmplxreg:0000000000000000 cmdprintcmplxreg
     /tmp/cc3WwB9H.s:2878   .text.cmdprintcmplxreg:0000000000000018 $d
     /tmp/cc3WwB9H.s:2883   .rodata.print_registers_cmplx.str1.4:0000000000000000 $d
     /tmp/cc3WwB9H.s:2890   .text.print_registers_cmplx:0000000000000000 $t
     /tmp/cc3WwB9H.s:2898   .text.print_registers_cmplx:0000000000000000 print_registers_cmplx
     /tmp/cc3WwB9H.s:3160   .text.print_registers_cmplx:00000000000000f8 $d
     /tmp/cc3WwB9H.s:3169   .rodata.print_registers.str1.4:0000000000000000 $d
     /tmp/cc3WwB9H.s:3179   .text.print_registers:0000000000000000 $t
     /tmp/cc3WwB9H.s:3187   .text.print_registers:0000000000000000 print_registers
     /tmp/cc3WwB9H.s:3487   .text.print_registers:0000000000000124 $d
     /tmp/cc3WwB9H.s:3499   .text.cmdprintwidth:0000000000000000 $t
     /tmp/cc3WwB9H.s:3507   .text.cmdprintwidth:0000000000000000 cmdprintwidth
     /tmp/cc3WwB9H.s:3541   .text.cmdprintwidth:000000000000001c $d
     /tmp/cc3WwB9H.s:3546   .text.print_on_off:0000000000000000 $t
     /tmp/cc3WwB9H.s:3554   .text.print_on_off:0000000000000000 print_on_off
     /tmp/cc3WwB9H.s:3594   .text.print_on_off:0000000000000030 $d
     /tmp/cc3WwB9H.s:3599   .text.cmdprintmode:0000000000000000 $t
     /tmp/cc3WwB9H.s:3607   .text.cmdprintmode:0000000000000000 cmdprintmode
     /tmp/cc3WwB9H.s:3660   .text.cmdprintmode:000000000000003c $d
     /tmp/cc3WwB9H.s:3666   .rodata.print_trace.str1.4:0000000000000000 $d
     /tmp/cc3WwB9H.s:3679   .text.print_trace:0000000000000000 $t
     /tmp/cc3WwB9H.s:3687   .text.print_trace:0000000000000000 print_trace
     /tmp/cc3WwB9H.s:3982   .text.print_trace:000000000000013c $d
     /tmp/cc3WwB9H.s:3995   .text.print_program:0000000000000000 $t
     /tmp/cc3WwB9H.s:4003   .text.print_program:0000000000000000 print_program
     /tmp/cc3WwB9H.s:4247   .text.print_program:00000000000000e0 $d
     /tmp/cc3WwB9H.s:4257   .rodata:0000000000000000 $d
     /tmp/cc3WwB9H.s:4274   .rodata.ops.9082:0000000000000000 $d
     /tmp/cc3WwB9H.s:4278   .rodata.ops.9082:0000000000000000 ops.9082

UNDEFINED SYMBOLS
charlengths
main_ram
finish_PRT
Tracing
memcpy
findlengths
unpackchar
slen
pixel_length
xset
scopy
getRegister
set_x_dn
find_char
cmplxToPolar
cvt_rad2
decNumberCopy
format_reg
ARM GAS  /tmp/cc3WwB9H.s 			page 109


copyreg
sigma_val
prt
StackBase
bad_mode_error
StateWhileOn
reg_decode
num_arg_0
stack_size
error_message
setX_int_sgn
process_cmdline
Running
do_inc
getprog
user_pc
PcWrapped
