ARM GAS  /tmp/ccZqGyHG.s 			page 1


   1              		.arch armv7e-m
   2              		.eabi_attribute 27, 1
   3              		.eabi_attribute 28, 1
   4              		.eabi_attribute 20, 1
   5              		.eabi_attribute 21, 1
   6              		.eabi_attribute 23, 3
   7              		.eabi_attribute 24, 1
   8              		.eabi_attribute 25, 1
   9              		.eabi_attribute 26, 1
  10              		.eabi_attribute 30, 2
  11              		.eabi_attribute 34, 1
  12              		.eabi_attribute 18, 4
  13              		.file	"printer.c"
  14              		.text
  15              	.Ltext0:
  16              		.cfi_sections	.debug_frame
  17              		.section	.text.buffer_width,"ax",%progbits
  18              		.align	1
  19              		.p2align 2,,3
  20              		.arch armv7e-m
  21              		.syntax unified
  22              		.thumb
  23              		.thumb_func
  24              		.fpu fpv4-sp-d16
  26              	buffer_width:
  27              	.LVL0:
  28              	.LFB8:
  29              		.file 1 "src/printer.c"
   1:src/printer.c **** /* This file is part of 34S.
   2:src/printer.c ****  *
   3:src/printer.c ****  * 34S is free software: you can redistribute it and/or modify
   4:src/printer.c ****  * it under the terms of the GNU General Public License as published by
   5:src/printer.c ****  * the Free Software Foundation, either version 3 of the License, or
   6:src/printer.c ****  * (at your option) any later version.
   7:src/printer.c ****  *
   8:src/printer.c ****  * 34S is distributed in the hope that it will be useful,
   9:src/printer.c ****  * but WITHOUT ANY WARRANTY; without even the implied warranty of
  10:src/printer.c ****  * MERCHANTABILITY or FITNESS FOR A PARTICULAR PURPOSE.  See the
  11:src/printer.c ****  * GNU General Public License for more details.
  12:src/printer.c ****  *
  13:src/printer.c ****  * You should have received a copy of the GNU General Public License
  14:src/printer.c ****  * along with 34S.  If not, see <http://www.gnu.org/licenses/>.
  15:src/printer.c ****  */
  16:src/printer.c **** 
  17:src/printer.c **** 
  18:src/printer.c **** 
  19:src/printer.c **** #include "dmcp.h"
  20:src/printer.c **** 
  21:src/printer.c **** #define DM42SAFE
  22:src/printer.c **** 
  23:src/printer.c **** #include "printer.h"
  24:src/printer.c **** #include "xeq.h"
  25:src/printer.c **** #include "stats.h"
  26:src/printer.c **** #include "display.h"
  27:src/printer.c **** #include "complex.h"
  28:src/printer.c **** #include "storage.h"
  29:src/printer.c **** #undef DM42SAFE
ARM GAS  /tmp/ccZqGyHG.s 			page 2


  30:src/printer.c **** 
  31:src/printer.c **** #ifdef INFRARED
  32:src/printer.c **** 
  33:src/printer.c **** #define RETURN_IF_PRINT_OFF if (!UState.print_on) return
  34:src/printer.c **** /*
  35:src/printer.c **** void goto_new_line(void) {
  36:src/printer.c ****   print('\n');
  37:src/printer.c ****   prepare_new_line();
  38:src/printer.c **** }
  39:src/printer.c **** */
  40:src/printer.c **** 
  41:src/printer.c **** void prepare_new_line(void) {
  42:src/printer.c ****   int i = 0;
  43:src/printer.c ****   printer_advance_buf(PRINT_GRA_LN);
  44:src/printer.c ****   while ( printer_busy_for (PRINT_GRA_LN) && i<50 ) { // return after 5.0s anyway 
  45:src/printer.c ****     sys_timer_start(0, 100);  // Timer 0: wake up for heartbeat 
  46:src/printer.c ****     sys_sleep();
  47:src/printer.c ****     i++;
  48:src/printer.c ****   }
  49:src/printer.c **** }
  50:src/printer.c **** 
  51:src/printer.c **** void put_ir( int byte ) {
  52:src/printer.c ****   if (UState.print_on) print_byte( (uint8_t) byte);
  53:src/printer.c **** }
  54:src/printer.c **** 
  55:src/printer.c **** /*
  56:src/printer.c ****  *  Where will the next data be printed?
  57:src/printer.c ****  *  Columns are in pixel units from 0 to 165
  58:src/printer.c ****  */
  59:src/printer.c **** unsigned int PrinterColumn;
  60:src/printer.c **** 
  61:src/printer.c **** /*
  62:src/printer.c ****  *  Print to IR or serial port, depending on the PMODE setting. FINE.
  63:src/printer.c ****  */
  64:src/printer.c **** void print( int c ) { // prints a single character
  65:src/printer.c ****   const int mode = UState.print_mode;
  66:src/printer.c ****   // Serial mode code removed for DM42
  67:src/printer.c ****   if ( c == '\n' && ( mode == PMODE_GRAPHICS || mode == PMODE_SMALLGRAPHICS ) ) {
  68:src/printer.c ****     // better LF for graphics printing
  69:src/printer.c ****     put_ir( 0x04 );
  70:src/printer.c ****     return;
  71:src/printer.c ****   }
  72:src/printer.c ****   put_ir( c );
  73:src/printer.c **** }
  74:src/printer.c **** 
  75:src/printer.c **** 
  76:src/printer.c **** /*
  77:src/printer.c ****  *  New line
  78:src/printer.c ****  */
  79:src/printer.c **** void print_advance( int mode ) {
  80:src/printer.c ****   PrinterColumn = 0;
  81:src/printer.c ****   print( mode ? 0x04 : '\n' );
  82:src/printer.c ****   if (UState.print_blank_line) print( mode ? 0x04 : '\n' ); 
  83:src/printer.c ****   prepare_new_line();
  84:src/printer.c **** }
  85:src/printer.c **** 
  86:src/printer.c **** 
ARM GAS  /tmp/ccZqGyHG.s 			page 3


  87:src/printer.c **** /*
  88:src/printer.c ****  *  New line if tracing is active
  89:src/printer.c ****  */
  90:src/printer.c **** static void advance_if_trace()
  91:src/printer.c **** {
  92:src/printer.c ****   if ( PrinterColumn != 0 && Tracing ) {
  93:src/printer.c ****     print_advance( 0 );
  94:src/printer.c ****   }
  95:src/printer.c **** }
  96:src/printer.c **** 
  97:src/printer.c **** 
  98:src/printer.c **** /*
  99:src/printer.c ****  *  Move to column
 100:src/printer.c ****  */
 101:src/printer.c **** void print_tab( unsigned int col ) // pixel-aligned column
 102:src/printer.c **** {
 103:src/printer.c ****   if ( PrinterColumn > col ) {
 104:src/printer.c ****     print_advance( 0 );
 105:src/printer.c ****   }
 106:src/printer.c ****   if ( PrinterColumn < col ) {
 107:src/printer.c ****     int i = col - PrinterColumn;
 108:src/printer.c ****     int j = i / 7;
 109:src/printer.c ****     i %= 7;
 110:src/printer.c ****     PrinterColumn = col;
 111:src/printer.c ****     if ( i ) {
 112:src/printer.c ****       put_ir( 27 );
 113:src/printer.c ****       put_ir( i );
 114:src/printer.c ****       while ( i-- )
 115:src/printer.c **** 	put_ir( 0 );
 116:src/printer.c ****     }
 117:src/printer.c ****     while ( j-- )
 118:src/printer.c ****       put_ir( ' ' );
 119:src/printer.c ****   }
 120:src/printer.c **** }
 121:src/printer.c **** 
 122:src/printer.c **** 
 123:src/printer.c **** /* Print a buffer from the given tab position and add a new line
 124:src/printer.c ****  */
 125:src/printer.c **** static void print_string_from_tab(const char *s, int tab)
 126:src/printer.c **** {
 127:src/printer.c ****   print_tab(tab);
 128:src/printer.c ****   print_line(s, 1);
 129:src/printer.c **** }
 130:src/printer.c **** 
 131:src/printer.c **** 
 132:src/printer.c **** /*
 133:src/printer.c ****  *  Print a graphic sequence
 134:src/printer.c ****  */
 135:src/printer.c **** void print_graphic( int glen, const unsigned char *graphic ) {
 136:src/printer.c ****   if ( glen > 0 ) {
 137:src/printer.c ****     put_ir( 27 );
 138:src/printer.c ****     put_ir( glen );
 139:src/printer.c ****     while ( glen-- ) {
 140:src/printer.c ****       put_ir( *graphic++ );
 141:src/printer.c ****     }
 142:src/printer.c ****   }
 143:src/printer.c **** }
ARM GAS  /tmp/ccZqGyHG.s 			page 4


 144:src/printer.c **** 
 145:src/printer.c **** 
 146:src/printer.c **** /*
 147:src/printer.c ****  *  Determine the length of a string in printer pixels based on the current mode.
 148:src/printer.c ****  */
 149:src/printer.c **** static int buffer_width(const char *buff)
 150:src/printer.c **** {
  30              		.loc 1 150 1 view -0
  31              		.cfi_startproc
  32              		@ args = 0, pretend = 0, frame = 0
  33              		@ frame_needed = 0, uses_anonymous_args = 0
 151:src/printer.c ****   const int mode = UState.print_mode;
  34              		.loc 1 151 3 view .LVU1
 150:src/printer.c ****   const int mode = UState.print_mode;
  35              		.loc 1 150 1 is_stmt 0 view .LVU2
  36 0000 70B5     		push	{r4, r5, r6, lr}
  37              		.cfi_def_cfa_offset 16
  38              		.cfi_offset 4, -16
  39              		.cfi_offset 5, -12
  40              		.cfi_offset 6, -8
  41              		.cfi_offset 14, -4
  42              		.loc 1 151 26 view .LVU3
  43 0002 114B     		ldr	r3, .L15
 152:src/printer.c ****   unsigned int c;
 153:src/printer.c ****   int l = 0;
 154:src/printer.c **** 
 155:src/printer.c ****   while ((c = 0xff & *buff++) != '\0') {
  44              		.loc 1 155 27 view .LVU4
  45 0004 0446     		mov	r4, r0
 151:src/printer.c ****   unsigned int c;
  46              		.loc 1 151 26 view .LVU5
  47 0006 1B68     		ldr	r3, [r3]
  48              		.loc 1 155 13 view .LVU6
  49 0008 14F8010B 		ldrb	r0, [r4], #1	@ zero_extendqisi2
  50              	.LVL1:
 151:src/printer.c ****   unsigned int c;
  51              		.loc 1 151 26 view .LVU7
  52 000c 93F8EA57 		ldrb	r5, [r3, #2026]	@ zero_extendqisi2
  53              	.LVL2:
 152:src/printer.c ****   unsigned int c;
  54              		.loc 1 152 3 is_stmt 1 view .LVU8
 153:src/printer.c **** 
  55              		.loc 1 153 3 view .LVU9
  56              		.loc 1 155 3 view .LVU10
  57              		.loc 1 155 9 view .LVU11
  58              		.loc 1 155 9 is_stmt 0 view .LVU12
  59 0010 B0B1     		cbz	r0, .L7
  60 0012 05F00305 		and	r5, r5, #3
  61              	.LVL3:
 153:src/printer.c **** 
  62              		.loc 1 153 7 view .LVU13
  63 0016 0026     		movs	r6, #0
  64 0018 03E0     		b	.L6
  65              	.LVL4:
  66              	.L14:
  67              		.loc 1 155 13 view .LVU14
  68 001a 14F8010B 		ldrb	r0, [r4], #1	@ zero_extendqisi2
ARM GAS  /tmp/ccZqGyHG.s 			page 5


  69              	.LVL5:
 156:src/printer.c ****     switch (mode) {
 157:src/printer.c ****     default:
 158:src/printer.c ****       l += 7;
  70              		.loc 1 158 9 view .LVU15
  71 001e 0736     		adds	r6, r6, #7
  72              	.LVL6:
 159:src/printer.c ****       break;
  73              		.loc 1 159 7 is_stmt 1 view .LVU16
 155:src/printer.c ****     switch (mode) {
  74              		.loc 1 155 9 view .LVU17
 155:src/printer.c ****     switch (mode) {
  75              		.loc 1 155 9 is_stmt 0 view .LVU18
  76 0020 60B1     		cbz	r0, .L1
  77              	.LVL7:
  78              	.L6:
 156:src/printer.c ****     switch (mode) {
  79              		.loc 1 156 5 is_stmt 1 view .LVU19
  80 0022 012D     		cmp	r5, #1
  81 0024 03D0     		beq	.L3
 158:src/printer.c ****       break;
  82              		.loc 1 158 7 view .LVU20
 160:src/printer.c **** 
 161:src/printer.c ****     case PMODE_SMALLGRAPHICS:
 162:src/printer.c ****       c += 256;
  83              		.loc 1 162 7 view .LVU21
 156:src/printer.c ****     default:
  84              		.loc 1 156 5 is_stmt 0 view .LVU22
  85 0026 022D     		cmp	r5, #2
  86 0028 F7D1     		bne	.L14
  87              		.loc 1 162 9 view .LVU23
  88 002a 00F58070 		add	r0, r0, #256
  89              	.LVL8:
  90              	.L3:
 163:src/printer.c ****     case PMODE_GRAPHICS:
 164:src/printer.c ****       l += charlengths(c);
  91              		.loc 1 164 7 is_stmt 1 view .LVU24
  92              		.loc 1 164 12 is_stmt 0 view .LVU25
  93 002e FFF7FEFF 		bl	charlengths
  94              	.LVL9:
  95              		.loc 1 164 9 view .LVU26
  96 0032 0644     		add	r6, r6, r0
  97              	.LVL10:
 165:src/printer.c ****       break;
  98              		.loc 1 165 7 is_stmt 1 view .LVU27
 155:src/printer.c ****     switch (mode) {
  99              		.loc 1 155 9 view .LVU28
 155:src/printer.c ****     switch (mode) {
 100              		.loc 1 155 13 is_stmt 0 view .LVU29
 101 0034 14F8010B 		ldrb	r0, [r4], #1	@ zero_extendqisi2
 102              	.LVL11:
 155:src/printer.c ****     switch (mode) {
 103              		.loc 1 155 9 view .LVU30
 104 0038 0028     		cmp	r0, #0
 105 003a F2D1     		bne	.L6
 106              	.LVL12:
 107              	.L1:
ARM GAS  /tmp/ccZqGyHG.s 			page 6


 166:src/printer.c ****     }
 167:src/printer.c ****   }
 168:src/printer.c ****   return l;
 169:src/printer.c **** }
 108              		.loc 1 169 1 view .LVU31
 109 003c 3046     		mov	r0, r6
 110              	.LVL13:
 111              		.loc 1 169 1 view .LVU32
 112 003e 70BD     		pop	{r4, r5, r6, pc}
 113              	.LVL14:
 114              	.L7:
 153:src/printer.c **** 
 115              		.loc 1 153 7 view .LVU33
 116 0040 0646     		mov	r6, r0
 168:src/printer.c **** }
 117              		.loc 1 168 3 is_stmt 1 view .LVU34
 118              		.loc 1 169 1 is_stmt 0 view .LVU35
 119 0042 3046     		mov	r0, r6
 120              		.loc 1 169 1 view .LVU36
 121 0044 70BD     		pop	{r4, r5, r6, pc}
 122              	.LVL15:
 123              	.L16:
 124              		.loc 1 169 1 view .LVU37
 125 0046 00BF     		.align	2
 126              	.L15:
 127 0048 00000000 		.word	main_ram
 128              		.cfi_endproc
 129              	.LFE8:
 131              		.section	.text.put_ir.part.0,"ax",%progbits
 132              		.align	1
 133              		.p2align 2,,3
 134              		.syntax unified
 135              		.thumb
 136              		.thumb_func
 137              		.fpu fpv4-sp-d16
 139              	put_ir.part.0:
 140              	.LVL16:
 141              	.LFB25:
  51:src/printer.c ****   if (UState.print_on) print_byte( (uint8_t) byte);
 142              		.loc 1 51 6 is_stmt 1 view -0
 143              		.cfi_startproc
 144              		@ args = 0, pretend = 0, frame = 0
 145              		@ frame_needed = 0, uses_anonymous_args = 0
 146              		@ link register save eliminated.
  52:src/printer.c **** }
 147              		.loc 1 52 24 view .LVU39
 148 0000 014B     		ldr	r3, .L18
 149 0002 C0B2     		uxtb	r0, r0
 150              	.LVL17:
  52:src/printer.c **** }
 151              		.loc 1 52 24 is_stmt 0 view .LVU40
 152 0004 1847     		bx	r3	@ indirect register sibling call
 153              	.LVL18:
 154              	.L19:
 155 0006 00BF     		.align	2
 156              	.L18:
 157 0008 2D030008 		.word	134218541
ARM GAS  /tmp/ccZqGyHG.s 			page 7


 158              		.cfi_endproc
 159              	.LFE25:
 161              		.section	.text.prepare_new_line,"ax",%progbits
 162              		.align	1
 163              		.p2align 2,,3
 164              		.global	prepare_new_line
 165              		.syntax unified
 166              		.thumb
 167              		.thumb_func
 168              		.fpu fpv4-sp-d16
 170              	prepare_new_line:
 171              	.LFB0:
  41:src/printer.c ****   int i = 0;
 172              		.loc 1 41 29 is_stmt 1 view -0
 173              		.cfi_startproc
 174              		@ args = 0, pretend = 0, frame = 0
 175              		@ frame_needed = 0, uses_anonymous_args = 0
  42:src/printer.c ****   printer_advance_buf(PRINT_GRA_LN);
 176              		.loc 1 42 3 view .LVU42
 177              	.LVL19:
  43:src/printer.c ****   while ( printer_busy_for (PRINT_GRA_LN) && i<50 ) { // return after 5.0s anyway 
 178              		.loc 1 43 3 view .LVU43
  41:src/printer.c ****   int i = 0;
 179              		.loc 1 41 29 is_stmt 0 view .LVU44
 180 0000 F8B5     		push	{r3, r4, r5, r6, r7, lr}
 181              		.cfi_def_cfa_offset 24
 182              		.cfi_offset 3, -24
 183              		.cfi_offset 4, -20
 184              		.cfi_offset 5, -16
 185              		.cfi_offset 6, -12
 186              		.cfi_offset 7, -8
 187              		.cfi_offset 14, -4
  43:src/printer.c ****   while ( printer_busy_for (PRINT_GRA_LN) && i<50 ) { // return after 5.0s anyway 
 188              		.loc 1 43 3 view .LVU45
 189 0002 0120     		movs	r0, #1
 190 0004 094B     		ldr	r3, .L29
  44:src/printer.c ****     sys_timer_start(0, 100);  // Timer 0: wake up for heartbeat 
 191              		.loc 1 44 11 view .LVU46
 192 0006 0A4D     		ldr	r5, .L29+4
  45:src/printer.c ****     sys_sleep();
 193              		.loc 1 45 5 view .LVU47
 194 0008 0A4F     		ldr	r7, .L29+8
  46:src/printer.c ****     i++;
 195              		.loc 1 46 5 view .LVU48
 196 000a 0B4E     		ldr	r6, .L29+12
  43:src/printer.c ****   while ( printer_busy_for (PRINT_GRA_LN) && i<50 ) { // return after 5.0s anyway 
 197              		.loc 1 43 3 view .LVU49
 198 000c 9847     		blx	r3
 199              	.LVL20:
  44:src/printer.c ****     sys_timer_start(0, 100);  // Timer 0: wake up for heartbeat 
 200              		.loc 1 44 3 is_stmt 1 view .LVU50
  44:src/printer.c ****     sys_timer_start(0, 100);  // Timer 0: wake up for heartbeat 
 201              		.loc 1 44 9 is_stmt 0 view .LVU51
 202 000e 3324     		movs	r4, #51
 203 0010 03E0     		b	.L21
 204              	.LVL21:
 205              	.L28:
ARM GAS  /tmp/ccZqGyHG.s 			page 8


  44:src/printer.c ****     sys_timer_start(0, 100);  // Timer 0: wake up for heartbeat 
 206              		.loc 1 44 43 discriminator 1 view .LVU52
 207 0012 013C     		subs	r4, r4, #1
 208              	.LVL22:
  44:src/printer.c ****     sys_timer_start(0, 100);  // Timer 0: wake up for heartbeat 
 209              		.loc 1 44 43 discriminator 1 view .LVU53
 210 0014 08D0     		beq	.L20
  45:src/printer.c ****     sys_sleep();
 211              		.loc 1 45 5 view .LVU54
 212 0016 B847     		blx	r7
 213              	.LVL23:
  46:src/printer.c ****     i++;
 214              		.loc 1 46 5 is_stmt 1 view .LVU55
 215 0018 B047     		blx	r6
 216              	.LVL24:
  47:src/printer.c ****   }
 217              		.loc 1 47 5 view .LVU56
 218              	.L21:
  44:src/printer.c ****     sys_timer_start(0, 100);  // Timer 0: wake up for heartbeat 
 219              		.loc 1 44 9 view .LVU57
  44:src/printer.c ****     sys_timer_start(0, 100);  // Timer 0: wake up for heartbeat 
 220              		.loc 1 44 11 is_stmt 0 view .LVU58
 221 001a 0120     		movs	r0, #1
 222 001c A847     		blx	r5
 223              	.LVL25:
  45:src/printer.c ****     sys_sleep();
 224              		.loc 1 45 5 is_stmt 1 view .LVU59
  44:src/printer.c ****     sys_timer_start(0, 100);  // Timer 0: wake up for heartbeat 
 225              		.loc 1 44 11 is_stmt 0 view .LVU60
 226 001e 0346     		mov	r3, r0
  45:src/printer.c ****     sys_sleep();
 227              		.loc 1 45 5 view .LVU61
 228 0020 6421     		movs	r1, #100
 229 0022 0020     		movs	r0, #0
  44:src/printer.c ****     sys_timer_start(0, 100);  // Timer 0: wake up for heartbeat 
 230              		.loc 1 44 9 view .LVU62
 231 0024 002B     		cmp	r3, #0
 232 0026 F4D1     		bne	.L28
 233              	.LVL26:
 234              	.L20:
  49:src/printer.c **** 
 235              		.loc 1 49 1 view .LVU63
 236 0028 F8BD     		pop	{r3, r4, r5, r6, r7, pc}
 237              	.L30:
 238 002a 00BF     		.align	2
 239              	.L29:
 240 002c 39030008 		.word	134218553
 241 0030 3D030008 		.word	134218557
 242 0034 F9030008 		.word	134218745
 243 0038 19040008 		.word	134218777
 244              		.cfi_endproc
 245              	.LFE0:
 247              		.section	.text.put_ir,"ax",%progbits
 248              		.align	1
 249              		.p2align 2,,3
 250              		.global	put_ir
 251              		.syntax unified
ARM GAS  /tmp/ccZqGyHG.s 			page 9


 252              		.thumb
 253              		.thumb_func
 254              		.fpu fpv4-sp-d16
 256              	put_ir:
 257              	.LVL27:
 258              	.LFB1:
  51:src/printer.c ****   if (UState.print_on) print_byte( (uint8_t) byte);
 259              		.loc 1 51 25 is_stmt 1 view -0
 260              		.cfi_startproc
 261              		@ args = 0, pretend = 0, frame = 0
 262              		@ frame_needed = 0, uses_anonymous_args = 0
 263              		@ link register save eliminated.
  52:src/printer.c **** }
 264              		.loc 1 52 3 view .LVU65
  52:src/printer.c **** }
 265              		.loc 1 52 7 is_stmt 0 view .LVU66
 266 0000 044B     		ldr	r3, .L33
 267 0002 1B68     		ldr	r3, [r3]
 268 0004 93F8E437 		ldrb	r3, [r3, #2020]	@ zero_extendqisi2
  52:src/printer.c **** }
 269              		.loc 1 52 6 view .LVU67
 270 0008 DB07     		lsls	r3, r3, #31
 271 000a 01D5     		bpl	.L31
 272 000c FFF7FEBF 		b	put_ir.part.0
 273              	.LVL28:
 274              	.L31:
  53:src/printer.c **** 
 275              		.loc 1 53 1 view .LVU68
 276 0010 7047     		bx	lr
 277              	.L34:
 278 0012 00BF     		.align	2
 279              	.L33:
 280 0014 00000000 		.word	main_ram
 281              		.cfi_endproc
 282              	.LFE1:
 284              		.section	.text.print,"ax",%progbits
 285              		.align	1
 286              		.p2align 2,,3
 287              		.global	print
 288              		.syntax unified
 289              		.thumb
 290              		.thumb_func
 291              		.fpu fpv4-sp-d16
 293              	print:
 294              	.LVL29:
 295              	.LFB2:
  64:src/printer.c ****   const int mode = UState.print_mode;
 296              		.loc 1 64 21 is_stmt 1 view -0
 297              		.cfi_startproc
 298              		@ args = 0, pretend = 0, frame = 0
 299              		@ frame_needed = 0, uses_anonymous_args = 0
 300              		@ link register save eliminated.
  65:src/printer.c ****   // Serial mode code removed for DM42
 301              		.loc 1 65 3 view .LVU70
  65:src/printer.c ****   // Serial mode code removed for DM42
 302              		.loc 1 65 20 is_stmt 0 view .LVU71
 303 0000 0C4B     		ldr	r3, .L46
ARM GAS  /tmp/ccZqGyHG.s 			page 10


  67:src/printer.c ****     // better LF for graphics printing
 304              		.loc 1 67 6 view .LVU72
 305 0002 0A28     		cmp	r0, #10
  65:src/printer.c ****   // Serial mode code removed for DM42
 306              		.loc 1 65 20 view .LVU73
 307 0004 1B68     		ldr	r3, [r3]
 308              	.LVL30:
  67:src/printer.c ****     // better LF for graphics printing
 309              		.loc 1 67 3 is_stmt 1 view .LVU74
  67:src/printer.c ****     // better LF for graphics printing
 310              		.loc 1 67 6 is_stmt 0 view .LVU75
 311 0006 05D0     		beq	.L44
 312              	.L36:
  72:src/printer.c **** }
 313              		.loc 1 72 3 is_stmt 1 view .LVU76
 314              	.LVL31:
 315              	.LBB48:
 316              	.LBI48:
  51:src/printer.c ****   if (UState.print_on) print_byte( (uint8_t) byte);
 317              		.loc 1 51 6 view .LVU77
 318              	.LBB49:
  52:src/printer.c **** }
 319              		.loc 1 52 3 view .LVU78
  52:src/printer.c **** }
 320              		.loc 1 52 7 is_stmt 0 view .LVU79
 321 0008 93F8E437 		ldrb	r3, [r3, #2020]	@ zero_extendqisi2
 322              	.LVL32:
  52:src/printer.c **** }
 323              		.loc 1 52 6 view .LVU80
 324 000c DB07     		lsls	r3, r3, #31
 325 000e 0CD5     		bpl	.L35
 326 0010 FFF7FEBF 		b	put_ir.part.0
 327              	.LVL33:
 328              	.L44:
  52:src/printer.c **** }
 329              		.loc 1 52 6 view .LVU81
 330              	.LBE49:
 331              	.LBE48:
  65:src/printer.c ****   // Serial mode code removed for DM42
 332              		.loc 1 65 26 discriminator 1 view .LVU82
 333 0014 93F8EA27 		ldrb	r2, [r3, #2026]	@ zero_extendqisi2
  67:src/printer.c ****     // better LF for graphics printing
 334              		.loc 1 67 46 discriminator 1 view .LVU83
 335 0018 02F00302 		and	r2, r2, #3
 336 001c 013A     		subs	r2, r2, #1
  67:src/printer.c ****     // better LF for graphics printing
 337              		.loc 1 67 18 discriminator 1 view .LVU84
 338 001e 012A     		cmp	r2, #1
 339 0020 F2D8     		bhi	.L36
  69:src/printer.c ****     return;
 340              		.loc 1 69 5 is_stmt 1 view .LVU85
 341              	.LVL34:
 342              	.LBB50:
 343              	.LBI50:
  51:src/printer.c ****   if (UState.print_on) print_byte( (uint8_t) byte);
 344              		.loc 1 51 6 view .LVU86
 345              	.LBB51:
ARM GAS  /tmp/ccZqGyHG.s 			page 11


  52:src/printer.c **** }
 346              		.loc 1 52 3 view .LVU87
  52:src/printer.c **** }
 347              		.loc 1 52 7 is_stmt 0 view .LVU88
 348 0022 93F8E437 		ldrb	r3, [r3, #2020]	@ zero_extendqisi2
 349              	.LVL35:
  52:src/printer.c **** }
 350              		.loc 1 52 6 view .LVU89
 351 0026 DA07     		lsls	r2, r3, #31
 352 0028 00D4     		bmi	.L45
 353              	.LVL36:
 354              	.L35:
  52:src/printer.c **** }
 355              		.loc 1 52 6 view .LVU90
 356              	.LBE51:
 357              	.LBE50:
  73:src/printer.c **** 
 358              		.loc 1 73 1 view .LVU91
 359 002a 7047     		bx	lr
 360              	.LVL37:
 361              	.L45:
 362              	.LBB53:
 363              	.LBB52:
  73:src/printer.c **** 
 364              		.loc 1 73 1 view .LVU92
 365 002c 0420     		movs	r0, #4
 366              	.LVL38:
  73:src/printer.c **** 
 367              		.loc 1 73 1 view .LVU93
 368 002e FFF7FEBF 		b	put_ir.part.0
 369              	.LVL39:
 370              	.L47:
  73:src/printer.c **** 
 371              		.loc 1 73 1 view .LVU94
 372 0032 00BF     		.align	2
 373              	.L46:
 374 0034 00000000 		.word	main_ram
 375              	.LBE52:
 376              	.LBE53:
 377              		.cfi_endproc
 378              	.LFE2:
 380              		.section	.text.print_advance,"ax",%progbits
 381              		.align	1
 382              		.p2align 2,,3
 383              		.global	print_advance
 384              		.syntax unified
 385              		.thumb
 386              		.thumb_func
 387              		.fpu fpv4-sp-d16
 389              	print_advance:
 390              	.LVL40:
 391              	.LFB3:
  79:src/printer.c ****   PrinterColumn = 0;
 392              		.loc 1 79 32 is_stmt 1 view -0
 393              		.cfi_startproc
 394              		@ args = 0, pretend = 0, frame = 8
 395              		@ frame_needed = 0, uses_anonymous_args = 0
ARM GAS  /tmp/ccZqGyHG.s 			page 12


  80:src/printer.c ****   print( mode ? 0x04 : '\n' );
 396              		.loc 1 80 3 view .LVU96
  79:src/printer.c ****   PrinterColumn = 0;
 397              		.loc 1 79 32 is_stmt 0 view .LVU97
 398 0000 00B5     		push	{lr}
 399              		.cfi_def_cfa_offset 4
 400              		.cfi_offset 14, -4
  81:src/printer.c ****   if (UState.print_blank_line) print( mode ? 0x04 : '\n' ); 
 401              		.loc 1 81 3 view .LVU98
 402 0002 0028     		cmp	r0, #0
  80:src/printer.c ****   print( mode ? 0x04 : '\n' );
 403              		.loc 1 80 17 view .LVU99
 404 0004 0E4B     		ldr	r3, .L57
  79:src/printer.c ****   PrinterColumn = 0;
 405              		.loc 1 79 32 view .LVU100
 406 0006 83B0     		sub	sp, sp, #12
 407              		.cfi_def_cfa_offset 16
  81:src/printer.c ****   if (UState.print_blank_line) print( mode ? 0x04 : '\n' ); 
 408              		.loc 1 81 3 view .LVU101
 409 0008 14BF     		ite	ne
 410 000a 0420     		movne	r0, #4
 411              	.LVL41:
  81:src/printer.c ****   if (UState.print_blank_line) print( mode ? 0x04 : '\n' ); 
 412              		.loc 1 81 3 view .LVU102
 413 000c 0A20     		moveq	r0, #10
  80:src/printer.c ****   print( mode ? 0x04 : '\n' );
 414              		.loc 1 80 17 view .LVU103
 415 000e 0022     		movs	r2, #0
  81:src/printer.c ****   if (UState.print_blank_line) print( mode ? 0x04 : '\n' ); 
 416              		.loc 1 81 3 view .LVU104
 417 0010 0190     		str	r0, [sp, #4]
  80:src/printer.c ****   print( mode ? 0x04 : '\n' );
 418              		.loc 1 80 17 view .LVU105
 419 0012 1A60     		str	r2, [r3]
  81:src/printer.c ****   if (UState.print_blank_line) print( mode ? 0x04 : '\n' ); 
 420              		.loc 1 81 3 is_stmt 1 view .LVU106
 421 0014 FFF7FEFF 		bl	print
 422              	.LVL42:
  82:src/printer.c ****   prepare_new_line();
 423              		.loc 1 82 3 view .LVU107
  82:src/printer.c ****   prepare_new_line();
 424              		.loc 1 82 7 is_stmt 0 view .LVU108
 425 0018 0A4B     		ldr	r3, .L57+4
  82:src/printer.c ****   prepare_new_line();
 426              		.loc 1 82 6 view .LVU109
 427 001a 0198     		ldr	r0, [sp, #4]
  82:src/printer.c ****   prepare_new_line();
 428              		.loc 1 82 7 view .LVU110
 429 001c 1B68     		ldr	r3, [r3]
 430 001e 93F8E437 		ldrb	r3, [r3, #2020]	@ zero_extendqisi2
  82:src/printer.c ****   prepare_new_line();
 431              		.loc 1 82 6 view .LVU111
 432 0022 13F0020F 		tst	r3, #2
 433 0026 04D1     		bne	.L56
  83:src/printer.c **** }
 434              		.loc 1 83 3 is_stmt 1 view .LVU112
  84:src/printer.c **** 
ARM GAS  /tmp/ccZqGyHG.s 			page 13


 435              		.loc 1 84 1 is_stmt 0 view .LVU113
 436 0028 03B0     		add	sp, sp, #12
 437              		.cfi_remember_state
 438              		.cfi_def_cfa_offset 4
 439              		@ sp needed
 440 002a 5DF804EB 		ldr	lr, [sp], #4
 441              		.cfi_restore 14
 442              		.cfi_def_cfa_offset 0
  83:src/printer.c **** }
 443              		.loc 1 83 3 view .LVU114
 444 002e FFF7FEBF 		b	prepare_new_line
 445              	.LVL43:
 446              	.L56:
 447              		.cfi_restore_state
  82:src/printer.c ****   prepare_new_line();
 448              		.loc 1 82 32 is_stmt 1 discriminator 5 view .LVU115
 449 0032 FFF7FEFF 		bl	print
 450              	.LVL44:
  83:src/printer.c **** }
 451              		.loc 1 83 3 discriminator 5 view .LVU116
  84:src/printer.c **** 
 452              		.loc 1 84 1 is_stmt 0 discriminator 5 view .LVU117
 453 0036 03B0     		add	sp, sp, #12
 454              		.cfi_def_cfa_offset 4
 455              		@ sp needed
 456 0038 5DF804EB 		ldr	lr, [sp], #4
 457              		.cfi_restore 14
 458              		.cfi_def_cfa_offset 0
  83:src/printer.c **** }
 459              		.loc 1 83 3 discriminator 5 view .LVU118
 460 003c FFF7FEBF 		b	prepare_new_line
 461              	.LVL45:
 462              	.L58:
 463              		.align	2
 464              	.L57:
 465 0040 00000000 		.word	PrinterColumn
 466 0044 00000000 		.word	main_ram
 467              		.cfi_endproc
 468              	.LFE3:
 470              		.section	.text.wrap,"ax",%progbits
 471              		.align	1
 472              		.p2align 2,,3
 473              		.syntax unified
 474              		.thumb
 475              		.thumb_func
 476              		.fpu fpv4-sp-d16
 478              	wrap:
 479              	.LVL46:
 480              	.LFB9:
 170:src/printer.c **** 
 171:src/printer.c **** 
 172:src/printer.c **** /*
 173:src/printer.c ****  *  Wrap if line is full
 174:src/printer.c ****  */
 175:src/printer.c **** static void wrap( int width ) {
 481              		.loc 1 175 31 is_stmt 1 view -0
 482              		.cfi_startproc
ARM GAS  /tmp/ccZqGyHG.s 			page 14


 483              		@ args = 0, pretend = 0, frame = 0
 484              		@ frame_needed = 0, uses_anonymous_args = 0
 176:src/printer.c ****   if ( PrinterColumn + width > PAPER_WIDTH ) {
 485              		.loc 1 176 3 view .LVU120
 175:src/printer.c ****   if ( PrinterColumn + width > PAPER_WIDTH ) {
 486              		.loc 1 175 31 is_stmt 0 view .LVU121
 487 0000 38B5     		push	{r3, r4, r5, lr}
 488              		.cfi_def_cfa_offset 16
 489              		.cfi_offset 3, -16
 490              		.cfi_offset 4, -12
 491              		.cfi_offset 5, -8
 492              		.cfi_offset 14, -4
 493              		.loc 1 176 22 view .LVU122
 494 0002 094D     		ldr	r5, .L64
 495 0004 2B68     		ldr	r3, [r5]
 496 0006 0344     		add	r3, r3, r0
 497              		.loc 1 176 6 view .LVU123
 498 0008 A62B     		cmp	r3, #166
 499 000a 01D8     		bhi	.L63
 500              	.LVL47:
 177:src/printer.c ****     print_advance (0);
 178:src/printer.c ****     if ( width == 7 ) width = 5;
 179:src/printer.c ****   }
 180:src/printer.c ****   PrinterColumn += width;
 501              		.loc 1 180 3 is_stmt 1 view .LVU124
 502              		.loc 1 180 17 is_stmt 0 view .LVU125
 503 000c 2B60     		str	r3, [r5]
 181:src/printer.c **** }
 504              		.loc 1 181 1 view .LVU126
 505 000e 38BD     		pop	{r3, r4, r5, pc}
 506              	.LVL48:
 507              	.L63:
 508              		.loc 1 181 1 view .LVU127
 509 0010 0446     		mov	r4, r0
 177:src/printer.c ****     print_advance (0);
 510              		.loc 1 177 5 is_stmt 1 view .LVU128
 511 0012 0020     		movs	r0, #0
 512              	.LVL49:
 177:src/printer.c ****     print_advance (0);
 513              		.loc 1 177 5 is_stmt 0 view .LVU129
 514 0014 FFF7FEFF 		bl	print_advance
 515              	.LVL50:
 178:src/printer.c ****   }
 516              		.loc 1 178 5 is_stmt 1 view .LVU130
 517 0018 2B68     		ldr	r3, [r5]
 178:src/printer.c ****   }
 518              		.loc 1 178 8 is_stmt 0 view .LVU131
 519 001a 072C     		cmp	r4, #7
 520 001c 0CBF     		ite	eq
 521 001e 0533     		addeq	r3, r3, #5
 522 0020 1B19     		addne	r3, r3, r4
 523              	.LVL51:
 180:src/printer.c **** }
 524              		.loc 1 180 3 is_stmt 1 view .LVU132
 180:src/printer.c **** }
 525              		.loc 1 180 17 is_stmt 0 view .LVU133
 526 0022 2B60     		str	r3, [r5]
ARM GAS  /tmp/ccZqGyHG.s 			page 15


 527              		.loc 1 181 1 view .LVU134
 528 0024 38BD     		pop	{r3, r4, r5, pc}
 529              	.L65:
 530 0026 00BF     		.align	2
 531              	.L64:
 532 0028 00000000 		.word	PrinterColumn
 533              		.cfi_endproc
 534              	.LFE9:
 536              		.section	.text.advance_if_trace.part.0,"ax",%progbits
 537              		.align	1
 538              		.p2align 2,,3
 539              		.syntax unified
 540              		.thumb
 541              		.thumb_func
 542              		.fpu fpv4-sp-d16
 544              	advance_if_trace.part.0:
 545              	.LFB26:
  90:src/printer.c **** {
 546              		.loc 1 90 13 is_stmt 1 view -0
 547              		.cfi_startproc
 548              		@ args = 0, pretend = 0, frame = 0
 549              		@ frame_needed = 0, uses_anonymous_args = 0
 550              		@ link register save eliminated.
  92:src/printer.c ****     print_advance( 0 );
 551              		.loc 1 92 27 is_stmt 0 view .LVU136
 552 0000 034B     		ldr	r3, .L69
 553 0002 1B68     		ldr	r3, [r3]
 554 0004 03B9     		cbnz	r3, .L68
  95:src/printer.c **** 
 555              		.loc 1 95 1 view .LVU137
 556 0006 7047     		bx	lr
 557              	.L68:
  93:src/printer.c ****   }
 558              		.loc 1 93 5 is_stmt 1 view .LVU138
 559 0008 0020     		movs	r0, #0
 560 000a FFF7FEBF 		b	print_advance
 561              	.LVL52:
 562              	.L70:
 563 000e 00BF     		.align	2
 564              	.L69:
 565 0010 00000000 		.word	Tracing
 566              		.cfi_endproc
 567              	.LFE26:
 569              		.section	.text.print_tab,"ax",%progbits
 570              		.align	1
 571              		.p2align 2,,3
 572              		.global	print_tab
 573              		.syntax unified
 574              		.thumb
 575              		.thumb_func
 576              		.fpu fpv4-sp-d16
 578              	print_tab:
 579              	.LVL53:
 580              	.LFB5:
 102:src/printer.c ****   if ( PrinterColumn > col ) {
 581              		.loc 1 102 1 view -0
 582              		.cfi_startproc
ARM GAS  /tmp/ccZqGyHG.s 			page 16


 583              		@ args = 0, pretend = 0, frame = 0
 584              		@ frame_needed = 0, uses_anonymous_args = 0
 103:src/printer.c ****     print_advance( 0 );
 585              		.loc 1 103 3 view .LVU140
 102:src/printer.c ****   if ( PrinterColumn > col ) {
 586              		.loc 1 102 1 is_stmt 0 view .LVU141
 587 0000 70B5     		push	{r4, r5, r6, lr}
 588              		.cfi_def_cfa_offset 16
 589              		.cfi_offset 4, -16
 590              		.cfi_offset 5, -12
 591              		.cfi_offset 6, -8
 592              		.cfi_offset 14, -4
 103:src/printer.c ****     print_advance( 0 );
 593              		.loc 1 103 22 view .LVU142
 594 0002 2A4D     		ldr	r5, .L107
 595 0004 2B68     		ldr	r3, [r5]
 103:src/printer.c ****     print_advance( 0 );
 596              		.loc 1 103 6 view .LVU143
 597 0006 8342     		cmp	r3, r0
 102:src/printer.c ****   if ( PrinterColumn > col ) {
 598              		.loc 1 102 1 view .LVU144
 599 0008 0446     		mov	r4, r0
 103:src/printer.c ****     print_advance( 0 );
 600              		.loc 1 103 6 view .LVU145
 601 000a 36D8     		bhi	.L104
 602              	.LVL54:
 603              	.L72:
 106:src/printer.c ****     int i = col - PrinterColumn;
 604              		.loc 1 106 3 is_stmt 1 view .LVU146
 106:src/printer.c ****     int i = col - PrinterColumn;
 605              		.loc 1 106 6 is_stmt 0 view .LVU147
 606 000c A342     		cmp	r3, r4
 607 000e 33D2     		bcs	.L71
 608              	.LBB54:
 107:src/printer.c ****     int j = i / 7;
 609              		.loc 1 107 5 is_stmt 1 view .LVU148
 108:src/printer.c ****     i %= 7;
 610              		.loc 1 108 9 is_stmt 0 view .LVU149
 611 0010 274E     		ldr	r6, .L107+4
 110:src/printer.c ****     if ( i ) {
 612              		.loc 1 110 19 view .LVU150
 613 0012 2C60     		str	r4, [r5]
 107:src/printer.c ****     int j = i / 7;
 614              		.loc 1 107 17 view .LVU151
 615 0014 E41A     		subs	r4, r4, r3
 616              	.LVL55:
 108:src/printer.c ****     i %= 7;
 617              		.loc 1 108 5 is_stmt 1 view .LVU152
 108:src/printer.c ****     i %= 7;
 618              		.loc 1 108 9 is_stmt 0 view .LVU153
 619 0016 86FB0436 		smull	r3, r6, r6, r4
 620 001a 3319     		adds	r3, r6, r4
 621 001c E617     		asrs	r6, r4, #31
 622 001e C6EBA306 		rsb	r6, r6, r3, asr #2
 623              	.LVL56:
 109:src/printer.c ****     PrinterColumn = col;
 624              		.loc 1 109 5 is_stmt 1 view .LVU154
ARM GAS  /tmp/ccZqGyHG.s 			page 17


 109:src/printer.c ****     PrinterColumn = col;
 625              		.loc 1 109 7 is_stmt 0 view .LVU155
 626 0022 C6EBC603 		rsb	r3, r6, r6, lsl #3
 627              	.LVL57:
 110:src/printer.c ****     if ( i ) {
 628              		.loc 1 110 5 is_stmt 1 view .LVU156
 111:src/printer.c ****       put_ir( 27 );
 629              		.loc 1 111 5 view .LVU157
 111:src/printer.c ****       put_ir( 27 );
 630              		.loc 1 111 8 is_stmt 0 view .LVU158
 631 0026 E41A     		subs	r4, r4, r3
 632              	.LVL58:
 111:src/printer.c ****       put_ir( 27 );
 633              		.loc 1 111 8 view .LVU159
 634 0028 15D0     		beq	.L74
 112:src/printer.c ****       put_ir( i );
 635              		.loc 1 112 7 is_stmt 1 view .LVU160
 636              	.LVL59:
 637              	.LBB55:
 638              	.LBI55:
  51:src/printer.c ****   if (UState.print_on) print_byte( (uint8_t) byte);
 639              		.loc 1 51 6 view .LVU161
 640              	.LBB56:
  52:src/printer.c **** }
 641              		.loc 1 52 3 view .LVU162
  52:src/printer.c **** }
 642              		.loc 1 52 7 is_stmt 0 view .LVU163
 643 002a 224D     		ldr	r5, .L107+8
  52:src/printer.c **** }
 644              		.loc 1 52 7 view .LVU164
 645 002c 2B68     		ldr	r3, [r5]
 646 002e 93F8E437 		ldrb	r3, [r3, #2020]	@ zero_extendqisi2
  52:src/printer.c **** }
 647              		.loc 1 52 6 view .LVU165
 648 0032 D807     		lsls	r0, r3, #31
  52:src/printer.c **** }
 649              		.loc 1 52 7 view .LVU166
 650 0034 03F00102 		and	r2, r3, #1
  52:src/printer.c **** }
 651              		.loc 1 52 6 view .LVU167
 652 0038 24D4     		bmi	.L105
 653              	.LVL60:
 654              	.L75:
  52:src/printer.c **** }
 655              		.loc 1 52 6 view .LVU168
 656              	.LBE56:
 657              	.LBE55:
 114:src/printer.c **** 	put_ir( 0 );
 658              		.loc 1 114 13 is_stmt 1 view .LVU169
 114:src/printer.c **** 	put_ir( 0 );
 659              		.loc 1 114 16 is_stmt 0 view .LVU170
 660 003a 013C     		subs	r4, r4, #1
 661              	.LVL61:
 114:src/printer.c **** 	put_ir( 0 );
 662              		.loc 1 114 16 view .LVU171
 663 003c 04E0     		b	.L77
 664              	.L106:
ARM GAS  /tmp/ccZqGyHG.s 			page 18


 114:src/printer.c **** 	put_ir( 0 );
 665              		.loc 1 114 16 view .LVU172
 666 003e 2B68     		ldr	r3, [r5]
 667 0040 93F8E437 		ldrb	r3, [r3, #2020]	@ zero_extendqisi2
 668 0044 03F00102 		and	r2, r3, #1
 669              	.L77:
 115:src/printer.c ****     }
 670              		.loc 1 115 2 is_stmt 1 view .LVU173
 671              	.LVL62:
 672              	.LBB58:
 673              	.LBI58:
  51:src/printer.c ****   if (UState.print_on) print_byte( (uint8_t) byte);
 674              		.loc 1 51 6 view .LVU174
 675              	.LBB59:
  52:src/printer.c **** }
 676              		.loc 1 52 3 view .LVU175
 677              	.LBE59:
 678              	.LBE58:
 114:src/printer.c **** 	put_ir( 0 );
 679              		.loc 1 114 16 is_stmt 0 view .LVU176
 680 0048 013C     		subs	r4, r4, #1
 681              	.LVL63:
 682              	.LBB61:
 683              	.LBB60:
 114:src/printer.c **** 	put_ir( 0 );
 684              		.loc 1 114 16 view .LVU177
 685 004a 0020     		movs	r0, #0
  52:src/printer.c **** }
 686              		.loc 1 52 6 view .LVU178
 687 004c 0AB1     		cbz	r2, .L76
 688 004e FFF7FEFF 		bl	put_ir.part.0
 689              	.LVL64:
 690              	.L76:
  52:src/printer.c **** }
 691              		.loc 1 52 6 view .LVU179
 692              	.LBE60:
 693              	.LBE61:
 114:src/printer.c **** 	put_ir( 0 );
 694              		.loc 1 114 13 is_stmt 1 view .LVU180
 114:src/printer.c **** 	put_ir( 0 );
 695              		.loc 1 114 13 is_stmt 0 view .LVU181
 696 0052 621C     		adds	r2, r4, #1
 697 0054 F3D1     		bne	.L106
 698              	.LVL65:
 699              	.L74:
 117:src/printer.c ****       put_ir( ' ' );
 700              		.loc 1 117 11 is_stmt 1 view .LVU182
 117:src/printer.c ****       put_ir( ' ' );
 701              		.loc 1 117 14 is_stmt 0 view .LVU183
 702 0056 741E     		subs	r4, r6, #1
 703              	.LVL66:
 117:src/printer.c ****       put_ir( ' ' );
 704              		.loc 1 117 11 view .LVU184
 705 0058 76B1     		cbz	r6, .L71
 706 005a 164D     		ldr	r5, .L107+8
 707              	.L80:
 118:src/printer.c ****   }
ARM GAS  /tmp/ccZqGyHG.s 			page 19


 708              		.loc 1 118 7 is_stmt 1 view .LVU185
 709              	.LVL67:
 710              	.LBB62:
 711              	.LBI62:
  51:src/printer.c ****   if (UState.print_on) print_byte( (uint8_t) byte);
 712              		.loc 1 51 6 view .LVU186
 713              	.LBB63:
  52:src/printer.c **** }
 714              		.loc 1 52 3 view .LVU187
  52:src/printer.c **** }
 715              		.loc 1 52 7 is_stmt 0 view .LVU188
 716 005c 2B68     		ldr	r3, [r5]
 717 005e 93F8E437 		ldrb	r3, [r3, #2020]	@ zero_extendqisi2
  52:src/printer.c **** }
 718              		.loc 1 52 6 view .LVU189
 719 0062 13F0010F 		tst	r3, #1
 720              	.LBE63:
 721              	.LBE62:
 117:src/printer.c ****       put_ir( ' ' );
 722              		.loc 1 117 14 view .LVU190
 723 0066 04F1FF34 		add	r4, r4, #-1
 724              	.LVL68:
 725              	.LBB65:
 726              	.LBB64:
 117:src/printer.c ****       put_ir( ' ' );
 727              		.loc 1 117 14 view .LVU191
 728 006a 4FF02000 		mov	r0, #32
  52:src/printer.c **** }
 729              		.loc 1 52 6 view .LVU192
 730 006e 01D0     		beq	.L79
 731 0070 FFF7FEFF 		bl	put_ir.part.0
 732              	.LVL69:
 733              	.L79:
  52:src/printer.c **** }
 734              		.loc 1 52 6 view .LVU193
 735              	.LBE64:
 736              	.LBE65:
 117:src/printer.c ****       put_ir( ' ' );
 737              		.loc 1 117 11 is_stmt 1 view .LVU194
 117:src/printer.c ****       put_ir( ' ' );
 738              		.loc 1 117 11 is_stmt 0 view .LVU195
 739 0074 631C     		adds	r3, r4, #1
 740 0076 F1D1     		bne	.L80
 741              	.LVL70:
 742              	.L71:
 117:src/printer.c ****       put_ir( ' ' );
 743              		.loc 1 117 11 view .LVU196
 744              	.LBE54:
 120:src/printer.c **** 
 745              		.loc 1 120 1 view .LVU197
 746 0078 70BD     		pop	{r4, r5, r6, pc}
 747              	.LVL71:
 748              	.L104:
 104:src/printer.c ****   }
 749              		.loc 1 104 5 is_stmt 1 view .LVU198
 750 007a 0020     		movs	r0, #0
 751              	.LVL72:
ARM GAS  /tmp/ccZqGyHG.s 			page 20


 104:src/printer.c ****   }
 752              		.loc 1 104 5 is_stmt 0 view .LVU199
 753 007c FFF7FEFF 		bl	print_advance
 754              	.LVL73:
 755 0080 2B68     		ldr	r3, [r5]
 756 0082 C3E7     		b	.L72
 757              	.LVL74:
 758              	.L105:
 759              	.LBB69:
 760              	.LBB66:
 761              	.LBB57:
 104:src/printer.c ****   }
 762              		.loc 1 104 5 view .LVU200
 763 0084 1B20     		movs	r0, #27
 764 0086 FFF7FEFF 		bl	put_ir.part.0
 765              	.LVL75:
 104:src/printer.c ****   }
 766              		.loc 1 104 5 view .LVU201
 767              	.LBE57:
 768              	.LBE66:
 113:src/printer.c ****       while ( i-- )
 769              		.loc 1 113 7 is_stmt 1 view .LVU202
 770              	.LBB67:
 771              	.LBI67:
  51:src/printer.c ****   if (UState.print_on) print_byte( (uint8_t) byte);
 772              		.loc 1 51 6 view .LVU203
 773              	.LBB68:
  52:src/printer.c **** }
 774              		.loc 1 52 3 view .LVU204
  52:src/printer.c **** }
 775              		.loc 1 52 7 is_stmt 0 view .LVU205
 776 008a 2B68     		ldr	r3, [r5]
 777 008c 93F8E437 		ldrb	r3, [r3, #2020]	@ zero_extendqisi2
  52:src/printer.c **** }
 778              		.loc 1 52 6 view .LVU206
 779 0090 D907     		lsls	r1, r3, #31
  52:src/printer.c **** }
 780              		.loc 1 52 7 view .LVU207
 781 0092 03F00102 		and	r2, r3, #1
  52:src/printer.c **** }
 782              		.loc 1 52 6 view .LVU208
 783 0096 D0D5     		bpl	.L75
 784 0098 2046     		mov	r0, r4
 785 009a FFF7FEFF 		bl	put_ir.part.0
 786              	.LVL76:
 787 009e 2B68     		ldr	r3, [r5]
 788 00a0 93F8E437 		ldrb	r3, [r3, #2020]	@ zero_extendqisi2
 789 00a4 03F00102 		and	r2, r3, #1
 790 00a8 C7E7     		b	.L75
 791              	.L108:
 792 00aa 00BF     		.align	2
 793              	.L107:
 794 00ac 00000000 		.word	PrinterColumn
 795 00b0 93244992 		.word	-1840700269
 796 00b4 00000000 		.word	main_ram
 797              	.LBE68:
 798              	.LBE67:
ARM GAS  /tmp/ccZqGyHG.s 			page 21


 799              	.LBE69:
 800              		.cfi_endproc
 801              	.LFE5:
 803              		.section	.text.print_graphic,"ax",%progbits
 804              		.align	1
 805              		.p2align 2,,3
 806              		.global	print_graphic
 807              		.syntax unified
 808              		.thumb
 809              		.thumb_func
 810              		.fpu fpv4-sp-d16
 812              	print_graphic:
 813              	.LVL77:
 814              	.LFB7:
 135:src/printer.c ****   if ( glen > 0 ) {
 815              		.loc 1 135 62 is_stmt 1 view -0
 816              		.cfi_startproc
 817              		@ args = 0, pretend = 0, frame = 0
 818              		@ frame_needed = 0, uses_anonymous_args = 0
 136:src/printer.c ****     put_ir( 27 );
 819              		.loc 1 136 3 view .LVU210
 135:src/printer.c ****   if ( glen > 0 ) {
 820              		.loc 1 135 62 is_stmt 0 view .LVU211
 821 0000 70B5     		push	{r4, r5, r6, lr}
 822              		.cfi_def_cfa_offset 16
 823              		.cfi_offset 4, -16
 824              		.cfi_offset 5, -12
 825              		.cfi_offset 6, -8
 826              		.cfi_offset 14, -4
 136:src/printer.c ****     put_ir( 27 );
 827              		.loc 1 136 6 view .LVU212
 828 0002 051E     		subs	r5, r0, #0
 829 0004 17DD     		ble	.L109
 137:src/printer.c ****     put_ir( glen );
 830              		.loc 1 137 5 is_stmt 1 view .LVU213
 831              	.LVL78:
 832              	.LBB80:
 833              	.LBI80:
  51:src/printer.c ****   if (UState.print_on) print_byte( (uint8_t) byte);
 834              		.loc 1 51 6 view .LVU214
 835              	.LBB81:
  52:src/printer.c **** }
 836              		.loc 1 52 3 view .LVU215
  52:src/printer.c **** }
 837              		.loc 1 52 7 is_stmt 0 view .LVU216
 838 0006 164E     		ldr	r6, .L126
 839 0008 3368     		ldr	r3, [r6]
 840 000a 93F8E437 		ldrb	r3, [r3, #2020]	@ zero_extendqisi2
 841 000e 0C46     		mov	r4, r1
  52:src/printer.c **** }
 842              		.loc 1 52 6 view .LVU217
 843 0010 D907     		lsls	r1, r3, #31
 844              	.LVL79:
  52:src/printer.c **** }
 845              		.loc 1 52 7 view .LVU218
 846 0012 03F00102 		and	r2, r3, #1
  52:src/printer.c **** }
ARM GAS  /tmp/ccZqGyHG.s 			page 22


 847              		.loc 1 52 6 view .LVU219
 848 0016 0FD4     		bmi	.L124
 849              	.LVL80:
 850              	.L111:
  52:src/printer.c **** }
 851              		.loc 1 52 6 view .LVU220
 852              	.LBE81:
 853              	.LBE80:
 854              	.LBB83:
 855              	.LBB84:
 139:src/printer.c ****       put_ir( *graphic++ );
 856              		.loc 1 139 11 is_stmt 1 view .LVU221
 139:src/printer.c ****       put_ir( *graphic++ );
 857              		.loc 1 139 11 is_stmt 0 view .LVU222
 858 0018 2544     		add	r5, r5, r4
 859              	.LVL81:
 139:src/printer.c ****       put_ir( *graphic++ );
 860              		.loc 1 139 11 view .LVU223
 861 001a 04E0     		b	.L113
 862              	.LVL82:
 863              	.L125:
 139:src/printer.c ****       put_ir( *graphic++ );
 864              		.loc 1 139 11 view .LVU224
 865 001c 3368     		ldr	r3, [r6]
 866 001e 93F8E437 		ldrb	r3, [r3, #2020]	@ zero_extendqisi2
 867 0022 03F00102 		and	r2, r3, #1
 868              	.LVL83:
 869              	.L113:
 140:src/printer.c ****     }
 870              		.loc 1 140 7 is_stmt 1 view .LVU225
 140:src/printer.c ****     }
 871              		.loc 1 140 23 is_stmt 0 view .LVU226
 872 0026 0134     		adds	r4, r4, #1
 873              	.LVL84:
 874              	.LBB85:
 875              	.LBI85:
  51:src/printer.c ****   if (UState.print_on) print_byte( (uint8_t) byte);
 876              		.loc 1 51 6 is_stmt 1 view .LVU227
 877              	.LBB86:
  52:src/printer.c **** }
 878              		.loc 1 52 3 view .LVU228
  52:src/printer.c **** }
 879              		.loc 1 52 6 is_stmt 0 view .LVU229
 880 0028 1AB1     		cbz	r2, .L112
 881 002a 14F8010C 		ldrb	r0, [r4, #-1]	@ zero_extendqisi2
 882 002e FFF7FEFF 		bl	put_ir.part.0
 883              	.LVL85:
 884              	.L112:
  52:src/printer.c **** }
 885              		.loc 1 52 6 view .LVU230
 886              	.LBE86:
 887              	.LBE85:
 139:src/printer.c ****       put_ir( *graphic++ );
 888              		.loc 1 139 11 is_stmt 1 view .LVU231
 139:src/printer.c ****       put_ir( *graphic++ );
 889              		.loc 1 139 11 is_stmt 0 view .LVU232
 890 0032 AC42     		cmp	r4, r5
ARM GAS  /tmp/ccZqGyHG.s 			page 23


 891 0034 F2D1     		bne	.L125
 892              	.LVL86:
 893              	.L109:
 139:src/printer.c ****       put_ir( *graphic++ );
 894              		.loc 1 139 11 view .LVU233
 895              	.LBE84:
 896              	.LBE83:
 143:src/printer.c **** 
 897              		.loc 1 143 1 view .LVU234
 898 0036 70BD     		pop	{r4, r5, r6, pc}
 899              	.LVL87:
 900              	.L124:
 901              	.LBB90:
 902              	.LBB82:
 143:src/printer.c **** 
 903              		.loc 1 143 1 view .LVU235
 904 0038 1B20     		movs	r0, #27
 905              	.LVL88:
 143:src/printer.c **** 
 906              		.loc 1 143 1 view .LVU236
 907 003a FFF7FEFF 		bl	put_ir.part.0
 908              	.LVL89:
 143:src/printer.c **** 
 909              		.loc 1 143 1 view .LVU237
 910              	.LBE82:
 911              	.LBE90:
 912              	.LBB91:
 913              	.LBI83:
 135:src/printer.c ****   if ( glen > 0 ) {
 914              		.loc 1 135 6 is_stmt 1 view .LVU238
 915              	.LBB89:
 138:src/printer.c ****     while ( glen-- ) {
 916              		.loc 1 138 5 view .LVU239
 917              	.LBB87:
 918              	.LBI87:
  51:src/printer.c ****   if (UState.print_on) print_byte( (uint8_t) byte);
 919              		.loc 1 51 6 view .LVU240
 920              	.LBB88:
  52:src/printer.c **** }
 921              		.loc 1 52 3 view .LVU241
  52:src/printer.c **** }
 922              		.loc 1 52 7 is_stmt 0 view .LVU242
 923 003e 3368     		ldr	r3, [r6]
 924 0040 93F8E437 		ldrb	r3, [r3, #2020]	@ zero_extendqisi2
 925 0044 03F00102 		and	r2, r3, #1
  52:src/printer.c **** }
 926              		.loc 1 52 6 view .LVU243
 927 0048 DB07     		lsls	r3, r3, #31
 928 004a E5D5     		bpl	.L111
 929 004c 2846     		mov	r0, r5
 930 004e FFF7FEFF 		bl	put_ir.part.0
 931              	.LVL90:
 932 0052 3368     		ldr	r3, [r6]
 933 0054 93F8E437 		ldrb	r3, [r3, #2020]	@ zero_extendqisi2
 934 0058 03F00102 		and	r2, r3, #1
 935 005c DCE7     		b	.L111
 936              	.L127:
ARM GAS  /tmp/ccZqGyHG.s 			page 24


 937 005e 00BF     		.align	2
 938              	.L126:
 939 0060 00000000 		.word	main_ram
 940              	.LBE88:
 941              	.LBE87:
 942              	.LBE89:
 943              	.LBE91:
 944              		.cfi_endproc
 945              	.LFE7:
 947              		.section	.text.print_line,"ax",%progbits
 948              		.align	1
 949              		.p2align 2,,3
 950              		.global	print_line
 951              		.syntax unified
 952              		.thumb
 953              		.thumb_func
 954              		.fpu fpv4-sp-d16
 956              	print_line:
 957              	.LVL91:
 958              	.LFB10:
 182:src/printer.c **** 
 183:src/printer.c **** /*
 184:src/printer.c ****  *  Print a complete line using character set translation
 185:src/printer.c ****  */
 186:src/printer.c **** void print_line( const char *buff, int with_lf )
 187:src/printer.c **** {
 959              		.loc 1 187 1 is_stmt 1 view -0
 960              		.cfi_startproc
 961              		@ args = 0, pretend = 0, frame = 864
 962              		@ frame_needed = 0, uses_anonymous_args = 0
 188:src/printer.c ****   const int mode = UState.print_mode;
 963              		.loc 1 188 3 view .LVU245
 187:src/printer.c ****   const int mode = UState.print_mode;
 964              		.loc 1 187 1 is_stmt 0 view .LVU246
 965 0000 2DE9F04F 		push	{r4, r5, r6, r7, r8, r9, r10, fp, lr}
 966              		.cfi_def_cfa_offset 36
 967              		.cfi_offset 4, -36
 968              		.cfi_offset 5, -32
 969              		.cfi_offset 6, -28
 970              		.cfi_offset 7, -24
 971              		.cfi_offset 8, -20
 972              		.cfi_offset 9, -16
 973              		.cfi_offset 10, -12
 974              		.cfi_offset 11, -8
 975              		.cfi_offset 14, -4
 976              		.loc 1 188 26 view .LVU247
 977 0004 974B     		ldr	r3, .L185
 978 0006 1B68     		ldr	r3, [r3]
 979 0008 93F8EA97 		ldrb	r9, [r3, #2026]	@ zero_extendqisi2
 187:src/printer.c ****   const int mode = UState.print_mode;
 980              		.loc 1 187 1 view .LVU248
 981 000c 2DED028B 		vpush.64	{d8}
 982              		.cfi_def_cfa_offset 44
 983              		.cfi_offset 80, -44
 984              		.cfi_offset 81, -40
 985              		.loc 1 188 26 view .LVU249
 986 0010 09F00309 		and	r9, r9, #3
ARM GAS  /tmp/ccZqGyHG.s 			page 25


 987              	.LVL92:
 189:src/printer.c ****   unsigned int c;
 988              		.loc 1 189 3 is_stmt 1 view .LVU250
 190:src/printer.c ****   unsigned short int posns[ 257 ];
 989              		.loc 1 190 3 view .LVU251
 191:src/printer.c ****   unsigned char pattern[ 6 ];	// Rows
 990              		.loc 1 191 3 view .LVU252
 192:src/printer.c ****   unsigned char graphic[ PAPER_WIDTH ];	// Columns
 991              		.loc 1 192 3 view .LVU253
 193:src/printer.c ****   unsigned char glen = 0;
 992              		.loc 1 193 3 view .LVU254
 194:src/printer.c ****   unsigned char i, j, m, w = 0;
 993              		.loc 1 194 3 view .LVU255
 195:src/printer.c **** 
 196:src/printer.c ****   // Import code from generated file font.c
 197:src/printer.c ****   //  extern const unsigned char printer_chars[ 31 + 129 ];
 198:src/printer.c ****   /* Translation table to printer character set
 199:src/printer.c ****    */
 200:src/printer.c **** 
 201:src/printer.c ****   const unsigned char printer_chars[31+129] = {
 994              		.loc 1 201 3 view .LVU256
 202:src/printer.c ****     0x00, 0x00, 0x83, 0x84, 0xB3, 0x20, 0x00, 0xFE, 0x89, 0x8A, 0x8B, 0x00,
 203:src/printer.c ****     0x8D, 0x8E, 0x00, 0x00, 0x00, 0x00, 0x00, 0x00, 0xD2, 0xD6, 0x00, 0xDE,
 204:src/printer.c ****     0x00, 0x00, 0x00, 0x82, 0x00, 0xBB, 0xBC, 0x00, 0x98, 0x00, 0x00, 0x00,
 205:src/printer.c ****     0xE3, 0xE4, 0x00, 0x00, 0xD3, 0xD7, 0x00, 0x00, 0x00, 0x00, 0x00, 0x00,
 206:src/printer.c ****     0x00, 0x85, 0x00, 0x00, 0x00, 0x00, 0x00, 0x00, 0x00, 0x00, 0x97, 0x00,
 207:src/printer.c ****     0x00, 0x00, 0x00, 0x00, 0x8C, 0x00, 0x00, 0x88, 0x00, 0x00, 0x00, 0x00,
 208:src/printer.c ****     0x00, 0x00, 0x00, 0x8F, 0x00, 0x00, 0x00, 0x87, 0x00, 0x00, 0x00, 0x00,
 209:src/printer.c ****     0x00, 0x00, 0x00, 0x00, 0x00, 0x95, 0x96, 0x00, 0x00, 0x00, 0x00, 0x00,
 210:src/printer.c ****     0xA1, 0xE0, 0xA2, 0xD8, 0xD0, 0x00, 0x00, 0xB4, 0xA4, 0xDC, 0xA4, 0xA5,
 211:src/printer.c ****     0xE6, 0xE5, 0xA6, 0xA7, 0xB6, 0xE8, 0xE7, 0x00, 0xDA, 0x00, 0xEB, 0x00,
 212:src/printer.c ****     0xAD, 0xED, 0xAE, 0xDA, 0x00, 0xB1, 0xEE, 0x00, 0xC8, 0xC4, 0xC0, 0xCC,
 213:src/printer.c ****     0xD4, 0x00, 0x00, 0xB5, 0xC9, 0xC5, 0xC1, 0xCD, 0xD9, 0xD5, 0xD1, 0xDD,
 214:src/printer.c ****     0xB7, 0xCA, 0xC6, 0xC2, 0xCE, 0x00, 0xEC, 0x00, 0xCB, 0xC7, 0xC4, 0xCF,
 215:src/printer.c ****     0x00, 0xB2, 0xEF, 0x00, };
 216:src/printer.c **** 
 217:src/printer.c ****   // Determine character sizes and pointers
 218:src/printer.c ****   findlengths( posns, mode == PMODE_SMALLGRAPHICS );
 995              		.loc 1 218 3 is_stmt 0 view .LVU257
 996 0014 A9F10204 		sub	r4, r9, #2
 187:src/printer.c ****   const int mode = UState.print_mode;
 997              		.loc 1 187 1 view .LVU258
 998 0018 ADF5597D 		sub	sp, sp, #868
 999              		.cfi_def_cfa_offset 912
 1000              		.loc 1 218 3 view .LVU259
 1001 001c B4FA84F4 		clz	r4, r4
 187:src/printer.c ****   const int mode = UState.print_mode;
 1002              		.loc 1 187 1 view .LVU260
 1003 0020 0B46     		mov	r3, r1
 1004              	.LVL93:
 219:src/printer.c **** 
 220:src/printer.c ****   // Print line
 221:src/printer.c ****   while ( ( c = *( (const unsigned char *) buff++ ) ) != '\0') {
 1005              		.loc 1 221 20 view .LVU261
 1006 0022 8046     		mov	r8, r0
 201:src/printer.c ****     0x00, 0x00, 0x83, 0x84, 0xB3, 0x20, 0x00, 0xFE, 0x89, 0x8A, 0x8B, 0x00,
 1007              		.loc 1 201 23 view .LVU262
ARM GAS  /tmp/ccZqGyHG.s 			page 26


 1008 0024 9049     		ldr	r1, .L185+4
 1009              	.LVL94:
 187:src/printer.c ****   const int mode = UState.print_mode;
 1010              		.loc 1 187 1 view .LVU263
 1011 0026 0193     		str	r3, [sp, #4]
 201:src/printer.c ****     0x00, 0x00, 0x83, 0x84, 0xB3, 0x20, 0x00, 0xFE, 0x89, 0x8A, 0x8B, 0x00,
 1012              		.loc 1 201 23 view .LVU264
 1013 0028 A022     		movs	r2, #160
 218:src/printer.c **** 
 1014              		.loc 1 218 3 view .LVU265
 1015 002a 6409     		lsrs	r4, r4, #5
 201:src/printer.c ****     0x00, 0x00, 0x83, 0x84, 0xB3, 0x20, 0x00, 0xFE, 0x89, 0x8A, 0x8B, 0x00,
 1016              		.loc 1 201 23 view .LVU266
 1017 002c 05A8     		add	r0, sp, #20
 1018              	.LVL95:
 201:src/printer.c ****     0x00, 0x00, 0x83, 0x84, 0xB3, 0x20, 0x00, 0xFE, 0x89, 0x8A, 0x8B, 0x00,
 1019              		.loc 1 201 23 view .LVU267
 1020 002e FFF7FEFF 		bl	memcpy
 1021              	.LVL96:
 218:src/printer.c **** 
 1022              		.loc 1 218 3 is_stmt 1 view .LVU268
 1023 0032 2146     		mov	r1, r4
 1024 0034 57A8     		add	r0, sp, #348
 1025 0036 FFF7FEFF 		bl	findlengths
 1026              	.LVL97:
 1027              		.loc 1 221 3 view .LVU269
 1028              		.loc 1 221 9 view .LVU270
 1029              		.loc 1 221 17 is_stmt 0 view .LVU271
 1030 003a 18F801AB 		ldrb	r10, [r8], #1	@ zero_extendqisi2
 1031              	.LVL98:
 1032              		.loc 1 221 9 view .LVU272
 1033 003e BAF1000F 		cmp	r10, #0
 1034 0042 00F00581 		beq	.L159
 1035 0046 08EE104A 		vmov	s16, r4	@ int
 1036 004a 5046     		mov	r0, r10
 193:src/printer.c ****   unsigned char i, j, m, w = 0;
 1037              		.loc 1 193 17 view .LVU273
 1038 004c 0025     		movs	r5, #0
 1039 004e 2DAF     		add	r7, sp, #180
 222:src/printer.c **** 
 223:src/printer.c ****     w= 0;
 224:src/printer.c ****     switch ( mode ) {
 225:src/printer.c **** 
 226:src/printer.c ****     case PMODE_DEFAULT:			// Mixed character and graphic printing
 227:src/printer.c ****       if ( c == 006 && *buff == 006 ) {
 228:src/printer.c **** 	// merge small spaces
 229:src/printer.c **** 	continue;
 230:src/printer.c ****       }
 231:src/printer.c ****       i = c < ' ' ? printer_chars[ c - 1 ]
 232:src/printer.c **** 	: c > 126 ? printer_chars[ c - 127 + 31 ]
 233:src/printer.c **** 	: c;
 234:src/printer.c **** 
 235:src/printer.c ****       if ( i != 0 ) {
 236:src/printer.c **** 	// Use printer character set
 237:src/printer.c **** 	w = PrinterColumn == 0 || PrinterColumn == 160 ? 6 : 7;
 238:src/printer.c **** 	print_graphic( glen, graphic );
 239:src/printer.c **** 	glen = 0;
ARM GAS  /tmp/ccZqGyHG.s 			page 27


 240:src/printer.c **** 	wrap( w );
 241:src/printer.c **** 	put_ir( i );
 242:src/printer.c ****       }
 243:src/printer.c ****       else {
 244:src/printer.c **** 	// graphic printing of characters unknown to the printer
 245:src/printer.c **** 	w = 6;
 246:src/printer.c **** 	if ( PrinterColumn > 0 && PrinterColumn < PAPER_WIDTH ) {
 247:src/printer.c **** 	  // Add horizontal spacing
 248:src/printer.c **** 	  graphic[ glen++ ] = 0;
 249:src/printer.c **** 	  ++PrinterColumn;
 250:src/printer.c **** 	  if ( PrinterColumn == 161 ) {
 251:src/printer.c **** 	    w = 5;
 252:src/printer.c **** 	  }
 253:src/printer.c **** 	}
 254:src/printer.c **** 	goto graphic_print;
 255:src/printer.c ****       }
 256:src/printer.c ****       break;
 257:src/printer.c **** 
 258:src/printer.c ****     case PMODE_SMALLGRAPHICS:		// Small font
 259:src/printer.c ****       c += 256;
 260:src/printer.c **** 
 261:src/printer.c ****     case PMODE_GRAPHICS:			// Standard font
 262:src/printer.c ****     graphic_print:
 263:src/printer.c ****       // Spit out the character as a graphic
 264:src/printer.c ****       unpackchar( c, pattern, mode == PMODE_SMALLGRAPHICS, posns );
 265:src/printer.c ****       if ( w == 0 ) {
 266:src/printer.c **** 	w = charlengths( c );
 267:src/printer.c **** 	if ( PrinterColumn + w == 167 ) {
 268:src/printer.c **** 	  // drop last column on last character in line
 269:src/printer.c **** 	  --w;
 270:src/printer.c **** 	}
 271:src/printer.c ****       }
 272:src/printer.c ****       if ( PrinterColumn + w > PAPER_WIDTH ) {
 273:src/printer.c **** 	print_graphic( glen, graphic ); 
 274:src/printer.c **** 	glen = 0;
 275:src/printer.c ****       }
 276:src/printer.c ****       wrap( w );
 277:src/printer.c ****       // Transpose the pattern
 278:src/printer.c ****       m = 1;
 279:src/printer.c ****       for ( i = 0; i < w; ++i ) {
 280:src/printer.c **** 	c = 0;
 281:src/printer.c **** 	for ( j = 0; j < 6; ++j ) {
 282:src/printer.c **** 	  if ( pattern[ j ] & m ) {
 283:src/printer.c **** 	    c |= ( 2 << j );
 1040              		.loc 1 283 15 view .LVU274
 1041 0050 0224     		movs	r4, #2
 1042 0052 0BE0     		b	.L155
 1043              	.LVL99:
 1044              	.L180:
 224:src/printer.c **** 
 1045              		.loc 1 224 5 view .LVU275
 1046 0054 B9F1000F 		cmp	r9, #0
 1047 0058 7FD0     		beq	.L179
 1048              	.LVL100:
 1049              	.L173:
 224:src/printer.c **** 
 1050              		.loc 1 224 5 view .LVU276
ARM GAS  /tmp/ccZqGyHG.s 			page 28


 1051 005a 98F800A0 		ldrb	r10, [r8]	@ zero_extendqisi2
 1052 005e AB46     		mov	fp, r5
 1053              	.L144:
 1054              	.LVL101:
 221:src/printer.c **** 
 1055              		.loc 1 221 9 is_stmt 1 view .LVU277
 221:src/printer.c **** 
 1056              		.loc 1 221 20 is_stmt 0 view .LVU278
 1057 0060 08F10108 		add	r8, r8, #1
 1058              	.LVL102:
 221:src/printer.c **** 
 1059              		.loc 1 221 15 view .LVU279
 1060 0064 5046     		mov	r0, r10
 1061              	.LVL103:
 221:src/printer.c **** 
 1062              		.loc 1 221 9 view .LVU280
 1063 0066 BAF1000F 		cmp	r10, #0
 1064 006a 5FD0     		beq	.L129
 1065              	.LVL104:
 1066              	.L155:
 223:src/printer.c ****     switch ( mode ) {
 1067              		.loc 1 223 5 is_stmt 1 view .LVU281
 224:src/printer.c **** 
 1068              		.loc 1 224 5 view .LVU282
 1069 006c B9F1010F 		cmp	r9, #1
 1070 0070 69D0     		beq	.L130
 224:src/printer.c **** 
 1071              		.loc 1 224 5 is_stmt 0 view .LVU283
 1072 0072 B9F1020F 		cmp	r9, #2
 1073 0076 EDD1     		bne	.L180
 259:src/printer.c **** 
 1074              		.loc 1 259 7 is_stmt 1 view .LVU284
 264:src/printer.c ****       if ( w == 0 ) {
 1075              		.loc 1 264 7 is_stmt 0 view .LVU285
 1076 0078 03AE     		add	r6, sp, #12
 259:src/printer.c **** 
 1077              		.loc 1 259 9 view .LVU286
 1078 007a 00F58070 		add	r0, r0, #256
 1079              	.LVL105:
 264:src/printer.c ****       if ( w == 0 ) {
 1080              		.loc 1 264 7 is_stmt 1 view .LVU287
 1081 007e 3146     		mov	r1, r6
 1082 0080 57AB     		add	r3, sp, #348
 1083 0082 0122     		movs	r2, #1
 1084 0084 0090     		str	r0, [sp]
 1085 0086 FFF7FEFF 		bl	unpackchar
 1086              	.LVL106:
 265:src/printer.c **** 	w = charlengths( c );
 1087              		.loc 1 265 7 view .LVU288
 1088 008a 0098     		ldr	r0, [sp]
 1089              	.L134:
 266:src/printer.c **** 	if ( PrinterColumn + w == 167 ) {
 1090              		.loc 1 266 2 view .LVU289
 266:src/printer.c **** 	if ( PrinterColumn + w == 167 ) {
 1091              		.loc 1 266 6 is_stmt 0 view .LVU290
 1092 008c FFF7FEFF 		bl	charlengths
 1093              	.LVL107:
ARM GAS  /tmp/ccZqGyHG.s 			page 29


 267:src/printer.c **** 	  // drop last column on last character in line
 1094              		.loc 1 267 21 view .LVU291
 1095 0090 764B     		ldr	r3, .L185+8
 1096 0092 1A68     		ldr	r2, [r3]
 266:src/printer.c **** 	if ( PrinterColumn + w == 167 ) {
 1097              		.loc 1 266 4 view .LVU292
 1098 0094 5FFA80FA 		uxtb	r10, r0
 1099              	.LVL108:
 267:src/printer.c **** 	  // drop last column on last character in line
 1100              		.loc 1 267 2 is_stmt 1 view .LVU293
 267:src/printer.c **** 	  // drop last column on last character in line
 1101              		.loc 1 267 21 is_stmt 0 view .LVU294
 1102 0098 0AEB0203 		add	r3, r10, r2
 267:src/printer.c **** 	  // drop last column on last character in line
 1103              		.loc 1 267 5 view .LVU295
 1104 009c A72B     		cmp	r3, #167
 1105 009e 05D1     		bne	.L148
 269:src/printer.c **** 	}
 1106              		.loc 1 269 4 is_stmt 1 view .LVU296
 1107 00a0 0AF1FF3A 		add	r10, r10, #-1
 1108              	.LVL109:
 269:src/printer.c **** 	}
 1109              		.loc 1 269 4 is_stmt 0 view .LVU297
 1110 00a4 5FFA8AFA 		uxtb	r10, r10
 1111              	.LVL110:
 269:src/printer.c **** 	}
 1112              		.loc 1 269 4 view .LVU298
 1113 00a8 0AEB0203 		add	r3, r10, r2
 1114              	.L148:
 272:src/printer.c **** 	print_graphic( glen, graphic ); 
 1115              		.loc 1 272 7 is_stmt 1 view .LVU299
 272:src/printer.c **** 	print_graphic( glen, graphic ); 
 1116              		.loc 1 272 10 is_stmt 0 view .LVU300
 1117 00ac A62B     		cmp	r3, #166
 1118 00ae 00F29F80 		bhi	.L149
 272:src/printer.c **** 	print_graphic( glen, graphic ); 
 1119              		.loc 1 272 10 view .LVU301
 1120 00b2 AB46     		mov	fp, r5
 1121 00b4 5346     		mov	r3, r10
 1122              	.LVL111:
 1123              	.L150:
 276:src/printer.c ****       // Transpose the pattern
 1124              		.loc 1 276 7 is_stmt 1 view .LVU302
 1125 00b6 1846     		mov	r0, r3
 1126 00b8 FFF7FEFF 		bl	wrap
 1127              	.LVL112:
 278:src/printer.c ****       for ( i = 0; i < w; ++i ) {
 1128              		.loc 1 278 7 view .LVU303
 279:src/printer.c **** 	c = 0;
 1129              		.loc 1 279 7 view .LVU304
 279:src/printer.c **** 	c = 0;
 1130              		.loc 1 279 20 view .LVU305
 279:src/printer.c **** 	c = 0;
 1131              		.loc 1 279 7 is_stmt 0 view .LVU306
 1132 00bc BAF1000F 		cmp	r10, #0
 1133 00c0 2CD0     		beq	.L178
 1134              	.L151:
ARM GAS  /tmp/ccZqGyHG.s 			page 30


 274:src/printer.c ****       }
 1135              		.loc 1 274 7 view .LVU307
 1136 00c2 0120     		movs	r0, #1
 1137 00c4 4FF0000E 		mov	lr, #0
 1138              	.LVL113:
 1139              	.L154:
 274:src/printer.c ****       }
 1140              		.loc 1 274 7 view .LVU308
 1141 00c8 0EEB050B 		add	fp, lr, r5
 1142 00cc 0023     		movs	r3, #0
 1143 00ce 5FFA8BFB 		uxtb	fp, fp
 1144              	.LVL114:
 280:src/printer.c **** 	for ( j = 0; j < 6; ++j ) {
 1145              		.loc 1 280 4 view .LVU309
 1146 00d2 9C46     		mov	ip, r3
 1147 00d4 3246     		mov	r2, r6
 1148              	.L153:
 1149              	.LVL115:
 282:src/printer.c **** 	    c |= ( 2 << j );
 1150              		.loc 1 282 4 is_stmt 1 view .LVU310
 1151              		.loc 1 283 6 view .LVU311
 282:src/printer.c **** 	    c |= ( 2 << j );
 1152              		.loc 1 282 16 is_stmt 0 view .LVU312
 1153 00d6 12F8011B 		ldrb	r1, [r2], #1	@ zero_extendqisi2
 282:src/printer.c **** 	    c |= ( 2 << j );
 1154              		.loc 1 282 7 view .LVU313
 1155 00da 0142     		tst	r1, r0
 1156              		.loc 1 283 15 view .LVU314
 1157 00dc 18BF     		it	ne
 1158 00de 04FA03F1 		lslne	r1, r4, r3
 1159 00e2 03F10103 		add	r3, r3, #1
 1160              	.LVL116:
 1161              		.loc 1 283 8 view .LVU315
 1162 00e6 18BF     		it	ne
 1163 00e8 4CEA010C 		orrne	ip, ip, r1
 1164              	.LVL117:
 281:src/printer.c **** 	  if ( pattern[ j ] & m ) {
 1165              		.loc 1 281 22 is_stmt 1 view .LVU316
 281:src/printer.c **** 	  if ( pattern[ j ] & m ) {
 1166              		.loc 1 281 15 view .LVU317
 281:src/printer.c **** 	  if ( pattern[ j ] & m ) {
 1167              		.loc 1 281 2 is_stmt 0 view .LVU318
 1168 00ec 062B     		cmp	r3, #6
 1169 00ee F2D1     		bne	.L153
 284:src/printer.c **** 	  }
 285:src/printer.c **** 	}
 286:src/printer.c **** 	graphic[ glen++ ] = c;
 1170              		.loc 1 286 2 is_stmt 1 discriminator 2 view .LVU319
 1171              	.LVL118:
 279:src/printer.c **** 	c = 0;
 1172              		.loc 1 279 27 is_stmt 0 discriminator 2 view .LVU320
 1173 00f0 0EF1010E 		add	lr, lr, #1
 1174              	.LVL119:
 279:src/printer.c **** 	c = 0;
 1175              		.loc 1 279 27 discriminator 2 view .LVU321
 1176 00f4 5FFA8EFE 		uxtb	lr, lr
 287:src/printer.c **** 	m <<= 1;
ARM GAS  /tmp/ccZqGyHG.s 			page 31


 1177              		.loc 1 287 4 discriminator 2 view .LVU322
 1178 00f8 4000     		lsls	r0, r0, #1
 1179              	.LVL120:
 279:src/printer.c **** 	c = 0;
 1180              		.loc 1 279 7 discriminator 2 view .LVU323
 1181 00fa D645     		cmp	lr, r10
 286:src/printer.c **** 	m <<= 1;
 1182              		.loc 1 286 20 discriminator 2 view .LVU324
 1183 00fc 07F80BC0 		strb	ip, [r7, fp]
 1184              		.loc 1 287 2 is_stmt 1 discriminator 2 view .LVU325
 1185              		.loc 1 287 4 is_stmt 0 discriminator 2 view .LVU326
 1186 0100 C0B2     		uxtb	r0, r0
 1187              	.LVL121:
 279:src/printer.c **** 	c = 0;
 1188              		.loc 1 279 27 is_stmt 1 discriminator 2 view .LVU327
 279:src/printer.c **** 	c = 0;
 1189              		.loc 1 279 20 discriminator 2 view .LVU328
 279:src/printer.c **** 	c = 0;
 1190              		.loc 1 279 7 is_stmt 0 discriminator 2 view .LVU329
 1191 0102 E1D3     		bcc	.L154
 1192 0104 BAF1000F 		cmp	r10, #0
 1193 0108 0AF1FF33 		add	r3, r10, #-1
 1194 010c 05F10105 		add	r5, r5, #1
 1195 0110 08BF     		it	eq
 1196 0112 0023     		moveq	r3, #0
 1197 0114 53FA85F5 		uxtab	r5, r3, r5
 1198 0118 EDB2     		uxtb	r5, r5
 1199 011a AB46     		mov	fp, r5
 1200              	.LVL122:
 1201              	.L178:
 279:src/printer.c **** 	c = 0;
 1202              		.loc 1 279 7 discriminator 2 view .LVU330
 1203 011c 98F800A0 		ldrb	r10, [r8]	@ zero_extendqisi2
 1204              	.LVL123:
 221:src/printer.c **** 
 1205              		.loc 1 221 9 is_stmt 1 view .LVU331
 221:src/printer.c **** 
 1206              		.loc 1 221 20 is_stmt 0 view .LVU332
 1207 0120 08F10108 		add	r8, r8, #1
 1208              	.LVL124:
 221:src/printer.c **** 
 1209              		.loc 1 221 15 view .LVU333
 1210 0124 5046     		mov	r0, r10
 1211              	.LVL125:
 221:src/printer.c **** 
 1212              		.loc 1 221 9 view .LVU334
 1213 0126 BAF1000F 		cmp	r10, #0
 1214 012a 9FD1     		bne	.L155
 1215              	.LVL126:
 1216              	.L129:
 288:src/printer.c ****       }
 289:src/printer.c ****       break;
 290:src/printer.c ****     }
 291:src/printer.c ****   }
 292:src/printer.c ****   print_graphic( glen, graphic );
 1217              		.loc 1 292 3 is_stmt 1 view .LVU335
 1218 012c 3946     		mov	r1, r7
ARM GAS  /tmp/ccZqGyHG.s 			page 32


 1219 012e 5846     		mov	r0, fp
 1220 0130 FFF7FEFF 		bl	print_graphic
 1221              	.LVL127:
 293:src/printer.c ****   if ( with_lf ) {
 1222              		.loc 1 293 3 view .LVU336
 1223              		.loc 1 293 6 is_stmt 0 view .LVU337
 1224 0134 019B     		ldr	r3, [sp, #4]
 1225 0136 002B     		cmp	r3, #0
 1226 0138 6ED1     		bne	.L181
 294:src/printer.c ****     print_advance( 0 );
 295:src/printer.c ****   }
 296:src/printer.c **** }
 1227              		.loc 1 296 1 view .LVU338
 1228 013a 0DF5597D 		add	sp, sp, #868
 1229              		.cfi_remember_state
 1230              		.cfi_def_cfa_offset 44
 1231              		@ sp needed
 1232 013e BDEC028B 		vldm	sp!, {d8}
 1233              		.cfi_restore 80
 1234              		.cfi_restore 81
 1235              		.cfi_def_cfa_offset 36
 1236 0142 BDE8F08F 		pop	{r4, r5, r6, r7, r8, r9, r10, fp, pc}
 1237              	.LVL128:
 1238              	.L130:
 1239              		.cfi_restore_state
 264:src/printer.c ****       if ( w == 0 ) {
 1240              		.loc 1 264 7 is_stmt 1 view .LVU339
 1241 0146 03AE     		add	r6, sp, #12
 1242 0148 18EE102A 		vmov	r2, s16	@ int
 1243 014c 3146     		mov	r1, r6
 1244 014e 57AB     		add	r3, sp, #348
 1245 0150 0090     		str	r0, [sp]
 1246 0152 FFF7FEFF 		bl	unpackchar
 1247              	.LVL129:
 265:src/printer.c **** 	w = charlengths( c );
 1248              		.loc 1 265 7 view .LVU340
 1249 0156 0098     		ldr	r0, [sp]
 1250 0158 98E7     		b	.L134
 1251              	.LVL130:
 1252              	.L179:
 227:src/printer.c **** 	// merge small spaces
 1253              		.loc 1 227 7 view .LVU341
 227:src/printer.c **** 	// merge small spaces
 1254              		.loc 1 227 10 is_stmt 0 view .LVU342
 1255 015a 0628     		cmp	r0, #6
 1256 015c 24D0     		beq	.L174
 231:src/printer.c **** 	: c > 126 ? printer_chars[ c - 127 + 31 ]
 1257              		.loc 1 231 7 is_stmt 1 view .LVU343
 231:src/printer.c **** 	: c > 126 ? printer_chars[ c - 127 + 31 ]
 1258              		.loc 1 231 9 is_stmt 0 view .LVU344
 1259 015e 1F28     		cmp	r0, #31
 1260 0160 26D9     		bls	.L136
 231:src/printer.c **** 	: c > 126 ? printer_chars[ c - 127 + 31 ]
 1261              		.loc 1 231 9 discriminator 2 view .LVU345
 1262 0162 7E28     		cmp	r0, #126
 1263 0164 50D8     		bhi	.L182
 1264              	.LVL131:
ARM GAS  /tmp/ccZqGyHG.s 			page 33


 1265              	.L140:
 237:src/printer.c **** 	print_graphic( glen, graphic );
 1266              		.loc 1 237 2 is_stmt 1 view .LVU346
 237:src/printer.c **** 	print_graphic( glen, graphic );
 1267              		.loc 1 237 20 is_stmt 0 view .LVU347
 1268 0166 414B     		ldr	r3, .L185+8
 1269 0168 1B68     		ldr	r3, [r3]
 237:src/printer.c **** 	print_graphic( glen, graphic );
 1270              		.loc 1 237 4 view .LVU348
 1271 016a 002B     		cmp	r3, #0
 1272 016c 4AD0     		beq	.L160
 237:src/printer.c **** 	print_graphic( glen, graphic );
 1273              		.loc 1 237 25 discriminator 2 view .LVU349
 1274 016e A02B     		cmp	r3, #160
 1275 0170 0CBF     		ite	eq
 1276 0172 0626     		moveq	r6, #6
 1277 0174 0726     		movne	r6, #7
 1278              	.L142:
 1279              	.LVL132:
 238:src/printer.c **** 	glen = 0;
 1280              		.loc 1 238 2 is_stmt 1 discriminator 6 view .LVU350
 1281 0176 2846     		mov	r0, r5
 1282 0178 3946     		mov	r1, r7
 1283 017a FFF7FEFF 		bl	print_graphic
 1284              	.LVL133:
 239:src/printer.c **** 	wrap( w );
 1285              		.loc 1 239 2 discriminator 6 view .LVU351
 240:src/printer.c **** 	put_ir( i );
 1286              		.loc 1 240 2 discriminator 6 view .LVU352
 1287 017e 3046     		mov	r0, r6
 1288 0180 FFF7FEFF 		bl	wrap
 1289              	.LVL134:
 241:src/printer.c ****       }
 1290              		.loc 1 241 2 discriminator 6 view .LVU353
 1291              	.LBB92:
 1292              	.LBI92:
  51:src/printer.c ****   if (UState.print_on) print_byte( (uint8_t) byte);
 1293              		.loc 1 51 6 discriminator 6 view .LVU354
 1294              	.LBB93:
  52:src/printer.c **** }
 1295              		.loc 1 52 3 discriminator 6 view .LVU355
  52:src/printer.c **** }
 1296              		.loc 1 52 7 is_stmt 0 discriminator 6 view .LVU356
 1297 0184 374B     		ldr	r3, .L185
 1298 0186 1B68     		ldr	r3, [r3]
 1299 0188 93F8E457 		ldrb	r5, [r3, #2020]	@ zero_extendqisi2
  52:src/printer.c **** }
 1300              		.loc 1 52 6 discriminator 6 view .LVU357
 1301 018c 15F00105 		ands	r5, r5, #1
 1302 0190 3FF463AF 		beq	.L173
 1303 0194 5046     		mov	r0, r10
 1304 0196 0025     		movs	r5, #0
 1305 0198 FFF7FEFF 		bl	put_ir.part.0
 1306              	.LVL135:
 1307              	.LBE93:
 1308              	.LBE92:
 239:src/printer.c **** 	wrap( w );
ARM GAS  /tmp/ccZqGyHG.s 			page 34


 1309              		.loc 1 239 7 view .LVU358
 1310 019c AB46     		mov	fp, r5
 1311 019e 98F800A0 		ldrb	r10, [r8]	@ zero_extendqisi2
 1312              	.LVL136:
 239:src/printer.c **** 	wrap( w );
 1313              		.loc 1 239 7 view .LVU359
 1314 01a2 5DE7     		b	.L144
 1315              	.LVL137:
 1316              	.L183:
 221:src/printer.c **** 
 1317              		.loc 1 221 9 is_stmt 1 view .LVU360
 221:src/printer.c **** 
 1318              		.loc 1 221 20 is_stmt 0 view .LVU361
 1319 01a4 08F10108 		add	r8, r8, #1
 1320              	.LVL138:
 1321              	.L174:
 227:src/printer.c **** 	// merge small spaces
 1322              		.loc 1 227 24 discriminator 1 view .LVU362
 1323 01a8 98F80030 		ldrb	r3, [r8]	@ zero_extendqisi2
 227:src/printer.c **** 	// merge small spaces
 1324              		.loc 1 227 21 discriminator 1 view .LVU363
 1325 01ac 062B     		cmp	r3, #6
 1326 01ae F9D0     		beq	.L183
 1327              	.L136:
 231:src/printer.c **** 	: c > 126 ? printer_chars[ c - 127 + 31 ]
 1328              		.loc 1 231 9 discriminator 1 view .LVU364
 1329 01b0 05AB     		add	r3, sp, #20
 1330 01b2 0344     		add	r3, r3, r0
 1331 01b4 13F801AC 		ldrb	r10, [r3, #-1]	@ zero_extendqisi2
 1332              	.LVL139:
 235:src/printer.c **** 	// Use printer character set
 1333              		.loc 1 235 7 is_stmt 1 discriminator 1 view .LVU365
 235:src/printer.c **** 	// Use printer character set
 1334              		.loc 1 235 10 is_stmt 0 discriminator 1 view .LVU366
 1335 01b8 BAF1000F 		cmp	r10, #0
 1336 01bc D3D1     		bne	.L140
 1337              	.L141:
 245:src/printer.c **** 	if ( PrinterColumn > 0 && PrinterColumn < PAPER_WIDTH ) {
 1338              		.loc 1 245 2 is_stmt 1 view .LVU367
 1339              	.LVL140:
 246:src/printer.c **** 	  // Add horizontal spacing
 1340              		.loc 1 246 2 view .LVU368
 246:src/printer.c **** 	  // Add horizontal spacing
 1341              		.loc 1 246 25 is_stmt 0 view .LVU369
 1342 01be DFF8ACB0 		ldr	fp, .L185+8
 1343 01c2 DBF80030 		ldr	r3, [fp]
 1344 01c6 5A1E     		subs	r2, r3, #1
 246:src/printer.c **** 	  // Add horizontal spacing
 1345              		.loc 1 246 5 view .LVU370
 1346 01c8 A42A     		cmp	r2, #164
 1347 01ca 2ED9     		bls	.L145
 1348              	.LVL141:
 264:src/printer.c ****       if ( w == 0 ) {
 1349              		.loc 1 264 7 is_stmt 1 view .LVU371
 1350 01cc 03AE     		add	r6, sp, #12
 1351 01ce 5246     		mov	r2, r10
 1352 01d0 57AB     		add	r3, sp, #348
ARM GAS  /tmp/ccZqGyHG.s 			page 35


 1353 01d2 3146     		mov	r1, r6
 1354 01d4 FFF7FEFF 		bl	unpackchar
 1355              	.LVL142:
 265:src/printer.c **** 	w = charlengths( c );
 1356              		.loc 1 265 7 view .LVU372
 264:src/printer.c ****       if ( w == 0 ) {
 1357              		.loc 1 264 7 is_stmt 0 view .LVU373
 1358 01d8 0622     		movs	r2, #6
 1359 01da 1346     		mov	r3, r2
 245:src/printer.c **** 	if ( PrinterColumn > 0 && PrinterColumn < PAPER_WIDTH ) {
 1360              		.loc 1 245 4 view .LVU374
 1361 01dc 9246     		mov	r10, r2
 1362              	.LVL143:
 1363              	.L146:
 272:src/printer.c **** 	print_graphic( glen, graphic ); 
 1364              		.loc 1 272 7 is_stmt 1 view .LVU375
 272:src/printer.c **** 	print_graphic( glen, graphic ); 
 1365              		.loc 1 272 26 is_stmt 0 view .LVU376
 1366 01de DBF80010 		ldr	r1, [fp]
 1367 01e2 0A44     		add	r2, r2, r1
 272:src/printer.c **** 	print_graphic( glen, graphic ); 
 1368              		.loc 1 272 10 view .LVU377
 1369 01e4 A62A     		cmp	r2, #166
 1370 01e6 04D8     		bhi	.L157
 276:src/printer.c ****       // Transpose the pattern
 1371              		.loc 1 276 7 is_stmt 1 view .LVU378
 1372 01e8 1846     		mov	r0, r3
 1373 01ea FFF7FEFF 		bl	wrap
 1374              	.LVL144:
 278:src/printer.c ****       for ( i = 0; i < w; ++i ) {
 1375              		.loc 1 278 7 view .LVU379
 279:src/printer.c **** 	c = 0;
 1376              		.loc 1 279 7 view .LVU380
 279:src/printer.c **** 	c = 0;
 1377              		.loc 1 279 20 view .LVU381
 1378 01ee 68E7     		b	.L151
 1379              	.LVL145:
 1380              	.L149:
 279:src/printer.c **** 	c = 0;
 1381              		.loc 1 279 20 is_stmt 0 view .LVU382
 1382 01f0 5346     		mov	r3, r10
 1383              	.LVL146:
 1384              	.L157:
 273:src/printer.c **** 	glen = 0;
 1385              		.loc 1 273 2 view .LVU383
 1386 01f2 2846     		mov	r0, r5
 1387 01f4 3946     		mov	r1, r7
 1388 01f6 0025     		movs	r5, #0
 1389              	.LVL147:
 273:src/printer.c **** 	glen = 0;
 1390              		.loc 1 273 2 view .LVU384
 1391 01f8 0093     		str	r3, [sp]
 273:src/printer.c **** 	glen = 0;
 1392              		.loc 1 273 2 is_stmt 1 view .LVU385
 274:src/printer.c ****       }
 1393              		.loc 1 274 7 is_stmt 0 view .LVU386
 1394 01fa AB46     		mov	fp, r5
ARM GAS  /tmp/ccZqGyHG.s 			page 36


 273:src/printer.c **** 	glen = 0;
 1395              		.loc 1 273 2 view .LVU387
 1396 01fc FFF7FEFF 		bl	print_graphic
 1397              	.LVL148:
 274:src/printer.c ****       }
 1398              		.loc 1 274 2 is_stmt 1 view .LVU388
 274:src/printer.c ****       }
 1399              		.loc 1 274 7 is_stmt 0 view .LVU389
 1400 0200 009B     		ldr	r3, [sp]
 1401 0202 58E7     		b	.L150
 1402              	.LVL149:
 1403              	.L160:
 274:src/printer.c ****       }
 1404              		.loc 1 274 7 view .LVU390
 1405 0204 0626     		movs	r6, #6
 1406 0206 B6E7     		b	.L142
 1407              	.LVL150:
 1408              	.L182:
 231:src/printer.c **** 	: c > 126 ? printer_chars[ c - 127 + 31 ]
 1409              		.loc 1 231 9 discriminator 4 view .LVU391
 1410 0208 05AB     		add	r3, sp, #20
 1411 020a 0344     		add	r3, r3, r0
 1412 020c 13F860AC 		ldrb	r10, [r3, #-96]	@ zero_extendqisi2
 1413              	.LVL151:
 235:src/printer.c **** 	// Use printer character set
 1414              		.loc 1 235 7 is_stmt 1 discriminator 4 view .LVU392
 235:src/printer.c **** 	// Use printer character set
 1415              		.loc 1 235 10 is_stmt 0 discriminator 4 view .LVU393
 1416 0210 BAF1000F 		cmp	r10, #0
 1417 0214 A7D1     		bne	.L140
 1418 0216 D2E7     		b	.L141
 1419              	.LVL152:
 1420              	.L181:
 294:src/printer.c ****   }
 1421              		.loc 1 294 5 is_stmt 1 view .LVU394
 1422 0218 0020     		movs	r0, #0
 1423 021a FFF7FEFF 		bl	print_advance
 1424              	.LVL153:
 1425              		.loc 1 296 1 is_stmt 0 view .LVU395
 1426 021e 0DF5597D 		add	sp, sp, #868
 1427              		.cfi_remember_state
 1428              		.cfi_def_cfa_offset 44
 1429              		@ sp needed
 1430 0222 BDEC028B 		vldm	sp!, {d8}
 1431              		.cfi_restore 80
 1432              		.cfi_restore 81
 1433              		.cfi_def_cfa_offset 36
 1434 0226 BDE8F08F 		pop	{r4, r5, r6, r7, r8, r9, r10, fp, pc}
 1435              	.LVL154:
 1436              	.L145:
 1437              		.cfi_restore_state
 248:src/printer.c **** 	  ++PrinterColumn;
 1438              		.loc 1 248 4 is_stmt 1 view .LVU396
 249:src/printer.c **** 	  if ( PrinterColumn == 161 ) {
 1439              		.loc 1 249 4 is_stmt 0 view .LVU397
 1440 022a 0133     		adds	r3, r3, #1
 248:src/printer.c **** 	  ++PrinterColumn;
ARM GAS  /tmp/ccZqGyHG.s 			page 37


 1441              		.loc 1 248 17 view .LVU398
 1442 022c 6A1C     		adds	r2, r5, #1
 264:src/printer.c ****       if ( w == 0 ) {
 1443              		.loc 1 264 7 view .LVU399
 1444 022e 03AE     		add	r6, sp, #12
 250:src/printer.c **** 	    w = 5;
 1445              		.loc 1 250 7 view .LVU400
 1446 0230 A12B     		cmp	r3, #161
 248:src/printer.c **** 	  ++PrinterColumn;
 1447              		.loc 1 248 22 view .LVU401
 1448 0232 07F805A0 		strb	r10, [r7, r5]
 249:src/printer.c **** 	  if ( PrinterColumn == 161 ) {
 1449              		.loc 1 249 4 view .LVU402
 1450 0236 CBF80030 		str	r3, [fp]
 248:src/printer.c **** 	  ++PrinterColumn;
 1451              		.loc 1 248 17 view .LVU403
 1452 023a D5B2     		uxtb	r5, r2
 1453              	.LVL155:
 249:src/printer.c **** 	  if ( PrinterColumn == 161 ) {
 1454              		.loc 1 249 4 is_stmt 1 view .LVU404
 250:src/printer.c **** 	    w = 5;
 1455              		.loc 1 250 4 view .LVU405
 264:src/printer.c ****       if ( w == 0 ) {
 1456              		.loc 1 264 7 is_stmt 0 view .LVU406
 1457 023c 3146     		mov	r1, r6
 1458 023e 5246     		mov	r2, r10
 1459 0240 57AB     		add	r3, sp, #348
 250:src/printer.c **** 	    w = 5;
 1460              		.loc 1 250 7 view .LVU407
 1461 0242 08D0     		beq	.L184
 1462              	.LVL156:
 264:src/printer.c ****       if ( w == 0 ) {
 1463              		.loc 1 264 7 is_stmt 1 view .LVU408
 1464 0244 FFF7FEFF 		bl	unpackchar
 1465              	.LVL157:
 265:src/printer.c **** 	w = charlengths( c );
 1466              		.loc 1 265 7 view .LVU409
 264:src/printer.c ****       if ( w == 0 ) {
 1467              		.loc 1 264 7 is_stmt 0 view .LVU410
 1468 0248 0622     		movs	r2, #6
 1469 024a 1346     		mov	r3, r2
 245:src/printer.c **** 	if ( PrinterColumn > 0 && PrinterColumn < PAPER_WIDTH ) {
 1470              		.loc 1 245 4 view .LVU411
 1471 024c 9246     		mov	r10, r2
 1472              	.LVL158:
 245:src/printer.c **** 	if ( PrinterColumn > 0 && PrinterColumn < PAPER_WIDTH ) {
 1473              		.loc 1 245 4 view .LVU412
 1474 024e C6E7     		b	.L146
 1475              	.LVL159:
 1476              	.L159:
 221:src/printer.c **** 
 1477              		.loc 1 221 9 view .LVU413
 1478 0250 D346     		mov	fp, r10
 1479 0252 2DAF     		add	r7, sp, #180
 1480 0254 6AE7     		b	.L129
 1481              	.LVL160:
 1482              	.L184:
ARM GAS  /tmp/ccZqGyHG.s 			page 38


 251:src/printer.c **** 	  }
 1483              		.loc 1 251 6 is_stmt 1 view .LVU414
 264:src/printer.c ****       if ( w == 0 ) {
 1484              		.loc 1 264 7 view .LVU415
 1485 0256 FFF7FEFF 		bl	unpackchar
 1486              	.LVL161:
 265:src/printer.c **** 	w = charlengths( c );
 1487              		.loc 1 265 7 view .LVU416
 264:src/printer.c ****       if ( w == 0 ) {
 1488              		.loc 1 264 7 is_stmt 0 view .LVU417
 1489 025a 0522     		movs	r2, #5
 1490 025c 1346     		mov	r3, r2
 251:src/printer.c **** 	  }
 1491              		.loc 1 251 8 view .LVU418
 1492 025e 9246     		mov	r10, r2
 1493              	.LVL162:
 251:src/printer.c **** 	  }
 1494              		.loc 1 251 8 view .LVU419
 1495 0260 BDE7     		b	.L146
 1496              	.L186:
 1497 0262 00BF     		.align	2
 1498              	.L185:
 1499 0264 00000000 		.word	main_ram
 1500 0268 00000000 		.word	.LANCHOR0
 1501 026c 00000000 		.word	PrinterColumn
 1502              		.cfi_endproc
 1503              	.LFE10:
 1505              		.section	.text.print_justified,"ax",%progbits
 1506              		.align	1
 1507              		.p2align 2,,3
 1508              		.global	print_justified
 1509              		.syntax unified
 1510              		.thumb
 1511              		.thumb_func
 1512              		.fpu fpv4-sp-d16
 1514              	print_justified:
 1515              	.LVL163:
 1516              	.LFB11:
 297:src/printer.c **** 
 298:src/printer.c **** 
 299:src/printer.c **** /*
 300:src/printer.c ****  *  Print buffer right justified
 301:src/printer.c ****  */
 302:src/printer.c **** void print_justified( const char *buff )
 303:src/printer.c **** {
 1517              		.loc 1 303 1 is_stmt 1 view -0
 1518              		.cfi_startproc
 1519              		@ args = 0, pretend = 0, frame = 0
 1520              		@ frame_needed = 0, uses_anonymous_args = 0
 304:src/printer.c ****   const int pmode = UState.print_mode;
 1521              		.loc 1 304 3 view .LVU421
 1522              		.loc 1 304 27 is_stmt 0 view .LVU422
 1523 0000 134B     		ldr	r3, .L195
 1524 0002 1B68     		ldr	r3, [r3]
 1525 0004 93F8EA17 		ldrb	r1, [r3, #2026]	@ zero_extendqisi2
 1526              	.LVL164:
 305:src/printer.c ****   int len = pmode == PMODE_DEFAULT ? slen( buff ) * 7 - 1
ARM GAS  /tmp/ccZqGyHG.s 			page 39


 1527              		.loc 1 305 3 is_stmt 1 view .LVU423
 306:src/printer.c ****     : pixel_length( buff, pmode == PMODE_SMALLGRAPHICS );
 1528              		.loc 1 306 5 is_stmt 0 view .LVU424
 1529 0008 11F00301 		ands	r1, r1, #3
 1530              	.LVL165:
 303:src/printer.c ****   const int pmode = UState.print_mode;
 1531              		.loc 1 303 1 view .LVU425
 1532 000c 10B5     		push	{r4, lr}
 1533              		.cfi_def_cfa_offset 8
 1534              		.cfi_offset 4, -8
 1535              		.cfi_offset 14, -4
 303:src/printer.c ****   const int pmode = UState.print_mode;
 1536              		.loc 1 303 1 view .LVU426
 1537 000e 0446     		mov	r4, r0
 1538              		.loc 1 306 5 view .LVU427
 1539 0010 12D1     		bne	.L188
 305:src/printer.c ****   int len = pmode == PMODE_DEFAULT ? slen( buff ) * 7 - 1
 1540              		.loc 1 305 38 discriminator 1 view .LVU428
 1541 0012 FFF7FEFF 		bl	slen
 1542              	.LVL166:
 305:src/printer.c ****   int len = pmode == PMODE_DEFAULT ? slen( buff ) * 7 - 1
 1543              		.loc 1 305 51 discriminator 1 view .LVU429
 1544 0016 C0EBC003 		rsb	r3, r0, r0, lsl #3
 1545              		.loc 1 306 5 discriminator 1 view .LVU430
 1546 001a 581E     		subs	r0, r3, #1
 1547              	.LVL167:
 307:src/printer.c **** 
 308:src/printer.c ****   if ( len >= PAPER_WIDTH ) {
 1548              		.loc 1 308 3 is_stmt 1 discriminator 1 view .LVU431
 1549              		.loc 1 308 6 is_stmt 0 discriminator 1 view .LVU432
 1550 001c A528     		cmp	r0, #165
 1551 001e 14DC     		bgt	.L192
 1552              	.L194:
 309:src/printer.c ****     len = PAPER_WIDTH;
 310:src/printer.c ****   }
 311:src/printer.c ****   if ( len > 0 ) {
 1553              		.loc 1 311 3 is_stmt 1 view .LVU433
 1554              		.loc 1 311 6 is_stmt 0 view .LVU434
 1555 0020 0028     		cmp	r0, #0
 1556 0022 03DD     		ble	.L191
 1557              		.loc 1 311 6 view .LVU435
 1558 0024 C0F1A600 		rsb	r0, r0, #166
 1559              	.LVL168:
 1560              	.L190:
 312:src/printer.c ****     print_tab( PAPER_WIDTH - len );
 1561              		.loc 1 312 5 is_stmt 1 view .LVU436
 1562 0028 FFF7FEFF 		bl	print_tab
 1563              	.LVL169:
 1564              	.L191:
 313:src/printer.c ****   }
 314:src/printer.c ****   print_line( buff, 1 );
 1565              		.loc 1 314 3 view .LVU437
 1566 002c 2046     		mov	r0, r4
 1567 002e 0121     		movs	r1, #1
 315:src/printer.c **** }
 1568              		.loc 1 315 1 is_stmt 0 view .LVU438
 1569 0030 BDE81040 		pop	{r4, lr}
ARM GAS  /tmp/ccZqGyHG.s 			page 40


 1570              		.cfi_remember_state
 1571              		.cfi_restore 14
 1572              		.cfi_restore 4
 1573              		.cfi_def_cfa_offset 0
 1574              	.LVL170:
 314:src/printer.c **** }
 1575              		.loc 1 314 3 view .LVU439
 1576 0034 FFF7FEBF 		b	print_line
 1577              	.LVL171:
 1578              	.L188:
 1579              		.cfi_restore_state
 306:src/printer.c **** 
 1580              		.loc 1 306 7 discriminator 2 view .LVU440
 1581 0038 A1F10201 		sub	r1, #2
 1582              	.LVL172:
 306:src/printer.c **** 
 1583              		.loc 1 306 7 discriminator 2 view .LVU441
 1584 003c B1FA81F1 		clz	r1, r1
 1585              	.LVL173:
 306:src/printer.c **** 
 1586              		.loc 1 306 7 discriminator 2 view .LVU442
 1587 0040 4909     		lsrs	r1, r1, #5
 1588 0042 FFF7FEFF 		bl	pixel_length
 1589              	.LVL174:
 308:src/printer.c ****     len = PAPER_WIDTH;
 1590              		.loc 1 308 3 is_stmt 1 discriminator 2 view .LVU443
 308:src/printer.c ****     len = PAPER_WIDTH;
 1591              		.loc 1 308 6 is_stmt 0 discriminator 2 view .LVU444
 1592 0046 A528     		cmp	r0, #165
 1593 0048 EADD     		ble	.L194
 1594              	.L192:
 308:src/printer.c ****     len = PAPER_WIDTH;
 1595              		.loc 1 308 6 discriminator 2 view .LVU445
 1596 004a 0020     		movs	r0, #0
 1597              	.LVL175:
 308:src/printer.c ****     len = PAPER_WIDTH;
 1598              		.loc 1 308 6 discriminator 2 view .LVU446
 1599 004c ECE7     		b	.L190
 1600              	.L196:
 1601 004e 00BF     		.align	2
 1602              	.L195:
 1603 0050 00000000 		.word	main_ram
 1604              		.cfi_endproc
 1605              	.LFE11:
 1607              		.section	.rodata.print_reg.str1.4,"aMS",%progbits,1
 1608              		.align	2
 1609              	.LC1:
 1610 0000 203D00   		.ascii	" =\000"
 1611              		.section	.text.print_reg,"ax",%progbits
 1612              		.align	1
 1613              		.p2align 2,,3
 1614              		.global	print_reg
 1615              		.syntax unified
 1616              		.thumb
 1617              		.thumb_func
 1618              		.fpu fpv4-sp-d16
 1620              	print_reg:
ARM GAS  /tmp/ccZqGyHG.s 			page 41


 1621              	.LVL176:
 1622              	.LFB12:
 316:src/printer.c **** 
 317:src/printer.c **** 
 318:src/printer.c **** /*
 319:src/printer.c ****  *  Print a single register
 320:src/printer.c ****  */
 321:src/printer.c **** void print_reg( int reg, const char *label, int eq )
 322:src/printer.c **** {
 1623              		.loc 1 322 1 is_stmt 1 view -0
 1624              		.cfi_startproc
 1625              		@ args = 0, pretend = 0, frame = 72
 1626              		@ frame_needed = 0, uses_anonymous_args = 0
 323:src/printer.c ****   char buffer[ 65 ];
 1627              		.loc 1 323 3 view .LVU448
 324:src/printer.c ****   if ( label != NULL ) {
 1628              		.loc 1 324 3 view .LVU449
 322:src/printer.c ****   char buffer[ 65 ];
 1629              		.loc 1 322 1 is_stmt 0 view .LVU450
 1630 0000 30B5     		push	{r4, r5, lr}
 1631              		.cfi_def_cfa_offset 12
 1632              		.cfi_offset 4, -12
 1633              		.cfi_offset 5, -8
 1634              		.cfi_offset 14, -4
 1635 0002 0446     		mov	r4, r0
 1636 0004 93B0     		sub	sp, sp, #76
 1637              		.cfi_def_cfa_offset 88
 1638              		.loc 1 324 6 view .LVU451
 1639 0006 29B1     		cbz	r1, .L199
 325:src/printer.c ****     print_line( label, 0 );
 1640              		.loc 1 325 5 is_stmt 1 view .LVU452
 1641 0008 1546     		mov	r5, r2
 1642 000a 0846     		mov	r0, r1
 1643              	.LVL177:
 1644              		.loc 1 325 5 is_stmt 0 view .LVU453
 1645 000c 0021     		movs	r1, #0
 1646              	.LVL178:
 1647              		.loc 1 325 5 view .LVU454
 1648 000e FFF7FEFF 		bl	print_line
 1649              	.LVL179:
 326:src/printer.c ****     if ( eq ) print_line( " =", 0 );
 1650              		.loc 1 326 5 is_stmt 1 view .LVU455
 1651              		.loc 1 326 8 is_stmt 0 view .LVU456
 1652 0012 6DB9     		cbnz	r5, .L205
 1653              	.LVL180:
 1654              	.L199:
 327:src/printer.c ****   }
 328:src/printer.c ****   xset( buffer, '\0', sizeof( buffer ) );
 1655              		.loc 1 328 3 is_stmt 1 view .LVU457
 1656 0014 4122     		movs	r2, #65
 1657 0016 01A8     		add	r0, sp, #4
 1658 0018 0021     		movs	r1, #0
 1659 001a FFF7FEFF 		bl	xset
 1660              	.LVL181:
 329:src/printer.c ****   format_reg( reg, buffer );
 1661              		.loc 1 329 3 view .LVU458
 1662 001e 01A9     		add	r1, sp, #4
ARM GAS  /tmp/ccZqGyHG.s 			page 42


 1663 0020 2046     		mov	r0, r4
 1664 0022 FFF7FEFF 		bl	format_reg
 1665              	.LVL182:
 330:src/printer.c ****   print_justified( buffer );
 1666              		.loc 1 330 3 view .LVU459
 1667 0026 01A8     		add	r0, sp, #4
 1668 0028 FFF7FEFF 		bl	print_justified
 1669              	.LVL183:
 331:src/printer.c **** }	
 1670              		.loc 1 331 1 is_stmt 0 view .LVU460
 1671 002c 13B0     		add	sp, sp, #76
 1672              		.cfi_remember_state
 1673              		.cfi_def_cfa_offset 12
 1674              		@ sp needed
 1675 002e 30BD     		pop	{r4, r5, pc}
 1676              	.LVL184:
 1677              	.L205:
 1678              		.cfi_restore_state
 326:src/printer.c ****   }
 1679              		.loc 1 326 15 is_stmt 1 discriminator 1 view .LVU461
 1680 0030 0248     		ldr	r0, .L206
 1681 0032 0021     		movs	r1, #0
 1682 0034 FFF7FEFF 		bl	print_line
 1683              	.LVL185:
 1684 0038 ECE7     		b	.L199
 1685              	.L207:
 1686 003a 00BF     		.align	2
 1687              	.L206:
 1688 003c 00000000 		.word	.LC1
 1689              		.cfi_endproc
 1690              	.LFE12:
 1692              		.section	.rodata.print_registers.str1.4,"aMS",%progbits,1
 1693              		.align	2
 1694              	.LC2:
 1695 0000 6C00     		.ascii	"l\000"
 1696 0002 0000     		.align	2
 1697              	.LC3:
 1698 0004 6900     		.ascii	"i\000"
 1699 0006 0000     		.align	2
 1700              	.LC4:
 1701 0008 58595A54 		.ascii	"XYZTABCDLIJK\000"
 1701      41424344 
 1701      4C494A4B 
 1701      00
 1702              		.section	.text.print_registers,"ax",%progbits
 1703              		.align	1
 1704              		.p2align 2,,3
 1705              		.global	print_registers
 1706              		.syntax unified
 1707              		.thumb
 1708              		.thumb_func
 1709              		.fpu fpv4-sp-d16
 1711              	print_registers:
 1712              	.LVL186:
 1713              	.LFB13:
 332:src/printer.c **** 
 333:src/printer.c **** 
ARM GAS  /tmp/ccZqGyHG.s 			page 43


 334:src/printer.c **** /*
 335:src/printer.c ****  *  Print a block of registers with labels
 336:src/printer.c ****  */
 337:src/printer.c **** void print_registers( enum nilop op )
 338:src/printer.c **** {
 1714              		.loc 1 338 1 view -0
 1715              		.cfi_startproc
 1716              		@ args = 0, pretend = 0, frame = 16
 1717              		@ frame_needed = 0, uses_anonymous_args = 0
 339:src/printer.c ****   int s, n;
 1718              		.loc 1 339 3 view .LVU463
 340:src/printer.c **** 
 341:src/printer.c ****   RETURN_IF_PRINT_OFF;
 1719              		.loc 1 341 3 view .LVU464
 1720 0000 394B     		ldr	r3, .L241
 1721 0002 1B68     		ldr	r3, [r3]
 1722 0004 93F8E437 		ldrb	r3, [r3, #2020]	@ zero_extendqisi2
 1723 0008 DB07     		lsls	r3, r3, #31
 1724 000a 6CD5     		bpl	.L234
 342:src/printer.c ****   advance_if_trace();
 1725              		.loc 1 342 3 view .LVU465
 1726              	.LBB94:
 1727              	.LBI94:
  90:src/printer.c **** {
 1728              		.loc 1 90 13 view .LVU466
 1729              	.LBB95:
  92:src/printer.c ****     print_advance( 0 );
 1730              		.loc 1 92 3 view .LVU467
 1731              	.LBE95:
 1732              	.LBE94:
 338:src/printer.c ****   int s, n;
 1733              		.loc 1 338 1 is_stmt 0 view .LVU468
 1734 000c 70B5     		push	{r4, r5, r6, lr}
 1735              		.cfi_def_cfa_offset 16
 1736              		.cfi_offset 4, -16
 1737              		.cfi_offset 5, -12
 1738              		.cfi_offset 6, -8
 1739              		.cfi_offset 14, -4
 1740              	.LBB98:
 1741              	.LBB96:
  92:src/printer.c ****     print_advance( 0 );
 1742              		.loc 1 92 22 view .LVU469
 1743 000e 374B     		ldr	r3, .L241+4
  92:src/printer.c ****     print_advance( 0 );
 1744              		.loc 1 92 6 view .LVU470
 1745 0010 1B68     		ldr	r3, [r3]
 1746              	.LBE96:
 1747              	.LBE98:
 338:src/printer.c ****   int s, n;
 1748              		.loc 1 338 1 view .LVU471
 1749 0012 84B0     		sub	sp, sp, #16
 1750              		.cfi_def_cfa_offset 32
 1751 0014 0546     		mov	r5, r0
 1752              	.LBB99:
 1753              	.LBB97:
  92:src/printer.c ****     print_advance( 0 );
 1754              		.loc 1 92 6 view .LVU472
ARM GAS  /tmp/ccZqGyHG.s 			page 44


 1755 0016 0BB1     		cbz	r3, .L210
 1756 0018 FFF7FEFF 		bl	advance_if_trace.part.0
 1757              	.LVL187:
 1758              	.L210:
  92:src/printer.c ****     print_advance( 0 );
 1759              		.loc 1 92 6 view .LVU473
 1760              	.LBE97:
 1761              	.LBE99:
 343:src/printer.c **** 
 344:src/printer.c ****   if ( op == OP_PRINT_STACK ) {
 1762              		.loc 1 344 3 is_stmt 1 view .LVU474
 1763              		.loc 1 344 6 is_stmt 0 view .LVU475
 1764 001c BE2D     		cmp	r5, #190
 1765 001e 41D0     		beq	.L238
 345:src/printer.c ****     s = regX_idx;
 346:src/printer.c ****     n = stack_size();
 347:src/printer.c ****   }
 348:src/printer.c ****   else {
 349:src/printer.c ****     if ( reg_decode( &s, &n, (int *) NULL, 0 ) ) {
 1766              		.loc 1 349 5 is_stmt 1 view .LVU476
 1767              		.loc 1 349 10 is_stmt 0 view .LVU477
 1768 0020 0023     		movs	r3, #0
 1769 0022 1A46     		mov	r2, r3
 1770 0024 01A9     		add	r1, sp, #4
 1771 0026 6846     		mov	r0, sp
 1772 0028 FFF7FEFF 		bl	reg_decode
 1773              	.LVL188:
 1774              		.loc 1 349 8 view .LVU478
 1775 002c 0028     		cmp	r0, #0
 1776 002e 4BD1     		bne	.L208
 350:src/printer.c ****       return;
 351:src/printer.c ****     }
 352:src/printer.c ****   }
 353:src/printer.c **** 
 354:src/printer.c ****   while ( n-- ) {
 1777              		.loc 1 354 9 is_stmt 1 view .LVU479
 1778              		.loc 1 354 12 is_stmt 0 view .LVU480
 1779 0030 019B     		ldr	r3, [sp, #4]
 1780 0032 5A1E     		subs	r2, r3, #1
 1781 0034 0192     		str	r2, [sp, #4]
 1782              		.loc 1 354 9 view .LVU481
 1783 0036 002B     		cmp	r3, #0
 1784 0038 46D0     		beq	.L208
 1785              	.L212:
 1786              	.LBB100:
 355:src/printer.c ****     int r = s;
 356:src/printer.c ****     char name[ 6 ], *p = name;
 357:src/printer.c **** 
 358:src/printer.c ****     if ( r >= regX_idx && r <= regK_idx ) {
 359:src/printer.c ****       *p++ = REGNAMES[ r - regX_idx ] | 0x60; // force lower case
 1787              		.loc 1 359 22 view .LVU482
 1788 003a 2D4C     		ldr	r4, .L241+8
 360:src/printer.c ****     }
 361:src/printer.c ****     else {
 362:src/printer.c ****       *p++ = 'r';
 1789              		.loc 1 362 12 view .LVU483
 1790 003c 7226     		movs	r6, #114
ARM GAS  /tmp/ccZqGyHG.s 			page 45


 1791 003e 15E0     		b	.L219
 1792              	.LVL189:
 1793              	.L240:
 359:src/printer.c ****     }
 1794              		.loc 1 359 12 view .LVU484
 1795 0040 12F8643C 		ldrb	r3, [r2, #-100]	@ zero_extendqisi2
 1796 0044 43F06003 		orr	r3, r3, #96
 1797 0048 8DF80830 		strb	r3, [sp, #8]
 359:src/printer.c ****     }
 1798              		.loc 1 359 9 view .LVU485
 1799 004c 0DF10900 		add	r0, sp, #9
 1800              	.LVL190:
 1801              	.L216:
 363:src/printer.c ****       if ( r > LOCAL_REG_BASE ) {
 364:src/printer.c **** 	*p++ = '.';
 365:src/printer.c **** 	r -= LOCAL_REG_BASE;
 366:src/printer.c **** 	if ( r >= 100 ) {
 367:src/printer.c **** 	  *p++ = '1';
 368:src/printer.c **** 	  r -= 100;
 369:src/printer.c **** 	}
 370:src/printer.c ****       }
 371:src/printer.c ****       p = num_arg_0( p, r, 2 );
 372:src/printer.c ****     }
 373:src/printer.c ****     *p = '\0';
 1802              		.loc 1 373 5 is_stmt 1 view .LVU486
 1803              		.loc 1 373 8 is_stmt 0 view .LVU487
 1804 0050 0023     		movs	r3, #0
 1805 0052 0370     		strb	r3, [r0]
 374:src/printer.c ****     print_reg( s++, name, 1 );
 1806              		.loc 1 374 5 is_stmt 1 view .LVU488
 1807 0054 0098     		ldr	r0, [sp]
 1808              	.LVL191:
 1809              		.loc 1 374 5 is_stmt 0 view .LVU489
 1810 0056 0122     		movs	r2, #1
 1811 0058 8318     		adds	r3, r0, r2
 1812 005a 02A9     		add	r1, sp, #8
 1813 005c 0093     		str	r3, [sp]
 1814 005e FFF7FEFF 		bl	print_reg
 1815              	.LVL192:
 1816              	.LBE100:
 354:src/printer.c ****     int r = s;
 1817              		.loc 1 354 9 is_stmt 1 view .LVU490
 354:src/printer.c ****     int r = s;
 1818              		.loc 1 354 12 is_stmt 0 view .LVU491
 1819 0062 019B     		ldr	r3, [sp, #4]
 1820 0064 5A1E     		subs	r2, r3, #1
 1821 0066 0192     		str	r2, [sp, #4]
 354:src/printer.c ****     int r = s;
 1822              		.loc 1 354 9 view .LVU492
 1823 0068 002B     		cmp	r3, #0
 1824 006a 38D0     		beq	.L239
 1825              	.L219:
 1826              	.LBB101:
 355:src/printer.c ****     char name[ 6 ], *p = name;
 1827              		.loc 1 355 5 is_stmt 1 view .LVU493
 359:src/printer.c ****     }
 1828              		.loc 1 359 7 view .LVU494
ARM GAS  /tmp/ccZqGyHG.s 			page 46


 1829              	.LVL193:
 362:src/printer.c ****       if ( r > LOCAL_REG_BASE ) {
 1830              		.loc 1 362 7 view .LVU495
 355:src/printer.c ****     char name[ 6 ], *p = name;
 1831              		.loc 1 355 9 is_stmt 0 view .LVU496
 1832 006c 0099     		ldr	r1, [sp]
 356:src/printer.c **** 
 1833              		.loc 1 356 5 is_stmt 1 view .LVU497
 1834              	.LVL194:
 358:src/printer.c ****       *p++ = REGNAMES[ r - regX_idx ] | 0x60; // force lower case
 1835              		.loc 1 358 5 view .LVU498
 358:src/printer.c ****       *p++ = REGNAMES[ r - regX_idx ] | 0x60; // force lower case
 1836              		.loc 1 358 24 is_stmt 0 view .LVU499
 1837 006e A1F16403 		sub	r3, r1, #100
 358:src/printer.c ****       *p++ = REGNAMES[ r - regX_idx ] | 0x60; // force lower case
 1838              		.loc 1 358 8 view .LVU500
 1839 0072 0B2B     		cmp	r3, #11
 359:src/printer.c ****     }
 1840              		.loc 1 359 22 view .LVU501
 1841 0074 04EB0102 		add	r2, r4, r1
 358:src/printer.c ****       *p++ = REGNAMES[ r - regX_idx ] | 0x60; // force lower case
 1842              		.loc 1 358 8 view .LVU502
 1843 0078 E2D9     		bls	.L240
 364:src/printer.c **** 	r -= LOCAL_REG_BASE;
 1844              		.loc 1 364 2 is_stmt 1 view .LVU503
 1845              	.LVL195:
 363:src/printer.c **** 	*p++ = '.';
 1846              		.loc 1 363 10 is_stmt 0 view .LVU504
 1847 007a 7029     		cmp	r1, #112
 365:src/printer.c **** 	if ( r >= 100 ) {
 1848              		.loc 1 365 4 view .LVU505
 1849 007c A1F17003 		sub	r3, r1, #112
 364:src/printer.c **** 	r -= LOCAL_REG_BASE;
 1850              		.loc 1 364 7 view .LVU506
 1851 0080 4FF02E02 		mov	r2, #46
 362:src/printer.c ****       if ( r > LOCAL_REG_BASE ) {
 1852              		.loc 1 362 12 view .LVU507
 1853 0084 8DF80860 		strb	r6, [sp, #8]
 363:src/printer.c **** 	*p++ = '.';
 1854              		.loc 1 363 7 is_stmt 1 view .LVU508
 363:src/printer.c **** 	*p++ = '.';
 1855              		.loc 1 363 10 is_stmt 0 view .LVU509
 1856 0088 20DD     		ble	.L221
 367:src/printer.c **** 	  r -= 100;
 1857              		.loc 1 367 4 is_stmt 1 view .LVU510
 1858              	.LVL196:
 366:src/printer.c **** 	  *p++ = '1';
 1859              		.loc 1 366 5 is_stmt 0 view .LVU511
 1860 008a 632B     		cmp	r3, #99
 364:src/printer.c **** 	r -= LOCAL_REG_BASE;
 1861              		.loc 1 364 7 view .LVU512
 1862 008c 8DF80920 		strb	r2, [sp, #9]
 365:src/printer.c **** 	if ( r >= 100 ) {
 1863              		.loc 1 365 2 is_stmt 1 view .LVU513
 1864              	.LVL197:
 366:src/printer.c **** 	  *p++ = '1';
 1865              		.loc 1 366 2 view .LVU514
ARM GAS  /tmp/ccZqGyHG.s 			page 47


 367:src/printer.c **** 	  r -= 100;
 1866              		.loc 1 367 9 is_stmt 0 view .LVU515
 1867 0090 4FF03102 		mov	r2, #49
 366:src/printer.c **** 	  *p++ = '1';
 1868              		.loc 1 366 5 view .LVU516
 1869 0094 1DDC     		bgt	.L218
 1870 0096 1946     		mov	r1, r3
 364:src/printer.c **** 	r -= LOCAL_REG_BASE;
 1871              		.loc 1 364 4 view .LVU517
 1872 0098 0DF10A00 		add	r0, sp, #10
 1873              	.LVL198:
 1874              	.L217:
 371:src/printer.c ****     }
 1875              		.loc 1 371 7 is_stmt 1 view .LVU518
 371:src/printer.c ****     }
 1876              		.loc 1 371 11 is_stmt 0 view .LVU519
 1877 009c 0222     		movs	r2, #2
 1878 009e FFF7FEFF 		bl	num_arg_0
 1879              	.LVL199:
 371:src/printer.c ****     }
 1880              		.loc 1 371 11 view .LVU520
 1881 00a2 D5E7     		b	.L216
 1882              	.LVL200:
 1883              	.L238:
 371:src/printer.c ****     }
 1884              		.loc 1 371 11 view .LVU521
 1885              	.LBE101:
 345:src/printer.c ****     n = stack_size();
 1886              		.loc 1 345 5 is_stmt 1 view .LVU522
 345:src/printer.c ****     n = stack_size();
 1887              		.loc 1 345 7 is_stmt 0 view .LVU523
 1888 00a4 6423     		movs	r3, #100
 1889 00a6 0093     		str	r3, [sp]
 346:src/printer.c ****   }
 1890              		.loc 1 346 5 is_stmt 1 view .LVU524
 346:src/printer.c ****   }
 1891              		.loc 1 346 9 is_stmt 0 view .LVU525
 1892 00a8 FFF7FEFF 		bl	stack_size
 1893              	.LVL201:
 354:src/printer.c ****     int r = s;
 1894              		.loc 1 354 9 is_stmt 1 view .LVU526
 354:src/printer.c ****     int r = s;
 1895              		.loc 1 354 12 is_stmt 0 view .LVU527
 1896 00ac 431E     		subs	r3, r0, #1
 1897 00ae 0193     		str	r3, [sp, #4]
 354:src/printer.c ****     int r = s;
 1898              		.loc 1 354 9 view .LVU528
 1899 00b0 0028     		cmp	r0, #0
 1900 00b2 C2D1     		bne	.L212
 1901              	.L220:
 375:src/printer.c ****   }
 376:src/printer.c ****   if ( op == OP_PRINT_STACK ) {
 377:src/printer.c ****     print_reg( regL_idx, "l", 1 );
 1902              		.loc 1 377 5 is_stmt 1 view .LVU529
 1903 00b4 0F49     		ldr	r1, .L241+12
 1904 00b6 0122     		movs	r2, #1
 1905 00b8 6C20     		movs	r0, #108
ARM GAS  /tmp/ccZqGyHG.s 			page 48


 1906 00ba FFF7FEFF 		bl	print_reg
 1907              	.LVL202:
 378:src/printer.c ****     print_reg( regI_idx, "i", 1 );
 1908              		.loc 1 378 5 view .LVU530
 1909 00be 0E49     		ldr	r1, .L241+16
 1910 00c0 0122     		movs	r2, #1
 1911 00c2 6D20     		movs	r0, #109
 1912 00c4 FFF7FEFF 		bl	print_reg
 1913              	.LVL203:
 1914              	.L208:
 379:src/printer.c ****   }
 380:src/printer.c **** }
 1915              		.loc 1 380 1 is_stmt 0 view .LVU531
 1916 00c8 04B0     		add	sp, sp, #16
 1917              		.cfi_remember_state
 1918              		.cfi_def_cfa_offset 16
 1919              		@ sp needed
 1920 00ca 70BD     		pop	{r4, r5, r6, pc}
 1921              	.LVL204:
 1922              	.L221:
 1923              		.cfi_restore_state
 1924              	.LBB102:
 362:src/printer.c ****       if ( r > LOCAL_REG_BASE ) {
 1925              		.loc 1 362 9 view .LVU532
 1926 00cc 0DF10900 		add	r0, sp, #9
 1927 00d0 E4E7     		b	.L217
 1928              	.LVL205:
 1929              	.L218:
 367:src/printer.c **** 	  r -= 100;
 1930              		.loc 1 367 9 view .LVU533
 1931 00d2 8DF80A20 		strb	r2, [sp, #10]
 368:src/printer.c **** 	}
 1932              		.loc 1 368 4 is_stmt 1 view .LVU534
 1933              	.LVL206:
 367:src/printer.c **** 	  r -= 100;
 1934              		.loc 1 367 6 is_stmt 0 view .LVU535
 1935 00d6 0DF10B00 		add	r0, sp, #11
 1936              	.LVL207:
 368:src/printer.c **** 	}
 1937              		.loc 1 368 6 view .LVU536
 1938 00da D439     		subs	r1, r1, #212
 1939              	.LVL208:
 368:src/printer.c **** 	}
 1940              		.loc 1 368 6 view .LVU537
 1941 00dc DEE7     		b	.L217
 1942              	.LVL209:
 1943              	.L239:
 368:src/printer.c **** 	}
 1944              		.loc 1 368 6 view .LVU538
 1945              	.LBE102:
 376:src/printer.c ****     print_reg( regL_idx, "l", 1 );
 1946              		.loc 1 376 3 is_stmt 1 view .LVU539
 376:src/printer.c ****     print_reg( regL_idx, "l", 1 );
 1947              		.loc 1 376 6 is_stmt 0 view .LVU540
 1948 00de BE2D     		cmp	r5, #190
 1949 00e0 E8D0     		beq	.L220
 1950              		.loc 1 380 1 view .LVU541
ARM GAS  /tmp/ccZqGyHG.s 			page 49


 1951 00e2 04B0     		add	sp, sp, #16
 1952              		.cfi_def_cfa_offset 16
 1953              		@ sp needed
 1954 00e4 70BD     		pop	{r4, r5, r6, pc}
 1955              	.LVL210:
 1956              	.L234:
 1957              		.cfi_def_cfa_offset 0
 1958              		.cfi_restore 4
 1959              		.cfi_restore 5
 1960              		.cfi_restore 6
 1961              		.cfi_restore 14
 1962              		.loc 1 380 1 view .LVU542
 1963 00e6 7047     		bx	lr
 1964              	.L242:
 1965              		.align	2
 1966              	.L241:
 1967 00e8 00000000 		.word	main_ram
 1968 00ec 00000000 		.word	PrinterColumn
 1969 00f0 08000000 		.word	.LC4
 1970 00f4 00000000 		.word	.LC2
 1971 00f8 04000000 		.word	.LC3
 1972              		.cfi_endproc
 1973              	.LFE13:
 1975              		.section	.text.print_sigma,"ax",%progbits
 1976              		.align	1
 1977              		.p2align 2,,3
 1978              		.global	print_sigma
 1979              		.syntax unified
 1980              		.thumb
 1981              		.thumb_func
 1982              		.fpu fpv4-sp-d16
 1984              	print_sigma:
 1985              	.LVL211:
 1986              	.LFB14:
 381:src/printer.c **** 
 382:src/printer.c **** /*
 383:src/printer.c ****  *  Print the statistical registers
 384:src/printer.c ****  */
 385:src/printer.c **** void print_sigma( enum nilop op )
 386:src/printer.c **** {
 1987              		.loc 1 386 1 is_stmt 1 view -0
 1988              		.cfi_startproc
 1989              		@ args = 0, pretend = 0, frame = 32
 1990              		@ frame_needed = 0, uses_anonymous_args = 0
 387:src/printer.c ****   // Use the user commands to get the values
 388:src/printer.c **** 
 389:src/printer.c ****   static const char ops[] = {
 1991              		.loc 1 389 3 view .LVU544
 390:src/printer.c ****     OP_sigmaN,
 391:src/printer.c ****     OP_sigmaX, OP_sigmaY, 
 392:src/printer.c ****     OP_sigmaX2, OP_sigmaY2, OP_sigmaXY, OP_sigmaX2Y, 
 393:src/printer.c ****     OP_sigmalnX, OP_sigmalnY, 
 394:src/printer.c ****     OP_sigmaXlnY, OP_sigmaYlnX,
 395:src/printer.c ****     OP_sigmalnXlnX, OP_sigmalnYlnY,
 396:src/printer.c ****     OP_sigmalnXlnY, 
 397:src/printer.c ****   };
 398:src/printer.c ****   int i;
ARM GAS  /tmp/ccZqGyHG.s 			page 50


 1992              		.loc 1 398 3 view .LVU545
 399:src/printer.c ****   RETURN_IF_PRINT_OFF;
 1993              		.loc 1 399 3 view .LVU546
 1994 0000 174B     		ldr	r3, .L258
 1995 0002 1B68     		ldr	r3, [r3]
 1996 0004 93F8E437 		ldrb	r3, [r3, #2020]	@ zero_extendqisi2
 1997 0008 DB07     		lsls	r3, r3, #31
 1998 000a 28D5     		bpl	.L253
 400:src/printer.c ****   advance_if_trace();
 1999              		.loc 1 400 3 view .LVU547
 2000              	.LBB103:
 2001              	.LBI103:
  90:src/printer.c **** {
 2002              		.loc 1 90 13 view .LVU548
 2003              	.LBB104:
  92:src/printer.c ****     print_advance( 0 );
 2004              		.loc 1 92 3 view .LVU549
 2005              	.LBE104:
 2006              	.LBE103:
 386:src/printer.c ****   // Use the user commands to get the values
 2007              		.loc 1 386 1 is_stmt 0 view .LVU550
 2008 000c F0B5     		push	{r4, r5, r6, r7, lr}
 2009              		.cfi_def_cfa_offset 20
 2010              		.cfi_offset 4, -20
 2011              		.cfi_offset 5, -16
 2012              		.cfi_offset 6, -12
 2013              		.cfi_offset 7, -8
 2014              		.cfi_offset 14, -4
 2015              	.LBB108:
 2016              	.LBB105:
  92:src/printer.c ****     print_advance( 0 );
 2017              		.loc 1 92 22 view .LVU551
 2018 000e 154B     		ldr	r3, .L258+4
  92:src/printer.c ****     print_advance( 0 );
 2019              		.loc 1 92 6 view .LVU552
 2020 0010 1B68     		ldr	r3, [r3]
 2021              	.LBE105:
 2022              	.LBE108:
 386:src/printer.c ****   // Use the user commands to get the values
 2023              		.loc 1 386 1 view .LVU553
 2024 0012 89B0     		sub	sp, sp, #36
 2025              		.cfi_def_cfa_offset 56
 2026              	.LBB109:
 2027              	.LBB106:
  92:src/printer.c ****     print_advance( 0 );
 2028              		.loc 1 92 6 view .LVU554
 2029 0014 03BB     		cbnz	r3, .L256
 2030              	.LVL212:
 2031              	.L246:
  92:src/printer.c ****     print_advance( 0 );
 2032              		.loc 1 92 6 view .LVU555
 2033              	.LBE106:
 2034              	.LBE109:
 401:src/printer.c ****   REGISTER save_x;
 2035              		.loc 1 401 3 is_stmt 1 view .LVU556
 402:src/printer.c ****   char buffer[ 16 ];
 2036              		.loc 1 402 3 view .LVU557
ARM GAS  /tmp/ccZqGyHG.s 			page 51


 403:src/printer.c **** 
 404:src/printer.c ****   // We need to save and restore X
 405:src/printer.c ****   copyreg( &save_x, StackBase );
 2037              		.loc 1 405 3 view .LVU558
 2038 0016 144F     		ldr	r7, .L258+8
 2039 0018 144C     		ldr	r4, .L258+12
 2040 001a 3968     		ldr	r1, [r7]
 2041 001c 6846     		mov	r0, sp
 2042 001e FFF7FEFF 		bl	copyreg
 2043              	.LVL213:
 406:src/printer.c **** 
 407:src/printer.c ****   for ( i = 0; i < sizeof( ops ); ++i ) {
 2044              		.loc 1 407 3 view .LVU559
 2045              		.loc 1 407 16 view .LVU560
 2046 0022 04F10D06 		add	r6, r4, #13
 405:src/printer.c **** 
 2047              		.loc 1 405 3 is_stmt 0 view .LVU561
 2048 0026 1D25     		movs	r5, #29
 2049 0028 01E0     		b	.L248
 2050              	.LVL214:
 2051              	.L257:
 405:src/printer.c **** 
 2052              		.loc 1 405 3 view .LVU562
 2053 002a 14F8015B 		ldrb	r5, [r4], #1	@ zero_extendqisi2
 2054              	.LVL215:
 2055              	.L248:
 2056              	.LBB110:
 408:src/printer.c ****     const char *p;
 2057              		.loc 1 408 5 is_stmt 1 discriminator 3 view .LVU563
 409:src/printer.c ****     sigma_val( (enum nilop) ops[ i ] );
 2058              		.loc 1 409 5 discriminator 3 view .LVU564
 2059 002e 2846     		mov	r0, r5
 2060 0030 FFF7FEFF 		bl	sigma_val
 2061              	.LVL216:
 410:src/printer.c ****     p = prt( OP_NIL | ops[ i ], buffer );
 2062              		.loc 1 410 5 discriminator 3 view .LVU565
 2063              		.loc 1 410 9 is_stmt 0 discriminator 3 view .LVU566
 2064 0034 04A9     		add	r1, sp, #16
 2065 0036 45F48070 		orr	r0, r5, #256
 2066 003a FFF7FEFF 		bl	prt
 2067              	.LVL217:
 411:src/printer.c ****     print_reg( regX_idx, p, 1 );
 2068              		.loc 1 411 5 discriminator 3 view .LVU567
 2069 003e 0122     		movs	r2, #1
 410:src/printer.c ****     p = prt( OP_NIL | ops[ i ], buffer );
 2070              		.loc 1 410 9 discriminator 3 view .LVU568
 2071 0040 0146     		mov	r1, r0
 2072              	.LVL218:
 2073              		.loc 1 411 5 is_stmt 1 discriminator 3 view .LVU569
 2074 0042 6420     		movs	r0, #100
 2075              	.LVL219:
 2076              		.loc 1 411 5 is_stmt 0 discriminator 3 view .LVU570
 2077 0044 FFF7FEFF 		bl	print_reg
 2078              	.LVL220:
 2079              		.loc 1 411 5 discriminator 3 view .LVU571
 2080              	.LBE110:
 407:src/printer.c ****     const char *p;
ARM GAS  /tmp/ccZqGyHG.s 			page 52


 2081              		.loc 1 407 35 is_stmt 1 discriminator 3 view .LVU572
 407:src/printer.c ****     const char *p;
 2082              		.loc 1 407 16 discriminator 3 view .LVU573
 407:src/printer.c ****     const char *p;
 2083              		.loc 1 407 3 is_stmt 0 discriminator 3 view .LVU574
 2084 0048 A642     		cmp	r6, r4
 2085 004a EED1     		bne	.L257
 412:src/printer.c ****   }
 413:src/printer.c ****   copyreg( StackBase, &save_x );
 2086              		.loc 1 413 3 is_stmt 1 view .LVU575
 2087 004c 3868     		ldr	r0, [r7]
 2088 004e 6946     		mov	r1, sp
 2089 0050 FFF7FEFF 		bl	copyreg
 2090              	.LVL221:
 414:src/printer.c **** }
 2091              		.loc 1 414 1 is_stmt 0 view .LVU576
 2092 0054 09B0     		add	sp, sp, #36
 2093              		.cfi_remember_state
 2094              		.cfi_def_cfa_offset 20
 2095              		@ sp needed
 2096 0056 F0BD     		pop	{r4, r5, r6, r7, pc}
 2097              	.LVL222:
 2098              	.L256:
 2099              		.cfi_restore_state
 2100              	.LBB111:
 2101              	.LBB107:
 2102              		.loc 1 414 1 view .LVU577
 2103 0058 FFF7FEFF 		bl	advance_if_trace.part.0
 2104              	.LVL223:
 2105              		.loc 1 414 1 view .LVU578
 2106 005c DBE7     		b	.L246
 2107              	.LVL224:
 2108              	.L253:
 2109              		.cfi_def_cfa_offset 0
 2110              		.cfi_restore 4
 2111              		.cfi_restore 5
 2112              		.cfi_restore 6
 2113              		.cfi_restore 7
 2114              		.cfi_restore 14
 2115              		.loc 1 414 1 view .LVU579
 2116 005e 7047     		bx	lr
 2117              	.L259:
 2118              		.align	2
 2119              	.L258:
 2120 0060 00000000 		.word	main_ram
 2121 0064 00000000 		.word	PrinterColumn
 2122 0068 00000000 		.word	StackBase
 2123 006c 01000000 		.word	.LANCHOR1+1
 2124              	.LBE107:
 2125              	.LBE111:
 2126              		.cfi_endproc
 2127              	.LFE14:
 2129              		.section	.text.print_alpha,"ax",%progbits
 2130              		.align	1
 2131              		.p2align 2,,3
 2132              		.global	print_alpha
 2133              		.syntax unified
ARM GAS  /tmp/ccZqGyHG.s 			page 53


 2134              		.thumb
 2135              		.thumb_func
 2136              		.fpu fpv4-sp-d16
 2138              	print_alpha:
 2139              	.LVL225:
 2140              	.LFB15:
 415:src/printer.c **** 
 416:src/printer.c **** /*
 417:src/printer.c ****  *  Print the contents of the Alpha register, terminated by a LF
 418:src/printer.c ****  */
 419:src/printer.c **** void print_alpha( enum nilop op )
 420:src/printer.c **** {
 2141              		.loc 1 420 1 is_stmt 1 view -0
 2142              		.cfi_startproc
 2143              		@ args = 0, pretend = 0, frame = 0
 2144              		@ frame_needed = 0, uses_anonymous_args = 0
 421:src/printer.c ****   RETURN_IF_PRINT_OFF;
 2145              		.loc 1 421 3 view .LVU581
 420:src/printer.c ****   RETURN_IF_PRINT_OFF;
 2146              		.loc 1 420 1 is_stmt 0 view .LVU582
 2147 0000 38B5     		push	{r3, r4, r5, lr}
 2148              		.cfi_def_cfa_offset 16
 2149              		.cfi_offset 3, -16
 2150              		.cfi_offset 4, -12
 2151              		.cfi_offset 5, -8
 2152              		.cfi_offset 14, -4
 2153              		.loc 1 421 3 view .LVU583
 2154 0002 104D     		ldr	r5, .L269
 2155 0004 2B68     		ldr	r3, [r5]
 2156 0006 93F8E427 		ldrb	r2, [r3, #2020]	@ zero_extendqisi2
 2157 000a D207     		lsls	r2, r2, #31
 2158 000c 19D5     		bpl	.L260
 422:src/printer.c ****   advance_if_trace();
 2159              		.loc 1 422 3 is_stmt 1 view .LVU584
 2160              	.LBB112:
 2161              	.LBI112:
  90:src/printer.c **** {
 2162              		.loc 1 90 13 view .LVU585
 2163              	.LBB113:
  92:src/printer.c ****     print_advance( 0 );
 2164              		.loc 1 92 3 view .LVU586
  92:src/printer.c ****     print_advance( 0 );
 2165              		.loc 1 92 22 is_stmt 0 view .LVU587
 2166 000e 0E4A     		ldr	r2, .L269+4
  92:src/printer.c ****     print_advance( 0 );
 2167              		.loc 1 92 6 view .LVU588
 2168 0010 1268     		ldr	r2, [r2]
 2169 0012 0446     		mov	r4, r0
 2170 0014 12B1     		cbz	r2, .L262
 2171 0016 FFF7FEFF 		bl	advance_if_trace.part.0
 2172              	.LVL226:
  92:src/printer.c ****     print_advance( 0 );
 2173              		.loc 1 92 6 view .LVU589
 2174 001a 2B68     		ldr	r3, [r5]
 2175              	.L262:
 2176              	.LBE113:
 2177              	.LBE112:
ARM GAS  /tmp/ccZqGyHG.s 			page 54


 423:src/printer.c ****   if ( op == OP_PRINT_ALPHA_JUST ) {
 2178              		.loc 1 423 3 is_stmt 1 view .LVU590
 2179              		.loc 1 423 6 is_stmt 0 view .LVU591
 2180 001c C22C     		cmp	r4, #194
 2181 001e 0AD0     		beq	.L268
 424:src/printer.c ****     print_justified( Alpha );
 425:src/printer.c ****   }
 426:src/printer.c ****   else {
 427:src/printer.c ****     print_line( Alpha, op == OP_PRINT_ALPHA );
 2182              		.loc 1 427 5 is_stmt 1 view .LVU592
 2183 0020 A4F1C001 		sub	r1, r4, #192
 2184 0024 B1FA81F1 		clz	r1, r1
 2185 0028 03F5F660 		add	r0, r3, #1968
 2186 002c 4909     		lsrs	r1, r1, #5
 428:src/printer.c ****   }  
 429:src/printer.c **** }
 2187              		.loc 1 429 1 is_stmt 0 view .LVU593
 2188 002e BDE83840 		pop	{r3, r4, r5, lr}
 2189              		.cfi_remember_state
 2190              		.cfi_restore 14
 2191              		.cfi_restore 5
 2192              		.cfi_restore 4
 2193              		.cfi_restore 3
 2194              		.cfi_def_cfa_offset 0
 427:src/printer.c ****   }  
 2195              		.loc 1 427 5 view .LVU594
 2196 0032 FFF7FEBF 		b	print_line
 2197              	.LVL227:
 2198              	.L268:
 2199              		.cfi_restore_state
 424:src/printer.c ****     print_justified( Alpha );
 2200              		.loc 1 424 5 is_stmt 1 view .LVU595
 2201 0036 03F5F660 		add	r0, r3, #1968
 2202              		.loc 1 429 1 is_stmt 0 view .LVU596
 2203 003a BDE83840 		pop	{r3, r4, r5, lr}
 2204              		.cfi_remember_state
 2205              		.cfi_restore 14
 2206              		.cfi_restore 5
 2207              		.cfi_restore 4
 2208              		.cfi_restore 3
 2209              		.cfi_def_cfa_offset 0
 424:src/printer.c ****     print_justified( Alpha );
 2210              		.loc 1 424 5 view .LVU597
 2211 003e FFF7FEBF 		b	print_justified
 2212              	.LVL228:
 2213              	.L260:
 2214              		.cfi_restore_state
 2215              		.loc 1 429 1 view .LVU598
 2216 0042 38BD     		pop	{r3, r4, r5, pc}
 2217              	.L270:
 2218              		.align	2
 2219              	.L269:
 2220 0044 00000000 		.word	main_ram
 2221 0048 00000000 		.word	PrinterColumn
 2222              		.cfi_endproc
 2223              	.LFE15:
 2225              		.section	.text.print_lf,"ax",%progbits
ARM GAS  /tmp/ccZqGyHG.s 			page 55


 2226              		.align	1
 2227              		.p2align 2,,3
 2228              		.global	print_lf
 2229              		.syntax unified
 2230              		.thumb
 2231              		.thumb_func
 2232              		.fpu fpv4-sp-d16
 2234              	print_lf:
 2235              	.LVL229:
 2236              	.LFB16:
 430:src/printer.c **** 
 431:src/printer.c **** /*
 432:src/printer.c ****  *  Send a LF to the printer
 433:src/printer.c ****  */
 434:src/printer.c **** void print_lf( enum nilop op ) {
 2237              		.loc 1 434 32 is_stmt 1 view -0
 2238              		.cfi_startproc
 2239              		@ args = 0, pretend = 0, frame = 0
 2240              		@ frame_needed = 0, uses_anonymous_args = 0
 435:src/printer.c ****   RETURN_IF_PRINT_OFF;
 2241              		.loc 1 435 3 view .LVU600
 434:src/printer.c ****   RETURN_IF_PRINT_OFF;
 2242              		.loc 1 434 32 is_stmt 0 view .LVU601
 2243 0000 08B5     		push	{r3, lr}
 2244              		.cfi_def_cfa_offset 8
 2245              		.cfi_offset 3, -8
 2246              		.cfi_offset 14, -4
 2247              		.loc 1 435 3 view .LVU602
 2248 0002 084B     		ldr	r3, .L278
 2249 0004 1B68     		ldr	r3, [r3]
 2250 0006 93F8E437 		ldrb	r3, [r3, #2020]	@ zero_extendqisi2
 2251 000a DB07     		lsls	r3, r3, #31
 2252 000c 09D5     		bpl	.L271
 436:src/printer.c ****   advance_if_trace();
 2253              		.loc 1 436 3 is_stmt 1 view .LVU603
 2254              	.LBB114:
 2255              	.LBI114:
  90:src/printer.c **** {
 2256              		.loc 1 90 13 view .LVU604
 2257              	.LBB115:
  92:src/printer.c ****     print_advance( 0 );
 2258              		.loc 1 92 3 view .LVU605
  92:src/printer.c ****     print_advance( 0 );
 2259              		.loc 1 92 22 is_stmt 0 view .LVU606
 2260 000e 064B     		ldr	r3, .L278+4
  92:src/printer.c ****     print_advance( 0 );
 2261              		.loc 1 92 6 view .LVU607
 2262 0010 1B68     		ldr	r3, [r3]
 2263 0012 0BB1     		cbz	r3, .L273
 2264 0014 FFF7FEFF 		bl	advance_if_trace.part.0
 2265              	.LVL230:
 2266              	.L273:
  92:src/printer.c ****     print_advance( 0 );
 2267              		.loc 1 92 6 view .LVU608
 2268              	.LBE115:
 2269              	.LBE114:
 437:src/printer.c ****   print_advance( 0 );
ARM GAS  /tmp/ccZqGyHG.s 			page 56


 2270              		.loc 1 437 3 is_stmt 1 view .LVU609
 438:src/printer.c **** }
 2271              		.loc 1 438 1 is_stmt 0 view .LVU610
 2272 0018 BDE80840 		pop	{r3, lr}
 2273              		.cfi_remember_state
 2274              		.cfi_restore 14
 2275              		.cfi_restore 3
 2276              		.cfi_def_cfa_offset 0
 437:src/printer.c ****   print_advance( 0 );
 2277              		.loc 1 437 3 view .LVU611
 2278 001c 0020     		movs	r0, #0
 2279 001e FFF7FEBF 		b	print_advance
 2280              	.LVL231:
 2281              	.L271:
 2282              		.cfi_restore_state
 2283              		.loc 1 438 1 view .LVU612
 2284 0022 08BD     		pop	{r3, pc}
 2285              	.L279:
 2286              		.align	2
 2287              	.L278:
 2288 0024 00000000 		.word	main_ram
 2289 0028 00000000 		.word	PrinterColumn
 2290              		.cfi_endproc
 2291              	.LFE16:
 2293              		.section	.text.cmdprint,"ax",%progbits
 2294              		.align	1
 2295              		.p2align 2,,3
 2296              		.global	cmdprint
 2297              		.syntax unified
 2298              		.thumb
 2299              		.thumb_func
 2300              		.fpu fpv4-sp-d16
 2302              	cmdprint:
 2303              	.LVL232:
 2304              	.LFB17:
 439:src/printer.c **** 
 440:src/printer.c **** /*
 441:src/printer.c ****  *  Print a single character or control code
 442:src/printer.c ****  */
 443:src/printer.c **** void cmdprint( unsigned int arg, enum rarg op )
 444:src/printer.c **** {
 2305              		.loc 1 444 1 is_stmt 1 view -0
 2306              		.cfi_startproc
 2307              		@ args = 0, pretend = 0, frame = 8
 2308              		@ frame_needed = 0, uses_anonymous_args = 0
 445:src/printer.c ****   char buff[ 2 ];
 2309              		.loc 1 445 3 view .LVU614
 446:src/printer.c ****   RETURN_IF_PRINT_OFF;
 2310              		.loc 1 446 3 view .LVU615
 2311 0000 144B     		ldr	r3, .L295
 2312 0002 1B68     		ldr	r3, [r3]
 2313 0004 93F8E437 		ldrb	r3, [r3, #2020]	@ zero_extendqisi2
 2314 0008 DB07     		lsls	r3, r3, #31
 2315 000a 0AD5     		bpl	.L291
 444:src/printer.c ****   char buff[ 2 ];
 2316              		.loc 1 444 1 is_stmt 0 view .LVU616
 2317 000c 10B5     		push	{r4, lr}
ARM GAS  /tmp/ccZqGyHG.s 			page 57


 2318              		.cfi_def_cfa_offset 8
 2319              		.cfi_offset 4, -8
 2320              		.cfi_offset 14, -4
 447:src/printer.c **** 
 448:src/printer.c ****   switch ( op ) {
 2321              		.loc 1 448 3 view .LVU617
 2322 000e 8D29     		cmp	r1, #141
 444:src/printer.c ****   char buff[ 2 ];
 2323              		.loc 1 444 1 view .LVU618
 2324 0010 82B0     		sub	sp, sp, #8
 2325              		.cfi_def_cfa_offset 16
 2326 0012 0446     		mov	r4, r0
 2327              		.loc 1 448 3 is_stmt 1 view .LVU619
 2328 0014 13D0     		beq	.L283
 2329 0016 8E29     		cmp	r1, #142
 2330 0018 0DD0     		beq	.L284
 2331 001a 8C29     		cmp	r1, #140
 2332 001c 02D0     		beq	.L294
 2333              	.LVL233:
 2334              	.L280:
 449:src/printer.c **** 
 450:src/printer.c ****   case RARG_PRINT_BYTE:
 451:src/printer.c ****     // Transparent printing of bytes
 452:src/printer.c ****     print( arg ); // might be a line feed, so...
 453:src/printer.c ****     if (arg == '\n' || arg == 0x04)
 454:src/printer.c ****       prepare_new_line();
 455:src/printer.c ****     break;
 456:src/printer.c **** 	
 457:src/printer.c ****   case RARG_PRINT_CHAR:
 458:src/printer.c ****     // Character printing, depending on mode
 459:src/printer.c ****     buff[ 0 ] = (char) arg;
 460:src/printer.c ****     buff[ 1 ] = '\0';
 461:src/printer.c ****     print_line( buff, 0 );
 462:src/printer.c ****     break;
 463:src/printer.c **** 
 464:src/printer.c ****   case RARG_PRINT_TAB:
 465:src/printer.c ****     // Move to specific column
 466:src/printer.c ****     print_tab( arg );
 467:src/printer.c ****     break;
 468:src/printer.c **** 
 469:src/printer.c ****   default:
 470:src/printer.c ****     break;
 471:src/printer.c ****   }
 472:src/printer.c **** }
 2335              		.loc 1 472 1 is_stmt 0 view .LVU620
 2336 001e 02B0     		add	sp, sp, #8
 2337              		.cfi_def_cfa_offset 8
 2338              		@ sp needed
 2339 0020 10BD     		pop	{r4, pc}
 2340              	.LVL234:
 2341              	.L291:
 2342              		.cfi_def_cfa_offset 0
 2343              		.cfi_restore 4
 2344              		.cfi_restore 14
 2345              		.loc 1 472 1 view .LVU621
 2346 0022 7047     		bx	lr
 2347              	.L294:
ARM GAS  /tmp/ccZqGyHG.s 			page 58


 2348              		.cfi_def_cfa_offset 16
 2349              		.cfi_offset 4, -8
 2350              		.cfi_offset 14, -4
 452:src/printer.c ****     if (arg == '\n' || arg == 0x04)
 2351              		.loc 1 452 5 is_stmt 1 view .LVU622
 2352 0024 FFF7FEFF 		bl	print
 2353              	.LVL235:
 453:src/printer.c ****       prepare_new_line();
 2354              		.loc 1 453 5 view .LVU623
 453:src/printer.c ****       prepare_new_line();
 2355              		.loc 1 453 8 is_stmt 0 view .LVU624
 2356 0028 0A2C     		cmp	r4, #10
 2357 002a 01D0     		beq	.L286
 453:src/printer.c ****       prepare_new_line();
 2358              		.loc 1 453 21 discriminator 1 view .LVU625
 2359 002c 042C     		cmp	r4, #4
 2360 002e F6D1     		bne	.L280
 2361              	.L286:
 454:src/printer.c ****     break;
 2362              		.loc 1 454 7 is_stmt 1 view .LVU626
 2363 0030 FFF7FEFF 		bl	prepare_new_line
 2364              	.LVL236:
 2365 0034 F3E7     		b	.L280
 2366              	.LVL237:
 2367              	.L284:
 466:src/printer.c ****     break;
 2368              		.loc 1 466 5 view .LVU627
 2369 0036 FFF7FEFF 		bl	print_tab
 2370              	.LVL238:
 467:src/printer.c **** 
 2371              		.loc 1 467 5 view .LVU628
 2372              		.loc 1 472 1 is_stmt 0 view .LVU629
 2373 003a 02B0     		add	sp, sp, #8
 2374              		.cfi_remember_state
 2375              		.cfi_def_cfa_offset 8
 2376              		@ sp needed
 2377 003c 10BD     		pop	{r4, pc}
 2378              	.LVL239:
 2379              	.L283:
 2380              		.cfi_restore_state
 459:src/printer.c ****     buff[ 1 ] = '\0';
 2381              		.loc 1 459 5 is_stmt 1 view .LVU630
 460:src/printer.c ****     print_line( buff, 0 );
 2382              		.loc 1 460 15 is_stmt 0 view .LVU631
 2383 003e 0021     		movs	r1, #0
 2384              	.LVL240:
 461:src/printer.c ****     break;
 2385              		.loc 1 461 5 view .LVU632
 2386 0040 01A8     		add	r0, sp, #4
 2387              	.LVL241:
 459:src/printer.c ****     buff[ 1 ] = '\0';
 2388              		.loc 1 459 17 view .LVU633
 2389 0042 8DF80440 		strb	r4, [sp, #4]
 460:src/printer.c ****     print_line( buff, 0 );
 2390              		.loc 1 460 5 is_stmt 1 view .LVU634
 460:src/printer.c ****     print_line( buff, 0 );
 2391              		.loc 1 460 15 is_stmt 0 view .LVU635
ARM GAS  /tmp/ccZqGyHG.s 			page 59


 2392 0046 8DF80510 		strb	r1, [sp, #5]
 461:src/printer.c ****     break;
 2393              		.loc 1 461 5 is_stmt 1 view .LVU636
 2394 004a FFF7FEFF 		bl	print_line
 2395              	.LVL242:
 462:src/printer.c **** 
 2396              		.loc 1 462 5 view .LVU637
 2397              		.loc 1 472 1 is_stmt 0 view .LVU638
 2398 004e 02B0     		add	sp, sp, #8
 2399              		.cfi_def_cfa_offset 8
 2400              		@ sp needed
 2401 0050 10BD     		pop	{r4, pc}
 2402              	.LVL243:
 2403              	.L296:
 2404              		.loc 1 472 1 view .LVU639
 2405 0052 00BF     		.align	2
 2406              	.L295:
 2407 0054 00000000 		.word	main_ram
 2408              		.cfi_endproc
 2409              	.LFE17:
 2411              		.section	.text.cmdprintreg,"ax",%progbits
 2412              		.align	1
 2413              		.p2align 2,,3
 2414              		.global	cmdprintreg
 2415              		.syntax unified
 2416              		.thumb
 2417              		.thumb_func
 2418              		.fpu fpv4-sp-d16
 2420              	cmdprintreg:
 2421              	.LVL244:
 2422              	.LFB18:
 473:src/printer.c **** 
 474:src/printer.c **** 
 475:src/printer.c **** /*
 476:src/printer.c ****  *  Print a named register
 477:src/printer.c ****  */
 478:src/printer.c **** void cmdprintreg( unsigned int arg, enum rarg op )
 479:src/printer.c **** {
 2423              		.loc 1 479 1 is_stmt 1 view -0
 2424              		.cfi_startproc
 2425              		@ args = 0, pretend = 0, frame = 0
 2426              		@ frame_needed = 0, uses_anonymous_args = 0
 2427              		@ link register save eliminated.
 480:src/printer.c ****   RETURN_IF_PRINT_OFF;
 2428              		.loc 1 480 3 view .LVU641
 2429 0000 054B     		ldr	r3, .L300
 2430 0002 1B68     		ldr	r3, [r3]
 2431 0004 93F8E437 		ldrb	r3, [r3, #2020]	@ zero_extendqisi2
 2432 0008 DB07     		lsls	r3, r3, #31
 2433 000a 00D4     		bmi	.L299
 481:src/printer.c ****   print_reg( arg, CNULL, 0 );
 482:src/printer.c **** }
 2434              		.loc 1 482 1 is_stmt 0 view .LVU642
 2435 000c 7047     		bx	lr
 2436              	.L299:
 481:src/printer.c ****   print_reg( arg, CNULL, 0 );
 2437              		.loc 1 481 3 is_stmt 1 view .LVU643
ARM GAS  /tmp/ccZqGyHG.s 			page 60


 2438 000e 0022     		movs	r2, #0
 2439 0010 1146     		mov	r1, r2
 2440              	.LVL245:
 481:src/printer.c ****   print_reg( arg, CNULL, 0 );
 2441              		.loc 1 481 3 is_stmt 0 view .LVU644
 2442 0012 FFF7FEBF 		b	print_reg
 2443              	.LVL246:
 2444              	.L301:
 481:src/printer.c ****   print_reg( arg, CNULL, 0 );
 2445              		.loc 1 481 3 view .LVU645
 2446 0016 00BF     		.align	2
 2447              	.L300:
 2448 0018 00000000 		.word	main_ram
 2449              		.cfi_endproc
 2450              	.LFE18:
 2452              		.section	.rodata.cmdprintcmplxreg.str1.4,"aMS",%progbits,1
 2453              		.align	2
 2454              	.LC5:
 2455 0000 203B2000 		.ascii	" ; \000"
 2456              		.section	.text.cmdprintcmplxreg,"ax",%progbits
 2457              		.align	1
 2458              		.p2align 2,,3
 2459              		.global	cmdprintcmplxreg
 2460              		.syntax unified
 2461              		.thumb
 2462              		.thumb_func
 2463              		.fpu fpv4-sp-d16
 2465              	cmdprintcmplxreg:
 2466              	.LVL247:
 2467              	.LFB19:
 483:src/printer.c **** 
 484:src/printer.c **** /*
 485:src/printer.c ****  *  Print a pair of registers as a complex number.
 486:src/printer.c ****  */
 487:src/printer.c **** void cmdprintcmplxreg( unsigned int reg, enum rarg op)
 488:src/printer.c **** {
 2468              		.loc 1 488 1 is_stmt 1 view -0
 2469              		.cfi_startproc
 2470              		@ args = 0, pretend = 0, frame = 296
 2471              		@ frame_needed = 0, uses_anonymous_args = 0
 489:src/printer.c ****   decNumber x, y;
 2472              		.loc 1 489 3 view .LVU647
 490:src/printer.c ****   int lenx, leny, maxlen;
 2473              		.loc 1 490 3 view .LVU648
 491:src/printer.c ****   char bufx[ 50 ];
 2474              		.loc 1 491 3 view .LVU649
 492:src/printer.c ****   char bufy[ 54 ];
 2475              		.loc 1 492 3 view .LVU650
 493:src/printer.c ****   char buffer[104];
 2476              		.loc 1 493 3 view .LVU651
 494:src/printer.c ****   char *p;
 2477              		.loc 1 494 3 view .LVU652
 495:src/printer.c **** 
 496:src/printer.c ****   RETURN_IF_PRINT_OFF;
 2478              		.loc 1 496 3 view .LVU653
 488:src/printer.c ****   decNumber x, y;
 2479              		.loc 1 488 1 is_stmt 0 view .LVU654
ARM GAS  /tmp/ccZqGyHG.s 			page 61


 2480 0000 70B5     		push	{r4, r5, r6, lr}
 2481              		.cfi_def_cfa_offset 16
 2482              		.cfi_offset 4, -16
 2483              		.cfi_offset 5, -12
 2484              		.cfi_offset 6, -8
 2485              		.cfi_offset 14, -4
 2486              		.loc 1 496 3 view .LVU655
 2487 0002 3A4C     		ldr	r4, .L315
 2488 0004 2368     		ldr	r3, [r4]
 2489 0006 93F8E427 		ldrb	r2, [r3, #2020]	@ zero_extendqisi2
 2490 000a D207     		lsls	r2, r2, #31
 488:src/printer.c ****   decNumber x, y;
 2491              		.loc 1 488 1 view .LVU656
 2492 000c CAB0     		sub	sp, sp, #296
 2493              		.cfi_def_cfa_offset 312
 2494              		.loc 1 496 3 view .LVU657
 2495 000e 5AD5     		bpl	.L302
 497:src/printer.c ****   advance_if_trace();
 2496              		.loc 1 497 3 is_stmt 1 view .LVU658
 2497              	.LBB116:
 2498              	.LBI116:
  90:src/printer.c **** {
 2499              		.loc 1 90 13 view .LVU659
 2500              	.LBB117:
  92:src/printer.c ****     print_advance( 0 );
 2501              		.loc 1 92 3 view .LVU660
  92:src/printer.c ****     print_advance( 0 );
 2502              		.loc 1 92 22 is_stmt 0 view .LVU661
 2503 0010 374A     		ldr	r2, .L315+4
  92:src/printer.c ****     print_advance( 0 );
 2504              		.loc 1 92 6 view .LVU662
 2505 0012 1268     		ldr	r2, [r2]
 2506 0014 0546     		mov	r5, r0
 2507 0016 12B1     		cbz	r2, .L304
 2508 0018 FFF7FEFF 		bl	advance_if_trace.part.0
 2509              	.LVL248:
  92:src/printer.c ****     print_advance( 0 );
 2510              		.loc 1 92 6 view .LVU663
 2511 001c 2368     		ldr	r3, [r4]
 2512              	.L304:
 2513              	.LBE117:
 2514              	.LBE116:
 498:src/printer.c **** 
 499:src/printer.c ****   if (is_intmode()) {
 2515              		.loc 1 499 3 is_stmt 1 view .LVU664
 2516              		.loc 1 499 7 is_stmt 0 view .LVU665
 2517 001e 93F8E847 		ldrb	r4, [r3, #2024]	@ zero_extendqisi2
 2518              		.loc 1 499 6 view .LVU666
 2519 0022 14F00104 		ands	r4, r4, #1
 2520 0026 50D1     		bne	.L314
 500:src/printer.c ****     bad_mode_error();
 501:src/printer.c ****     return;
 502:src/printer.c ****   }
 503:src/printer.c **** 
 504:src/printer.c ****   getRegister(&x, reg);
 2521              		.loc 1 504 3 is_stmt 1 view .LVU667
 2522 0028 2946     		mov	r1, r5
ARM GAS  /tmp/ccZqGyHG.s 			page 62


 2523 002a 03A8     		add	r0, sp, #12
 2524 002c FFF7FEFF 		bl	getRegister
 2525              	.LVL249:
 505:src/printer.c ****   getRegister(&y, reg+1);
 2526              		.loc 1 505 3 view .LVU668
 2527 0030 691C     		adds	r1, r5, #1
 2528 0032 0CA8     		add	r0, sp, #48
 2529 0034 FFF7FEFF 		bl	getRegister
 2530              	.LVL250:
 506:src/printer.c **** 
 507:src/printer.c ****   xset( bufx, '\0', sizeof( bufx ) );
 2531              		.loc 1 507 3 view .LVU669
 508:src/printer.c ****   lenx = DISPLAY_DIGITS;
 2532              		.loc 1 508 8 is_stmt 0 view .LVU670
 2533 0038 0C26     		movs	r6, #12
 507:src/printer.c ****   lenx = DISPLAY_DIGITS;
 2534              		.loc 1 507 3 view .LVU671
 2535 003a 3222     		movs	r2, #50
 2536 003c 2146     		mov	r1, r4
 2537 003e 15A8     		add	r0, sp, #84
 2538 0040 FFF7FEFF 		bl	xset
 2539              	.LVL251:
 2540              		.loc 1 508 3 is_stmt 1 view .LVU672
 509:src/printer.c ****   set_x_dn( &x, bufx, &lenx);
 2541              		.loc 1 509 3 is_stmt 0 view .LVU673
 2542 0044 01AA     		add	r2, sp, #4
 2543 0046 0DEB0600 		add	r0, sp, r6
 2544 004a 15A9     		add	r1, sp, #84
 508:src/printer.c ****   lenx = DISPLAY_DIGITS;
 2545              		.loc 1 508 8 view .LVU674
 2546 004c 0196     		str	r6, [sp, #4]
 2547              		.loc 1 509 3 is_stmt 1 view .LVU675
 2548 004e FFF7FEFF 		bl	set_x_dn
 2549              	.LVL252:
 510:src/printer.c ****   p = find_char(bufx, '\0');
 2550              		.loc 1 510 3 view .LVU676
 2551              		.loc 1 510 7 is_stmt 0 view .LVU677
 2552 0052 2146     		mov	r1, r4
 2553 0054 15A8     		add	r0, sp, #84
 2554 0056 FFF7FEFF 		bl	find_char
 2555              	.LVL253:
 511:src/printer.c ****   scopy(p, " ; ");
 2556              		.loc 1 511 3 view .LVU678
 2557 005a 2649     		ldr	r1, .L315+8
 510:src/printer.c ****   p = find_char(bufx, '\0');
 2558              		.loc 1 510 7 view .LVU679
 2559 005c 0546     		mov	r5, r0
 2560              	.LVL254:
 2561              		.loc 1 511 3 is_stmt 1 view .LVU680
 2562 005e FFF7FEFF 		bl	scopy
 2563              	.LVL255:
 512:src/printer.c ****   lenx = buffer_width(bufx);
 2564              		.loc 1 512 3 view .LVU681
 2565              		.loc 1 512 10 is_stmt 0 view .LVU682
 2566 0062 15A8     		add	r0, sp, #84
 2567 0064 FFF7FEFF 		bl	buffer_width
 2568              	.LVL256:
ARM GAS  /tmp/ccZqGyHG.s 			page 63


 513:src/printer.c **** 
 514:src/printer.c ****   xset( bufy, '\0', sizeof( bufy ) );
 2569              		.loc 1 514 3 view .LVU683
 2570 0068 3622     		movs	r2, #54
 512:src/printer.c ****   lenx = buffer_width(bufx);
 2571              		.loc 1 512 10 view .LVU684
 2572 006a 0346     		mov	r3, r0
 2573              		.loc 1 514 3 view .LVU685
 2574 006c 2146     		mov	r1, r4
 2575 006e 22A8     		add	r0, sp, #136
 512:src/printer.c ****   lenx = buffer_width(bufx);
 2576              		.loc 1 512 8 view .LVU686
 2577 0070 0193     		str	r3, [sp, #4]
 2578              		.loc 1 514 3 is_stmt 1 view .LVU687
 2579 0072 FFF7FEFF 		bl	xset
 2580              	.LVL257:
 515:src/printer.c ****   leny = DISPLAY_DIGITS;
 2581              		.loc 1 515 3 view .LVU688
 516:src/printer.c ****   set_x_dn( &y, bufy, &leny);
 2582              		.loc 1 516 3 is_stmt 0 view .LVU689
 2583 0076 0CA8     		add	r0, sp, #48
 2584 0078 02AA     		add	r2, sp, #8
 2585 007a 22A9     		add	r1, sp, #136
 515:src/printer.c ****   leny = DISPLAY_DIGITS;
 2586              		.loc 1 515 8 view .LVU690
 2587 007c 0296     		str	r6, [sp, #8]
 2588              		.loc 1 516 3 is_stmt 1 view .LVU691
 2589 007e FFF7FEFF 		bl	set_x_dn
 2590              	.LVL258:
 517:src/printer.c ****   leny = buffer_width(bufy);
 2591              		.loc 1 517 3 view .LVU692
 2592              		.loc 1 517 10 is_stmt 0 view .LVU693
 2593 0082 22A8     		add	r0, sp, #136
 2594 0084 FFF7FEFF 		bl	buffer_width
 2595              	.LVL259:
 518:src/printer.c **** 
 519:src/printer.c ****   if (lenx + leny > PAPER_WIDTH) {
 2596              		.loc 1 519 12 view .LVU694
 2597 0088 019B     		ldr	r3, [sp, #4]
 517:src/printer.c ****   leny = buffer_width(bufy);
 2598              		.loc 1 517 8 view .LVU695
 2599 008a 0290     		str	r0, [sp, #8]
 2600              		.loc 1 519 3 is_stmt 1 view .LVU696
 2601              		.loc 1 519 12 is_stmt 0 view .LVU697
 2602 008c 0344     		add	r3, r3, r0
 2603              		.loc 1 519 6 view .LVU698
 2604 008e A62B     		cmp	r3, #166
 2605 0090 1FDD     		ble	.L306
 520:src/printer.c ****     p[2] = '\0';
 2606              		.loc 1 520 5 is_stmt 1 view .LVU699
 2607              		.loc 1 520 10 is_stmt 0 view .LVU700
 2608 0092 AC70     		strb	r4, [r5, #2]
 521:src/printer.c ****     lenx = buffer_width(bufx);
 2609              		.loc 1 521 5 is_stmt 1 view .LVU701
 2610              		.loc 1 521 12 is_stmt 0 view .LVU702
 2611 0094 15A8     		add	r0, sp, #84
 2612 0096 FFF7FEFF 		bl	buffer_width
ARM GAS  /tmp/ccZqGyHG.s 			page 64


 2613              	.LVL260:
 522:src/printer.c ****     maxlen = PAPER_WIDTH - (lenx > leny ? lenx : leny);
 2614              		.loc 1 522 48 view .LVU703
 2615 009a 029C     		ldr	r4, [sp, #8]
 2616 009c 8442     		cmp	r4, r0
 2617 009e B8BF     		it	lt
 2618 00a0 0446     		movlt	r4, r0
 2619              		.loc 1 522 12 view .LVU704
 2620 00a2 C4F1A604 		rsb	r4, r4, #166
 521:src/printer.c ****     lenx = buffer_width(bufx);
 2621              		.loc 1 521 12 view .LVU705
 2622 00a6 0346     		mov	r3, r0
 2623              	.LBB118:
 2624              	.LBB119:
 127:src/printer.c ****   print_line(s, 1);
 2625              		.loc 1 127 3 view .LVU706
 2626 00a8 2046     		mov	r0, r4
 2627              	.LBE119:
 2628              	.LBE118:
 521:src/printer.c ****     lenx = buffer_width(bufx);
 2629              		.loc 1 521 10 view .LVU707
 2630 00aa 0193     		str	r3, [sp, #4]
 2631              		.loc 1 522 5 is_stmt 1 view .LVU708
 2632              	.LVL261:
 523:src/printer.c ****     print_string_from_tab(bufx, maxlen);
 2633              		.loc 1 523 5 view .LVU709
 2634              	.LBB121:
 2635              	.LBI118:
 125:src/printer.c **** {
 2636              		.loc 1 125 13 view .LVU710
 2637              	.LBB120:
 127:src/printer.c ****   print_line(s, 1);
 2638              		.loc 1 127 3 view .LVU711
 2639 00ac FFF7FEFF 		bl	print_tab
 2640              	.LVL262:
 128:src/printer.c **** }
 2641              		.loc 1 128 3 view .LVU712
 2642 00b0 0121     		movs	r1, #1
 2643 00b2 15A8     		add	r0, sp, #84
 2644              	.LVL263:
 128:src/printer.c **** }
 2645              		.loc 1 128 3 is_stmt 0 view .LVU713
 2646 00b4 FFF7FEFF 		bl	print_line
 2647              	.LVL264:
 128:src/printer.c **** }
 2648              		.loc 1 128 3 view .LVU714
 2649              	.LBE120:
 2650              	.LBE121:
 524:src/printer.c ****     print_string_from_tab(bufy, maxlen);
 2651              		.loc 1 524 5 is_stmt 1 view .LVU715
 2652              	.LBB122:
 2653              	.LBI122:
 125:src/printer.c **** {
 2654              		.loc 1 125 13 view .LVU716
 2655              	.LBB123:
 127:src/printer.c ****   print_line(s, 1);
 2656              		.loc 1 127 3 view .LVU717
ARM GAS  /tmp/ccZqGyHG.s 			page 65


 2657 00b8 2046     		mov	r0, r4
 2658 00ba FFF7FEFF 		bl	print_tab
 2659              	.LVL265:
 128:src/printer.c **** }
 2660              		.loc 1 128 3 view .LVU718
 2661 00be 22A8     		add	r0, sp, #136
 2662              	.LVL266:
 128:src/printer.c **** }
 2663              		.loc 1 128 3 is_stmt 0 view .LVU719
 2664 00c0 0121     		movs	r1, #1
 2665 00c2 FFF7FEFF 		bl	print_line
 2666              	.LVL267:
 2667              	.L302:
 128:src/printer.c **** }
 2668              		.loc 1 128 3 view .LVU720
 2669              	.LBE123:
 2670              	.LBE122:
 525:src/printer.c ****   } else {
 526:src/printer.c ****     scopy(scopy(buffer, bufx), bufy);
 527:src/printer.c ****     print_justified(buffer);
 528:src/printer.c ****   }
 529:src/printer.c **** }
 2671              		.loc 1 529 1 view .LVU721
 2672 00c6 4AB0     		add	sp, sp, #296
 2673              		.cfi_remember_state
 2674              		.cfi_def_cfa_offset 16
 2675              		@ sp needed
 2676 00c8 70BD     		pop	{r4, r5, r6, pc}
 2677              	.LVL268:
 2678              	.L314:
 2679              		.cfi_restore_state
 500:src/printer.c ****     return;
 2680              		.loc 1 500 5 is_stmt 1 view .LVU722
 2681 00ca FFF7FEFF 		bl	bad_mode_error
 2682              	.LVL269:
 501:src/printer.c ****   }
 2683              		.loc 1 501 5 view .LVU723
 2684              		.loc 1 529 1 is_stmt 0 view .LVU724
 2685 00ce 4AB0     		add	sp, sp, #296
 2686              		.cfi_remember_state
 2687              		.cfi_def_cfa_offset 16
 2688              		@ sp needed
 2689 00d0 70BD     		pop	{r4, r5, r6, pc}
 2690              	.LVL270:
 2691              	.L306:
 2692              		.cfi_restore_state
 526:src/printer.c ****     print_justified(buffer);
 2693              		.loc 1 526 5 is_stmt 1 view .LVU725
 2694 00d2 15A9     		add	r1, sp, #84
 2695 00d4 30A8     		add	r0, sp, #192
 2696 00d6 FFF7FEFF 		bl	scopy
 2697              	.LVL271:
 2698 00da 22A9     		add	r1, sp, #136
 2699 00dc FFF7FEFF 		bl	scopy
 2700              	.LVL272:
 527:src/printer.c ****   }
 2701              		.loc 1 527 5 view .LVU726
ARM GAS  /tmp/ccZqGyHG.s 			page 66


 2702 00e0 30A8     		add	r0, sp, #192
 2703 00e2 FFF7FEFF 		bl	print_justified
 2704              	.LVL273:
 2705              		.loc 1 529 1 is_stmt 0 view .LVU727
 2706 00e6 4AB0     		add	sp, sp, #296
 2707              		.cfi_def_cfa_offset 16
 2708              		@ sp needed
 2709 00e8 70BD     		pop	{r4, r5, r6, pc}
 2710              	.LVL274:
 2711              	.L316:
 2712              		.loc 1 529 1 view .LVU728
 2713 00ea 00BF     		.align	2
 2714              	.L315:
 2715 00ec 00000000 		.word	main_ram
 2716 00f0 00000000 		.word	PrinterColumn
 2717 00f4 00000000 		.word	.LC5
 2718              		.cfi_endproc
 2719              	.LFE19:
 2721              		.section	.text.cmdprintwidth,"ax",%progbits
 2722              		.align	1
 2723              		.p2align 2,,3
 2724              		.global	cmdprintwidth
 2725              		.syntax unified
 2726              		.thumb
 2727              		.thumb_func
 2728              		.fpu fpv4-sp-d16
 2730              	cmdprintwidth:
 2731              	.LVL275:
 2732              	.LFB20:
 530:src/printer.c **** 
 531:src/printer.c **** /*
 532:src/printer.c ****  *  Return the width of alpha to x
 533:src/printer.c ****  */
 534:src/printer.c **** void cmdprintwidth(enum nilop op)
 535:src/printer.c **** {
 2733              		.loc 1 535 1 is_stmt 1 view -0
 2734              		.cfi_startproc
 2735              		@ args = 0, pretend = 0, frame = 0
 2736              		@ frame_needed = 0, uses_anonymous_args = 0
 536:src/printer.c ****   setX_int_sgn(buffer_width(Alpha), 0);
 2737              		.loc 1 536 3 view .LVU730
 535:src/printer.c ****   setX_int_sgn(buffer_width(Alpha), 0);
 2738              		.loc 1 535 1 is_stmt 0 view .LVU731
 2739 0000 08B5     		push	{r3, lr}
 2740              		.cfi_def_cfa_offset 8
 2741              		.cfi_offset 3, -8
 2742              		.cfi_offset 14, -4
 2743              		.loc 1 536 29 view .LVU732
 2744 0002 064B     		ldr	r3, .L319
 2745 0004 1868     		ldr	r0, [r3]
 2746              	.LVL276:
 2747              		.loc 1 536 16 view .LVU733
 2748 0006 00F5F660 		add	r0, r0, #1968
 2749 000a FFF7FEFF 		bl	buffer_width
 2750              	.LVL277:
 537:src/printer.c **** }
 2751              		.loc 1 537 1 view .LVU734
ARM GAS  /tmp/ccZqGyHG.s 			page 67


 2752 000e BDE80840 		pop	{r3, lr}
 2753              		.cfi_restore 14
 2754              		.cfi_restore 3
 2755              		.cfi_def_cfa_offset 0
 536:src/printer.c ****   setX_int_sgn(buffer_width(Alpha), 0);
 2756              		.loc 1 536 3 view .LVU735
 2757 0012 C117     		asrs	r1, r0, #31
 2758 0014 0022     		movs	r2, #0
 2759 0016 FFF7FEBF 		b	setX_int_sgn
 2760              	.LVL278:
 2761              	.L320:
 2762 001a 00BF     		.align	2
 2763              	.L319:
 2764 001c 00000000 		.word	main_ram
 2765              		.cfi_endproc
 2766              	.LFE20:
 2768              		.section	.text.print_on_off,"ax",%progbits
 2769              		.align	1
 2770              		.p2align 2,,3
 2771              		.global	print_on_off
 2772              		.syntax unified
 2773              		.thumb
 2774              		.thumb_func
 2775              		.fpu fpv4-sp-d16
 2777              	print_on_off:
 2778              	.LVL279:
 2779              	.LFB21:
 538:src/printer.c **** 
 539:src/printer.c **** /*
 540:src/printer.c ****  *  Turn printing on or off
 541:src/printer.c ****  */
 542:src/printer.c **** void print_on_off (enum nilop op) {
 2780              		.loc 1 542 35 is_stmt 1 view -0
 2781              		.cfi_startproc
 2782              		@ args = 0, pretend = 0, frame = 0
 2783              		@ frame_needed = 0, uses_anonymous_args = 0
 2784              		@ link register save eliminated.
 543:src/printer.c ****   if (op == OP_PRINT_ON) {
 2785              		.loc 1 543 3 view .LVU737
 2786              		.loc 1 543 6 is_stmt 0 view .LVU738
 2787 0000 D928     		cmp	r0, #217
 2788 0002 0BD0     		beq	.L324
 544:src/printer.c ****     UState.print_on = 1;
 545:src/printer.c ****   }
 546:src/printer.c ****   else if (op == OP_PRINT_OFF) {
 2789              		.loc 1 546 8 is_stmt 1 view .LVU739
 2790              		.loc 1 546 11 is_stmt 0 view .LVU740
 2791 0004 DA28     		cmp	r0, #218
 2792 0006 00D0     		beq	.L325
 547:src/printer.c ****     UState.print_on = 0;
 548:src/printer.c ****   }
 549:src/printer.c **** }
 2793              		.loc 1 549 1 view .LVU741
 2794 0008 7047     		bx	lr
 2795              	.L325:
 547:src/printer.c ****     UState.print_on = 0;
 2796              		.loc 1 547 5 is_stmt 1 view .LVU742
ARM GAS  /tmp/ccZqGyHG.s 			page 68


 547:src/printer.c ****     UState.print_on = 0;
 2797              		.loc 1 547 21 is_stmt 0 view .LVU743
 2798 000a 094B     		ldr	r3, .L326
 2799 000c 1B68     		ldr	r3, [r3]
 2800 000e 93F8E427 		ldrb	r2, [r3, #2020]	@ zero_extendqisi2
 2801 0012 6FF30002 		bfc	r2, #0, #1
 2802 0016 83F8E427 		strb	r2, [r3, #2020]
 2803              		.loc 1 549 1 view .LVU744
 2804 001a 7047     		bx	lr
 2805              	.L324:
 544:src/printer.c ****     UState.print_on = 1;
 2806              		.loc 1 544 5 is_stmt 1 view .LVU745
 544:src/printer.c ****     UState.print_on = 1;
 2807              		.loc 1 544 21 is_stmt 0 view .LVU746
 2808 001c 044B     		ldr	r3, .L326
 2809 001e 1A68     		ldr	r2, [r3]
 2810 0020 92F8E437 		ldrb	r3, [r2, #2020]	@ zero_extendqisi2
 2811 0024 43F00103 		orr	r3, r3, #1
 2812 0028 82F8E437 		strb	r3, [r2, #2020]
 2813 002c 7047     		bx	lr
 2814              	.L327:
 2815 002e 00BF     		.align	2
 2816              	.L326:
 2817 0030 00000000 		.word	main_ram
 2818              		.cfi_endproc
 2819              	.LFE21:
 2821              		.section	.text.cmdprintmode,"ax",%progbits
 2822              		.align	1
 2823              		.p2align 2,,3
 2824              		.global	cmdprintmode
 2825              		.syntax unified
 2826              		.thumb
 2827              		.thumb_func
 2828              		.fpu fpv4-sp-d16
 2830              	cmdprintmode:
 2831              	.LVL280:
 2832              	.LFB22:
 550:src/printer.c **** 
 551:src/printer.c **** /*
 552:src/printer.c ****  *  Set printing modes
 553:src/printer.c ****  */
 554:src/printer.c **** void cmdprintmode( unsigned int arg, enum rarg op )
 555:src/printer.c **** {
 2833              		.loc 1 555 1 is_stmt 1 view -0
 2834              		.cfi_startproc
 2835              		@ args = 0, pretend = 0, frame = 0
 2836              		@ frame_needed = 0, uses_anonymous_args = 0
 2837              		@ link register save eliminated.
 556:src/printer.c ****   if ( op == RARG_PMODE ) {
 2838              		.loc 1 556 3 view .LVU748
 2839              		.loc 1 556 6 is_stmt 0 view .LVU749
 2840 0000 8F29     		cmp	r1, #143
 2841 0002 11D0     		beq	.L332
 557:src/printer.c ****     UState.print_mode = arg;
 558:src/printer.c ****   }
 559:src/printer.c ****   else if ( op == RARG_PDELAY ) { // DM42 replacement
 2842              		.loc 1 559 8 is_stmt 1 view .LVU750
ARM GAS  /tmp/ccZqGyHG.s 			page 69


 2843              		.loc 1 559 11 is_stmt 0 view .LVU751
 2844 0004 9029     		cmp	r1, #144
 2845 0006 0AD0     		beq	.L333
 560:src/printer.c ****     printer_set_delay(arg*100); // arg is still in ticks, so convert to ms.
 561:src/printer.c ****   }
 562:src/printer.c ****   else if ( op == RARG_DBLSP ) {
 2846              		.loc 1 562 8 is_stmt 1 view .LVU752
 2847              		.loc 1 562 11 is_stmt 0 view .LVU753
 2848 0008 9629     		cmp	r1, #150
 2849 000a 07D1     		bne	.L328
 563:src/printer.c ****     UState.print_blank_line = arg;
 2850              		.loc 1 563 5 is_stmt 1 view .LVU754
 2851              		.loc 1 563 29 is_stmt 0 view .LVU755
 2852 000c 0B4B     		ldr	r3, .L334
 2853 000e 1B68     		ldr	r3, [r3]
 2854 0010 93F8E427 		ldrb	r2, [r3, #2020]	@ zero_extendqisi2
 2855 0014 60F34102 		bfi	r2, r0, #1, #1
 2856 0018 83F8E427 		strb	r2, [r3, #2020]
 2857              	.L328:
 564:src/printer.c ****   }
 565:src/printer.c **** }
 2858              		.loc 1 565 1 view .LVU756
 2859 001c 7047     		bx	lr
 2860              	.L333:
 560:src/printer.c ****   }
 2861              		.loc 1 560 5 is_stmt 1 view .LVU757
 2862 001e 6423     		movs	r3, #100
 2863 0020 03FB00F0 		mul	r0, r3, r0
 2864              	.LVL281:
 560:src/printer.c ****   }
 2865              		.loc 1 560 5 is_stmt 0 view .LVU758
 2866 0024 064B     		ldr	r3, .L334+4
 2867 0026 1847     		bx	r3	@ indirect register sibling call
 2868              	.LVL282:
 2869              	.L332:
 557:src/printer.c ****   }
 2870              		.loc 1 557 5 is_stmt 1 view .LVU759
 557:src/printer.c ****   }
 2871              		.loc 1 557 23 is_stmt 0 view .LVU760
 2872 0028 044B     		ldr	r3, .L334
 2873 002a 1B68     		ldr	r3, [r3]
 2874 002c 93F8EA27 		ldrb	r2, [r3, #2026]	@ zero_extendqisi2
 2875 0030 60F30102 		bfi	r2, r0, #0, #2
 2876              	.LVL283:
 557:src/printer.c ****   }
 2877              		.loc 1 557 23 view .LVU761
 2878 0034 83F8EA27 		strb	r2, [r3, #2026]
 2879 0038 7047     		bx	lr
 2880              	.L335:
 2881 003a 00BF     		.align	2
 2882              	.L334:
 2883 003c 00000000 		.word	main_ram
 2884 0040 35030008 		.word	134218549
 2885              		.cfi_endproc
 2886              	.LFE22:
 2888              		.section	.rodata.print_trace.str1.4,"aMS",%progbits,1
 2889              		.align	2
ARM GAS  /tmp/ccZqGyHG.s 			page 70


 2890              	.LC6:
 2891 0000 3E3E3E00 		.ascii	">>>\000"
 2892              		.align	2
 2893              	.LC7:
 2894 0004 2A2A2A00 		.ascii	"***\000"
 2895              		.align	2
 2896              	.LC8:
 2897 0008 2000     		.ascii	" \000"
 2898 000a 0000     		.align	2
 2899              	.LC9:
 2900 000c 63707800 		.ascii	"cpx\000"
 2901              		.section	.text.print_trace,"ax",%progbits
 2902              		.align	1
 2903              		.p2align 2,,3
 2904              		.global	print_trace
 2905              		.syntax unified
 2906              		.thumb
 2907              		.thumb_func
 2908              		.fpu fpv4-sp-d16
 2910              	print_trace:
 2911              	.LVL284:
 2912              	.LFB23:
 566:src/printer.c **** 
 567:src/printer.c **** /*
 568:src/printer.c ****  *  Trace an instruction
 569:src/printer.c ****  */
 570:src/printer.c **** void print_trace( opcode op, int phase )
 571:src/printer.c **** {
 2913              		.loc 1 571 1 is_stmt 1 view -0
 2914              		.cfi_startproc
 2915              		@ args = 0, pretend = 0, frame = 16
 2916              		@ frame_needed = 0, uses_anonymous_args = 0
 572:src/printer.c ****   char buffer[ 16 ];
 2917              		.loc 1 572 3 view .LVU763
 573:src/printer.c ****   const char *p;
 2918              		.loc 1 573 3 view .LVU764
 574:src/printer.c **** 	
 575:src/printer.c ****   if ( (Tracing || op == RARG( RARG_SF, T_FLAG )) && UState.print_on ) {
 2919              		.loc 1 575 3 view .LVU765
 571:src/printer.c ****   char buffer[ 16 ];
 2920              		.loc 1 571 1 is_stmt 0 view .LVU766
 2921 0000 2DE9F041 		push	{r4, r5, r6, r7, r8, lr}
 2922              		.cfi_def_cfa_offset 24
 2923              		.cfi_offset 4, -24
 2924              		.cfi_offset 5, -20
 2925              		.cfi_offset 6, -16
 2926              		.cfi_offset 7, -12
 2927              		.cfi_offset 8, -8
 2928              		.cfi_offset 14, -4
 2929              		.loc 1 575 9 view .LVU767
 2930 0004 4D4E     		ldr	r6, .L390
 2931              		.loc 1 575 6 view .LVU768
 2932 0006 3368     		ldr	r3, [r6]
 571:src/printer.c ****   char buffer[ 16 ];
 2933              		.loc 1 571 1 view .LVU769
 2934 0008 84B0     		sub	sp, sp, #16
 2935              		.cfi_def_cfa_offset 40
ARM GAS  /tmp/ccZqGyHG.s 			page 71


 571:src/printer.c ****   char buffer[ 16 ];
 2936              		.loc 1 571 1 view .LVU770
 2937 000a 0D46     		mov	r5, r1
 2938 000c 0446     		mov	r4, r0
 2939              		.loc 1 575 6 view .LVU771
 2940 000e 33B9     		cbnz	r3, .L337
 2941              		.loc 1 575 17 discriminator 2 view .LVU772
 2942 0010 47F26713 		movw	r3, #29031
 2943 0014 9842     		cmp	r0, r3
 2944 0016 32D0     		beq	.L387
 2945              	.LVL285:
 2946              	.L336:
 576:src/printer.c ****     /*
 577:src/printer.c ****      *  We trace when flag T has been set and printing is on
 578:src/printer.c ****      */
 579:src/printer.c ****     if (op == (OP_SPEC | OP_CHS)) {
 580:src/printer.c ****       if (CmdLineLength > 0)
 581:src/printer.c **** 	return;
 582:src/printer.c ****     }
 583:src/printer.c ****     else if (op >= (OP_SPEC | OP_EEX) && op <= (OP_SPEC | OP_F))
 584:src/printer.c ****       return;
 585:src/printer.c ****     else if (op == (OP_SPEC | OP_CLX)) {
 586:src/printer.c ****       if (CmdLineLength || (phase==1 && PrinterColumn==0))
 587:src/printer.c **** 	return;
 588:src/printer.c ****       op = OP_NIL | OP_rCLX;
 589:src/printer.c ****     }
 590:src/printer.c ****     else if (! Running && isRARG(op) && RARG_CMD(op) == RARG_ALPHA )
 591:src/printer.c ****       return;
 592:src/printer.c **** 
 593:src/printer.c ****     // Format the command
 594:src/printer.c ****     p = prt( op, buffer );
 595:src/printer.c **** 
 596:src/printer.c ****     if ( phase == 0 ) {
 597:src/printer.c ****       // Left part of print
 598:src/printer.c ****       if ( CmdLineLength ) {
 599:src/printer.c **** 	process_cmdline();
 600:src/printer.c ****       }
 601:src/printer.c ****       print_tab( 0 );
 602:src/printer.c ****       print_line( prt( op, buffer ), 0 );
 603:src/printer.c ****       print_line( " ", 0 );
 604:src/printer.c ****     }
 605:src/printer.c ****     else {
 606:src/printer.c ****       // right part of print
 607:src/printer.c ****       print_reg( regX_idx,
 608:src/printer.c **** 		 op == TRACE_DATA_ENTRY ? ">>>" :
 609:src/printer.c **** 		 PrinterColumn == 0     ? ( !Tracing ? p : "***"  ) :
 610:src/printer.c **** 		 CNULL,
 611:src/printer.c **** 		 0 );
 612:src/printer.c ****       if ( State2.wascomplex ) {
 613:src/printer.c **** 	print_reg( regY_idx, "cpx", 0 );
 614:src/printer.c ****       }
 615:src/printer.c ****     }
 616:src/printer.c ****   }
 617:src/printer.c **** }
 2947              		.loc 1 617 1 view .LVU773
 2948 0018 04B0     		add	sp, sp, #16
 2949              		.cfi_remember_state
ARM GAS  /tmp/ccZqGyHG.s 			page 72


 2950              		.cfi_def_cfa_offset 24
 2951              		@ sp needed
 2952 001a BDE8F081 		pop	{r4, r5, r6, r7, r8, pc}
 2953              	.LVL286:
 2954              	.L337:
 2955              		.cfi_restore_state
 575:src/printer.c ****     /*
 2956              		.loc 1 575 51 discriminator 3 view .LVU774
 2957 001e 484B     		ldr	r3, .L390+4
 2958 0020 1B68     		ldr	r3, [r3]
 2959 0022 93F8E437 		ldrb	r3, [r3, #2020]	@ zero_extendqisi2
 2960 0026 DA07     		lsls	r2, r3, #31
 2961 0028 F6D5     		bpl	.L336
 579:src/printer.c ****       if (CmdLineLength > 0)
 2962              		.loc 1 579 5 is_stmt 1 view .LVU775
 579:src/printer.c ****       if (CmdLineLength > 0)
 2963              		.loc 1 579 8 is_stmt 0 view .LVU776
 2964 002a 0328     		cmp	r0, #3
 2965 002c 44D0     		beq	.L388
 583:src/printer.c ****       return;
 2966              		.loc 1 583 10 is_stmt 1 view .LVU777
 583:src/printer.c ****       return;
 2967              		.loc 1 583 39 is_stmt 0 view .LVU778
 2968 002e 831E     		subs	r3, r0, #2
 583:src/printer.c ****       return;
 2969              		.loc 1 583 13 view .LVU779
 2970 0030 122B     		cmp	r3, #18
 2971 0032 F1D9     		bls	.L336
 585:src/printer.c ****       if (CmdLineLength || (phase==1 && PrinterColumn==0))
 2972              		.loc 1 585 10 is_stmt 1 view .LVU780
 585:src/printer.c ****       if (CmdLineLength || (phase==1 && PrinterColumn==0))
 2973              		.loc 1 585 13 is_stmt 0 view .LVU781
 2974 0034 0128     		cmp	r0, #1
 2975 0036 28D1     		bne	.L344
 586:src/printer.c **** 	return;
 2976              		.loc 1 586 7 is_stmt 1 view .LVU782
 586:src/printer.c **** 	return;
 2977              		.loc 1 586 11 is_stmt 0 view .LVU783
 2978 0038 424F     		ldr	r7, .L390+8
 586:src/printer.c **** 	return;
 2979              		.loc 1 586 10 view .LVU784
 2980 003a 3B7F     		ldrb	r3, [r7, #28]	@ zero_extendqisi2
 2981 003c 002B     		cmp	r3, #0
 2982 003e EBD1     		bne	.L336
 586:src/printer.c **** 	return;
 2983              		.loc 1 586 25 discriminator 1 view .LVU785
 2984 0040 0129     		cmp	r1, #1
 2985 0042 6CD0     		beq	.L345
 2986              	.LVL287:
 594:src/printer.c **** 
 2987              		.loc 1 594 5 is_stmt 1 view .LVU786
 594:src/printer.c **** 
 2988              		.loc 1 594 9 is_stmt 0 view .LVU787
 2989 0044 E846     		mov	r8, sp
 2990 0046 4146     		mov	r1, r8
 2991              	.LVL288:
 594:src/printer.c **** 
ARM GAS  /tmp/ccZqGyHG.s 			page 73


 2992              		.loc 1 594 9 view .LVU788
 2993 0048 40F23F10 		movw	r0, #319
 2994 004c FFF7FEFF 		bl	prt
 2995              	.LVL289:
 2996 0050 0146     		mov	r1, r0
 2997              	.LVL290:
 596:src/printer.c ****       // Left part of print
 2998              		.loc 1 596 5 is_stmt 1 view .LVU789
 596:src/printer.c ****       // Left part of print
 2999              		.loc 1 596 8 is_stmt 0 view .LVU790
 3000 0052 002D     		cmp	r5, #0
 3001 0054 3BD1     		bne	.L385
 588:src/printer.c ****     }
 3002              		.loc 1 588 10 view .LVU791
 3003 0056 40F23F14 		movw	r4, #319
 3004              	.LVL291:
 3005              	.L342:
 598:src/printer.c **** 	process_cmdline();
 3006              		.loc 1 598 7 is_stmt 1 view .LVU792
 598:src/printer.c **** 	process_cmdline();
 3007              		.loc 1 598 10 is_stmt 0 view .LVU793
 3008 005a 3B7F     		ldrb	r3, [r7, #28]	@ zero_extendqisi2
 3009 005c 002B     		cmp	r3, #0
 3010 005e 59D1     		bne	.L389
 3011              	.LVL292:
 3012              	.L349:
 601:src/printer.c ****       print_line( prt( op, buffer ), 0 );
 3013              		.loc 1 601 7 is_stmt 1 view .LVU794
 3014 0060 0020     		movs	r0, #0
 3015 0062 FFF7FEFF 		bl	print_tab
 3016              	.LVL293:
 602:src/printer.c ****       print_line( " ", 0 );
 3017              		.loc 1 602 7 view .LVU795
 3018 0066 4146     		mov	r1, r8
 3019 0068 2046     		mov	r0, r4
 3020 006a FFF7FEFF 		bl	prt
 3021              	.LVL294:
 3022 006e 0021     		movs	r1, #0
 3023 0070 FFF7FEFF 		bl	print_line
 3024              	.LVL295:
 603:src/printer.c ****     }
 3025              		.loc 1 603 7 view .LVU796
 3026 0074 3448     		ldr	r0, .L390+12
 3027 0076 0021     		movs	r1, #0
 3028 0078 FFF7FEFF 		bl	print_line
 3029              	.LVL296:
 3030 007c CCE7     		b	.L336
 3031              	.LVL297:
 3032              	.L387:
 575:src/printer.c ****     /*
 3033              		.loc 1 575 51 is_stmt 0 view .LVU797
 3034 007e 304B     		ldr	r3, .L390+4
 3035 0080 1B68     		ldr	r3, [r3]
 3036 0082 93F8E437 		ldrb	r3, [r3, #2020]	@ zero_extendqisi2
 3037 0086 DB07     		lsls	r3, r3, #31
 3038 0088 C6D5     		bpl	.L336
 3039              	.L344:
ARM GAS  /tmp/ccZqGyHG.s 			page 74


 590:src/printer.c ****       return;
 3040              		.loc 1 590 10 is_stmt 1 view .LVU798
 590:src/printer.c ****       return;
 3041              		.loc 1 590 14 is_stmt 0 view .LVU799
 3042 008a 304B     		ldr	r3, .L390+16
 590:src/printer.c ****       return;
 3043              		.loc 1 590 13 view .LVU800
 3044 008c 1B68     		ldr	r3, [r3]
 3045 008e 3BBB     		cbnz	r3, .L346
 590:src/printer.c ****       return;
 3046              		.loc 1 590 24 discriminator 1 view .LVU801
 3047 0090 14F47043 		ands	r3, r4, #61440
 3048 0094 24D0     		beq	.L346
 590:src/printer.c ****       return;
 3049              		.loc 1 590 27 discriminator 2 view .LVU802
 3050 0096 B3F5704F 		cmp	r3, #61440
 3051 009a 21D0     		beq	.L346
 590:src/printer.c ****       return;
 3052              		.loc 1 590 38 discriminator 3 view .LVU803
 3053 009c C4F30723 		ubfx	r3, r4, #8, #8
 3054 00a0 442B     		cmp	r3, #68
 3055 00a2 B9D0     		beq	.L336
 594:src/printer.c **** 
 3056              		.loc 1 594 5 is_stmt 1 view .LVU804
 594:src/printer.c **** 
 3057              		.loc 1 594 9 is_stmt 0 view .LVU805
 3058 00a4 E846     		mov	r8, sp
 3059 00a6 4146     		mov	r1, r8
 3060              	.LVL298:
 594:src/printer.c **** 
 3061              		.loc 1 594 9 view .LVU806
 3062 00a8 2046     		mov	r0, r4
 594:src/printer.c **** 
 3063              		.loc 1 594 9 view .LVU807
 3064 00aa FFF7FEFF 		bl	prt
 3065              	.LVL299:
 594:src/printer.c **** 
 3066              		.loc 1 594 9 view .LVU808
 3067 00ae 0146     		mov	r1, r0
 3068              	.LVL300:
 596:src/printer.c ****       // Left part of print
 3069              		.loc 1 596 5 is_stmt 1 view .LVU809
 596:src/printer.c ****       // Left part of print
 3070              		.loc 1 596 8 is_stmt 0 view .LVU810
 3071 00b0 002D     		cmp	r5, #0
 3072 00b2 40D1     		bne	.L386
 3073              	.L365:
 596:src/printer.c ****       // Left part of print
 3074              		.loc 1 596 8 view .LVU811
 3075 00b4 234F     		ldr	r7, .L390+8
 3076 00b6 D0E7     		b	.L342
 3077              	.LVL301:
 3078              	.L388:
 580:src/printer.c **** 	return;
 3079              		.loc 1 580 7 is_stmt 1 view .LVU812
 580:src/printer.c **** 	return;
 3080              		.loc 1 580 11 is_stmt 0 view .LVU813
ARM GAS  /tmp/ccZqGyHG.s 			page 75


 3081 00b8 224F     		ldr	r7, .L390+8
 580:src/printer.c **** 	return;
 3082              		.loc 1 580 10 view .LVU814
 3083 00ba 3B7F     		ldrb	r3, [r7, #28]	@ zero_extendqisi2
 3084 00bc 002B     		cmp	r3, #0
 3085 00be ABD1     		bne	.L336
 3086              	.LVL302:
 594:src/printer.c **** 
 3087              		.loc 1 594 5 is_stmt 1 view .LVU815
 594:src/printer.c **** 
 3088              		.loc 1 594 9 is_stmt 0 view .LVU816
 3089 00c0 E846     		mov	r8, sp
 3090 00c2 4146     		mov	r1, r8
 3091              	.LVL303:
 594:src/printer.c **** 
 3092              		.loc 1 594 9 view .LVU817
 3093 00c4 FFF7FEFF 		bl	prt
 3094              	.LVL304:
 3095 00c8 0146     		mov	r1, r0
 3096              	.LVL305:
 596:src/printer.c ****       // Left part of print
 3097              		.loc 1 596 5 is_stmt 1 view .LVU818
 596:src/printer.c ****       // Left part of print
 3098              		.loc 1 596 8 is_stmt 0 view .LVU819
 3099 00ca 002D     		cmp	r5, #0
 3100 00cc C5D0     		beq	.L342
 3101              	.LVL306:
 3102              	.L385:
 596:src/printer.c ****       // Left part of print
 3103              		.loc 1 596 8 view .LVU820
 3104 00ce 204C     		ldr	r4, .L390+20
 3105              	.L343:
 609:src/printer.c **** 		 CNULL,
 3106              		.loc 1 609 55 view .LVU821
 3107 00d0 2368     		ldr	r3, [r4]
 3108 00d2 13BB     		cbnz	r3, .L354
 609:src/printer.c **** 		 CNULL,
 3109              		.loc 1 609 44 discriminator 1 view .LVU822
 3110 00d4 3268     		ldr	r2, [r6]
 3111 00d6 1F4B     		ldr	r3, .L390+24
 3112 00d8 002A     		cmp	r2, #0
 3113 00da 18BF     		it	ne
 3114 00dc 1946     		movne	r1, r3
 3115 00de 0BE0     		b	.L350
 3116              	.LVL307:
 3117              	.L346:
 594:src/printer.c **** 
 3118              		.loc 1 594 5 is_stmt 1 view .LVU823
 594:src/printer.c **** 
 3119              		.loc 1 594 9 is_stmt 0 view .LVU824
 3120 00e0 E846     		mov	r8, sp
 3121 00e2 4146     		mov	r1, r8
 3122              	.LVL308:
 594:src/printer.c **** 
 3123              		.loc 1 594 9 view .LVU825
 3124 00e4 2046     		mov	r0, r4
 594:src/printer.c **** 
ARM GAS  /tmp/ccZqGyHG.s 			page 76


 3125              		.loc 1 594 9 view .LVU826
 3126 00e6 FFF7FEFF 		bl	prt
 3127              	.LVL309:
 594:src/printer.c **** 
 3128              		.loc 1 594 9 view .LVU827
 3129 00ea 0146     		mov	r1, r0
 3130              	.LVL310:
 596:src/printer.c ****       // Left part of print
 3131              		.loc 1 596 5 is_stmt 1 view .LVU828
 596:src/printer.c ****       // Left part of print
 3132              		.loc 1 596 8 is_stmt 0 view .LVU829
 3133 00ec 002D     		cmp	r5, #0
 3134 00ee E1D0     		beq	.L365
 607:src/printer.c **** 		 op == TRACE_DATA_ENTRY ? ">>>" :
 3135              		.loc 1 607 7 is_stmt 1 view .LVU830
 3136 00f0 0134     		adds	r4, r4, #1
 3137              	.LVL311:
 607:src/printer.c **** 		 op == TRACE_DATA_ENTRY ? ">>>" :
 3138              		.loc 1 607 7 is_stmt 0 view .LVU831
 3139 00f2 20D1     		bne	.L386
 3140 00f4 1849     		ldr	r1, .L390+28
 3141 00f6 134F     		ldr	r7, .L390+8
 3142              	.LVL312:
 3143              	.L350:
 607:src/printer.c **** 		 op == TRACE_DATA_ENTRY ? ">>>" :
 3144              		.loc 1 607 7 discriminator 3 view .LVU832
 3145 00f8 0022     		movs	r2, #0
 3146 00fa 6420     		movs	r0, #100
 3147              	.LVL313:
 607:src/printer.c **** 		 op == TRACE_DATA_ENTRY ? ">>>" :
 3148              		.loc 1 607 7 discriminator 3 view .LVU833
 3149 00fc FFF7FEFF 		bl	print_reg
 3150              	.LVL314:
 612:src/printer.c **** 	print_reg( regY_idx, "cpx", 0 );
 3151              		.loc 1 612 7 is_stmt 1 discriminator 3 view .LVU834
 612:src/printer.c **** 	print_reg( regY_idx, "cpx", 0 );
 3152              		.loc 1 612 12 is_stmt 0 discriminator 3 view .LVU835
 3153 0100 3B7D     		ldrb	r3, [r7, #20]	@ zero_extendqisi2
 612:src/printer.c **** 	print_reg( regY_idx, "cpx", 0 );
 3154              		.loc 1 612 10 discriminator 3 view .LVU836
 3155 0102 13F0C00F 		tst	r3, #192
 3156 0106 87D0     		beq	.L336
 613:src/printer.c ****       }
 3157              		.loc 1 613 2 is_stmt 1 view .LVU837
 3158 0108 1449     		ldr	r1, .L390+32
 3159 010a 0022     		movs	r2, #0
 3160 010c 6520     		movs	r0, #101
 3161 010e FFF7FEFF 		bl	print_reg
 3162              	.LVL315:
 3163 0112 81E7     		b	.L336
 3164              	.LVL316:
 3165              	.L389:
 599:src/printer.c ****       }
 3166              		.loc 1 599 2 view .LVU838
 3167 0114 FFF7FEFF 		bl	process_cmdline
 3168              	.LVL317:
 599:src/printer.c ****       }
ARM GAS  /tmp/ccZqGyHG.s 			page 77


 3169              		.loc 1 599 2 is_stmt 0 view .LVU839
 3170 0118 A2E7     		b	.L349
 3171              	.LVL318:
 3172              	.L354:
 609:src/printer.c **** 		 CNULL,
 3173              		.loc 1 609 55 view .LVU840
 3174 011a 0021     		movs	r1, #0
 3175 011c ECE7     		b	.L350
 3176              	.LVL319:
 3177              	.L345:
 586:src/printer.c **** 	return;
 3178              		.loc 1 586 54 discriminator 2 view .LVU841
 3179 011e 0C4C     		ldr	r4, .L390+20
 586:src/printer.c **** 	return;
 3180              		.loc 1 586 38 discriminator 2 view .LVU842
 3181 0120 2368     		ldr	r3, [r4]
 3182 0122 002B     		cmp	r3, #0
 3183 0124 3FF478AF 		beq	.L336
 3184              	.LVL320:
 594:src/printer.c **** 
 3185              		.loc 1 594 5 is_stmt 1 view .LVU843
 594:src/printer.c **** 
 3186              		.loc 1 594 9 is_stmt 0 view .LVU844
 3187 0128 6946     		mov	r1, sp
 3188              	.LVL321:
 594:src/printer.c **** 
 3189              		.loc 1 594 9 view .LVU845
 3190 012a 40F23F10 		movw	r0, #319
 3191 012e FFF7FEFF 		bl	prt
 3192              	.LVL322:
 3193 0132 0146     		mov	r1, r0
 3194              	.LVL323:
 596:src/printer.c ****       // Left part of print
 3195              		.loc 1 596 5 is_stmt 1 view .LVU846
 3196 0134 CCE7     		b	.L343
 3197              	.LVL324:
 3198              	.L386:
 596:src/printer.c ****       // Left part of print
 3199              		.loc 1 596 5 is_stmt 0 view .LVU847
 3200 0136 034F     		ldr	r7, .L390+8
 3201 0138 C9E7     		b	.L385
 3202              	.L391:
 3203 013a 00BF     		.align	2
 3204              	.L390:
 3205 013c 00000000 		.word	Tracing
 3206 0140 00000000 		.word	main_ram
 3207 0144 00000000 		.word	StateWhileOn
 3208 0148 08000000 		.word	.LC8
 3209 014c 00000000 		.word	Running
 3210 0150 00000000 		.word	PrinterColumn
 3211 0154 04000000 		.word	.LC7
 3212 0158 00000000 		.word	.LC6
 3213 015c 0C000000 		.word	.LC9
 3214              		.cfi_endproc
 3215              	.LFE23:
 3217              		.section	.text.print_program,"ax",%progbits
 3218              		.align	1
ARM GAS  /tmp/ccZqGyHG.s 			page 78


 3219              		.p2align 2,,3
 3220              		.global	print_program
 3221              		.syntax unified
 3222              		.thumb
 3223              		.thumb_func
 3224              		.fpu fpv4-sp-d16
 3226              	print_program:
 3227              	.LVL325:
 3228              	.LFB24:
 618:src/printer.c **** 
 619:src/printer.c **** /*
 620:src/printer.c ****  *  Print a program listing
 621:src/printer.c ****  *  Start at the PC location
 622:src/printer.c ****  */
 623:src/printer.c **** void print_program( enum nilop op )
 624:src/printer.c **** {
 3229              		.loc 1 624 1 is_stmt 1 view -0
 3230              		.cfi_startproc
 3231              		@ args = 0, pretend = 0, frame = 16
 3232              		@ frame_needed = 0, uses_anonymous_args = 0
 625:src/printer.c ****   unsigned int pc = state_pc();
 3233              		.loc 1 625 3 view .LVU849
 624:src/printer.c ****   unsigned int pc = state_pc();
 3234              		.loc 1 624 1 is_stmt 0 view .LVU850
 3235 0000 2DE9F04F 		push	{r4, r5, r6, r7, r8, r9, r10, fp, lr}
 3236              		.cfi_def_cfa_offset 36
 3237              		.cfi_offset 4, -36
 3238              		.cfi_offset 5, -32
 3239              		.cfi_offset 6, -28
 3240              		.cfi_offset 7, -24
 3241              		.cfi_offset 8, -20
 3242              		.cfi_offset 9, -16
 3243              		.cfi_offset 10, -12
 3244              		.cfi_offset 11, -8
 3245              		.cfi_offset 14, -4
 3246              		.loc 1 625 21 view .LVU851
 3247 0004 304D     		ldr	r5, .L411
 3248 0006 2B68     		ldr	r3, [r5]
 3249 0008 B3F8E047 		ldrh	r4, [r3, #2016]
 3250              	.LVL326:
 626:src/printer.c ****   const int runmode = State2.runmode;
 3251              		.loc 1 626 3 is_stmt 1 view .LVU852
 627:src/printer.c ****   const int pmode = UState.print_mode;
 3252              		.loc 1 627 3 view .LVU853
 628:src/printer.c ****   const int numlen = isRAM( pc ) ? 3 : 4;
 3253              		.loc 1 628 3 view .LVU854
 629:src/printer.c ****   const int tab = numlen * ( 6 - pmode ) + 1;
 630:src/printer.c **** 
 631:src/printer.c ****   RETURN_IF_PRINT_OFF;
 3254              		.loc 1 631 3 is_stmt 0 view .LVU855
 3255 000c 93F8E427 		ldrb	r2, [r3, #2020]	@ zero_extendqisi2
 628:src/printer.c ****   const int numlen = isRAM( pc ) ? 3 : 4;
 3256              		.loc 1 628 38 view .LVU856
 3257 0010 14F4704F 		tst	r4, #61440
 3258 0014 0CBF     		ite	eq
 3259 0016 4FF00309 		moveq	r9, #3
 3260 001a 4FF00409 		movne	r9, #4
ARM GAS  /tmp/ccZqGyHG.s 			page 79


 3261              	.LVL327:
 629:src/printer.c ****   const int tab = numlen * ( 6 - pmode ) + 1;
 3262              		.loc 1 629 3 is_stmt 1 view .LVU857
 3263              		.loc 1 631 3 view .LVU858
 3264 001e D207     		lsls	r2, r2, #31
 624:src/printer.c ****   unsigned int pc = state_pc();
 3265              		.loc 1 624 1 is_stmt 0 view .LVU859
 3266 0020 85B0     		sub	sp, sp, #20
 3267              		.cfi_def_cfa_offset 56
 3268              		.loc 1 631 3 view .LVU860
 3269 0022 49D5     		bpl	.L392
 626:src/printer.c ****   const int pmode = UState.print_mode;
 3270              		.loc 1 626 29 view .LVU861
 3271 0024 2949     		ldr	r1, .L411+4
 3272              	.LBB124:
 3273              	.LBB125:
  92:src/printer.c ****     print_advance( 0 );
 3274              		.loc 1 92 22 view .LVU862
 3275 0026 2A4A     		ldr	r2, .L411+8
 3276              	.LBE125:
 3277              	.LBE124:
 627:src/printer.c ****   const int numlen = isRAM( pc ) ? 3 : 4;
 3278              		.loc 1 627 27 view .LVU863
 3279 0028 93F8EA67 		ldrb	r6, [r3, #2026]	@ zero_extendqisi2
 626:src/printer.c ****   const int pmode = UState.print_mode;
 3280              		.loc 1 626 29 view .LVU864
 3281 002c 91F81680 		ldrb	r8, [r1, #22]	@ zero_extendqisi2
 3282              	.LBB129:
 3283              	.LBB126:
  92:src/printer.c ****     print_advance( 0 );
 3284              		.loc 1 92 6 view .LVU865
 3285 0030 1368     		ldr	r3, [r2]
 3286              	.LVL328:
  92:src/printer.c ****     print_advance( 0 );
 3287              		.loc 1 92 6 view .LVU866
 3288              	.LBE126:
 3289              	.LBE129:
 627:src/printer.c ****   const int numlen = isRAM( pc ) ? 3 : 4;
 3290              		.loc 1 627 27 view .LVU867
 3291 0032 06F00306 		and	r6, r6, #3
 632:src/printer.c ****   advance_if_trace();
 3292              		.loc 1 632 3 is_stmt 1 view .LVU868
 3293              	.LBB130:
 3294              	.LBI124:
  90:src/printer.c **** {
 3295              		.loc 1 90 13 view .LVU869
 3296              	.LBB127:
  92:src/printer.c ****     print_advance( 0 );
 3297              		.loc 1 92 3 view .LVU870
 3298              	.LBE127:
 3299              	.LBE130:
 626:src/printer.c ****   const int pmode = UState.print_mode;
 3300              		.loc 1 626 29 is_stmt 0 view .LVU871
 3301 0036 C8F38018 		ubfx	r8, r8, #6, #1
 3302              	.LBB131:
 3303              	.LBB128:
  92:src/printer.c ****     print_advance( 0 );
ARM GAS  /tmp/ccZqGyHG.s 			page 80


 3304              		.loc 1 92 6 view .LVU872
 3305 003a 0BB1     		cbz	r3, .L395
 3306 003c FFF7FEFF 		bl	advance_if_trace.part.0
 3307              	.LVL329:
 3308              	.L395:
  92:src/printer.c ****     print_advance( 0 );
 3309              		.loc 1 92 6 view .LVU873
 3310              	.LBE128:
 3311              	.LBE131:
 633:src/printer.c ****   
 634:src/printer.c ****   if ( runmode ) {
 3312              		.loc 1 634 3 is_stmt 1 view .LVU874
 3313              		.loc 1 634 6 is_stmt 0 view .LVU875
 3314 0040 B8F1000F 		cmp	r8, #0
 3315 0044 3BD1     		bne	.L410
 3316              	.LVL330:
 3317              	.L396:
 629:src/printer.c **** 
 3318              		.loc 1 629 32 view .LVU876
 3319 0046 C6F1060B 		rsb	fp, r6, #6
 635:src/printer.c ****     pc = ProgBegin;
 636:src/printer.c ****   }
 637:src/printer.c ****   if ( pc == 0 ) {
 638:src/printer.c ****     ++pc;
 639:src/printer.c ****   }
 640:src/printer.c **** 
 641:src/printer.c ****   PcWrapped = 0;
 3320              		.loc 1 641 13 view .LVU877
 3321 004a DFF888A0 		ldr	r10, .L411+12
 629:src/printer.c **** 
 3322              		.loc 1 629 26 view .LVU878
 3323 004e 09FB0BFB 		mul	fp, r9, fp
 3324              		.loc 1 641 13 view .LVU879
 3325 0052 0027     		movs	r7, #0
 3326 0054 012C     		cmp	r4, #1
 3327 0056 38BF     		it	cc
 3328 0058 0124     		movcc	r4, #1
 629:src/printer.c **** 
 3329              		.loc 1 629 13 view .LVU880
 3330 005a 0BF1010B 		add	fp, fp, #1
 637:src/printer.c ****     ++pc;
 3331              		.loc 1 637 3 is_stmt 1 view .LVU881
 3332              	.LVL331:
 3333              		.loc 1 641 3 view .LVU882
 3334 005e 013E     		subs	r6, r6, #1
 3335              		.loc 1 641 13 is_stmt 0 view .LVU883
 3336 0060 CAF80070 		str	r7, [r10]
 642:src/printer.c ****   while ( !PcWrapped ) {
 3337              		.loc 1 642 3 is_stmt 1 view .LVU884
 3338              		.loc 1 642 9 view .LVU885
 3339 0064 11E0     		b	.L398
 3340              	.LVL332:
 3341              	.L397:
 3342              	.LBB132:
 643:src/printer.c ****     char buffer[ 16 ];
 644:src/printer.c ****     const char *p;
 645:src/printer.c ****     opcode op = getprog( pc );
ARM GAS  /tmp/ccZqGyHG.s 			page 81


 646:src/printer.c ****     unsigned int upc = user_pc( pc );
 647:src/printer.c ****     *num_arg_0( buffer, upc, numlen ) = '\0';
 648:src/printer.c ****     print_line( buffer, 0 );
 649:src/printer.c ****     if ( pmode == PMODE_GRAPHICS || pmode == PMODE_SMALLGRAPHICS ) {
 650:src/printer.c ****       print_tab( tab );
 651:src/printer.c ****     }
 652:src/printer.c ****     print( ' ' );
 3343              		.loc 1 652 5 view .LVU886
 3344 0066 2020     		movs	r0, #32
 3345 0068 FFF7FEFF 		bl	print
 3346              	.LVL333:
 653:src/printer.c ****     p = prt( op, buffer );
 3347              		.loc 1 653 5 view .LVU887
 3348              		.loc 1 653 9 is_stmt 0 view .LVU888
 3349 006c 6946     		mov	r1, sp
 3350 006e 2846     		mov	r0, r5
 3351 0070 FFF7FEFF 		bl	prt
 3352              	.LVL334:
 654:src/printer.c ****     print_line( p, 1 );
 3353              		.loc 1 654 5 is_stmt 1 view .LVU889
 3354 0074 0121     		movs	r1, #1
 3355 0076 FFF7FEFF 		bl	print_line
 3356              	.LVL335:
 655:src/printer.c ****     pc = do_inc( pc, runmode );
 3357              		.loc 1 655 5 view .LVU890
 3358              		.loc 1 655 10 is_stmt 0 view .LVU891
 3359 007a 2046     		mov	r0, r4
 3360 007c 4146     		mov	r1, r8
 3361 007e FFF7FEFF 		bl	do_inc
 3362              	.LVL336:
 3363              	.LBE132:
 642:src/printer.c ****     char buffer[ 16 ];
 3364              		.loc 1 642 9 view .LVU892
 3365 0082 DAF80030 		ldr	r3, [r10]
 3366              	.LBB133:
 3367              		.loc 1 655 10 view .LVU893
 3368 0086 0446     		mov	r4, r0
 3369              	.LVL337:
 3370              		.loc 1 655 10 view .LVU894
 3371              	.LBE133:
 642:src/printer.c ****     char buffer[ 16 ];
 3372              		.loc 1 642 9 is_stmt 1 view .LVU895
 3373 0088 B3B9     		cbnz	r3, .L392
 3374              	.LVL338:
 3375              	.L398:
 3376              	.LBB134:
 643:src/printer.c ****     const char *p;
 3377              		.loc 1 643 5 view .LVU896
 644:src/printer.c ****     opcode op = getprog( pc );
 3378              		.loc 1 644 5 view .LVU897
 645:src/printer.c ****     unsigned int upc = user_pc( pc );
 3379              		.loc 1 645 5 view .LVU898
 645:src/printer.c ****     unsigned int upc = user_pc( pc );
 3380              		.loc 1 645 17 is_stmt 0 view .LVU899
 3381 008a 2046     		mov	r0, r4
 3382 008c FFF7FEFF 		bl	getprog
 3383              	.LVL339:
ARM GAS  /tmp/ccZqGyHG.s 			page 82


 3384 0090 0546     		mov	r5, r0
 646:src/printer.c ****     *num_arg_0( buffer, upc, numlen ) = '\0';
 3385              		.loc 1 646 24 view .LVU900
 3386 0092 2046     		mov	r0, r4
 3387              	.LVL340:
 646:src/printer.c ****     *num_arg_0( buffer, upc, numlen ) = '\0';
 3388              		.loc 1 646 5 is_stmt 1 view .LVU901
 646:src/printer.c ****     *num_arg_0( buffer, upc, numlen ) = '\0';
 3389              		.loc 1 646 24 is_stmt 0 view .LVU902
 3390 0094 FFF7FEFF 		bl	user_pc
 3391              	.LVL341:
 647:src/printer.c ****     print_line( buffer, 0 );
 3392              		.loc 1 647 6 view .LVU903
 3393 0098 4A46     		mov	r2, r9
 646:src/printer.c ****     *num_arg_0( buffer, upc, numlen ) = '\0';
 3394              		.loc 1 646 24 view .LVU904
 3395 009a 0146     		mov	r1, r0
 3396              	.LVL342:
 647:src/printer.c ****     print_line( buffer, 0 );
 3397              		.loc 1 647 5 is_stmt 1 view .LVU905
 647:src/printer.c ****     print_line( buffer, 0 );
 3398              		.loc 1 647 6 is_stmt 0 view .LVU906
 3399 009c 6846     		mov	r0, sp
 3400              	.LVL343:
 647:src/printer.c ****     print_line( buffer, 0 );
 3401              		.loc 1 647 6 view .LVU907
 3402 009e FFF7FEFF 		bl	num_arg_0
 3403              	.LVL344:
 648:src/printer.c ****     if ( pmode == PMODE_GRAPHICS || pmode == PMODE_SMALLGRAPHICS ) {
 3404              		.loc 1 648 5 view .LVU908
 3405 00a2 0021     		movs	r1, #0
 647:src/printer.c ****     print_line( buffer, 0 );
 3406              		.loc 1 647 39 view .LVU909
 3407 00a4 0770     		strb	r7, [r0]
 648:src/printer.c ****     if ( pmode == PMODE_GRAPHICS || pmode == PMODE_SMALLGRAPHICS ) {
 3408              		.loc 1 648 5 is_stmt 1 view .LVU910
 3409 00a6 6846     		mov	r0, sp
 3410 00a8 FFF7FEFF 		bl	print_line
 3411              	.LVL345:
 649:src/printer.c ****       print_tab( tab );
 3412              		.loc 1 649 5 view .LVU911
 649:src/printer.c ****       print_tab( tab );
 3413              		.loc 1 649 8 is_stmt 0 view .LVU912
 3414 00ac 012E     		cmp	r6, #1
 3415 00ae DAD8     		bhi	.L397
 650:src/printer.c ****     }
 3416              		.loc 1 650 7 is_stmt 1 view .LVU913
 3417 00b0 5846     		mov	r0, fp
 3418 00b2 FFF7FEFF 		bl	print_tab
 3419              	.LVL346:
 3420 00b6 D6E7     		b	.L397
 3421              	.LVL347:
 3422              	.L392:
 650:src/printer.c ****     }
 3423              		.loc 1 650 7 is_stmt 0 view .LVU914
 3424              	.LBE134:
 656:src/printer.c ****   }
ARM GAS  /tmp/ccZqGyHG.s 			page 83


 657:src/printer.c **** }
 3425              		.loc 1 657 1 view .LVU915
 3426 00b8 05B0     		add	sp, sp, #20
 3427              		.cfi_remember_state
 3428              		.cfi_def_cfa_offset 36
 3429              		@ sp needed
 3430 00ba BDE8F08F 		pop	{r4, r5, r6, r7, r8, r9, r10, fp, pc}
 3431              	.LVL348:
 3432              	.L410:
 3433              		.cfi_restore_state
 635:src/printer.c ****   }
 3434              		.loc 1 635 5 is_stmt 1 view .LVU916
 635:src/printer.c ****   }
 3435              		.loc 1 635 10 is_stmt 0 view .LVU917
 3436 00be 2B68     		ldr	r3, [r5]
 3437 00c0 B3F8EC47 		ldrh	r4, [r3, #2028]
 3438              	.LVL349:
 635:src/printer.c ****   }
 3439              		.loc 1 635 10 view .LVU918
 3440 00c4 BFE7     		b	.L396
 3441              	.L412:
 3442 00c6 00BF     		.align	2
 3443              	.L411:
 3444 00c8 00000000 		.word	main_ram
 3445 00cc 00000000 		.word	StateWhileOn
 3446 00d0 00000000 		.word	PrinterColumn
 3447 00d4 00000000 		.word	PcWrapped
 3448              		.cfi_endproc
 3449              	.LFE24:
 3451              		.comm	PrinterColumn,4,4
 3452              		.section	.rodata
 3453              		.align	2
 3454              		.set	.LANCHOR0,. + 0
 3455              	.LC0:
 3456 0000 00008384 		.ascii	"\000\000\203\204\263 \000\376\211\212\213\000\215\216"
 3456      B32000FE 
 3456      898A8B00 
 3456      8D8E
 3457 000e 00000000 		.ascii	"\000\000\000\000\000\000\322\326\000\336\000\000\000"
 3457      0000D2D6 
 3457      00DE0000 
 3457      00
 3458 001b 8200BBBC 		.ascii	"\202\000\273\274\000\230\000\000\000\343\344\000\000"
 3458      00980000 
 3458      00E3E400 
 3458      00
 3459 0028 D3D70000 		.ascii	"\323\327\000\000\000\000\000\000\000\205\000\000\000"
 3459      00000000 
 3459      00850000 
 3459      00
 3460 0035 00000000 		.ascii	"\000\000\000\000\000\227\000\000\000\000\000\214\000"
 3460      00970000 
 3460      0000008C 
 3460      00
 3461 0042 00880000 		.ascii	"\000\210\000\000\000\000\000\000\000\217\000\000\000"
 3461      00000000 
 3461      008F0000 
ARM GAS  /tmp/ccZqGyHG.s 			page 84


 3461      00
 3462 004f 87000000 		.ascii	"\207\000\000\000\000\000\000\000\000\000\225\226\000"
 3462      00000000 
 3462      00009596 
 3462      00
 3463 005c 00000000 		.ascii	"\000\000\000\000\241\340\242\330\320\000\000\264\244"
 3463      A1E0A2D8 
 3463      D00000B4 
 3463      A4
 3464 0069 DCA4A5E6 		.ascii	"\334\244\245\346\345\246\247\266\350\347\000\332\000"
 3464      E5A6A7B6 
 3464      E8E700DA 
 3464      00
 3465 0076 EB00ADED 		.ascii	"\353\000\255\355\256\332\000\261\356\000\310\304\300"
 3465      AEDA00B1 
 3465      EE00C8C4 
 3465      C0
 3466 0083 CCD40000 		.ascii	"\314\324\000\000\265\311\305\301\315\331\325\321\335"
 3466      B5C9C5C1 
 3466      CDD9D5D1 
 3466      DD
 3467 0090 B7CAC6C2 		.ascii	"\267\312\306\302\316\000\354\000\313\307\304\317\000"
 3467      CE00EC00 
 3467      CBC7C4CF 
 3467      00
 3468 009d B2EF00   		.ascii	"\262\357\000"
 3469              		.section	.rodata.ops.9051,"a"
 3470              		.align	2
 3471              		.set	.LANCHOR1,. + 0
 3474              	ops.9051:
 3475 0000 1D141511 		.ascii	"\035\024\025\021\022\023\020\026\030\033\034\027\031"
 3475      12131016 
 3475      181B1C17 
 3475      19
 3476 000d 1A       		.ascii	"\032"
 3477              		.text
 3478              	.Letext0:
 3479              		.file 2 "/usr/lib/gcc/arm-none-eabi/9.2.1/include/stdint.h"
 3480              		.file 3 "dmcp/dmcp.h"
 3481              		.file 4 "src/decNumber/decContext.h"
 3482              		.file 5 "src/decNumber/decNumber.h"
 3483              		.file 6 "src/decNumber/decimal64.h"
 3484              		.file 7 "src/decNumber/decimal128.h"
 3485              		.file 8 "src/xeq.h"
 3486              		.file 9 "src/data.h"
 3487              		.file 10 "src/printer.h"
 3488              		.file 11 "src/stats.h"
 3489              		.file 12 "src/display.h"
 3490              		.file 13 "src/storage.h"
 3491              		.file 14 "<built-in>"
ARM GAS  /tmp/ccZqGyHG.s 			page 85

