Archive member included to satisfy reference by file (symbol)

lib/gcc111libbid_hard.a(bid128_acos.o)
                              build/main.o (__bid128_acos)
lib/gcc111libbid_hard.a(bid128_asin.o)
                              build/main.o (__bid128_asin)
lib/gcc111libbid_hard.a(bid128_atan.o)
                              build/main.o (__bid128_atan)
lib/gcc111libbid_hard.a(bid128_cos.o)
                              build/main.o (__bid128_cos)
lib/gcc111libbid_hard.a(bid128_exp.o)
                              build/main.o (__bid128_exp)
lib/gcc111libbid_hard.a(bid128_exp10.o)
                              build/main.o (__bid128_exp10)
lib/gcc111libbid_hard.a(bid128_log.o)
                              build/main.o (__bid128_log)
lib/gcc111libbid_hard.a(bid128_log10.o)
                              build/main.o (__bid128_log10)
lib/gcc111libbid_hard.a(bid128_pow.o)
                              build/main.o (__bid128_pow)
lib/gcc111libbid_hard.a(bid128_sin.o)
                              build/main.o (__bid128_sin)
lib/gcc111libbid_hard.a(bid128_tan.o)
                              build/main.o (__bid128_tan)
lib/gcc111libbid_hard.a(bid128_add.o)
                              build/main.o (__bid128_add)
lib/gcc111libbid_hard.a(bid128_compare.o)
                              lib/gcc111libbid_hard.a(bid128_pow.o) (__bid128_quiet_equal)
lib/gcc111libbid_hard.a(bid128_div.o)
                              build/main.o (__bid128_div)
lib/gcc111libbid_hard.a(bid128_fma.o)
                              lib/gcc111libbid_hard.a(bid128_acos.o) (__bid128_fma)
lib/gcc111libbid_hard.a(bid128_mul.o)
                              build/main.o (__bid128_mul)
lib/gcc111libbid_hard.a(bid128_noncomp.o)
                              lib/gcc111libbid_hard.a(bid128_atan.o) (__bid128_isZero)
lib/gcc111libbid_hard.a(bid128_round_integral.o)
                              lib/gcc111libbid_hard.a(bid128_pow.o) (__bid128_round_integral_nearest_even)
lib/gcc111libbid_hard.a(bid128_sqrt.o)
                              build/main.o (__bid128_sqrt)
lib/gcc111libbid_hard.a(bid128_string.o)
                              build/main.o (__bid128_to_string)
lib/gcc111libbid_hard.a(bid128_to_int32.o)
                              lib/gcc111libbid_hard.a(bid128_exp10.o) (__bid128_to_int32_rnint)
lib/gcc111libbid_hard.a(bid64_to_bid128.o)
                              build/main.o (__bid64_to_bid128)
lib/gcc111libbid_hard.a(bid128_2_str_tables.o)
                              lib/gcc111libbid_hard.a(bid128_string.o) (__bid_mod10_18_tbl)
lib/gcc111libbid_hard.a(bid_binarydecimal.o)
                              lib/gcc111libbid_hard.a(bid128_acos.o) (__bid128_to_binary128)
lib/gcc111libbid_hard.a(bid_convert_data.o)
                              lib/gcc111libbid_hard.a(bid128_div.o) (__bid_factors)
lib/gcc111libbid_hard.a(bid_decimal_data.o)
                              lib/gcc111libbid_hard.a(bid128_div.o) (__bid_power10_index_binexp_128)
lib/gcc111libbid_hard.a(bid_decimal_globals.o)
                              lib/gcc111libbid_hard.a(bid128_acos.o) (__bid_IDEC_glbflags)
lib/gcc111libbid_hard.a(bid_from_int.o)
                              build/main.o (__bid128_from_int32)
lib/gcc111libbid_hard.a(bid_round.o)
                              lib/gcc111libbid_hard.a(bid128_fma.o) (__bid_round64_2_18)
lib/gcc111libbid_hard.a(bid128.o)
                              lib/gcc111libbid_hard.a(bid_round.o) (__bid_ten2mxtrunc256)
lib/gcc111libbid_hard.a(dpml_ux_bid.o)
                              lib/gcc111libbid_hard.a(bid128_cos.o) (bid_f128_mul)
lib/gcc111libbid_hard.a(dpml_ux_exp.o)
                              lib/gcc111libbid_hard.a(bid128_exp.o) (bid_f128_exp)
lib/gcc111libbid_hard.a(dpml_ux_inv_trig.o)
                              lib/gcc111libbid_hard.a(bid128_atan.o) (bid_f128_atan)
lib/gcc111libbid_hard.a(dpml_ux_log.o)
                              lib/gcc111libbid_hard.a(bid128_log.o) (bid_f128_log)
lib/gcc111libbid_hard.a(dpml_ux_sqrt.o)
                              lib/gcc111libbid_hard.a(dpml_ux_inv_trig.o) (__dpml_bid_ux_sqrt_evaluation__)
lib/gcc111libbid_hard.a(dpml_ux_trig.o)
                              lib/gcc111libbid_hard.a(bid128_cos.o) (bid_f128_sin)
lib/gcc111libbid_hard.a(dpml_ux_ops.o)
                              lib/gcc111libbid_hard.a(dpml_ux_inv_trig.o) (__dpml_bid_ffs_and_shift__)
lib/gcc111libbid_hard.a(dpml_ux_ops_64.o)
                              lib/gcc111libbid_hard.a(dpml_ux_bid.o) (__dpml_bid_multiply__)
lib/gcc111libbid_hard.a(dpml_four_over_pi.o)
                              lib/gcc111libbid_hard.a(dpml_ux_trig.o) (__four_over_pi)
lib/gcc111libbid_hard.a(dpml_exception.o)
                              lib/gcc111libbid_hard.a(dpml_ux_ops.o) (__dpml_bid_exception)
lib/gcc111libbid_hard.a(sqrt_tab_t.o)
                              lib/gcc111libbid_hard.a(dpml_ux_sqrt.o) (__dpml_bid_sqrt_t_table)
/usr/lib/gcc/arm-none-eabi/6.3.1/thumb/v7e-m/fpv4-sp/hard/libgcc.a(_arm_addsubdf3.o)
                              lib/gcc111libbid_hard.a(dpml_ux_sqrt.o) (__aeabi_dsub)
/usr/lib/gcc/arm-none-eabi/6.3.1/thumb/v7e-m/fpv4-sp/hard/libgcc.a(_arm_muldivdf3.o)
                              lib/gcc111libbid_hard.a(bid128_div.o) (__aeabi_dmul)
/usr/lib/gcc/arm-none-eabi/6.3.1/thumb/v7e-m/fpv4-sp/hard/libgcc.a(_arm_truncdfsf2.o)
                              lib/gcc111libbid_hard.a(dpml_ux_sqrt.o) (__aeabi_d2f)
/usr/lib/gcc/arm-none-eabi/6.3.1/thumb/v7e-m/fpv4-sp/hard/libgcc.a(_arm_addsubsf3.o)
                              lib/gcc111libbid_hard.a(bid128_div.o) (__aeabi_ul2f)
/usr/lib/gcc/arm-none-eabi/6.3.1/thumb/v7e-m/fpv4-sp/hard/libgcc.a(_aeabi_uldivmod.o)
                              lib/gcc111libbid_hard.a(bid128_div.o) (__aeabi_uldivmod)
/usr/lib/gcc/arm-none-eabi/6.3.1/thumb/v7e-m/fpv4-sp/hard/libgcc.a(_fixdfdi.o)
                              lib/gcc111libbid_hard.a(dpml_ux_sqrt.o) (__aeabi_d2lz)
/usr/lib/gcc/arm-none-eabi/6.3.1/thumb/v7e-m/fpv4-sp/hard/libgcc.a(_fixunsdfdi.o)
                              lib/gcc111libbid_hard.a(bid128_div.o) (__aeabi_d2ulz)
/usr/lib/gcc/arm-none-eabi/6.3.1/thumb/v7e-m/fpv4-sp/hard/libgcc.a(_udivmoddi4.o)
                              /usr/lib/gcc/arm-none-eabi/6.3.1/thumb/v7e-m/fpv4-sp/hard/libgcc.a(_aeabi_uldivmod.o) (__udivmoddi4)
/usr/lib/gcc/arm-none-eabi/6.3.1/thumb/v7e-m/fpv4-sp/hard/libgcc.a(_dvmd_tls.o)
                              /usr/lib/gcc/arm-none-eabi/6.3.1/thumb/v7e-m/fpv4-sp/hard/libgcc.a(_aeabi_uldivmod.o) (__aeabi_ldiv0)
/usr/lib/gcc/arm-none-eabi/6.3.1/thumb/v7e-m/fpv4-sp/hard/libgcc.a(_arm_cmpdf2.o)
                              /usr/lib/gcc/arm-none-eabi/6.3.1/thumb/v7e-m/fpv4-sp/hard/libgcc.a(_fixdfdi.o) (__aeabi_dcmplt)
/usr/lib/gcc/arm-none-eabi/6.3.1/thumb/v7e-m/fpv4-sp/hard/libgcc.a(_arm_fixunsdfsi.o)
                              /usr/lib/gcc/arm-none-eabi/6.3.1/thumb/v7e-m/fpv4-sp/hard/libgcc.a(_fixunsdfdi.o) (__aeabi_d2uiz)
/usr/lib/gcc/arm-none-eabi/6.3.1/../../../arm-none-eabi/lib/thumb/v7e-m/fpv4-sp/hard/libc.a(lib_a-atexit.o)
                              /usr/lib/gcc/arm-none-eabi/6.3.1/../../../arm-none-eabi/lib/thumb/v7e-m/fpv4-sp/hard/crt0.o (atexit)
/usr/lib/gcc/arm-none-eabi/6.3.1/../../../arm-none-eabi/lib/thumb/v7e-m/fpv4-sp/hard/libc.a(lib_a-atoi.o)
                              build/main.o (atoi)
/usr/lib/gcc/arm-none-eabi/6.3.1/../../../arm-none-eabi/lib/thumb/v7e-m/fpv4-sp/hard/libc.a(lib_a-ctype_.o)
                              build/main.o (__ctype_ptr__)
/usr/lib/gcc/arm-none-eabi/6.3.1/../../../arm-none-eabi/lib/thumb/v7e-m/fpv4-sp/hard/libc.a(lib_a-errno.o)
                              build/pgm_syscalls.o (__errno)
/usr/lib/gcc/arm-none-eabi/6.3.1/../../../arm-none-eabi/lib/thumb/v7e-m/fpv4-sp/hard/libc.a(lib_a-exit.o)
                              /usr/lib/gcc/arm-none-eabi/6.3.1/../../../arm-none-eabi/lib/thumb/v7e-m/fpv4-sp/hard/crt0.o (exit)
/usr/lib/gcc/arm-none-eabi/6.3.1/../../../arm-none-eabi/lib/thumb/v7e-m/fpv4-sp/hard/libc.a(lib_a-fini.o)
                              /usr/lib/gcc/arm-none-eabi/6.3.1/../../../arm-none-eabi/lib/thumb/v7e-m/fpv4-sp/hard/crt0.o (__libc_fini_array)
/usr/lib/gcc/arm-none-eabi/6.3.1/../../../arm-none-eabi/lib/thumb/v7e-m/fpv4-sp/hard/libc.a(lib_a-impure.o)
                              /usr/lib/gcc/arm-none-eabi/6.3.1/../../../arm-none-eabi/lib/thumb/v7e-m/fpv4-sp/hard/libc.a(lib_a-exit.o) (_global_impure_ptr)
/usr/lib/gcc/arm-none-eabi/6.3.1/../../../arm-none-eabi/lib/thumb/v7e-m/fpv4-sp/hard/libc.a(lib_a-init.o)
                              /usr/lib/gcc/arm-none-eabi/6.3.1/../../../arm-none-eabi/lib/thumb/v7e-m/fpv4-sp/hard/crt0.o (__libc_init_array)
/usr/lib/gcc/arm-none-eabi/6.3.1/../../../arm-none-eabi/lib/thumb/v7e-m/fpv4-sp/hard/libc.a(lib_a-memmove.o)
                              build/main.o (memmove)
/usr/lib/gcc/arm-none-eabi/6.3.1/../../../arm-none-eabi/lib/thumb/v7e-m/fpv4-sp/hard/libc.a(lib_a-memset.o)
                              /usr/lib/gcc/arm-none-eabi/6.3.1/../../../arm-none-eabi/lib/thumb/v7e-m/fpv4-sp/hard/crt0.o (memset)
/usr/lib/gcc/arm-none-eabi/6.3.1/../../../arm-none-eabi/lib/thumb/v7e-m/fpv4-sp/hard/libc.a(lib_a-printf.o)
                              build/main.o (printf)
/usr/lib/gcc/arm-none-eabi/6.3.1/../../../arm-none-eabi/lib/thumb/v7e-m/fpv4-sp/hard/libc.a(lib_a-signal.o)
                              lib/gcc111libbid_hard.a(dpml_exception.o) (raise)
/usr/lib/gcc/arm-none-eabi/6.3.1/../../../arm-none-eabi/lib/thumb/v7e-m/fpv4-sp/hard/libc.a(lib_a-signalr.o)
                              /usr/lib/gcc/arm-none-eabi/6.3.1/../../../arm-none-eabi/lib/thumb/v7e-m/fpv4-sp/hard/libc.a(lib_a-signal.o) (_kill_r)
/usr/lib/gcc/arm-none-eabi/6.3.1/../../../arm-none-eabi/lib/thumb/v7e-m/fpv4-sp/hard/libc.a(lib_a-sprintf.o)
                              build/main.o (sprintf)
/usr/lib/gcc/arm-none-eabi/6.3.1/../../../arm-none-eabi/lib/thumb/v7e-m/fpv4-sp/hard/libc.a(lib_a-stpcpy.o)
                              build/main.o (stpcpy)
/usr/lib/gcc/arm-none-eabi/6.3.1/../../../arm-none-eabi/lib/thumb/v7e-m/fpv4-sp/hard/libc.a(lib_a-strcat.o)
                              build/main.o (strcat)
/usr/lib/gcc/arm-none-eabi/6.3.1/../../../arm-none-eabi/lib/thumb/v7e-m/fpv4-sp/hard/libc.a(lib_a-strchr.o)
                              build/main.o (strchr)
/usr/lib/gcc/arm-none-eabi/6.3.1/../../../arm-none-eabi/lib/thumb/v7e-m/fpv4-sp/hard/libc.a(lib_a-strcpy.o)
                              build/main.o (strcpy)
/usr/lib/gcc/arm-none-eabi/6.3.1/../../../arm-none-eabi/lib/thumb/v7e-m/fpv4-sp/hard/libc.a(lib_a-strlen.o)
                              build/main.o (strlen)
/usr/lib/gcc/arm-none-eabi/6.3.1/../../../arm-none-eabi/lib/thumb/v7e-m/fpv4-sp/hard/libc.a(lib_a-strncat.o)
                              build/main.o (strncat)
/usr/lib/gcc/arm-none-eabi/6.3.1/../../../arm-none-eabi/lib/thumb/v7e-m/fpv4-sp/hard/libc.a(lib_a-strtol.o)
                              /usr/lib/gcc/arm-none-eabi/6.3.1/../../../arm-none-eabi/lib/thumb/v7e-m/fpv4-sp/hard/libc.a(lib_a-atoi.o) (_strtol_r)
/usr/lib/gcc/arm-none-eabi/6.3.1/../../../arm-none-eabi/lib/thumb/v7e-m/fpv4-sp/hard/libc.a(lib_a-svfprintf.o)
                              /usr/lib/gcc/arm-none-eabi/6.3.1/../../../arm-none-eabi/lib/thumb/v7e-m/fpv4-sp/hard/libc.a(lib_a-sprintf.o) (_svfprintf_r)
/usr/lib/gcc/arm-none-eabi/6.3.1/../../../arm-none-eabi/lib/thumb/v7e-m/fpv4-sp/hard/libc.a(lib_a-vfprintf.o)
                              /usr/lib/gcc/arm-none-eabi/6.3.1/../../../arm-none-eabi/lib/thumb/v7e-m/fpv4-sp/hard/libc.a(lib_a-printf.o) (_vfprintf_r)
/usr/lib/gcc/arm-none-eabi/6.3.1/../../../arm-none-eabi/lib/thumb/v7e-m/fpv4-sp/hard/libc.a(lib_a-wsetup.o)
                              /usr/lib/gcc/arm-none-eabi/6.3.1/../../../arm-none-eabi/lib/thumb/v7e-m/fpv4-sp/hard/libc.a(lib_a-vfprintf.o) (__swsetup_r)
/usr/lib/gcc/arm-none-eabi/6.3.1/../../../arm-none-eabi/lib/thumb/v7e-m/fpv4-sp/hard/libc.a(lib_a-__atexit.o)
                              /usr/lib/gcc/arm-none-eabi/6.3.1/../../../arm-none-eabi/lib/thumb/v7e-m/fpv4-sp/hard/libc.a(lib_a-atexit.o) (__register_exitproc)
/usr/lib/gcc/arm-none-eabi/6.3.1/../../../arm-none-eabi/lib/thumb/v7e-m/fpv4-sp/hard/libc.a(lib_a-__call_atexit.o)
                              /usr/lib/gcc/arm-none-eabi/6.3.1/../../../arm-none-eabi/lib/thumb/v7e-m/fpv4-sp/hard/libc.a(lib_a-exit.o) (__call_exitprocs)
/usr/lib/gcc/arm-none-eabi/6.3.1/../../../arm-none-eabi/lib/thumb/v7e-m/fpv4-sp/hard/libc.a(lib_a-dtoa.o)
                              /usr/lib/gcc/arm-none-eabi/6.3.1/../../../arm-none-eabi/lib/thumb/v7e-m/fpv4-sp/hard/libc.a(lib_a-svfprintf.o) (_dtoa_r)
/usr/lib/gcc/arm-none-eabi/6.3.1/../../../arm-none-eabi/lib/thumb/v7e-m/fpv4-sp/hard/libc.a(lib_a-fflush.o)
                              /usr/lib/gcc/arm-none-eabi/6.3.1/../../../arm-none-eabi/lib/thumb/v7e-m/fpv4-sp/hard/libc.a(lib_a-vfprintf.o) (_fflush_r)
/usr/lib/gcc/arm-none-eabi/6.3.1/../../../arm-none-eabi/lib/thumb/v7e-m/fpv4-sp/hard/libc.a(lib_a-findfp.o)
                              /usr/lib/gcc/arm-none-eabi/6.3.1/../../../arm-none-eabi/lib/thumb/v7e-m/fpv4-sp/hard/libc.a(lib_a-vfprintf.o) (__sinit)
/usr/lib/gcc/arm-none-eabi/6.3.1/../../../arm-none-eabi/lib/thumb/v7e-m/fpv4-sp/hard/libc.a(lib_a-fwalk.o)
                              /usr/lib/gcc/arm-none-eabi/6.3.1/../../../arm-none-eabi/lib/thumb/v7e-m/fpv4-sp/hard/libc.a(lib_a-findfp.o) (_fwalk)
/usr/lib/gcc/arm-none-eabi/6.3.1/../../../arm-none-eabi/lib/thumb/v7e-m/fpv4-sp/hard/libc.a(lib_a-locale.o)
                              /usr/lib/gcc/arm-none-eabi/6.3.1/../../../arm-none-eabi/lib/thumb/v7e-m/fpv4-sp/hard/libc.a(lib_a-svfprintf.o) (_localeconv_r)
/usr/lib/gcc/arm-none-eabi/6.3.1/../../../arm-none-eabi/lib/thumb/v7e-m/fpv4-sp/hard/libc.a(lib_a-makebuf.o)
                              /usr/lib/gcc/arm-none-eabi/6.3.1/../../../arm-none-eabi/lib/thumb/v7e-m/fpv4-sp/hard/libc.a(lib_a-wsetup.o) (__smakebuf_r)
/usr/lib/gcc/arm-none-eabi/6.3.1/../../../arm-none-eabi/lib/thumb/v7e-m/fpv4-sp/hard/libc.a(lib_a-memchr.o)
                              /usr/lib/gcc/arm-none-eabi/6.3.1/../../../arm-none-eabi/lib/thumb/v7e-m/fpv4-sp/hard/libc.a(lib_a-svfprintf.o) (memchr)
/usr/lib/gcc/arm-none-eabi/6.3.1/../../../arm-none-eabi/lib/thumb/v7e-m/fpv4-sp/hard/libc.a(lib_a-memcpy.o)
                              /usr/lib/gcc/arm-none-eabi/6.3.1/../../../arm-none-eabi/lib/thumb/v7e-m/fpv4-sp/hard/libc.a(lib_a-dtoa.o) (memcpy)
/usr/lib/gcc/arm-none-eabi/6.3.1/../../../arm-none-eabi/lib/thumb/v7e-m/fpv4-sp/hard/libc.a(lib_a-mprec.o)
                              /usr/lib/gcc/arm-none-eabi/6.3.1/../../../arm-none-eabi/lib/thumb/v7e-m/fpv4-sp/hard/libc.a(lib_a-dtoa.o) (_Balloc)
/usr/lib/gcc/arm-none-eabi/6.3.1/../../../arm-none-eabi/lib/thumb/v7e-m/fpv4-sp/hard/libc.a(lib_a-reent.o)
                              /usr/lib/gcc/arm-none-eabi/6.3.1/../../../arm-none-eabi/lib/thumb/v7e-m/fpv4-sp/hard/libc.a(lib_a-signalr.o) (errno)
/usr/lib/gcc/arm-none-eabi/6.3.1/../../../arm-none-eabi/lib/thumb/v7e-m/fpv4-sp/hard/libc.a(lib_a-stdio.o)
                              /usr/lib/gcc/arm-none-eabi/6.3.1/../../../arm-none-eabi/lib/thumb/v7e-m/fpv4-sp/hard/libc.a(lib_a-findfp.o) (__sread)
/usr/lib/gcc/arm-none-eabi/6.3.1/../../../arm-none-eabi/lib/thumb/v7e-m/fpv4-sp/hard/libc.a(lib_a-strcmp.o)
                              /usr/lib/gcc/arm-none-eabi/6.3.1/../../../arm-none-eabi/lib/thumb/v7e-m/fpv4-sp/hard/libc.a(lib_a-locale.o) (strcmp)
/usr/lib/gcc/arm-none-eabi/6.3.1/../../../arm-none-eabi/lib/thumb/v7e-m/fpv4-sp/hard/libc.a(lib_a-svfiprintf.o)
                              /usr/lib/gcc/arm-none-eabi/6.3.1/../../../arm-none-eabi/lib/thumb/v7e-m/fpv4-sp/hard/libc.a(lib_a-svfprintf.o) (__ssprint_r)
/usr/lib/gcc/arm-none-eabi/6.3.1/../../../arm-none-eabi/lib/thumb/v7e-m/fpv4-sp/hard/libc.a(lib_a-vfiprintf.o)
                              /usr/lib/gcc/arm-none-eabi/6.3.1/../../../arm-none-eabi/lib/thumb/v7e-m/fpv4-sp/hard/libc.a(lib_a-vfprintf.o) (__sprint_r)
/usr/lib/gcc/arm-none-eabi/6.3.1/../../../arm-none-eabi/lib/thumb/v7e-m/fpv4-sp/hard/libc.a(lib_a-writer.o)
                              /usr/lib/gcc/arm-none-eabi/6.3.1/../../../arm-none-eabi/lib/thumb/v7e-m/fpv4-sp/hard/libc.a(lib_a-stdio.o) (_write_r)
/usr/lib/gcc/arm-none-eabi/6.3.1/../../../arm-none-eabi/lib/thumb/v7e-m/fpv4-sp/hard/libc.a(lib_a-closer.o)
                              /usr/lib/gcc/arm-none-eabi/6.3.1/../../../arm-none-eabi/lib/thumb/v7e-m/fpv4-sp/hard/libc.a(lib_a-stdio.o) (_close_r)
/usr/lib/gcc/arm-none-eabi/6.3.1/../../../arm-none-eabi/lib/thumb/v7e-m/fpv4-sp/hard/libc.a(lib_a-fclose.o)
                              /usr/lib/gcc/arm-none-eabi/6.3.1/../../../arm-none-eabi/lib/thumb/v7e-m/fpv4-sp/hard/libc.a(lib_a-findfp.o) (_fclose_r)
/usr/lib/gcc/arm-none-eabi/6.3.1/../../../arm-none-eabi/lib/thumb/v7e-m/fpv4-sp/hard/libc.a(lib_a-fputwc.o)
                              /usr/lib/gcc/arm-none-eabi/6.3.1/../../../arm-none-eabi/lib/thumb/v7e-m/fpv4-sp/hard/libc.a(lib_a-vfiprintf.o) (_fputwc_r)
/usr/lib/gcc/arm-none-eabi/6.3.1/../../../arm-none-eabi/lib/thumb/v7e-m/fpv4-sp/hard/libc.a(lib_a-fstatr.o)
                              /usr/lib/gcc/arm-none-eabi/6.3.1/../../../arm-none-eabi/lib/thumb/v7e-m/fpv4-sp/hard/libc.a(lib_a-makebuf.o) (_fstat_r)
/usr/lib/gcc/arm-none-eabi/6.3.1/../../../arm-none-eabi/lib/thumb/v7e-m/fpv4-sp/hard/libc.a(lib_a-fvwrite.o)
                              /usr/lib/gcc/arm-none-eabi/6.3.1/../../../arm-none-eabi/lib/thumb/v7e-m/fpv4-sp/hard/libc.a(lib_a-vfiprintf.o) (__sfvwrite_r)
/usr/lib/gcc/arm-none-eabi/6.3.1/../../../arm-none-eabi/lib/thumb/v7e-m/fpv4-sp/hard/libc.a(lib_a-isattyr.o)
                              /usr/lib/gcc/arm-none-eabi/6.3.1/../../../arm-none-eabi/lib/thumb/v7e-m/fpv4-sp/hard/libc.a(lib_a-makebuf.o) (_isatty_r)
/usr/lib/gcc/arm-none-eabi/6.3.1/../../../arm-none-eabi/lib/thumb/v7e-m/fpv4-sp/hard/libc.a(lib_a-lseekr.o)
                              /usr/lib/gcc/arm-none-eabi/6.3.1/../../../arm-none-eabi/lib/thumb/v7e-m/fpv4-sp/hard/libc.a(lib_a-stdio.o) (_lseek_r)
/usr/lib/gcc/arm-none-eabi/6.3.1/../../../arm-none-eabi/lib/thumb/v7e-m/fpv4-sp/hard/libc.a(lib_a-readr.o)
                              /usr/lib/gcc/arm-none-eabi/6.3.1/../../../arm-none-eabi/lib/thumb/v7e-m/fpv4-sp/hard/libc.a(lib_a-stdio.o) (_read_r)
/usr/lib/gcc/arm-none-eabi/6.3.1/../../../arm-none-eabi/lib/thumb/v7e-m/fpv4-sp/hard/libc.a(lib_a-wbuf.o)
                              /usr/lib/gcc/arm-none-eabi/6.3.1/../../../arm-none-eabi/lib/thumb/v7e-m/fpv4-sp/hard/libc.a(lib_a-fputwc.o) (__swbuf_r)
/usr/lib/gcc/arm-none-eabi/6.3.1/../../../arm-none-eabi/lib/thumb/v7e-m/fpv4-sp/hard/libc.a(lib_a-wcrtomb.o)
                              /usr/lib/gcc/arm-none-eabi/6.3.1/../../../arm-none-eabi/lib/thumb/v7e-m/fpv4-sp/hard/libc.a(lib_a-fputwc.o) (_wcrtomb_r)
/usr/lib/gcc/arm-none-eabi/6.3.1/../../../arm-none-eabi/lib/thumb/v7e-m/fpv4-sp/hard/libc.a(lib_a-wctomb_r.o)
                              /usr/lib/gcc/arm-none-eabi/6.3.1/../../../arm-none-eabi/lib/thumb/v7e-m/fpv4-sp/hard/libc.a(lib_a-wcrtomb.o) (__wctomb)
/usr/lib/gcc/arm-none-eabi/6.3.1/thumb/v7e-m/fpv4-sp/hard/libgcc.a(_arm_unorddf2.o)
                              /usr/lib/gcc/arm-none-eabi/6.3.1/../../../arm-none-eabi/lib/thumb/v7e-m/fpv4-sp/hard/libc.a(lib_a-svfprintf.o) (__aeabi_dcmpun)
/usr/lib/gcc/arm-none-eabi/6.3.1/thumb/v7e-m/fpv4-sp/hard/libgcc.a(_arm_fixdfsi.o)
                              /usr/lib/gcc/arm-none-eabi/6.3.1/../../../arm-none-eabi/lib/thumb/v7e-m/fpv4-sp/hard/libc.a(lib_a-dtoa.o) (__aeabi_d2iz)
/usr/lib/gcc/arm-none-eabi/6.3.1/../../../arm-none-eabi/lib/thumb/v7e-m/fpv4-sp/hard/libm.a(lib_a-w_sqrt.o)
                              lib/gcc111libbid_hard.a(bid128_sqrt.o) (sqrt)
/usr/lib/gcc/arm-none-eabi/6.3.1/../../../arm-none-eabi/lib/thumb/v7e-m/fpv4-sp/hard/libm.a(lib_a-e_sqrt.o)
                              /usr/lib/gcc/arm-none-eabi/6.3.1/../../../arm-none-eabi/lib/thumb/v7e-m/fpv4-sp/hard/libm.a(lib_a-w_sqrt.o) (__ieee754_sqrt)
/usr/lib/gcc/arm-none-eabi/6.3.1/../../../arm-none-eabi/lib/thumb/v7e-m/fpv4-sp/hard/libm.a(lib_a-s_lib_ver.o)
                              /usr/lib/gcc/arm-none-eabi/6.3.1/../../../arm-none-eabi/lib/thumb/v7e-m/fpv4-sp/hard/libm.a(lib_a-w_sqrt.o) (__fdlib_version)
/usr/lib/gcc/arm-none-eabi/6.3.1/../../../arm-none-eabi/lib/thumb/v7e-m/fpv4-sp/hard/libm.a(lib_a-s_matherr.o)
                              /usr/lib/gcc/arm-none-eabi/6.3.1/../../../arm-none-eabi/lib/thumb/v7e-m/fpv4-sp/hard/libm.a(lib_a-w_sqrt.o) (matherr)

Allocating common symbols
Common symbol       size              file

num_180_pi          0x10              build/main.o
num_pi              0x10              build/main.o
num_10              0x10              build/main.o
shift               0x1               build/main.o
errno               0x4               /usr/lib/gcc/arm-none-eabi/6.3.1/../../../arm-none-eabi/lib/thumb/v7e-m/fpv4-sp/hard/libc.a(lib_a-reent.o)
num_pi_180          0x10              build/main.o
stack               0xa0              build/main.o
edit                0x1               build/main.o
fmt_mode_digits     0x1               build/main.o
fmt_mode            0x1               build/main.o
num_pi_200          0x10              build/main.o
ed                  0x33              build/main.o
num_200_pi          0x10              build/main.o
num_one             0x10              build/main.o
num_1_100           0x10              build/main.o
regs                0x640             build/main.o
num_zero            0x10              build/main.o
ang_mode            0x1               build/main.o

Discarded input sections

 .text          0x0000000000000000        0x0 /usr/lib/gcc/arm-none-eabi/6.3.1/thumb/v7e-m/fpv4-sp/hard/crti.o
 .data          0x0000000000000000        0x0 /usr/lib/gcc/arm-none-eabi/6.3.1/thumb/v7e-m/fpv4-sp/hard/crti.o
 .bss           0x0000000000000000        0x0 /usr/lib/gcc/arm-none-eabi/6.3.1/thumb/v7e-m/fpv4-sp/hard/crti.o
 .data          0x0000000000000000        0x4 /usr/lib/gcc/arm-none-eabi/6.3.1/thumb/v7e-m/fpv4-sp/hard/crtbegin.o
 .text          0x0000000000000000       0x68 /usr/lib/gcc/arm-none-eabi/6.3.1/../../../arm-none-eabi/lib/thumb/v7e-m/fpv4-sp/hard/crt0.o
 .data          0x0000000000000000        0x0 /usr/lib/gcc/arm-none-eabi/6.3.1/../../../arm-none-eabi/lib/thumb/v7e-m/fpv4-sp/hard/crt0.o
 .bss           0x0000000000000000        0x0 /usr/lib/gcc/arm-none-eabi/6.3.1/../../../arm-none-eabi/lib/thumb/v7e-m/fpv4-sp/hard/crt0.o
 .ARM.extab     0x0000000000000000        0x0 /usr/lib/gcc/arm-none-eabi/6.3.1/../../../arm-none-eabi/lib/thumb/v7e-m/fpv4-sp/hard/crt0.o
 .ARM.exidx     0x0000000000000000        0x8 /usr/lib/gcc/arm-none-eabi/6.3.1/../../../arm-none-eabi/lib/thumb/v7e-m/fpv4-sp/hard/crt0.o
 .debug_line    0x0000000000000000       0x84 /usr/lib/gcc/arm-none-eabi/6.3.1/../../../arm-none-eabi/lib/thumb/v7e-m/fpv4-sp/hard/crt0.o
 .debug_info    0x0000000000000000       0xb7 /usr/lib/gcc/arm-none-eabi/6.3.1/../../../arm-none-eabi/lib/thumb/v7e-m/fpv4-sp/hard/crt0.o
 .debug_abbrev  0x0000000000000000       0x14 /usr/lib/gcc/arm-none-eabi/6.3.1/../../../arm-none-eabi/lib/thumb/v7e-m/fpv4-sp/hard/crt0.o
 .debug_aranges
                0x0000000000000000       0x20 /usr/lib/gcc/arm-none-eabi/6.3.1/../../../arm-none-eabi/lib/thumb/v7e-m/fpv4-sp/hard/crt0.o
 .ARM.attributes
                0x0000000000000000       0x20 /usr/lib/gcc/arm-none-eabi/6.3.1/../../../arm-none-eabi/lib/thumb/v7e-m/fpv4-sp/hard/crt0.o
 .text          0x0000000000000000        0x0 build/pgm_syscalls.o
 .data          0x0000000000000000        0x0 build/pgm_syscalls.o
 .bss           0x0000000000000000        0x0 build/pgm_syscalls.o
 .text.free     0x0000000000000000        0x8 build/pgm_syscalls.o
 .text.calloc   0x0000000000000000        0x8 build/pgm_syscalls.o
 .text.realloc  0x0000000000000000        0x8 build/pgm_syscalls.o
 .text          0x0000000000000000        0x0 build/main.o
 .data          0x0000000000000000        0x0 build/main.o
 .bss           0x0000000000000000        0x0 build/main.o
 .text.beep     0x0000000000000000       0x2c build/main.o
 .text.round_string
                0x0000000000000000        0xc build/main.o
 .text.cancel_edit
                0x0000000000000000       0x20 build/main.o
 .text.finish_edit
                0x0000000000000000       0x20 build/main.o
 .text.ed_cat   0x0000000000000000       0x20 build/main.o
 .text.ed_del   0x0000000000000000       0x10 build/main.o
 .text.ed_ins   0x0000000000000000       0x20 build/main.o
 .text.stack_dup
                0x0000000000000000       0x10 build/main.o
 .text.stack_pop
                0x0000000000000000       0x10 build/main.o
 .text.reg_to_fmt_num
                0x0000000000000000       0x20 build/main.o
 .text.clear_regs
                0x0000000000000000       0x28 build/main.o
 .rodata.expchar
                0x0000000000000000        0x1 build/main.o
 .text          0x0000000000000000        0x0 build/menu.o
 .data          0x0000000000000000        0x0 build/menu.o
 .bss           0x0000000000000000        0x0 build/menu.o
 .text          0x0000000000000000       0x14 build/startup_pgm.o
 .data          0x0000000000000000        0x0 build/startup_pgm.o
 .bss           0x0000000000000000        0x0 build/startup_pgm.o
 .text          0x0000000000000000        0x0 lib/gcc111libbid_hard.a(bid128_acos.o)
 .data          0x0000000000000000        0x0 lib/gcc111libbid_hard.a(bid128_acos.o)
 .bss           0x0000000000000000        0x0 lib/gcc111libbid_hard.a(bid128_acos.o)
 .text          0x0000000000000000        0x0 lib/gcc111libbid_hard.a(bid128_asin.o)
 .data          0x0000000000000000        0x0 lib/gcc111libbid_hard.a(bid128_asin.o)
 .bss           0x0000000000000000        0x0 lib/gcc111libbid_hard.a(bid128_asin.o)
 .text          0x0000000000000000        0x0 lib/gcc111libbid_hard.a(bid128_atan.o)
 .data          0x0000000000000000        0x0 lib/gcc111libbid_hard.a(bid128_atan.o)
 .bss           0x0000000000000000        0x0 lib/gcc111libbid_hard.a(bid128_atan.o)
 .text          0x0000000000000000        0x0 lib/gcc111libbid_hard.a(bid128_cos.o)
 .data          0x0000000000000000        0x0 lib/gcc111libbid_hard.a(bid128_cos.o)
 .bss           0x0000000000000000        0x0 lib/gcc111libbid_hard.a(bid128_cos.o)
 .text          0x0000000000000000        0x0 lib/gcc111libbid_hard.a(bid128_exp.o)
 .data          0x0000000000000000        0x0 lib/gcc111libbid_hard.a(bid128_exp.o)
 .bss           0x0000000000000000        0x0 lib/gcc111libbid_hard.a(bid128_exp.o)
 .text          0x0000000000000000        0x0 lib/gcc111libbid_hard.a(bid128_exp10.o)
 .data          0x0000000000000000        0x0 lib/gcc111libbid_hard.a(bid128_exp10.o)
 .bss           0x0000000000000000        0x0 lib/gcc111libbid_hard.a(bid128_exp10.o)
 .text          0x0000000000000000        0x0 lib/gcc111libbid_hard.a(bid128_log.o)
 .data          0x0000000000000000        0x0 lib/gcc111libbid_hard.a(bid128_log.o)
 .bss           0x0000000000000000        0x0 lib/gcc111libbid_hard.a(bid128_log.o)
 .text          0x0000000000000000        0x0 lib/gcc111libbid_hard.a(bid128_log10.o)
 .data          0x0000000000000000        0x0 lib/gcc111libbid_hard.a(bid128_log10.o)
 .bss           0x0000000000000000        0x0 lib/gcc111libbid_hard.a(bid128_log10.o)
 .text          0x0000000000000000        0x0 lib/gcc111libbid_hard.a(bid128_pow.o)
 .data          0x0000000000000000        0x0 lib/gcc111libbid_hard.a(bid128_pow.o)
 .bss           0x0000000000000000        0x0 lib/gcc111libbid_hard.a(bid128_pow.o)
 .text          0x0000000000000000        0x0 lib/gcc111libbid_hard.a(bid128_sin.o)
 .data          0x0000000000000000        0x0 lib/gcc111libbid_hard.a(bid128_sin.o)
 .bss           0x0000000000000000        0x0 lib/gcc111libbid_hard.a(bid128_sin.o)
 .text          0x0000000000000000        0x0 lib/gcc111libbid_hard.a(bid128_tan.o)
 .data          0x0000000000000000        0x0 lib/gcc111libbid_hard.a(bid128_tan.o)
 .bss           0x0000000000000000        0x0 lib/gcc111libbid_hard.a(bid128_tan.o)
 .text          0x0000000000000000        0x0 lib/gcc111libbid_hard.a(bid128_add.o)
 .data          0x0000000000000000        0x0 lib/gcc111libbid_hard.a(bid128_add.o)
 .bss           0x0000000000000000        0x0 lib/gcc111libbid_hard.a(bid128_add.o)
 .text.__bid64qq_add
                0x0000000000000000       0x6c lib/gcc111libbid_hard.a(bid128_add.o)
 .text.__bid64dq_add
                0x0000000000000000       0x50 lib/gcc111libbid_hard.a(bid128_add.o)
 .text.__bid64qd_add
                0x0000000000000000       0x50 lib/gcc111libbid_hard.a(bid128_add.o)
 .text.__bid64qq_sub
                0x0000000000000000       0x8c lib/gcc111libbid_hard.a(bid128_add.o)
 .text.__bid64dq_sub
                0x0000000000000000       0x50 lib/gcc111libbid_hard.a(bid128_add.o)
 .text.__bid64qd_sub
                0x0000000000000000       0x50 lib/gcc111libbid_hard.a(bid128_add.o)
 .text.__bid128dd_add
                0x0000000000000000       0x5c lib/gcc111libbid_hard.a(bid128_add.o)
 .text.__bid128dq_add
                0x0000000000000000       0x50 lib/gcc111libbid_hard.a(bid128_add.o)
 .text.__bid128qd_add
                0x0000000000000000       0x50 lib/gcc111libbid_hard.a(bid128_add.o)
 .text.__bid128dd_sub
                0x0000000000000000       0x5c lib/gcc111libbid_hard.a(bid128_add.o)
 .text.__bid128dq_sub
                0x0000000000000000       0x50 lib/gcc111libbid_hard.a(bid128_add.o)
 .text.__bid128qd_sub
                0x0000000000000000       0x50 lib/gcc111libbid_hard.a(bid128_add.o)
 .rodata        0x0000000000000000       0x20 lib/gcc111libbid_hard.a(bid128_add.o)
 .text          0x0000000000000000        0x0 lib/gcc111libbid_hard.a(bid128_compare.o)
 .data          0x0000000000000000        0x0 lib/gcc111libbid_hard.a(bid128_compare.o)
 .bss           0x0000000000000000        0x0 lib/gcc111libbid_hard.a(bid128_compare.o)
 .text.__bid128_quiet_greater_equal
                0x0000000000000000      0xea8 lib/gcc111libbid_hard.a(bid128_compare.o)
 .text.__bid128_quiet_greater_unordered
                0x0000000000000000      0xea8 lib/gcc111libbid_hard.a(bid128_compare.o)
 .text.__bid128_quiet_less_equal
                0x0000000000000000      0xea4 lib/gcc111libbid_hard.a(bid128_compare.o)
 .text.__bid128_quiet_less_unordered
                0x0000000000000000      0xea4 lib/gcc111libbid_hard.a(bid128_compare.o)
 .text.__bid128_quiet_not_equal
                0x0000000000000000      0x7c4 lib/gcc111libbid_hard.a(bid128_compare.o)
 .text.__bid128_quiet_not_greater
                0x0000000000000000      0xea4 lib/gcc111libbid_hard.a(bid128_compare.o)
 .text.__bid128_quiet_not_less
                0x0000000000000000      0xea0 lib/gcc111libbid_hard.a(bid128_compare.o)
 .text.__bid128_quiet_ordered
                0x0000000000000000       0x80 lib/gcc111libbid_hard.a(bid128_compare.o)
 .text.__bid128_quiet_unordered
                0x0000000000000000       0x80 lib/gcc111libbid_hard.a(bid128_compare.o)
 .text.__bid128_signaling_greater
                0x0000000000000000      0xe90 lib/gcc111libbid_hard.a(bid128_compare.o)
 .text.__bid128_signaling_greater_equal
                0x0000000000000000      0xeb4 lib/gcc111libbid_hard.a(bid128_compare.o)
 .text.__bid128_signaling_greater_unordered
                0x0000000000000000      0xeb4 lib/gcc111libbid_hard.a(bid128_compare.o)
 .text.__bid128_signaling_less
                0x0000000000000000      0xe98 lib/gcc111libbid_hard.a(bid128_compare.o)
 .text.__bid128_signaling_less_equal
                0x0000000000000000      0xea8 lib/gcc111libbid_hard.a(bid128_compare.o)
 .text.__bid128_signaling_less_unordered
                0x0000000000000000      0xe98 lib/gcc111libbid_hard.a(bid128_compare.o)
 .text.__bid128_signaling_not_greater
                0x0000000000000000      0xea0 lib/gcc111libbid_hard.a(bid128_compare.o)
 .text.__bid128_signaling_not_less
                0x0000000000000000      0xeac lib/gcc111libbid_hard.a(bid128_compare.o)
 .text          0x0000000000000000        0x0 lib/gcc111libbid_hard.a(bid128_div.o)
 .data          0x0000000000000000        0x0 lib/gcc111libbid_hard.a(bid128_div.o)
 .bss           0x0000000000000000        0x0 lib/gcc111libbid_hard.a(bid128_div.o)
 .text.__bid128dd_div
                0x0000000000000000     0x37a0 lib/gcc111libbid_hard.a(bid128_div.o)
 .text.__bid128dq_div
                0x0000000000000000     0x39bc lib/gcc111libbid_hard.a(bid128_div.o)
 .text.__bid128qd_div
                0x0000000000000000     0x3fcc lib/gcc111libbid_hard.a(bid128_div.o)
 .text          0x0000000000000000        0x0 lib/gcc111libbid_hard.a(bid128_fma.o)
 .data          0x0000000000000000        0x0 lib/gcc111libbid_hard.a(bid128_fma.o)
 .bss           0x0000000000000000        0x0 lib/gcc111libbid_hard.a(bid128_fma.o)
 .text.__bid128ddd_fma
                0x0000000000000000       0x88 lib/gcc111libbid_hard.a(bid128_fma.o)
 .text.__bid128ddq_fma
                0x0000000000000000       0x78 lib/gcc111libbid_hard.a(bid128_fma.o)
 .text.__bid128dqd_fma
                0x0000000000000000       0x74 lib/gcc111libbid_hard.a(bid128_fma.o)
 .text.__bid128dqq_fma
                0x0000000000000000       0x60 lib/gcc111libbid_hard.a(bid128_fma.o)
 .text.__bid128qdd_fma
                0x0000000000000000       0x74 lib/gcc111libbid_hard.a(bid128_fma.o)
 .text.__bid128qdq_fma
                0x0000000000000000       0x64 lib/gcc111libbid_hard.a(bid128_fma.o)
 .text.__bid128qqd_fma
                0x0000000000000000       0x64 lib/gcc111libbid_hard.a(bid128_fma.o)
 .text.__bid64qqq_fma
                0x0000000000000000      0x8a8 lib/gcc111libbid_hard.a(bid128_fma.o)
 .text.__bid64ddq_fma
                0x0000000000000000       0x68 lib/gcc111libbid_hard.a(bid128_fma.o)
 .text.__bid64dqd_fma
                0x0000000000000000       0x68 lib/gcc111libbid_hard.a(bid128_fma.o)
 .text.__bid64dqq_fma
                0x0000000000000000       0x58 lib/gcc111libbid_hard.a(bid128_fma.o)
 .text.__bid64qdd_fma
                0x0000000000000000       0x68 lib/gcc111libbid_hard.a(bid128_fma.o)
 .text.__bid64qdq_fma
                0x0000000000000000       0x58 lib/gcc111libbid_hard.a(bid128_fma.o)
 .text.__bid64qqd_fma
                0x0000000000000000       0x58 lib/gcc111libbid_hard.a(bid128_fma.o)
 .text          0x0000000000000000        0x0 lib/gcc111libbid_hard.a(bid128_mul.o)
 .data          0x0000000000000000        0x0 lib/gcc111libbid_hard.a(bid128_mul.o)
 .bss           0x0000000000000000        0x0 lib/gcc111libbid_hard.a(bid128_mul.o)
 .text.__bid64qq_mul
                0x0000000000000000      0x250 lib/gcc111libbid_hard.a(bid128_mul.o)
 .text.__bid64dq_mul
                0x0000000000000000       0x50 lib/gcc111libbid_hard.a(bid128_mul.o)
 .text.__bid64qd_mul
                0x0000000000000000       0x50 lib/gcc111libbid_hard.a(bid128_mul.o)
 .text.__bid128dd_mul
                0x0000000000000000       0x5c lib/gcc111libbid_hard.a(bid128_mul.o)
 .text.__bid128dq_mul
                0x0000000000000000       0x50 lib/gcc111libbid_hard.a(bid128_mul.o)
 .text.__bid128qd_mul
                0x0000000000000000       0x50 lib/gcc111libbid_hard.a(bid128_mul.o)
 .text          0x0000000000000000        0x0 lib/gcc111libbid_hard.a(bid128_noncomp.o)
 .data          0x0000000000000000        0x0 lib/gcc111libbid_hard.a(bid128_noncomp.o)
 .bss           0x0000000000000000        0x0 lib/gcc111libbid_hard.a(bid128_noncomp.o)
 .text.__bid128_isSigned
                0x0000000000000000        0x8 lib/gcc111libbid_hard.a(bid128_noncomp.o)
 .text.__bid128_isNormal
                0x0000000000000000      0x164 lib/gcc111libbid_hard.a(bid128_noncomp.o)
 .text.__bid128_isSubnormal
                0x0000000000000000      0x16c lib/gcc111libbid_hard.a(bid128_noncomp.o)
 .text.__bid128_isFinite
                0x0000000000000000       0x28 lib/gcc111libbid_hard.a(bid128_noncomp.o)
 .text.__bid128_isSignaling
                0x0000000000000000       0x28 lib/gcc111libbid_hard.a(bid128_noncomp.o)
 .text.__bid128_isCanonical
                0x0000000000000000      0x130 lib/gcc111libbid_hard.a(bid128_noncomp.o)
 .text.__bid128_isNaN
                0x0000000000000000       0x28 lib/gcc111libbid_hard.a(bid128_noncomp.o)
 .text.__bid128_copy
                0x0000000000000000       0x28 lib/gcc111libbid_hard.a(bid128_noncomp.o)
 .text.__bid128_negate
                0x0000000000000000       0x40 lib/gcc111libbid_hard.a(bid128_noncomp.o)
 .text.__bid128_abs
                0x0000000000000000       0x40 lib/gcc111libbid_hard.a(bid128_noncomp.o)
 .text.__bid128_copySign
                0x0000000000000000       0x54 lib/gcc111libbid_hard.a(bid128_noncomp.o)
 .text.__bid128_class
                0x0000000000000000      0x65c lib/gcc111libbid_hard.a(bid128_noncomp.o)
 .text.__bid128_sameQuantum
                0x0000000000000000      0x10c lib/gcc111libbid_hard.a(bid128_noncomp.o)
 .text.__bid128_totalOrder
                0x0000000000000000     0x1030 lib/gcc111libbid_hard.a(bid128_noncomp.o)
 .text.__bid128_totalOrderMag
                0x0000000000000000      0xdb8 lib/gcc111libbid_hard.a(bid128_noncomp.o)
 .text.__bid128_radix
                0x0000000000000000        0x8 lib/gcc111libbid_hard.a(bid128_noncomp.o)
 .text.__bid128_inf
                0x0000000000000000       0x18 lib/gcc111libbid_hard.a(bid128_noncomp.o)
 .text.__bid128_nan
                0x0000000000000000       0x5c lib/gcc111libbid_hard.a(bid128_noncomp.o)
 .text          0x0000000000000000        0x0 lib/gcc111libbid_hard.a(bid128_round_integral.o)
 .data          0x0000000000000000        0x0 lib/gcc111libbid_hard.a(bid128_round_integral.o)
 .bss           0x0000000000000000        0x0 lib/gcc111libbid_hard.a(bid128_round_integral.o)
 .text.__bid128_round_integral_exact
                0x0000000000000000     0x21a0 lib/gcc111libbid_hard.a(bid128_round_integral.o)
 .text.__bid128_round_integral_negative
                0x0000000000000000      0x89c lib/gcc111libbid_hard.a(bid128_round_integral.o)
 .text.__bid128_round_integral_positive
                0x0000000000000000      0x89c lib/gcc111libbid_hard.a(bid128_round_integral.o)
 .text.__bid128_round_integral_zero
                0x0000000000000000      0x6d8 lib/gcc111libbid_hard.a(bid128_round_integral.o)
 .text.__bid128_round_integral_nearest_away
                0x0000000000000000      0x72c lib/gcc111libbid_hard.a(bid128_round_integral.o)
 .text          0x0000000000000000        0x0 lib/gcc111libbid_hard.a(bid128_sqrt.o)
 .data          0x0000000000000000        0x0 lib/gcc111libbid_hard.a(bid128_sqrt.o)
 .bss           0x0000000000000000        0x0 lib/gcc111libbid_hard.a(bid128_sqrt.o)
 .text.__bid128d_sqrt
                0x0000000000000000     0x1d00 lib/gcc111libbid_hard.a(bid128_sqrt.o)
 .text          0x0000000000000000        0x0 lib/gcc111libbid_hard.a(bid128_string.o)
 .data          0x0000000000000000        0x0 lib/gcc111libbid_hard.a(bid128_string.o)
 .bss           0x0000000000000000        0x0 lib/gcc111libbid_hard.a(bid128_string.o)
 .text          0x0000000000000000        0x0 lib/gcc111libbid_hard.a(bid128_to_int32.o)
 .data          0x0000000000000000        0x0 lib/gcc111libbid_hard.a(bid128_to_int32.o)
 .bss           0x0000000000000000        0x0 lib/gcc111libbid_hard.a(bid128_to_int32.o)
 .text.__bid128_to_int32_floor
                0x0000000000000000      0xb5c lib/gcc111libbid_hard.a(bid128_to_int32.o)
 .text.__bid128_to_int32_xfloor
                0x0000000000000000      0xb44 lib/gcc111libbid_hard.a(bid128_to_int32.o)
 .text.__bid128_to_int32_ceil
                0x0000000000000000      0xe3c lib/gcc111libbid_hard.a(bid128_to_int32.o)
 .text.__bid128_to_int32_xceil
                0x0000000000000000      0xe18 lib/gcc111libbid_hard.a(bid128_to_int32.o)
 .text.__bid128_to_int32_xint
                0x0000000000000000      0xc74 lib/gcc111libbid_hard.a(bid128_to_int32.o)
 .text.__bid128_to_int32_rninta
                0x0000000000000000      0xbdc lib/gcc111libbid_hard.a(bid128_to_int32.o)
 .text.__bid128_to_int32_xrninta
                0x0000000000000000      0xdd8 lib/gcc111libbid_hard.a(bid128_to_int32.o)
 .text          0x0000000000000000        0x0 lib/gcc111libbid_hard.a(bid64_to_bid128.o)
 .data          0x0000000000000000        0x0 lib/gcc111libbid_hard.a(bid64_to_bid128.o)
 .bss           0x0000000000000000        0x0 lib/gcc111libbid_hard.a(bid64_to_bid128.o)
 .text.__bid128_to_bid64
                0x0000000000000000     0x156c lib/gcc111libbid_hard.a(bid64_to_bid128.o)
 .text          0x0000000000000000        0x0 lib/gcc111libbid_hard.a(bid128_2_str_tables.o)
 .data          0x0000000000000000        0x0 lib/gcc111libbid_hard.a(bid128_2_str_tables.o)
 .bss           0x0000000000000000        0x0 lib/gcc111libbid_hard.a(bid128_2_str_tables.o)
 .data.__bid_Twoto30_m_10to9
                0x0000000000000000        0x4 lib/gcc111libbid_hard.a(bid128_2_str_tables.o)
 .text          0x0000000000000000        0x0 lib/gcc111libbid_hard.a(bid_binarydecimal.o)
 .data          0x0000000000000000        0x0 lib/gcc111libbid_hard.a(bid_binarydecimal.o)
 .bss           0x0000000000000000        0x0 lib/gcc111libbid_hard.a(bid_binarydecimal.o)
 .text.__bid32_to_binary32
                0x0000000000000000      0x750 lib/gcc111libbid_hard.a(bid_binarydecimal.o)
 .text.__bid64_to_binary32
                0x0000000000000000      0xb6c lib/gcc111libbid_hard.a(bid_binarydecimal.o)
 .text.__bid128_to_binary32
                0x0000000000000000      0xec4 lib/gcc111libbid_hard.a(bid_binarydecimal.o)
 .text.__bid32_to_binary64
                0x0000000000000000      0x5b4 lib/gcc111libbid_hard.a(bid_binarydecimal.o)
 .text.__bid64_to_binary64
                0x0000000000000000      0x8ec lib/gcc111libbid_hard.a(bid_binarydecimal.o)
 .text.__bid128_to_binary64
                0x0000000000000000      0xfd0 lib/gcc111libbid_hard.a(bid_binarydecimal.o)
 .text.__bid32_to_binary80
                0x0000000000000000      0x5a8 lib/gcc111libbid_hard.a(bid_binarydecimal.o)
 .text.__bid64_to_binary80
                0x0000000000000000      0x9b8 lib/gcc111libbid_hard.a(bid_binarydecimal.o)
 .text.__bid128_to_binary80
                0x0000000000000000     0x1060 lib/gcc111libbid_hard.a(bid_binarydecimal.o)
 .text.__bid32_to_binary128
                0x0000000000000000      0x59c lib/gcc111libbid_hard.a(bid_binarydecimal.o)
 .text.__bid64_to_binary128
                0x0000000000000000      0xa14 lib/gcc111libbid_hard.a(bid_binarydecimal.o)
 .text.__binary32_to_bid32
                0x0000000000000000      0x744 lib/gcc111libbid_hard.a(bid_binarydecimal.o)
 .text.__binary64_to_bid32
                0x0000000000000000      0xc54 lib/gcc111libbid_hard.a(bid_binarydecimal.o)
 .text.__binary80_to_bid32
                0x0000000000000000      0xc5c lib/gcc111libbid_hard.a(bid_binarydecimal.o)
 .text.__binary128_to_bid32
                0x0000000000000000     0x1050 lib/gcc111libbid_hard.a(bid_binarydecimal.o)
 .text.__binary32_to_bid64
                0x0000000000000000      0x610 lib/gcc111libbid_hard.a(bid_binarydecimal.o)
 .text.__binary80_to_bid64
                0x0000000000000000      0xd78 lib/gcc111libbid_hard.a(bid_binarydecimal.o)
 .text.__binary128_to_bid64
                0x0000000000000000     0x114c lib/gcc111libbid_hard.a(bid_binarydecimal.o)
 .text.__binary32_to_bid128
                0x0000000000000000     0x19d0 lib/gcc111libbid_hard.a(bid_binarydecimal.o)
 .text.__binary64_to_bid128
                0x0000000000000000     0x1f40 lib/gcc111libbid_hard.a(bid_binarydecimal.o)
 .text.__binary80_to_bid128
                0x0000000000000000     0x1f74 lib/gcc111libbid_hard.a(bid_binarydecimal.o)
 .rodata.bid_breakpoints_bid32
                0x0000000000000000     0x2960 lib/gcc111libbid_hard.a(bid_binarydecimal.o)
 .rodata.bid_breakpoints_binary32
                0x0000000000000000      0x780 lib/gcc111libbid_hard.a(bid_binarydecimal.o)
 .rodata.bid_breakpoints_binary64
                0x0000000000000000     0x29c0 lib/gcc111libbid_hard.a(bid_binarydecimal.o)
 .rodata.bid_breakpoints_binary80
                0x0000000000000000    0x26bf0 lib/gcc111libbid_hard.a(bid_binarydecimal.o)
 .rodata.bid_coefflimits_bid32
                0x0000000000000000      0x310 lib/gcc111libbid_hard.a(bid_binarydecimal.o)
 .rodata.bid_exponents_bid32
                0x0000000000000000      0xa58 lib/gcc111libbid_hard.a(bid_binarydecimal.o)
 .rodata.bid_exponents_binary32
                0x0000000000000000      0x1e0 lib/gcc111libbid_hard.a(bid_binarydecimal.o)
 .rodata.bid_exponents_binary64
                0x0000000000000000      0xa70 lib/gcc111libbid_hard.a(bid_binarydecimal.o)
 .rodata.bid_exponents_binary80
                0x0000000000000000     0x9afc lib/gcc111libbid_hard.a(bid_binarydecimal.o)
 .rodata.bid_multipliers1_bid32
                0x0000000000000000     0x52c0 lib/gcc111libbid_hard.a(bid_binarydecimal.o)
 .rodata.bid_multipliers1_binary32
                0x0000000000000000      0xf00 lib/gcc111libbid_hard.a(bid_binarydecimal.o)
 .rodata.bid_multipliers1_binary64
                0x0000000000000000     0x5380 lib/gcc111libbid_hard.a(bid_binarydecimal.o)
 .rodata.bid_multipliers1_binary80
                0x0000000000000000    0x4d7e0 lib/gcc111libbid_hard.a(bid_binarydecimal.o)
 .rodata.bid_multipliers2_bid32
                0x0000000000000000     0x52c0 lib/gcc111libbid_hard.a(bid_binarydecimal.o)
 .rodata.bid_multipliers2_binary32
                0x0000000000000000      0xf00 lib/gcc111libbid_hard.a(bid_binarydecimal.o)
 .rodata.bid_multipliers2_binary64
                0x0000000000000000     0x5380 lib/gcc111libbid_hard.a(bid_binarydecimal.o)
 .rodata.bid_multipliers2_binary80
                0x0000000000000000    0x4d7e0 lib/gcc111libbid_hard.a(bid_binarydecimal.o)
 .text          0x0000000000000000        0x0 lib/gcc111libbid_hard.a(bid_convert_data.o)
 .data          0x0000000000000000        0x0 lib/gcc111libbid_hard.a(bid_convert_data.o)
 .bss           0x0000000000000000        0x0 lib/gcc111libbid_hard.a(bid_convert_data.o)
 .text          0x0000000000000000        0x0 lib/gcc111libbid_hard.a(bid_decimal_data.o)
 .data          0x0000000000000000        0x0 lib/gcc111libbid_hard.a(bid_decimal_data.o)
 .bss           0x0000000000000000        0x0 lib/gcc111libbid_hard.a(bid_decimal_data.o)
 .rodata.__bid_estimate_bin_expon
                0x0000000000000000       0x44 lib/gcc111libbid_hard.a(bid_decimal_data.o)
 .rodata.__bid_power10_index_binexp
                0x0000000000000000      0x200 lib/gcc111libbid_hard.a(bid_decimal_data.o)
 .rodata.__bid_round_const_table
                0x0000000000000000      0x2f8 lib/gcc111libbid_hard.a(bid_decimal_data.o)
 .rodata.bid_bid_bid_recip_scale32
                0x0000000000000000       0x24 lib/gcc111libbid_hard.a(bid_decimal_data.o)
 .rodata.bid_bid_reciprocals10_32
                0x0000000000000000       0x48 lib/gcc111libbid_hard.a(bid_decimal_data.o)
 .text          0x0000000000000000        0x0 lib/gcc111libbid_hard.a(bid_decimal_globals.o)
 .data          0x0000000000000000        0x0 lib/gcc111libbid_hard.a(bid_decimal_globals.o)
 .bss           0x0000000000000000        0x0 lib/gcc111libbid_hard.a(bid_decimal_globals.o)
 .text          0x0000000000000000        0x0 lib/gcc111libbid_hard.a(bid_from_int.o)
 .data          0x0000000000000000        0x0 lib/gcc111libbid_hard.a(bid_from_int.o)
 .bss           0x0000000000000000        0x0 lib/gcc111libbid_hard.a(bid_from_int.o)
 .text.__bid64_from_int32
                0x0000000000000000       0x38 lib/gcc111libbid_hard.a(bid_from_int.o)
 .text.__bid64_from_uint32
                0x0000000000000000       0x18 lib/gcc111libbid_hard.a(bid_from_int.o)
 .text.__bid64_from_int64
                0x0000000000000000      0x2a0 lib/gcc111libbid_hard.a(bid_from_int.o)
 .text.__bid64_from_uint64
                0x0000000000000000      0x258 lib/gcc111libbid_hard.a(bid_from_int.o)
 .text.__bid128_from_uint32
                0x0000000000000000       0x14 lib/gcc111libbid_hard.a(bid_from_int.o)
 .text.__bid128_from_int64
                0x0000000000000000       0x30 lib/gcc111libbid_hard.a(bid_from_int.o)
 .text.__bid128_from_uint64
                0x0000000000000000       0x18 lib/gcc111libbid_hard.a(bid_from_int.o)
 .text.__bid32_from_int32
                0x0000000000000000      0x174 lib/gcc111libbid_hard.a(bid_from_int.o)
 .text.__bid32_from_uint32
                0x0000000000000000      0x12c lib/gcc111libbid_hard.a(bid_from_int.o)
 .text.__bid32_from_int64
                0x0000000000000000      0x314 lib/gcc111libbid_hard.a(bid_from_int.o)
 .text.__bid32_from_uint64
                0x0000000000000000      0x2d0 lib/gcc111libbid_hard.a(bid_from_int.o)
 .text          0x0000000000000000        0x0 lib/gcc111libbid_hard.a(bid_round.o)
 .data          0x0000000000000000        0x0 lib/gcc111libbid_hard.a(bid_round.o)
 .bss           0x0000000000000000        0x0 lib/gcc111libbid_hard.a(bid_round.o)
 .text          0x0000000000000000        0x0 lib/gcc111libbid_hard.a(bid128.o)
 .data          0x0000000000000000        0x0 lib/gcc111libbid_hard.a(bid128.o)
 .bss           0x0000000000000000        0x0 lib/gcc111libbid_hard.a(bid128.o)
 .rodata.__bid_maskhigh128M
                0x0000000000000000       0x20 lib/gcc111libbid_hard.a(bid128.o)
 .rodata.__bid_maskhigh192M
                0x0000000000000000       0x98 lib/gcc111libbid_hard.a(bid128.o)
 .rodata.__bid_maskhigh256M
                0x0000000000000000       0x58 lib/gcc111libbid_hard.a(bid128.o)
 .rodata.__bid_onehalf128M
                0x0000000000000000       0x20 lib/gcc111libbid_hard.a(bid128.o)
 .rodata.__bid_onehalf192M
                0x0000000000000000       0x98 lib/gcc111libbid_hard.a(bid128.o)
 .rodata.__bid_onehalf256M
                0x0000000000000000       0x58 lib/gcc111libbid_hard.a(bid128.o)
 .rodata.__bid_shift_ten2m3k128
                0x0000000000000000       0x2c lib/gcc111libbid_hard.a(bid128.o)
 .rodata.__bid_shift_ten2m3k64
                0x0000000000000000       0x14 lib/gcc111libbid_hard.a(bid128.o)
 .rodata.__bid_shiftright128M
                0x0000000000000000       0x10 lib/gcc111libbid_hard.a(bid128.o)
 .rodata.__bid_shiftright192M
                0x0000000000000000       0x4c lib/gcc111libbid_hard.a(bid128.o)
 .rodata.__bid_shiftright256M
                0x0000000000000000       0x2c lib/gcc111libbid_hard.a(bid128.o)
 .rodata.__bid_ten2m3k128
                0x0000000000000000       0xb0 lib/gcc111libbid_hard.a(bid128.o)
 .rodata.__bid_ten2m3k64
                0x0000000000000000       0x28 lib/gcc111libbid_hard.a(bid128.o)
 .rodata.__bid_ten2mk128M
                0x0000000000000000       0x40 lib/gcc111libbid_hard.a(bid128.o)
 .rodata.__bid_ten2mk128truncM
                0x0000000000000000       0x40 lib/gcc111libbid_hard.a(bid128.o)
 .rodata.__bid_ten2mk192M
                0x0000000000000000      0x260 lib/gcc111libbid_hard.a(bid128.o)
 .rodata.__bid_ten2mk192truncM
                0x0000000000000000      0x260 lib/gcc111libbid_hard.a(bid128.o)
 .rodata.__bid_ten2mk256M
                0x0000000000000000      0x160 lib/gcc111libbid_hard.a(bid128.o)
 .rodata.__bid_ten2mk256truncM
                0x0000000000000000      0x160 lib/gcc111libbid_hard.a(bid128.o)
 .rodata.__bid_ten2mk64
                0x0000000000000000       0x80 lib/gcc111libbid_hard.a(bid128.o)
 .text          0x0000000000000000        0x0 lib/gcc111libbid_hard.a(dpml_ux_bid.o)
 .data          0x0000000000000000        0x0 lib/gcc111libbid_hard.a(dpml_ux_bid.o)
 .bss           0x0000000000000000        0x0 lib/gcc111libbid_hard.a(dpml_ux_bid.o)
 .text.bid_f128_itof
                0x0000000000000000       0xc4 lib/gcc111libbid_hard.a(dpml_ux_bid.o)
 .text.bid_f128_nextafter
                0x0000000000000000       0xc8 lib/gcc111libbid_hard.a(dpml_ux_bid.o)
 .text          0x0000000000000000        0x0 lib/gcc111libbid_hard.a(dpml_ux_exp.o)
 .data          0x0000000000000000        0x0 lib/gcc111libbid_hard.a(dpml_ux_exp.o)
 .bss           0x0000000000000000        0x0 lib/gcc111libbid_hard.a(dpml_ux_exp.o)
 .text.__dpml_bid_ux_exp__
                0x0000000000000000        0xc lib/gcc111libbid_hard.a(dpml_ux_exp.o)
 .text.bid_f128_expm1
                0x0000000000000000       0xb4 lib/gcc111libbid_hard.a(dpml_ux_exp.o)
 .text.__dpml_bid_ux_hyperbolic__
                0x0000000000000000       0xf0 lib/gcc111libbid_hard.a(dpml_ux_exp.o)
 .text.__dpml_bid_C_ux_hyperbolic__
                0x0000000000000000       0xa4 lib/gcc111libbid_hard.a(dpml_ux_exp.o)
 .text.bid_f128_sinh
                0x0000000000000000       0x38 lib/gcc111libbid_hard.a(dpml_ux_exp.o)
 .text.bid_f128_cosh
                0x0000000000000000       0x28 lib/gcc111libbid_hard.a(dpml_ux_exp.o)
 .text.bid_f128_sinhcosh
                0x0000000000000000       0x60 lib/gcc111libbid_hard.a(dpml_ux_exp.o)
 .text.bid_f128_tanh
                0x0000000000000000       0x2c lib/gcc111libbid_hard.a(dpml_ux_exp.o)
 .text          0x0000000000000000        0x0 lib/gcc111libbid_hard.a(dpml_ux_inv_trig.o)
 .data          0x0000000000000000        0x0 lib/gcc111libbid_hard.a(dpml_ux_inv_trig.o)
 .bss           0x0000000000000000        0x0 lib/gcc111libbid_hard.a(dpml_ux_inv_trig.o)
 .text.bid_f128_atan2
                0x0000000000000000       0x2c lib/gcc111libbid_hard.a(dpml_ux_inv_trig.o)
 .text.bid_f128_atand
                0x0000000000000000       0x2c lib/gcc111libbid_hard.a(dpml_ux_inv_trig.o)
 .text.bid_f128_atand2
                0x0000000000000000       0x30 lib/gcc111libbid_hard.a(dpml_ux_inv_trig.o)
 .text.bid_f128_asind
                0x0000000000000000       0x30 lib/gcc111libbid_hard.a(dpml_ux_inv_trig.o)
 .text.bid_f128_acosd
                0x0000000000000000       0x34 lib/gcc111libbid_hard.a(dpml_ux_inv_trig.o)
 .text          0x0000000000000000        0x0 lib/gcc111libbid_hard.a(dpml_ux_log.o)
 .data          0x0000000000000000        0x0 lib/gcc111libbid_hard.a(dpml_ux_log.o)
 .bss           0x0000000000000000        0x0 lib/gcc111libbid_hard.a(dpml_ux_log.o)
 .text.__dpml_bid_ux_log_poly__
                0x0000000000000000       0x34 lib/gcc111libbid_hard.a(dpml_ux_log.o)
 .text.bid_f128_log2
                0x0000000000000000       0x20 lib/gcc111libbid_hard.a(dpml_ux_log.o)
 .text.bid_f128_log10
                0x0000000000000000       0x24 lib/gcc111libbid_hard.a(dpml_ux_log.o)
 .text.bid_f128_log1p
                0x0000000000000000      0x134 lib/gcc111libbid_hard.a(dpml_ux_log.o)
 .text          0x0000000000000000        0x0 lib/gcc111libbid_hard.a(dpml_ux_sqrt.o)
 .data          0x0000000000000000        0x0 lib/gcc111libbid_hard.a(dpml_ux_sqrt.o)
 .bss           0x0000000000000000        0x0 lib/gcc111libbid_hard.a(dpml_ux_sqrt.o)
 .text.__rsqrt  0x0000000000000000       0x1c lib/gcc111libbid_hard.a(dpml_ux_sqrt.o)
 .text.__dpml_bid_ux_hypot__
                0x0000000000000000       0x44 lib/gcc111libbid_hard.a(dpml_ux_sqrt.o)
 .text.bid_f128_hypot
                0x0000000000000000       0x4c lib/gcc111libbid_hard.a(dpml_ux_sqrt.o)
 .text          0x0000000000000000        0x0 lib/gcc111libbid_hard.a(dpml_ux_trig.o)
 .data          0x0000000000000000        0x0 lib/gcc111libbid_hard.a(dpml_ux_trig.o)
 .bss           0x0000000000000000        0x0 lib/gcc111libbid_hard.a(dpml_ux_trig.o)
 .text.bid_f128_sincos
                0x0000000000000000       0x58 lib/gcc111libbid_hard.a(dpml_ux_trig.o)
 .text.bid_f128_sind
                0x0000000000000000       0x30 lib/gcc111libbid_hard.a(dpml_ux_trig.o)
 .text.bid_f128_cosd
                0x0000000000000000       0x30 lib/gcc111libbid_hard.a(dpml_ux_trig.o)
 .text.bid_f128_sincosd
                0x0000000000000000       0x54 lib/gcc111libbid_hard.a(dpml_ux_trig.o)
 .text.bid_f128_cot
                0x0000000000000000       0x2c lib/gcc111libbid_hard.a(dpml_ux_trig.o)
 .text.bid_f128_tand
                0x0000000000000000       0x30 lib/gcc111libbid_hard.a(dpml_ux_trig.o)
 .text.bid_f128_cotd
                0x0000000000000000       0x2c lib/gcc111libbid_hard.a(dpml_ux_trig.o)
 .text          0x0000000000000000        0x0 lib/gcc111libbid_hard.a(dpml_ux_ops.o)
 .data          0x0000000000000000        0x0 lib/gcc111libbid_hard.a(dpml_ux_ops.o)
 .bss           0x0000000000000000        0x0 lib/gcc111libbid_hard.a(dpml_ux_ops.o)
 .text.__dpml_bid_evaluate_packed_poly__
                0x0000000000000000       0xec lib/gcc111libbid_hard.a(dpml_ux_ops.o)
 .text          0x0000000000000000        0x0 lib/gcc111libbid_hard.a(dpml_ux_ops_64.o)
 .data          0x0000000000000000        0x0 lib/gcc111libbid_hard.a(dpml_ux_ops_64.o)
 .bss           0x0000000000000000        0x0 lib/gcc111libbid_hard.a(dpml_ux_ops_64.o)
 .text          0x0000000000000000        0x0 lib/gcc111libbid_hard.a(dpml_four_over_pi.o)
 .data          0x0000000000000000        0x0 lib/gcc111libbid_hard.a(dpml_four_over_pi.o)
 .bss           0x0000000000000000        0x0 lib/gcc111libbid_hard.a(dpml_four_over_pi.o)
 .text          0x0000000000000000        0x0 lib/gcc111libbid_hard.a(dpml_exception.o)
 .data          0x0000000000000000        0x0 lib/gcc111libbid_hard.a(dpml_exception.o)
 .bss           0x0000000000000000        0x0 lib/gcc111libbid_hard.a(dpml_exception.o)
 .text          0x0000000000000000        0x0 lib/gcc111libbid_hard.a(sqrt_tab_t.o)
 .data          0x0000000000000000        0x0 lib/gcc111libbid_hard.a(sqrt_tab_t.o)
 .bss           0x0000000000000000        0x0 lib/gcc111libbid_hard.a(sqrt_tab_t.o)
 .data          0x0000000000000000        0x0 /usr/lib/gcc/arm-none-eabi/6.3.1/thumb/v7e-m/fpv4-sp/hard/libgcc.a(_arm_addsubdf3.o)
 .bss           0x0000000000000000        0x0 /usr/lib/gcc/arm-none-eabi/6.3.1/thumb/v7e-m/fpv4-sp/hard/libgcc.a(_arm_addsubdf3.o)
 .data          0x0000000000000000        0x0 /usr/lib/gcc/arm-none-eabi/6.3.1/thumb/v7e-m/fpv4-sp/hard/libgcc.a(_arm_muldivdf3.o)
 .bss           0x0000000000000000        0x0 /usr/lib/gcc/arm-none-eabi/6.3.1/thumb/v7e-m/fpv4-sp/hard/libgcc.a(_arm_muldivdf3.o)
 .data          0x0000000000000000        0x0 /usr/lib/gcc/arm-none-eabi/6.3.1/thumb/v7e-m/fpv4-sp/hard/libgcc.a(_arm_truncdfsf2.o)
 .bss           0x0000000000000000        0x0 /usr/lib/gcc/arm-none-eabi/6.3.1/thumb/v7e-m/fpv4-sp/hard/libgcc.a(_arm_truncdfsf2.o)
 .data          0x0000000000000000        0x0 /usr/lib/gcc/arm-none-eabi/6.3.1/thumb/v7e-m/fpv4-sp/hard/libgcc.a(_arm_addsubsf3.o)
 .bss           0x0000000000000000        0x0 /usr/lib/gcc/arm-none-eabi/6.3.1/thumb/v7e-m/fpv4-sp/hard/libgcc.a(_arm_addsubsf3.o)
 .data          0x0000000000000000        0x0 /usr/lib/gcc/arm-none-eabi/6.3.1/thumb/v7e-m/fpv4-sp/hard/libgcc.a(_aeabi_uldivmod.o)
 .bss           0x0000000000000000        0x0 /usr/lib/gcc/arm-none-eabi/6.3.1/thumb/v7e-m/fpv4-sp/hard/libgcc.a(_aeabi_uldivmod.o)
 .data          0x0000000000000000        0x0 /usr/lib/gcc/arm-none-eabi/6.3.1/thumb/v7e-m/fpv4-sp/hard/libgcc.a(_fixdfdi.o)
 .bss           0x0000000000000000        0x0 /usr/lib/gcc/arm-none-eabi/6.3.1/thumb/v7e-m/fpv4-sp/hard/libgcc.a(_fixdfdi.o)
 .data          0x0000000000000000        0x0 /usr/lib/gcc/arm-none-eabi/6.3.1/thumb/v7e-m/fpv4-sp/hard/libgcc.a(_fixunsdfdi.o)
 .bss           0x0000000000000000        0x0 /usr/lib/gcc/arm-none-eabi/6.3.1/thumb/v7e-m/fpv4-sp/hard/libgcc.a(_fixunsdfdi.o)
 .data          0x0000000000000000        0x0 /usr/lib/gcc/arm-none-eabi/6.3.1/thumb/v7e-m/fpv4-sp/hard/libgcc.a(_udivmoddi4.o)
 .bss           0x0000000000000000        0x0 /usr/lib/gcc/arm-none-eabi/6.3.1/thumb/v7e-m/fpv4-sp/hard/libgcc.a(_udivmoddi4.o)
 .ARM.extab     0x0000000000000000        0x0 /usr/lib/gcc/arm-none-eabi/6.3.1/thumb/v7e-m/fpv4-sp/hard/libgcc.a(_udivmoddi4.o)
 .data          0x0000000000000000        0x0 /usr/lib/gcc/arm-none-eabi/6.3.1/thumb/v7e-m/fpv4-sp/hard/libgcc.a(_dvmd_tls.o)
 .bss           0x0000000000000000        0x0 /usr/lib/gcc/arm-none-eabi/6.3.1/thumb/v7e-m/fpv4-sp/hard/libgcc.a(_dvmd_tls.o)
 .data          0x0000000000000000        0x0 /usr/lib/gcc/arm-none-eabi/6.3.1/thumb/v7e-m/fpv4-sp/hard/libgcc.a(_arm_cmpdf2.o)
 .bss           0x0000000000000000        0x0 /usr/lib/gcc/arm-none-eabi/6.3.1/thumb/v7e-m/fpv4-sp/hard/libgcc.a(_arm_cmpdf2.o)
 .data          0x0000000000000000        0x0 /usr/lib/gcc/arm-none-eabi/6.3.1/thumb/v7e-m/fpv4-sp/hard/libgcc.a(_arm_fixunsdfsi.o)
 .bss           0x0000000000000000        0x0 /usr/lib/gcc/arm-none-eabi/6.3.1/thumb/v7e-m/fpv4-sp/hard/libgcc.a(_arm_fixunsdfsi.o)
 .data          0x0000000000000000        0x0 /usr/lib/gcc/arm-none-eabi/6.3.1/../../../arm-none-eabi/lib/thumb/v7e-m/fpv4-sp/hard/libc.a(lib_a-atexit.o)
 .bss           0x0000000000000000        0x0 /usr/lib/gcc/arm-none-eabi/6.3.1/../../../arm-none-eabi/lib/thumb/v7e-m/fpv4-sp/hard/libc.a(lib_a-atexit.o)
 .data          0x0000000000000000        0x0 /usr/lib/gcc/arm-none-eabi/6.3.1/../../../arm-none-eabi/lib/thumb/v7e-m/fpv4-sp/hard/libc.a(lib_a-atoi.o)
 .bss           0x0000000000000000        0x0 /usr/lib/gcc/arm-none-eabi/6.3.1/../../../arm-none-eabi/lib/thumb/v7e-m/fpv4-sp/hard/libc.a(lib_a-atoi.o)
 .text          0x0000000000000000        0x0 /usr/lib/gcc/arm-none-eabi/6.3.1/../../../arm-none-eabi/lib/thumb/v7e-m/fpv4-sp/hard/libc.a(lib_a-ctype_.o)
 .bss           0x0000000000000000        0x0 /usr/lib/gcc/arm-none-eabi/6.3.1/../../../arm-none-eabi/lib/thumb/v7e-m/fpv4-sp/hard/libc.a(lib_a-ctype_.o)
 .data          0x0000000000000000        0x0 /usr/lib/gcc/arm-none-eabi/6.3.1/../../../arm-none-eabi/lib/thumb/v7e-m/fpv4-sp/hard/libc.a(lib_a-errno.o)
 .bss           0x0000000000000000        0x0 /usr/lib/gcc/arm-none-eabi/6.3.1/../../../arm-none-eabi/lib/thumb/v7e-m/fpv4-sp/hard/libc.a(lib_a-errno.o)
 .text          0x0000000000000000       0x20 /usr/lib/gcc/arm-none-eabi/6.3.1/../../../arm-none-eabi/lib/thumb/v7e-m/fpv4-sp/hard/libc.a(lib_a-exit.o)
 .data          0x0000000000000000        0x0 /usr/lib/gcc/arm-none-eabi/6.3.1/../../../arm-none-eabi/lib/thumb/v7e-m/fpv4-sp/hard/libc.a(lib_a-exit.o)
 .bss           0x0000000000000000        0x0 /usr/lib/gcc/arm-none-eabi/6.3.1/../../../arm-none-eabi/lib/thumb/v7e-m/fpv4-sp/hard/libc.a(lib_a-exit.o)
 .debug_info    0x0000000000000000      0x93d /usr/lib/gcc/arm-none-eabi/6.3.1/../../../arm-none-eabi/lib/thumb/v7e-m/fpv4-sp/hard/libc.a(lib_a-exit.o)
 .debug_abbrev  0x0000000000000000      0x1e7 /usr/lib/gcc/arm-none-eabi/6.3.1/../../../arm-none-eabi/lib/thumb/v7e-m/fpv4-sp/hard/libc.a(lib_a-exit.o)
 .debug_loc     0x0000000000000000       0x1e /usr/lib/gcc/arm-none-eabi/6.3.1/../../../arm-none-eabi/lib/thumb/v7e-m/fpv4-sp/hard/libc.a(lib_a-exit.o)
 .debug_aranges
                0x0000000000000000       0x20 /usr/lib/gcc/arm-none-eabi/6.3.1/../../../arm-none-eabi/lib/thumb/v7e-m/fpv4-sp/hard/libc.a(lib_a-exit.o)
 .debug_line    0x0000000000000000      0x168 /usr/lib/gcc/arm-none-eabi/6.3.1/../../../arm-none-eabi/lib/thumb/v7e-m/fpv4-sp/hard/libc.a(lib_a-exit.o)
 .debug_str     0x0000000000000000      0x60c /usr/lib/gcc/arm-none-eabi/6.3.1/../../../arm-none-eabi/lib/thumb/v7e-m/fpv4-sp/hard/libc.a(lib_a-exit.o)
 .comment       0x0000000000000000       0x32 /usr/lib/gcc/arm-none-eabi/6.3.1/../../../arm-none-eabi/lib/thumb/v7e-m/fpv4-sp/hard/libc.a(lib_a-exit.o)
 .debug_frame   0x0000000000000000       0x28 /usr/lib/gcc/arm-none-eabi/6.3.1/../../../arm-none-eabi/lib/thumb/v7e-m/fpv4-sp/hard/libc.a(lib_a-exit.o)
 .ARM.attributes
                0x0000000000000000       0x34 /usr/lib/gcc/arm-none-eabi/6.3.1/../../../arm-none-eabi/lib/thumb/v7e-m/fpv4-sp/hard/libc.a(lib_a-exit.o)
 .data          0x0000000000000000        0x0 /usr/lib/gcc/arm-none-eabi/6.3.1/../../../arm-none-eabi/lib/thumb/v7e-m/fpv4-sp/hard/libc.a(lib_a-fini.o)
 .bss           0x0000000000000000        0x0 /usr/lib/gcc/arm-none-eabi/6.3.1/../../../arm-none-eabi/lib/thumb/v7e-m/fpv4-sp/hard/libc.a(lib_a-fini.o)
 .text          0x0000000000000000        0x0 /usr/lib/gcc/arm-none-eabi/6.3.1/../../../arm-none-eabi/lib/thumb/v7e-m/fpv4-sp/hard/libc.a(lib_a-impure.o)
 .bss           0x0000000000000000        0x0 /usr/lib/gcc/arm-none-eabi/6.3.1/../../../arm-none-eabi/lib/thumb/v7e-m/fpv4-sp/hard/libc.a(lib_a-impure.o)
 .data          0x0000000000000000        0x0 /usr/lib/gcc/arm-none-eabi/6.3.1/../../../arm-none-eabi/lib/thumb/v7e-m/fpv4-sp/hard/libc.a(lib_a-init.o)
 .bss           0x0000000000000000        0x0 /usr/lib/gcc/arm-none-eabi/6.3.1/../../../arm-none-eabi/lib/thumb/v7e-m/fpv4-sp/hard/libc.a(lib_a-init.o)
 .data          0x0000000000000000        0x0 /usr/lib/gcc/arm-none-eabi/6.3.1/../../../arm-none-eabi/lib/thumb/v7e-m/fpv4-sp/hard/libc.a(lib_a-memmove.o)
 .bss           0x0000000000000000        0x0 /usr/lib/gcc/arm-none-eabi/6.3.1/../../../arm-none-eabi/lib/thumb/v7e-m/fpv4-sp/hard/libc.a(lib_a-memmove.o)
 .data          0x0000000000000000        0x0 /usr/lib/gcc/arm-none-eabi/6.3.1/../../../arm-none-eabi/lib/thumb/v7e-m/fpv4-sp/hard/libc.a(lib_a-memset.o)
 .bss           0x0000000000000000        0x0 /usr/lib/gcc/arm-none-eabi/6.3.1/../../../arm-none-eabi/lib/thumb/v7e-m/fpv4-sp/hard/libc.a(lib_a-memset.o)
 .data          0x0000000000000000        0x0 /usr/lib/gcc/arm-none-eabi/6.3.1/../../../arm-none-eabi/lib/thumb/v7e-m/fpv4-sp/hard/libc.a(lib_a-printf.o)
 .bss           0x0000000000000000        0x0 /usr/lib/gcc/arm-none-eabi/6.3.1/../../../arm-none-eabi/lib/thumb/v7e-m/fpv4-sp/hard/libc.a(lib_a-printf.o)
 .data          0x0000000000000000        0x0 /usr/lib/gcc/arm-none-eabi/6.3.1/../../../arm-none-eabi/lib/thumb/v7e-m/fpv4-sp/hard/libc.a(lib_a-signal.o)
 .bss           0x0000000000000000        0x0 /usr/lib/gcc/arm-none-eabi/6.3.1/../../../arm-none-eabi/lib/thumb/v7e-m/fpv4-sp/hard/libc.a(lib_a-signal.o)
 .data          0x0000000000000000        0x0 /usr/lib/gcc/arm-none-eabi/6.3.1/../../../arm-none-eabi/lib/thumb/v7e-m/fpv4-sp/hard/libc.a(lib_a-signalr.o)
 .bss           0x0000000000000000        0x0 /usr/lib/gcc/arm-none-eabi/6.3.1/../../../arm-none-eabi/lib/thumb/v7e-m/fpv4-sp/hard/libc.a(lib_a-signalr.o)
 .data          0x0000000000000000        0x0 /usr/lib/gcc/arm-none-eabi/6.3.1/../../../arm-none-eabi/lib/thumb/v7e-m/fpv4-sp/hard/libc.a(lib_a-sprintf.o)
 .bss           0x0000000000000000        0x0 /usr/lib/gcc/arm-none-eabi/6.3.1/../../../arm-none-eabi/lib/thumb/v7e-m/fpv4-sp/hard/libc.a(lib_a-sprintf.o)
 .data          0x0000000000000000        0x0 /usr/lib/gcc/arm-none-eabi/6.3.1/../../../arm-none-eabi/lib/thumb/v7e-m/fpv4-sp/hard/libc.a(lib_a-stpcpy.o)
 .bss           0x0000000000000000        0x0 /usr/lib/gcc/arm-none-eabi/6.3.1/../../../arm-none-eabi/lib/thumb/v7e-m/fpv4-sp/hard/libc.a(lib_a-stpcpy.o)
 .data          0x0000000000000000        0x0 /usr/lib/gcc/arm-none-eabi/6.3.1/../../../arm-none-eabi/lib/thumb/v7e-m/fpv4-sp/hard/libc.a(lib_a-strcat.o)
 .bss           0x0000000000000000        0x0 /usr/lib/gcc/arm-none-eabi/6.3.1/../../../arm-none-eabi/lib/thumb/v7e-m/fpv4-sp/hard/libc.a(lib_a-strcat.o)
 .data          0x0000000000000000        0x0 /usr/lib/gcc/arm-none-eabi/6.3.1/../../../arm-none-eabi/lib/thumb/v7e-m/fpv4-sp/hard/libc.a(lib_a-strchr.o)
 .bss           0x0000000000000000        0x0 /usr/lib/gcc/arm-none-eabi/6.3.1/../../../arm-none-eabi/lib/thumb/v7e-m/fpv4-sp/hard/libc.a(lib_a-strchr.o)
 .data          0x0000000000000000        0x0 /usr/lib/gcc/arm-none-eabi/6.3.1/../../../arm-none-eabi/lib/thumb/v7e-m/fpv4-sp/hard/libc.a(lib_a-strcpy.o)
 .bss           0x0000000000000000        0x0 /usr/lib/gcc/arm-none-eabi/6.3.1/../../../arm-none-eabi/lib/thumb/v7e-m/fpv4-sp/hard/libc.a(lib_a-strcpy.o)
 .data          0x0000000000000000        0x0 /usr/lib/gcc/arm-none-eabi/6.3.1/../../../arm-none-eabi/lib/thumb/v7e-m/fpv4-sp/hard/libc.a(lib_a-strlen.o)
 .bss           0x0000000000000000        0x0 /usr/lib/gcc/arm-none-eabi/6.3.1/../../../arm-none-eabi/lib/thumb/v7e-m/fpv4-sp/hard/libc.a(lib_a-strlen.o)
 .data          0x0000000000000000        0x0 /usr/lib/gcc/arm-none-eabi/6.3.1/../../../arm-none-eabi/lib/thumb/v7e-m/fpv4-sp/hard/libc.a(lib_a-strncat.o)
 .bss           0x0000000000000000        0x0 /usr/lib/gcc/arm-none-eabi/6.3.1/../../../arm-none-eabi/lib/thumb/v7e-m/fpv4-sp/hard/libc.a(lib_a-strncat.o)
 .data          0x0000000000000000        0x0 /usr/lib/gcc/arm-none-eabi/6.3.1/../../../arm-none-eabi/lib/thumb/v7e-m/fpv4-sp/hard/libc.a(lib_a-strtol.o)
 .bss           0x0000000000000000        0x0 /usr/lib/gcc/arm-none-eabi/6.3.1/../../../arm-none-eabi/lib/thumb/v7e-m/fpv4-sp/hard/libc.a(lib_a-strtol.o)
 .data          0x0000000000000000        0x0 /usr/lib/gcc/arm-none-eabi/6.3.1/../../../arm-none-eabi/lib/thumb/v7e-m/fpv4-sp/hard/libc.a(lib_a-svfprintf.o)
 .bss           0x0000000000000000        0x0 /usr/lib/gcc/arm-none-eabi/6.3.1/../../../arm-none-eabi/lib/thumb/v7e-m/fpv4-sp/hard/libc.a(lib_a-svfprintf.o)
 .data          0x0000000000000000        0x0 /usr/lib/gcc/arm-none-eabi/6.3.1/../../../arm-none-eabi/lib/thumb/v7e-m/fpv4-sp/hard/libc.a(lib_a-vfprintf.o)
 .bss           0x0000000000000000        0x0 /usr/lib/gcc/arm-none-eabi/6.3.1/../../../arm-none-eabi/lib/thumb/v7e-m/fpv4-sp/hard/libc.a(lib_a-vfprintf.o)
 .data          0x0000000000000000        0x0 /usr/lib/gcc/arm-none-eabi/6.3.1/../../../arm-none-eabi/lib/thumb/v7e-m/fpv4-sp/hard/libc.a(lib_a-wsetup.o)
 .bss           0x0000000000000000        0x0 /usr/lib/gcc/arm-none-eabi/6.3.1/../../../arm-none-eabi/lib/thumb/v7e-m/fpv4-sp/hard/libc.a(lib_a-wsetup.o)
 .data          0x0000000000000000        0x0 /usr/lib/gcc/arm-none-eabi/6.3.1/../../../arm-none-eabi/lib/thumb/v7e-m/fpv4-sp/hard/libc.a(lib_a-__atexit.o)
 .bss           0x0000000000000000        0x0 /usr/lib/gcc/arm-none-eabi/6.3.1/../../../arm-none-eabi/lib/thumb/v7e-m/fpv4-sp/hard/libc.a(lib_a-__atexit.o)
 .text          0x0000000000000000       0xd4 /usr/lib/gcc/arm-none-eabi/6.3.1/../../../arm-none-eabi/lib/thumb/v7e-m/fpv4-sp/hard/libc.a(lib_a-__call_atexit.o)
 .data          0x0000000000000000        0x0 /usr/lib/gcc/arm-none-eabi/6.3.1/../../../arm-none-eabi/lib/thumb/v7e-m/fpv4-sp/hard/libc.a(lib_a-__call_atexit.o)
 .bss           0x0000000000000000        0x0 /usr/lib/gcc/arm-none-eabi/6.3.1/../../../arm-none-eabi/lib/thumb/v7e-m/fpv4-sp/hard/libc.a(lib_a-__call_atexit.o)
 .data          0x0000000000000000        0x0 /usr/lib/gcc/arm-none-eabi/6.3.1/../../../arm-none-eabi/lib/thumb/v7e-m/fpv4-sp/hard/libc.a(lib_a-dtoa.o)
 .bss           0x0000000000000000        0x0 /usr/lib/gcc/arm-none-eabi/6.3.1/../../../arm-none-eabi/lib/thumb/v7e-m/fpv4-sp/hard/libc.a(lib_a-dtoa.o)
 .data          0x0000000000000000        0x0 /usr/lib/gcc/arm-none-eabi/6.3.1/../../../arm-none-eabi/lib/thumb/v7e-m/fpv4-sp/hard/libc.a(lib_a-fflush.o)
 .bss           0x0000000000000000        0x0 /usr/lib/gcc/arm-none-eabi/6.3.1/../../../arm-none-eabi/lib/thumb/v7e-m/fpv4-sp/hard/libc.a(lib_a-fflush.o)
 .data          0x0000000000000000        0x0 /usr/lib/gcc/arm-none-eabi/6.3.1/../../../arm-none-eabi/lib/thumb/v7e-m/fpv4-sp/hard/libc.a(lib_a-findfp.o)
 .bss           0x0000000000000000        0x0 /usr/lib/gcc/arm-none-eabi/6.3.1/../../../arm-none-eabi/lib/thumb/v7e-m/fpv4-sp/hard/libc.a(lib_a-findfp.o)
 .data          0x0000000000000000        0x0 /usr/lib/gcc/arm-none-eabi/6.3.1/../../../arm-none-eabi/lib/thumb/v7e-m/fpv4-sp/hard/libc.a(lib_a-fwalk.o)
 .bss           0x0000000000000000        0x0 /usr/lib/gcc/arm-none-eabi/6.3.1/../../../arm-none-eabi/lib/thumb/v7e-m/fpv4-sp/hard/libc.a(lib_a-fwalk.o)
 .bss           0x0000000000000000        0xc /usr/lib/gcc/arm-none-eabi/6.3.1/../../../arm-none-eabi/lib/thumb/v7e-m/fpv4-sp/hard/libc.a(lib_a-locale.o)
 .data          0x0000000000000000        0x0 /usr/lib/gcc/arm-none-eabi/6.3.1/../../../arm-none-eabi/lib/thumb/v7e-m/fpv4-sp/hard/libc.a(lib_a-makebuf.o)
 .bss           0x0000000000000000        0x0 /usr/lib/gcc/arm-none-eabi/6.3.1/../../../arm-none-eabi/lib/thumb/v7e-m/fpv4-sp/hard/libc.a(lib_a-makebuf.o)
 .data          0x0000000000000000        0x0 /usr/lib/gcc/arm-none-eabi/6.3.1/../../../arm-none-eabi/lib/thumb/v7e-m/fpv4-sp/hard/libc.a(lib_a-memchr.o)
 .bss           0x0000000000000000        0x0 /usr/lib/gcc/arm-none-eabi/6.3.1/../../../arm-none-eabi/lib/thumb/v7e-m/fpv4-sp/hard/libc.a(lib_a-memchr.o)
 .data          0x0000000000000000        0x0 /usr/lib/gcc/arm-none-eabi/6.3.1/../../../arm-none-eabi/lib/thumb/v7e-m/fpv4-sp/hard/libc.a(lib_a-memcpy.o)
 .bss           0x0000000000000000        0x0 /usr/lib/gcc/arm-none-eabi/6.3.1/../../../arm-none-eabi/lib/thumb/v7e-m/fpv4-sp/hard/libc.a(lib_a-memcpy.o)
 .data          0x0000000000000000        0x0 /usr/lib/gcc/arm-none-eabi/6.3.1/../../../arm-none-eabi/lib/thumb/v7e-m/fpv4-sp/hard/libc.a(lib_a-mprec.o)
 .bss           0x0000000000000000        0x0 /usr/lib/gcc/arm-none-eabi/6.3.1/../../../arm-none-eabi/lib/thumb/v7e-m/fpv4-sp/hard/libc.a(lib_a-mprec.o)
 .text          0x0000000000000000       0xa4 /usr/lib/gcc/arm-none-eabi/6.3.1/../../../arm-none-eabi/lib/thumb/v7e-m/fpv4-sp/hard/libc.a(lib_a-reent.o)
 .data          0x0000000000000000        0x0 /usr/lib/gcc/arm-none-eabi/6.3.1/../../../arm-none-eabi/lib/thumb/v7e-m/fpv4-sp/hard/libc.a(lib_a-reent.o)
 .bss           0x0000000000000000        0x0 /usr/lib/gcc/arm-none-eabi/6.3.1/../../../arm-none-eabi/lib/thumb/v7e-m/fpv4-sp/hard/libc.a(lib_a-reent.o)
 .data          0x0000000000000000        0x0 /usr/lib/gcc/arm-none-eabi/6.3.1/../../../arm-none-eabi/lib/thumb/v7e-m/fpv4-sp/hard/libc.a(lib_a-stdio.o)
 .bss           0x0000000000000000        0x0 /usr/lib/gcc/arm-none-eabi/6.3.1/../../../arm-none-eabi/lib/thumb/v7e-m/fpv4-sp/hard/libc.a(lib_a-stdio.o)
 .data          0x0000000000000000        0x0 /usr/lib/gcc/arm-none-eabi/6.3.1/../../../arm-none-eabi/lib/thumb/v7e-m/fpv4-sp/hard/libc.a(lib_a-strcmp.o)
 .bss           0x0000000000000000        0x0 /usr/lib/gcc/arm-none-eabi/6.3.1/../../../arm-none-eabi/lib/thumb/v7e-m/fpv4-sp/hard/libc.a(lib_a-strcmp.o)
 .data          0x0000000000000000        0x0 /usr/lib/gcc/arm-none-eabi/6.3.1/../../../arm-none-eabi/lib/thumb/v7e-m/fpv4-sp/hard/libc.a(lib_a-svfiprintf.o)
 .bss           0x0000000000000000        0x0 /usr/lib/gcc/arm-none-eabi/6.3.1/../../../arm-none-eabi/lib/thumb/v7e-m/fpv4-sp/hard/libc.a(lib_a-svfiprintf.o)
 .data          0x0000000000000000        0x0 /usr/lib/gcc/arm-none-eabi/6.3.1/../../../arm-none-eabi/lib/thumb/v7e-m/fpv4-sp/hard/libc.a(lib_a-vfiprintf.o)
 .bss           0x0000000000000000        0x0 /usr/lib/gcc/arm-none-eabi/6.3.1/../../../arm-none-eabi/lib/thumb/v7e-m/fpv4-sp/hard/libc.a(lib_a-vfiprintf.o)
 .data          0x0000000000000000        0x0 /usr/lib/gcc/arm-none-eabi/6.3.1/../../../arm-none-eabi/lib/thumb/v7e-m/fpv4-sp/hard/libc.a(lib_a-writer.o)
 .bss           0x0000000000000000        0x0 /usr/lib/gcc/arm-none-eabi/6.3.1/../../../arm-none-eabi/lib/thumb/v7e-m/fpv4-sp/hard/libc.a(lib_a-writer.o)
 .data          0x0000000000000000        0x0 /usr/lib/gcc/arm-none-eabi/6.3.1/../../../arm-none-eabi/lib/thumb/v7e-m/fpv4-sp/hard/libc.a(lib_a-closer.o)
 .bss           0x0000000000000000        0x0 /usr/lib/gcc/arm-none-eabi/6.3.1/../../../arm-none-eabi/lib/thumb/v7e-m/fpv4-sp/hard/libc.a(lib_a-closer.o)
 .data          0x0000000000000000        0x0 /usr/lib/gcc/arm-none-eabi/6.3.1/../../../arm-none-eabi/lib/thumb/v7e-m/fpv4-sp/hard/libc.a(lib_a-fclose.o)
 .bss           0x0000000000000000        0x0 /usr/lib/gcc/arm-none-eabi/6.3.1/../../../arm-none-eabi/lib/thumb/v7e-m/fpv4-sp/hard/libc.a(lib_a-fclose.o)
 .data          0x0000000000000000        0x0 /usr/lib/gcc/arm-none-eabi/6.3.1/../../../arm-none-eabi/lib/thumb/v7e-m/fpv4-sp/hard/libc.a(lib_a-fputwc.o)
 .bss           0x0000000000000000        0x0 /usr/lib/gcc/arm-none-eabi/6.3.1/../../../arm-none-eabi/lib/thumb/v7e-m/fpv4-sp/hard/libc.a(lib_a-fputwc.o)
 .data          0x0000000000000000        0x0 /usr/lib/gcc/arm-none-eabi/6.3.1/../../../arm-none-eabi/lib/thumb/v7e-m/fpv4-sp/hard/libc.a(lib_a-fstatr.o)
 .bss           0x0000000000000000        0x0 /usr/lib/gcc/arm-none-eabi/6.3.1/../../../arm-none-eabi/lib/thumb/v7e-m/fpv4-sp/hard/libc.a(lib_a-fstatr.o)
 .data          0x0000000000000000        0x0 /usr/lib/gcc/arm-none-eabi/6.3.1/../../../arm-none-eabi/lib/thumb/v7e-m/fpv4-sp/hard/libc.a(lib_a-fvwrite.o)
 .bss           0x0000000000000000        0x0 /usr/lib/gcc/arm-none-eabi/6.3.1/../../../arm-none-eabi/lib/thumb/v7e-m/fpv4-sp/hard/libc.a(lib_a-fvwrite.o)
 .data          0x0000000000000000        0x0 /usr/lib/gcc/arm-none-eabi/6.3.1/../../../arm-none-eabi/lib/thumb/v7e-m/fpv4-sp/hard/libc.a(lib_a-isattyr.o)
 .bss           0x0000000000000000        0x0 /usr/lib/gcc/arm-none-eabi/6.3.1/../../../arm-none-eabi/lib/thumb/v7e-m/fpv4-sp/hard/libc.a(lib_a-isattyr.o)
 .data          0x0000000000000000        0x0 /usr/lib/gcc/arm-none-eabi/6.3.1/../../../arm-none-eabi/lib/thumb/v7e-m/fpv4-sp/hard/libc.a(lib_a-lseekr.o)
 .bss           0x0000000000000000        0x0 /usr/lib/gcc/arm-none-eabi/6.3.1/../../../arm-none-eabi/lib/thumb/v7e-m/fpv4-sp/hard/libc.a(lib_a-lseekr.o)
 .data          0x0000000000000000        0x0 /usr/lib/gcc/arm-none-eabi/6.3.1/../../../arm-none-eabi/lib/thumb/v7e-m/fpv4-sp/hard/libc.a(lib_a-readr.o)
 .bss           0x0000000000000000        0x0 /usr/lib/gcc/arm-none-eabi/6.3.1/../../../arm-none-eabi/lib/thumb/v7e-m/fpv4-sp/hard/libc.a(lib_a-readr.o)
 .data          0x0000000000000000        0x0 /usr/lib/gcc/arm-none-eabi/6.3.1/../../../arm-none-eabi/lib/thumb/v7e-m/fpv4-sp/hard/libc.a(lib_a-wbuf.o)
 .bss           0x0000000000000000        0x0 /usr/lib/gcc/arm-none-eabi/6.3.1/../../../arm-none-eabi/lib/thumb/v7e-m/fpv4-sp/hard/libc.a(lib_a-wbuf.o)
 .data          0x0000000000000000        0x0 /usr/lib/gcc/arm-none-eabi/6.3.1/../../../arm-none-eabi/lib/thumb/v7e-m/fpv4-sp/hard/libc.a(lib_a-wcrtomb.o)
 .bss           0x0000000000000000        0x0 /usr/lib/gcc/arm-none-eabi/6.3.1/../../../arm-none-eabi/lib/thumb/v7e-m/fpv4-sp/hard/libc.a(lib_a-wcrtomb.o)
 .bss           0x0000000000000000        0x0 /usr/lib/gcc/arm-none-eabi/6.3.1/../../../arm-none-eabi/lib/thumb/v7e-m/fpv4-sp/hard/libc.a(lib_a-wctomb_r.o)
 .data          0x0000000000000000        0x0 /usr/lib/gcc/arm-none-eabi/6.3.1/thumb/v7e-m/fpv4-sp/hard/libgcc.a(_arm_unorddf2.o)
 .bss           0x0000000000000000        0x0 /usr/lib/gcc/arm-none-eabi/6.3.1/thumb/v7e-m/fpv4-sp/hard/libgcc.a(_arm_unorddf2.o)
 .data          0x0000000000000000        0x0 /usr/lib/gcc/arm-none-eabi/6.3.1/thumb/v7e-m/fpv4-sp/hard/libgcc.a(_arm_fixdfsi.o)
 .bss           0x0000000000000000        0x0 /usr/lib/gcc/arm-none-eabi/6.3.1/thumb/v7e-m/fpv4-sp/hard/libgcc.a(_arm_fixdfsi.o)
 .text          0x0000000000000000        0x0 /usr/lib/gcc/arm-none-eabi/6.3.1/thumb/v7e-m/fpv4-sp/hard/crtend.o
 .data          0x0000000000000000        0x0 /usr/lib/gcc/arm-none-eabi/6.3.1/thumb/v7e-m/fpv4-sp/hard/crtend.o
 .bss           0x0000000000000000        0x0 /usr/lib/gcc/arm-none-eabi/6.3.1/thumb/v7e-m/fpv4-sp/hard/crtend.o
 .eh_frame      0x0000000000000000        0x4 /usr/lib/gcc/arm-none-eabi/6.3.1/thumb/v7e-m/fpv4-sp/hard/crtend.o
 .jcr           0x0000000000000000        0x4 /usr/lib/gcc/arm-none-eabi/6.3.1/thumb/v7e-m/fpv4-sp/hard/crtend.o
 .text          0x0000000000000000        0x0 /usr/lib/gcc/arm-none-eabi/6.3.1/thumb/v7e-m/fpv4-sp/hard/crtn.o
 .data          0x0000000000000000        0x0 /usr/lib/gcc/arm-none-eabi/6.3.1/thumb/v7e-m/fpv4-sp/hard/crtn.o
 .bss           0x0000000000000000        0x0 /usr/lib/gcc/arm-none-eabi/6.3.1/thumb/v7e-m/fpv4-sp/hard/crtn.o
 .data          0x0000000000000000        0x0 /usr/lib/gcc/arm-none-eabi/6.3.1/../../../arm-none-eabi/lib/thumb/v7e-m/fpv4-sp/hard/libm.a(lib_a-w_sqrt.o)
 .bss           0x0000000000000000        0x0 /usr/lib/gcc/arm-none-eabi/6.3.1/../../../arm-none-eabi/lib/thumb/v7e-m/fpv4-sp/hard/libm.a(lib_a-w_sqrt.o)
 .debug_info    0x0000000000000000      0x9f8 /usr/lib/gcc/arm-none-eabi/6.3.1/../../../arm-none-eabi/lib/thumb/v7e-m/fpv4-sp/hard/libm.a(lib_a-w_sqrt.o)
 .debug_abbrev  0x0000000000000000      0x24c /usr/lib/gcc/arm-none-eabi/6.3.1/../../../arm-none-eabi/lib/thumb/v7e-m/fpv4-sp/hard/libm.a(lib_a-w_sqrt.o)
 .debug_loc     0x0000000000000000       0x7a /usr/lib/gcc/arm-none-eabi/6.3.1/../../../arm-none-eabi/lib/thumb/v7e-m/fpv4-sp/hard/libm.a(lib_a-w_sqrt.o)
 .debug_aranges
                0x0000000000000000       0x20 /usr/lib/gcc/arm-none-eabi/6.3.1/../../../arm-none-eabi/lib/thumb/v7e-m/fpv4-sp/hard/libm.a(lib_a-w_sqrt.o)
 .debug_line    0x0000000000000000      0x1b7 /usr/lib/gcc/arm-none-eabi/6.3.1/../../../arm-none-eabi/lib/thumb/v7e-m/fpv4-sp/hard/libm.a(lib_a-w_sqrt.o)
 .debug_str     0x0000000000000000      0x67a /usr/lib/gcc/arm-none-eabi/6.3.1/../../../arm-none-eabi/lib/thumb/v7e-m/fpv4-sp/hard/libm.a(lib_a-w_sqrt.o)
 .comment       0x0000000000000000       0x32 /usr/lib/gcc/arm-none-eabi/6.3.1/../../../arm-none-eabi/lib/thumb/v7e-m/fpv4-sp/hard/libm.a(lib_a-w_sqrt.o)
 .debug_frame   0x0000000000000000       0x4c /usr/lib/gcc/arm-none-eabi/6.3.1/../../../arm-none-eabi/lib/thumb/v7e-m/fpv4-sp/hard/libm.a(lib_a-w_sqrt.o)
 .ARM.attributes
                0x0000000000000000       0x34 /usr/lib/gcc/arm-none-eabi/6.3.1/../../../arm-none-eabi/lib/thumb/v7e-m/fpv4-sp/hard/libm.a(lib_a-w_sqrt.o)
 .data          0x0000000000000000        0x0 /usr/lib/gcc/arm-none-eabi/6.3.1/../../../arm-none-eabi/lib/thumb/v7e-m/fpv4-sp/hard/libm.a(lib_a-e_sqrt.o)
 .bss           0x0000000000000000        0x0 /usr/lib/gcc/arm-none-eabi/6.3.1/../../../arm-none-eabi/lib/thumb/v7e-m/fpv4-sp/hard/libm.a(lib_a-e_sqrt.o)
 .debug_info    0x0000000000000000      0xa60 /usr/lib/gcc/arm-none-eabi/6.3.1/../../../arm-none-eabi/lib/thumb/v7e-m/fpv4-sp/hard/libm.a(lib_a-e_sqrt.o)
 .debug_abbrev  0x0000000000000000      0x238 /usr/lib/gcc/arm-none-eabi/6.3.1/../../../arm-none-eabi/lib/thumb/v7e-m/fpv4-sp/hard/libm.a(lib_a-e_sqrt.o)
 .debug_loc     0x0000000000000000      0x44f /usr/lib/gcc/arm-none-eabi/6.3.1/../../../arm-none-eabi/lib/thumb/v7e-m/fpv4-sp/hard/libm.a(lib_a-e_sqrt.o)
 .debug_aranges
                0x0000000000000000       0x20 /usr/lib/gcc/arm-none-eabi/6.3.1/../../../arm-none-eabi/lib/thumb/v7e-m/fpv4-sp/hard/libm.a(lib_a-e_sqrt.o)
 .debug_line    0x0000000000000000      0x287 /usr/lib/gcc/arm-none-eabi/6.3.1/../../../arm-none-eabi/lib/thumb/v7e-m/fpv4-sp/hard/libm.a(lib_a-e_sqrt.o)
 .debug_str     0x0000000000000000      0x675 /usr/lib/gcc/arm-none-eabi/6.3.1/../../../arm-none-eabi/lib/thumb/v7e-m/fpv4-sp/hard/libm.a(lib_a-e_sqrt.o)
 .comment       0x0000000000000000       0x32 /usr/lib/gcc/arm-none-eabi/6.3.1/../../../arm-none-eabi/lib/thumb/v7e-m/fpv4-sp/hard/libm.a(lib_a-e_sqrt.o)
 .debug_frame   0x0000000000000000       0x30 /usr/lib/gcc/arm-none-eabi/6.3.1/../../../arm-none-eabi/lib/thumb/v7e-m/fpv4-sp/hard/libm.a(lib_a-e_sqrt.o)
 .ARM.attributes
                0x0000000000000000       0x34 /usr/lib/gcc/arm-none-eabi/6.3.1/../../../arm-none-eabi/lib/thumb/v7e-m/fpv4-sp/hard/libm.a(lib_a-e_sqrt.o)
 .text          0x0000000000000000        0x0 /usr/lib/gcc/arm-none-eabi/6.3.1/../../../arm-none-eabi/lib/thumb/v7e-m/fpv4-sp/hard/libm.a(lib_a-s_lib_ver.o)
 .bss           0x0000000000000000        0x0 /usr/lib/gcc/arm-none-eabi/6.3.1/../../../arm-none-eabi/lib/thumb/v7e-m/fpv4-sp/hard/libm.a(lib_a-s_lib_ver.o)
 .debug_info    0x0000000000000000      0x8cf /usr/lib/gcc/arm-none-eabi/6.3.1/../../../arm-none-eabi/lib/thumb/v7e-m/fpv4-sp/hard/libm.a(lib_a-s_lib_ver.o)
 .debug_abbrev  0x0000000000000000      0x1a1 /usr/lib/gcc/arm-none-eabi/6.3.1/../../../arm-none-eabi/lib/thumb/v7e-m/fpv4-sp/hard/libm.a(lib_a-s_lib_ver.o)
 .debug_aranges
                0x0000000000000000       0x18 /usr/lib/gcc/arm-none-eabi/6.3.1/../../../arm-none-eabi/lib/thumb/v7e-m/fpv4-sp/hard/libm.a(lib_a-s_lib_ver.o)
 .debug_line    0x0000000000000000      0x13c /usr/lib/gcc/arm-none-eabi/6.3.1/../../../arm-none-eabi/lib/thumb/v7e-m/fpv4-sp/hard/libm.a(lib_a-s_lib_ver.o)
 .debug_str     0x0000000000000000      0x621 /usr/lib/gcc/arm-none-eabi/6.3.1/../../../arm-none-eabi/lib/thumb/v7e-m/fpv4-sp/hard/libm.a(lib_a-s_lib_ver.o)
 .comment       0x0000000000000000       0x32 /usr/lib/gcc/arm-none-eabi/6.3.1/../../../arm-none-eabi/lib/thumb/v7e-m/fpv4-sp/hard/libm.a(lib_a-s_lib_ver.o)
 .ARM.attributes
                0x0000000000000000       0x34 /usr/lib/gcc/arm-none-eabi/6.3.1/../../../arm-none-eabi/lib/thumb/v7e-m/fpv4-sp/hard/libm.a(lib_a-s_lib_ver.o)
 .data          0x0000000000000000        0x0 /usr/lib/gcc/arm-none-eabi/6.3.1/../../../arm-none-eabi/lib/thumb/v7e-m/fpv4-sp/hard/libm.a(lib_a-s_matherr.o)
 .bss           0x0000000000000000        0x0 /usr/lib/gcc/arm-none-eabi/6.3.1/../../../arm-none-eabi/lib/thumb/v7e-m/fpv4-sp/hard/libm.a(lib_a-s_matherr.o)
 .debug_info    0x0000000000000000      0x95e /usr/lib/gcc/arm-none-eabi/6.3.1/../../../arm-none-eabi/lib/thumb/v7e-m/fpv4-sp/hard/libm.a(lib_a-s_matherr.o)
 .debug_abbrev  0x0000000000000000      0x1e1 /usr/lib/gcc/arm-none-eabi/6.3.1/../../../arm-none-eabi/lib/thumb/v7e-m/fpv4-sp/hard/libm.a(lib_a-s_matherr.o)
 .debug_loc     0x0000000000000000       0x21 /usr/lib/gcc/arm-none-eabi/6.3.1/../../../arm-none-eabi/lib/thumb/v7e-m/fpv4-sp/hard/libm.a(lib_a-s_matherr.o)
 .debug_aranges
                0x0000000000000000       0x20 /usr/lib/gcc/arm-none-eabi/6.3.1/../../../arm-none-eabi/lib/thumb/v7e-m/fpv4-sp/hard/libm.a(lib_a-s_matherr.o)
 .debug_line    0x0000000000000000      0x14d /usr/lib/gcc/arm-none-eabi/6.3.1/../../../arm-none-eabi/lib/thumb/v7e-m/fpv4-sp/hard/libm.a(lib_a-s_matherr.o)
 .debug_str     0x0000000000000000      0x64e /usr/lib/gcc/arm-none-eabi/6.3.1/../../../arm-none-eabi/lib/thumb/v7e-m/fpv4-sp/hard/libm.a(lib_a-s_matherr.o)
 .comment       0x0000000000000000       0x32 /usr/lib/gcc/arm-none-eabi/6.3.1/../../../arm-none-eabi/lib/thumb/v7e-m/fpv4-sp/hard/libm.a(lib_a-s_matherr.o)
 .debug_frame   0x0000000000000000       0x20 /usr/lib/gcc/arm-none-eabi/6.3.1/../../../arm-none-eabi/lib/thumb/v7e-m/fpv4-sp/hard/libm.a(lib_a-s_matherr.o)
 .ARM.attributes
                0x0000000000000000       0x34 /usr/lib/gcc/arm-none-eabi/6.3.1/../../../arm-none-eabi/lib/thumb/v7e-m/fpv4-sp/hard/libm.a(lib_a-s_matherr.o)

Memory Configuration

Name             Origin             Length             Attributes
FLASH            0x0000000008050000 0x00000000000b0000 xr
RAM              0x0000000010000000 0x0000000000002000 xrw
QSPI             0x0000000090000000 0x0000000000200000 xr
*default*        0x0000000000000000 0xffffffffffffffff

Linker script and memory map

LOAD /usr/lib/gcc/arm-none-eabi/6.3.1/thumb/v7e-m/fpv4-sp/hard/crti.o
LOAD /usr/lib/gcc/arm-none-eabi/6.3.1/thumb/v7e-m/fpv4-sp/hard/crtbegin.o
LOAD /usr/lib/gcc/arm-none-eabi/6.3.1/../../../arm-none-eabi/lib/thumb/v7e-m/fpv4-sp/hard/crt0.o
LOAD build/pgm_syscalls.o
LOAD build/main.o
LOAD build/menu.o
LOAD build/startup_pgm.o
LOAD lib/gcc111libbid_hard.a
START GROUP
LOAD /usr/lib/gcc/arm-none-eabi/6.3.1/thumb/v7e-m/fpv4-sp/hard/libgcc.a
LOAD /usr/lib/gcc/arm-none-eabi/6.3.1/../../../arm-none-eabi/lib/thumb/v7e-m/fpv4-sp/hard/libc.a
END GROUP
LOAD /usr/lib/gcc/arm-none-eabi/6.3.1/thumb/v7e-m/fpv4-sp/hard/crtend.o
LOAD /usr/lib/gcc/arm-none-eabi/6.3.1/thumb/v7e-m/fpv4-sp/hard/crtn.o

.qspi           0x0000000090000000   0x14eaf0
                0x0000000090000000                . = ALIGN (0x8)
                0x0000000090000000                _qspi_start = .
 *(.qspi)
 *(.qspi*)
 *(.rodata.__bid_mod10_18_tbl)
 .rodata.__bid_mod10_18_tbl
                0x0000000090000000     0x2400 lib/gcc111libbid_hard.a(bid128_2_str_tables.o)
                0x0000000090000000                __bid_mod10_18_tbl
 *(.rodata.__bid_convert_table)
 .rodata.__bid_convert_table
                0x0000000090002400     0x1400 lib/gcc111libbid_hard.a(bid_convert_data.o)
                0x0000000090002400                __bid_convert_table
 *(.rodata.bid_log_table_1)
 .rodata.bid_log_table_1
                0x0000000090003800     0x1000 lib/gcc111libbid_hard.a(bid128_pow.o)
 *(.rodata.bid_log_table_2)
 .rodata.bid_log_table_2
                0x0000000090004800     0x1000 lib/gcc111libbid_hard.a(bid128_pow.o)
 *(.rodata.bid_decimal128_moduli)
 .rodata.bid_decimal128_moduli
                0x0000000090005800    0x48090 lib/gcc111libbid_hard.a(bid128_cos.o)
                0x0000000090005800                bid_decimal128_moduli
 *(.rodata.bid_exponents_bid64)
 .rodata.bid_exponents_bid64
                0x000000009004d890     0x28b4 lib/gcc111libbid_hard.a(bid_binarydecimal.o)
 *(.rodata.bid_exponents_binary128)
 .rodata.bid_exponents_binary128
                0x0000000090050144     0x9b38 lib/gcc111libbid_hard.a(bid_binarydecimal.o)
 *(.rodata.bid_breakpoints_binary128)
 *fill*         0x0000000090059c7c        0x4 
 .rodata.bid_breakpoints_binary128
                0x0000000090059c80    0x26ce0 lib/gcc111libbid_hard.a(bid_binarydecimal.o)
 *(.rodata.bid_breakpoints_bid64)
 .rodata.bid_breakpoints_bid64
                0x0000000090080960     0xa2d0 lib/gcc111libbid_hard.a(bid_binarydecimal.o)
 *(.rodata.bid_multipliers1_binary128)
 .rodata.bid_multipliers1_binary128
                0x000000009008ac30    0x4d9c0 lib/gcc111libbid_hard.a(bid_binarydecimal.o)
 *(.rodata.bid_multipliers2_bid64)
 .rodata.bid_multipliers2_bid64
                0x00000000900d85f0    0x145a0 lib/gcc111libbid_hard.a(bid_binarydecimal.o)
 *(.rodata.bid_multipliers1_bid64)
 .rodata.bid_multipliers1_bid64
                0x00000000900ecb90    0x145a0 lib/gcc111libbid_hard.a(bid_binarydecimal.o)
 *(.rodata.bid_multipliers2_binary128)
 .rodata.bid_multipliers2_binary128
                0x0000000090101130    0x4d9c0 lib/gcc111libbid_hard.a(bid_binarydecimal.o)
                0x000000009014eaf0                . = ALIGN (0x8)
                0x000000009014eaf0                _qspi_end = .

.rodata         0x0000000008050000    0x10338
 *(.rodata.prog_info)
 .rodata.prog_info
                0x0000000008050000       0x40 build/pgm_syscalls.o
                0x0000000008050000                prog_info
                0x0000000008050040                . = ALIGN (0x40)
 *(.rodata)
 .rodata        0x0000000008050040       0x10 lib/gcc111libbid_hard.a(bid128_pow.o)
 .rodata        0x0000000008050050       0x10 lib/gcc111libbid_hard.a(bid128_fma.o)
 .rodata        0x0000000008050060       0x10 lib/gcc111libbid_hard.a(bid128_mul.o)
 .rodata        0x0000000008050070      0x101 /usr/lib/gcc/arm-none-eabi/6.3.1/../../../arm-none-eabi/lib/thumb/v7e-m/fpv4-sp/hard/libc.a(lib_a-ctype_.o)
                0x0000000008050070                _ctype_
 *fill*         0x0000000008050171        0x3 
 .rodata        0x0000000008050174        0x4 /usr/lib/gcc/arm-none-eabi/6.3.1/../../../arm-none-eabi/lib/thumb/v7e-m/fpv4-sp/hard/libc.a(lib_a-impure.o)
                0x0000000008050174                _global_impure_ptr
 .rodata        0x0000000008050178       0x20 /usr/lib/gcc/arm-none-eabi/6.3.1/../../../arm-none-eabi/lib/thumb/v7e-m/fpv4-sp/hard/libc.a(lib_a-svfprintf.o)
 .rodata        0x0000000008050198       0x20 /usr/lib/gcc/arm-none-eabi/6.3.1/../../../arm-none-eabi/lib/thumb/v7e-m/fpv4-sp/hard/libc.a(lib_a-vfprintf.o)
 .rodata        0x00000000080501b8      0x128 /usr/lib/gcc/arm-none-eabi/6.3.1/../../../arm-none-eabi/lib/thumb/v7e-m/fpv4-sp/hard/libc.a(lib_a-mprec.o)
                0x00000000080501c8                __mprec_tens
                0x0000000008050290                __mprec_tinytens
                0x00000000080502b8                __mprec_bigtens
 .rodata        0x00000000080502e0       0x20 /usr/lib/gcc/arm-none-eabi/6.3.1/../../../arm-none-eabi/lib/thumb/v7e-m/fpv4-sp/hard/libc.a(lib_a-svfiprintf.o)
 .rodata        0x0000000008050300       0x20 /usr/lib/gcc/arm-none-eabi/6.3.1/../../../arm-none-eabi/lib/thumb/v7e-m/fpv4-sp/hard/libc.a(lib_a-vfiprintf.o)
 *(.rodata*)
 .rodata.disp_stack_line.str1.4
                0x0000000008050320        0x6 build/main.o
 *fill*         0x0000000008050326        0x2 
 .rodata.fm_disp_fns
                0x0000000008050328       0x18 build/main.o
                0x0000000008050328                fm_disp_fns
 .rodata.handle_key.str1.4
                0x0000000008050340       0x33 build/main.o
 *fill*         0x0000000008050373        0x1 
 .rodata.key_to_char
                0x0000000008050374       0x27 build/main.o
                0x0000000008050374                key_to_char
 *fill*         0x000000000805039b        0x1 
 .rodata.num_format.str1.4
                0x000000000805039c       0x42 build/main.o
                                         0x4a (size before relaxing)
 *fill*         0x00000000080503de        0x2 
 .rodata.program_init.str1.4
                0x00000000080503e0       0xc1 build/main.o
 *fill*         0x00000000080504a1        0x3 
 .rodata.redraw_lcd.str1.4
                0x00000000080504a4       0x41 build/main.o
 *fill*         0x00000000080504e5        0x3 
 .rodata.start_edit.str1.4
                0x00000000080504e8        0x2 build/main.o
 *fill*         0x00000000080504ea        0x2 
 .rodata.str1.4
                0x00000000080504ec       0x2c build/main.o
 .rodata.MID_MENU
                0x0000000008050518       0x10 build/menu.o
                0x0000000008050518                MID_MENU
 .rodata.MID_SETTINGS
                0x0000000008050528       0x10 build/menu.o
                0x0000000008050528                MID_SETTINGS
 .rodata.disp_about.str1.4
                0x0000000008050538       0x92 build/menu.o
                                         0x96 (size before relaxing)
 *fill*         0x00000000080505ca        0x2 
 .rodata.menu_line_str.str1.4
                0x00000000080505cc       0x14 build/menu.o
 .rodata.mid_menu
                0x00000000080505e0        0x5 build/menu.o
                0x00000000080505e0                mid_menu
 *fill*         0x00000000080505e5        0x3 
 .rodata.mid_settings
                0x00000000080505e8        0x5 build/menu.o
                0x00000000080505e8                mid_settings
 *fill*         0x00000000080505ed        0x3 
 .rodata.str1.4
                0x00000000080505f0       0x12 build/menu.o
 *fill*         0x0000000008050602        0xe 
 .rodata.BID128_0
                0x0000000008050610       0x10 lib/gcc111libbid_hard.a(bid128_acos.o)
 .rodata.BID128_MINUS1
                0x0000000008050620       0x10 lib/gcc111libbid_hard.a(bid128_acos.o)
 .rodata.BID128_NAN
                0x0000000008050630       0x10 lib/gcc111libbid_hard.a(bid128_acos.o)
 .rodata.BID128_PI2HI
                0x0000000008050640       0x10 lib/gcc111libbid_hard.a(bid128_acos.o)
 .rodata.BID128_PI2LO
                0x0000000008050650       0x10 lib/gcc111libbid_hard.a(bid128_acos.o)
 .rodata.c_1em40
                0x0000000008050660       0x10 lib/gcc111libbid_hard.a(bid128_acos.o)
 .rodata.c_7_10ths
                0x0000000008050670       0x10 lib/gcc111libbid_hard.a(bid128_acos.o)
 .rodata.c_one  0x0000000008050680       0x10 lib/gcc111libbid_hard.a(bid128_acos.o)
 .rodata.c_pi   0x0000000008050690       0x10 lib/gcc111libbid_hard.a(bid128_acos.o)
 .rodata.c_zero
                0x00000000080506a0       0x10 lib/gcc111libbid_hard.a(bid128_acos.o)
 .rodata.BID128_10PM40
                0x00000000080506b0       0x10 lib/gcc111libbid_hard.a(bid128_asin.o)
 .rodata.BID128_MINUS1
                0x00000000080506c0       0x10 lib/gcc111libbid_hard.a(bid128_asin.o)
 .rodata.BID128_NAN
                0x00000000080506d0       0x10 lib/gcc111libbid_hard.a(bid128_asin.o)
 .rodata.c_1em40
                0x00000000080506e0       0x10 lib/gcc111libbid_hard.a(bid128_asin.o)
 .rodata.c_7_10ths
                0x00000000080506f0       0x10 lib/gcc111libbid_hard.a(bid128_asin.o)
 .rodata.c_one  0x0000000008050700       0x10 lib/gcc111libbid_hard.a(bid128_asin.o)
 .rodata.c_zero
                0x0000000008050710       0x10 lib/gcc111libbid_hard.a(bid128_asin.o)
 .rodata.c_1em40
                0x0000000008050720       0x10 lib/gcc111libbid_hard.a(bid128_atan.o)
 .rodata.BID128_NAN
                0x0000000008050730       0x10 lib/gcc111libbid_hard.a(bid128_cos.o)
 .rodata.c_pi_ov_2
                0x0000000008050740       0x10 lib/gcc111libbid_hard.a(bid128_cos.o)
 .rodata.BID128_0
                0x0000000008050750       0x10 lib/gcc111libbid_hard.a(bid128_exp.o)
 .rodata.BID128_1
                0x0000000008050760       0x10 lib/gcc111libbid_hard.a(bid128_exp.o)
 .rodata.BID128_INF
                0x0000000008050770       0x10 lib/gcc111libbid_hard.a(bid128_exp.o)
 .rodata.c_11000
                0x0000000008050780       0x10 lib/gcc111libbid_hard.a(bid128_exp.o)
 .rodata.c_neg_11000
                0x0000000008050790       0x10 lib/gcc111libbid_hard.a(bid128_exp.o)
 .rodata.c_4464_ln_10
                0x00000000080507a0       0x10 lib/gcc111libbid_hard.a(bid128_log.o)
 .rodata.c_half
                0x00000000080507b0       0x10 lib/gcc111libbid_hard.a(bid128_log.o)
 .rodata.c_one  0x00000000080507c0       0x10 lib/gcc111libbid_hard.a(bid128_log.o)
 .rodata.c_4464
                0x00000000080507d0       0x10 lib/gcc111libbid_hard.a(bid128_log10.o)
 .rodata.c_half
                0x00000000080507e0       0x10 lib/gcc111libbid_hard.a(bid128_log10.o)
 .rodata.c_inv_log10
                0x00000000080507f0       0x10 lib/gcc111libbid_hard.a(bid128_log10.o)
 .rodata.c_one  0x0000000008050800       0x10 lib/gcc111libbid_hard.a(bid128_log10.o)
 .rodata.BID128_0
                0x0000000008050810       0x10 lib/gcc111libbid_hard.a(bid128_pow.o)
 .rodata.BID128_INF
                0x0000000008050820       0x10 lib/gcc111libbid_hard.a(bid128_pow.o)
 .rodata.BID128_NAN
                0x0000000008050830       0x10 lib/gcc111libbid_hard.a(bid128_pow.o)
 .rodata.BID128_ZERO
                0x0000000008050840       0x10 lib/gcc111libbid_hard.a(bid128_pow.o)
 .rodata.bid_recip_table_1
                0x0000000008050850      0x400 lib/gcc111libbid_hard.a(bid128_pow.o)
 .rodata.bid_recip_table_2
                0x0000000008050c50      0x400 lib/gcc111libbid_hard.a(bid128_pow.o)
 .rodata.BID128_NAN
                0x0000000008051050       0x10 lib/gcc111libbid_hard.a(bid128_sin.o)
 .rodata.c_pi_ov_2
                0x0000000008051060       0x10 lib/gcc111libbid_hard.a(bid128_sin.o)
 .rodata.BID128_NAN
                0x0000000008051070       0x10 lib/gcc111libbid_hard.a(bid128_tan.o)
 .rodata.c_neg_one
                0x0000000008051080       0x10 lib/gcc111libbid_hard.a(bid128_tan.o)
 .rodata.c_pi_ov_2
                0x0000000008051090       0x10 lib/gcc111libbid_hard.a(bid128_tan.o)
 .rodata.__bid128_to_string.str1.4
                0x00000000080510a0        0x7 lib/gcc111libbid_hard.a(bid128_string.o)
 *fill*         0x00000000080510a7        0x1 
 .rodata.__bid_midi_tbl
                0x00000000080510a8      0xbb8 lib/gcc111libbid_hard.a(bid128_2_str_tables.o)
                0x00000000080510a8                __bid_midi_tbl
 .rodata.bid_coefflimits_bid128
                0x0000000008051c60      0x310 lib/gcc111libbid_hard.a(bid_binarydecimal.o)
 .rodata.bid_coefflimits_bid64
                0x0000000008051f70      0x310 lib/gcc111libbid_hard.a(bid_binarydecimal.o)
 .rodata.bid_innertable_exp
                0x0000000008052280      0x200 lib/gcc111libbid_hard.a(bid_binarydecimal.o)
 .rodata.bid_innertable_sig
                0x0000000008052480     0x1000 lib/gcc111libbid_hard.a(bid_binarydecimal.o)
 .rodata.bid_outertable_exp
                0x0000000008053480      0x140 lib/gcc111libbid_hard.a(bid_binarydecimal.o)
 .rodata.bid_outertable_sig
                0x00000000080535c0      0xa00 lib/gcc111libbid_hard.a(bid_binarydecimal.o)
 .rodata.bid_power_five
                0x0000000008053fc0      0x310 lib/gcc111libbid_hard.a(bid_binarydecimal.o)
 .rodata.bid_roundbound_128
                0x00000000080542d0      0x140 lib/gcc111libbid_hard.a(bid_binarydecimal.o)
 .rodata.__bid_factors
                0x0000000008054410      0x800 lib/gcc111libbid_hard.a(bid_convert_data.o)
                0x0000000008054410                __bid_factors
 .rodata.__bid_packed_10000_zeros
                0x0000000008054c10      0x4e2 lib/gcc111libbid_hard.a(bid_convert_data.o)
                0x0000000008054c10                __bid_packed_10000_zeros
 *fill*         0x00000000080550f2        0x2 
 .rodata.__bid_estimate_decimal_digits
                0x00000000080550f4      0x204 lib/gcc111libbid_hard.a(bid_decimal_data.o)
                0x00000000080550f4                __bid_estimate_decimal_digits
 *fill*         0x00000000080552f8        0x8 
 .rodata.__bid_power10_index_binexp_128
                0x0000000008055300      0x7d0 lib/gcc111libbid_hard.a(bid_decimal_data.o)
                0x0000000008055300                __bid_power10_index_binexp_128
 .rodata.__bid_power10_table_128
                0x0000000008055ad0      0x270 lib/gcc111libbid_hard.a(bid_decimal_data.o)
                0x0000000008055ad0                __bid_power10_table_128
 .rodata.__bid_recip_scale
                0x0000000008055d40       0x90 lib/gcc111libbid_hard.a(bid_decimal_data.o)
                0x0000000008055d40                __bid_recip_scale
 .rodata.__bid_reciprocals10_128
                0x0000000008055dd0      0x240 lib/gcc111libbid_hard.a(bid_decimal_data.o)
                0x0000000008055dd0                __bid_reciprocals10_128
 .rodata.__bid_reciprocals10_64
                0x0000000008056010       0x90 lib/gcc111libbid_hard.a(bid_decimal_data.o)
                0x0000000008056010                __bid_reciprocals10_64
 .rodata.__bid_round_const_table_128
                0x00000000080560a0      0xb40 lib/gcc111libbid_hard.a(bid_decimal_data.o)
                0x00000000080560a0                __bid_round_const_table_128
 .rodata.__bid_short_recip_scale
                0x0000000008056be0       0x48 lib/gcc111libbid_hard.a(bid_decimal_data.o)
                0x0000000008056be0                __bid_short_recip_scale
 .rodata.__bid_Ex128m128
                0x0000000008056c28       0x94 lib/gcc111libbid_hard.a(bid128.o)
                0x0000000008056c28                __bid_Ex128m128
 .rodata.__bid_Ex192m192
                0x0000000008056cbc       0xe0 lib/gcc111libbid_hard.a(bid128.o)
                0x0000000008056cbc                __bid_Ex192m192
 .rodata.__bid_Ex256m256
                0x0000000008056d9c      0x12c lib/gcc111libbid_hard.a(bid128.o)
                0x0000000008056d9c                __bid_Ex256m256
 .rodata.__bid_Ex64m64
                0x0000000008056ec8       0x44 lib/gcc111libbid_hard.a(bid128.o)
                0x0000000008056ec8                __bid_Ex64m64
 *fill*         0x0000000008056f0c        0x4 
 .rodata.__bid_Kx128
                0x0000000008056f10      0x250 lib/gcc111libbid_hard.a(bid128.o)
                0x0000000008056f10                __bid_Kx128
 .rodata.__bid_Kx192
                0x0000000008057160      0x700 lib/gcc111libbid_hard.a(bid128.o)
                0x0000000008057160                __bid_Kx192
 .rodata.__bid_Kx256
                0x0000000008057860      0x960 lib/gcc111libbid_hard.a(bid128.o)
                0x0000000008057860                __bid_Kx256
 .rodata.__bid_Kx64
                0x00000000080581c0       0x88 lib/gcc111libbid_hard.a(bid128.o)
                0x00000000080581c0                __bid_Kx64
 .rodata.__bid_char_table2
                0x0000000008058248       0xb4 lib/gcc111libbid_hard.a(bid128.o)
                0x0000000008058248                __bid_char_table2
 .rodata.__bid_char_table3
                0x00000000080582fc      0xbb8 lib/gcc111libbid_hard.a(bid128.o)
                0x00000000080582fc                __bid_char_table3
 *fill*         0x0000000008058eb4        0x4 
 .rodata.__bid_half128
                0x0000000008058eb8      0x128 lib/gcc111libbid_hard.a(bid128.o)
                0x0000000008058eb8                __bid_half128
 .rodata.__bid_half192
                0x0000000008058fe0      0x1c0 lib/gcc111libbid_hard.a(bid128.o)
                0x0000000008058fe0                __bid_half192
 .rodata.__bid_half256
                0x00000000080591a0      0x258 lib/gcc111libbid_hard.a(bid128.o)
                0x00000000080591a0                __bid_half256
 .rodata.__bid_half64
                0x00000000080593f8       0x88 lib/gcc111libbid_hard.a(bid128.o)
                0x00000000080593f8                __bid_half64
 .rodata.__bid_mask128
                0x0000000008059480      0x128 lib/gcc111libbid_hard.a(bid128.o)
                0x0000000008059480                __bid_mask128
 .rodata.__bid_mask192
                0x00000000080595a8      0x1c0 lib/gcc111libbid_hard.a(bid128.o)
                0x00000000080595a8                __bid_mask192
 .rodata.__bid_mask256
                0x0000000008059768      0x258 lib/gcc111libbid_hard.a(bid128.o)
                0x0000000008059768                __bid_mask256
 .rodata.__bid_mask64
                0x00000000080599c0       0x88 lib/gcc111libbid_hard.a(bid128.o)
                0x00000000080599c0                __bid_mask64
 .rodata.__bid_maskhigh128
                0x0000000008059a48      0x110 lib/gcc111libbid_hard.a(bid128.o)
                0x0000000008059a48                __bid_maskhigh128
 *fill*         0x0000000008059b58        0x8 
 .rodata.__bid_midpoint128
                0x0000000008059b60      0x130 lib/gcc111libbid_hard.a(bid128.o)
                0x0000000008059b60                __bid_midpoint128
 .rodata.__bid_midpoint192
                0x0000000008059c90      0x280 lib/gcc111libbid_hard.a(bid128.o)
                0x0000000008059c90                __bid_midpoint192
 .rodata.__bid_midpoint256
                0x0000000008059f10      0x260 lib/gcc111libbid_hard.a(bid128.o)
                0x0000000008059f10                __bid_midpoint256
 .rodata.__bid_midpoint64
                0x000000000805a170       0x98 lib/gcc111libbid_hard.a(bid128.o)
                0x000000000805a170                __bid_midpoint64
 .rodata.__bid_nr_digits
                0x000000000805a208      0xe20 lib/gcc111libbid_hard.a(bid128.o)
                0x000000000805a208                __bid_nr_digits
 .rodata.__bid_onehalf128
                0x000000000805b028      0x110 lib/gcc111libbid_hard.a(bid128.o)
                0x000000000805b028                __bid_onehalf128
 .rodata.__bid_shiftright128
                0x000000000805b138       0x88 lib/gcc111libbid_hard.a(bid128.o)
                0x000000000805b138                __bid_shiftright128
 .rodata.__bid_ten2k128
                0x000000000805b1c0      0x130 lib/gcc111libbid_hard.a(bid128.o)
                0x000000000805b1c0                __bid_ten2k128
 .rodata.__bid_ten2k256
                0x000000000805b2f0      0x4e0 lib/gcc111libbid_hard.a(bid128.o)
                0x000000000805b2f0                __bid_ten2k256
 .rodata.__bid_ten2k64
                0x000000000805b7d0       0xa0 lib/gcc111libbid_hard.a(bid128.o)
                0x000000000805b7d0                __bid_ten2k64
 .rodata.__bid_ten2mk128
                0x000000000805b870      0x220 lib/gcc111libbid_hard.a(bid128.o)
                0x000000000805b870                __bid_ten2mk128
 .rodata.__bid_ten2mk128trunc
                0x000000000805ba90      0x220 lib/gcc111libbid_hard.a(bid128.o)
                0x000000000805ba90                __bid_ten2mk128trunc
 .rodata.__bid_ten2mxtrunc128
                0x000000000805bcb0      0x250 lib/gcc111libbid_hard.a(bid128.o)
                0x000000000805bcb0                __bid_ten2mxtrunc128
 .rodata.__bid_ten2mxtrunc192
                0x000000000805bf00      0x700 lib/gcc111libbid_hard.a(bid128.o)
                0x000000000805bf00                __bid_ten2mxtrunc192
 .rodata.__bid_ten2mxtrunc256
                0x000000000805c600      0x960 lib/gcc111libbid_hard.a(bid128.o)
                0x000000000805c600                __bid_ten2mxtrunc256
 .rodata.__bid_ten2mxtrunc64
                0x000000000805cf60       0x88 lib/gcc111libbid_hard.a(bid128.o)
                0x000000000805cf60                __bid_ten2mxtrunc64
 .rodata.__dpml_bid_bid_x_table
                0x000000000805cfe8      0x180 lib/gcc111libbid_hard.a(dpml_ux_bid.o)
 .rodata.cmpTable
                0x000000000805d168       0x28 lib/gcc111libbid_hard.a(dpml_ux_bid.o)
 .rodata.__dpml_bid_exp_x_table
                0x000000000805d190      0x550 lib/gcc111libbid_hard.a(dpml_ux_exp.o)
 .rodata.__dpml_bid_inv_trig_x_table
                0x000000000805d6e0      0x520 lib/gcc111libbid_hard.a(dpml_ux_inv_trig.o)
 .rodata.__dpml_bid_log_x_table
                0x000000000805dc00      0x1f0 lib/gcc111libbid_hard.a(dpml_ux_log.o)
 .rodata.__dpml_bid_sqrt_x_table
                0x000000000805ddf0       0xb0 lib/gcc111libbid_hard.a(dpml_ux_sqrt.o)
 .rodata.__dpml_bid_trig_x_table
                0x000000000805dea0      0x410 lib/gcc111libbid_hard.a(dpml_ux_trig.o)
 .rodata.__dpml_bid_x_constants__
                0x000000000805e2b0       0xa0 lib/gcc111libbid_hard.a(dpml_ux_ops.o)
                0x000000000805e2b0                __dpml_bid_x_constants__
 .rodata.__ux_one__
                0x000000000805e350       0x18 lib/gcc111libbid_hard.a(dpml_ux_ops_64.o)
 .rodata.__four_over_pi
                0x000000000805e368      0x838 lib/gcc111libbid_hard.a(dpml_four_over_pi.o)
                0x000000000805e368                __four_over_pi
 .rodata.__dpml_bid_globals_table
                0x000000000805eba0      0x1a0 lib/gcc111libbid_hard.a(dpml_exception.o)
                0x000000000805eba0                __dpml_bid_globals_table
 .rodata.__dpml_response_table
                0x000000000805ed40      0x590 lib/gcc111libbid_hard.a(dpml_exception.o)
 .rodata.__dpml_bid_sqrt_t_table
                0x000000000805f2d0     0x1000 lib/gcc111libbid_hard.a(sqrt_tab_t.o)
                0x000000000805f2d0                __dpml_bid_sqrt_t_table
 .rodata.str1.4
                0x00000000080602d0        0x2 /usr/lib/gcc/arm-none-eabi/6.3.1/../../../arm-none-eabi/lib/thumb/v7e-m/fpv4-sp/hard/libc.a(lib_a-impure.o)
 *fill*         0x00000000080602d2        0x2 
 .rodata.str1.4
                0x00000000080602d4       0x3f /usr/lib/gcc/arm-none-eabi/6.3.1/../../../arm-none-eabi/lib/thumb/v7e-m/fpv4-sp/hard/libc.a(lib_a-svfprintf.o)
                                         0x42 (size before relaxing)
 .rodata.str1.4
                0x0000000008060313       0x42 /usr/lib/gcc/arm-none-eabi/6.3.1/../../../arm-none-eabi/lib/thumb/v7e-m/fpv4-sp/hard/libc.a(lib_a-vfprintf.o)
 *fill*         0x0000000008060313        0x1 
 .rodata.str1.4
                0x0000000008060314       0x10 /usr/lib/gcc/arm-none-eabi/6.3.1/../../../arm-none-eabi/lib/thumb/v7e-m/fpv4-sp/hard/libc.a(lib_a-dtoa.o)
                                         0x12 (size before relaxing)
 .rodata.str1.4
                0x0000000008060324        0x6 /usr/lib/gcc/arm-none-eabi/6.3.1/../../../arm-none-eabi/lib/thumb/v7e-m/fpv4-sp/hard/libc.a(lib_a-locale.o)
                                         0x12 (size before relaxing)
 .rodata.str1.4
                0x000000000806032a       0x2f /usr/lib/gcc/arm-none-eabi/6.3.1/../../../arm-none-eabi/lib/thumb/v7e-m/fpv4-sp/hard/libc.a(lib_a-svfiprintf.o)
 .rodata.str1.4
                0x000000000806032a       0x2f /usr/lib/gcc/arm-none-eabi/6.3.1/../../../arm-none-eabi/lib/thumb/v7e-m/fpv4-sp/hard/libc.a(lib_a-vfiprintf.o)
 *fill*         0x000000000806032a        0x2 
 .rodata.str1.4
                0x000000000806032c        0x8 /usr/lib/gcc/arm-none-eabi/6.3.1/../../../arm-none-eabi/lib/thumb/v7e-m/fpv4-sp/hard/libm.a(lib_a-w_sqrt.o)
                                          0x5 (size before relaxing)
                0x0000000008060338                . = ALIGN (0x8)
 *fill*         0x0000000008060334        0x4 
                0x0000000090000000                _qspi_init_base = LOADADDR (.qspi)
                0x000000000014eaf0                _qspi_init_length = SIZEOF (.qspi)

.text           0x0000000008060340    0x45db0
                0x0000000008060340                . = ALIGN (0x8)
 *(.text)
 .text          0x0000000008060340       0xa4 /usr/lib/gcc/arm-none-eabi/6.3.1/thumb/v7e-m/fpv4-sp/hard/crtbegin.o
 .text          0x00000000080603e4      0x370 /usr/lib/gcc/arm-none-eabi/6.3.1/thumb/v7e-m/fpv4-sp/hard/libgcc.a(_arm_addsubdf3.o)
                0x00000000080603e4                __aeabi_drsub
                0x00000000080603ec                __aeabi_dsub
                0x00000000080603ec                __subdf3
                0x00000000080603f0                __adddf3
                0x00000000080603f0                __aeabi_dadd
                0x0000000008060668                __aeabi_ui2d
                0x0000000008060668                __floatunsidf
                0x0000000008060688                __floatsidf
                0x0000000008060688                __aeabi_i2d
                0x00000000080606ac                __extendsfdf2
                0x00000000080606ac                __aeabi_f2d
                0x00000000080606e8                __aeabi_ul2d
                0x00000000080606e8                __floatundidf
                0x00000000080606f8                __floatdidf
                0x00000000080606f8                __aeabi_l2d
 .text          0x0000000008060754      0x424 /usr/lib/gcc/arm-none-eabi/6.3.1/thumb/v7e-m/fpv4-sp/hard/libgcc.a(_arm_muldivdf3.o)
                0x0000000008060754                __aeabi_dmul
                0x0000000008060754                __muldf3
                0x00000000080609a8                __aeabi_ddiv
                0x00000000080609a8                __divdf3
 .text          0x0000000008060b78       0xa0 /usr/lib/gcc/arm-none-eabi/6.3.1/thumb/v7e-m/fpv4-sp/hard/libgcc.a(_arm_truncdfsf2.o)
                0x0000000008060b78                __aeabi_d2f
                0x0000000008060b78                __truncdfsf2
 .text          0x0000000008060c18      0x21c /usr/lib/gcc/arm-none-eabi/6.3.1/thumb/v7e-m/fpv4-sp/hard/libgcc.a(_arm_addsubsf3.o)
                0x0000000008060c18                __aeabi_frsub
                0x0000000008060c20                __subsf3
                0x0000000008060c20                __aeabi_fsub
                0x0000000008060c24                __aeabi_fadd
                0x0000000008060c24                __addsf3
                0x0000000008060d84                __aeabi_ui2f
                0x0000000008060d84                __floatunsisf
                0x0000000008060d8c                __aeabi_i2f
                0x0000000008060d8c                __floatsisf
                0x0000000008060da8                __floatundisf
                0x0000000008060da8                __aeabi_ul2f
                0x0000000008060db8                __floatdisf
                0x0000000008060db8                __aeabi_l2f
 .text          0x0000000008060e34       0x30 /usr/lib/gcc/arm-none-eabi/6.3.1/thumb/v7e-m/fpv4-sp/hard/libgcc.a(_aeabi_uldivmod.o)
                0x0000000008060e34                __aeabi_uldivmod
 .text          0x0000000008060e64       0x30 /usr/lib/gcc/arm-none-eabi/6.3.1/thumb/v7e-m/fpv4-sp/hard/libgcc.a(_fixdfdi.o)
                0x0000000008060e64                __aeabi_d2lz
                0x0000000008060e64                __fixdfdi
 .text          0x0000000008060e94       0x48 /usr/lib/gcc/arm-none-eabi/6.3.1/thumb/v7e-m/fpv4-sp/hard/libgcc.a(_fixunsdfdi.o)
                0x0000000008060e94                __aeabi_d2ulz
                0x0000000008060e94                __fixunsdfdi
 .text          0x0000000008060edc      0x2dc /usr/lib/gcc/arm-none-eabi/6.3.1/thumb/v7e-m/fpv4-sp/hard/libgcc.a(_udivmoddi4.o)
                0x0000000008060edc                __udivmoddi4
 .text          0x00000000080611b8        0x4 /usr/lib/gcc/arm-none-eabi/6.3.1/thumb/v7e-m/fpv4-sp/hard/libgcc.a(_dvmd_tls.o)
                0x00000000080611b8                __aeabi_ldiv0
                0x00000000080611b8                __aeabi_idiv0
 .text          0x00000000080611bc      0x110 /usr/lib/gcc/arm-none-eabi/6.3.1/thumb/v7e-m/fpv4-sp/hard/libgcc.a(_arm_cmpdf2.o)
                0x00000000080611bc                __gtdf2
                0x00000000080611bc                __gedf2
                0x00000000080611c4                __ltdf2
                0x00000000080611c4                __ledf2
                0x00000000080611cc                __cmpdf2
                0x00000000080611cc                __eqdf2
                0x00000000080611cc                __nedf2
                0x0000000008061248                __aeabi_cdrcmple
                0x0000000008061258                __aeabi_cdcmple
                0x0000000008061258                __aeabi_cdcmpeq
                0x0000000008061268                __aeabi_dcmpeq
                0x000000000806127c                __aeabi_dcmplt
                0x0000000008061290                __aeabi_dcmple
                0x00000000080612a4                __aeabi_dcmpge
                0x00000000080612b8                __aeabi_dcmpgt
 .text          0x00000000080612cc       0x40 /usr/lib/gcc/arm-none-eabi/6.3.1/thumb/v7e-m/fpv4-sp/hard/libgcc.a(_arm_fixunsdfsi.o)
                0x00000000080612cc                __fixunsdfsi
                0x00000000080612cc                __aeabi_d2uiz
 .text          0x000000000806130c        0xc /usr/lib/gcc/arm-none-eabi/6.3.1/../../../arm-none-eabi/lib/thumb/v7e-m/fpv4-sp/hard/libc.a(lib_a-atexit.o)
                0x000000000806130c                atexit
 .text          0x0000000008061318       0x10 /usr/lib/gcc/arm-none-eabi/6.3.1/../../../arm-none-eabi/lib/thumb/v7e-m/fpv4-sp/hard/libc.a(lib_a-atoi.o)
                0x0000000008061318                atoi
                0x0000000008061320                _atoi_r
 .text          0x0000000008061328        0xc /usr/lib/gcc/arm-none-eabi/6.3.1/../../../arm-none-eabi/lib/thumb/v7e-m/fpv4-sp/hard/libc.a(lib_a-errno.o)
                0x0000000008061328                __errno
 .text          0x0000000008061334       0x34 /usr/lib/gcc/arm-none-eabi/6.3.1/../../../arm-none-eabi/lib/thumb/v7e-m/fpv4-sp/hard/libc.a(lib_a-fini.o)
                0x0000000008061334                __libc_fini_array
 .text          0x0000000008061368       0x50 /usr/lib/gcc/arm-none-eabi/6.3.1/../../../arm-none-eabi/lib/thumb/v7e-m/fpv4-sp/hard/libc.a(lib_a-init.o)
                0x0000000008061368                __libc_init_array
 .text          0x00000000080613b8       0xc8 /usr/lib/gcc/arm-none-eabi/6.3.1/../../../arm-none-eabi/lib/thumb/v7e-m/fpv4-sp/hard/libc.a(lib_a-memmove.o)
                0x00000000080613b8                memmove
 .text          0x0000000008061480       0x9c /usr/lib/gcc/arm-none-eabi/6.3.1/../../../arm-none-eabi/lib/thumb/v7e-m/fpv4-sp/hard/libc.a(lib_a-memset.o)
                0x0000000008061480                memset
 .text          0x000000000806151c       0x48 /usr/lib/gcc/arm-none-eabi/6.3.1/../../../arm-none-eabi/lib/thumb/v7e-m/fpv4-sp/hard/libc.a(lib_a-printf.o)
                0x000000000806151c                _printf_r
                0x000000000806153c                printf
 .text          0x0000000008061564      0x178 /usr/lib/gcc/arm-none-eabi/6.3.1/../../../arm-none-eabi/lib/thumb/v7e-m/fpv4-sp/hard/libc.a(lib_a-signal.o)
                0x000000000806158c                _init_signal_r
                0x0000000008061598                _signal_r
                0x00000000080615dc                _raise_r
                0x000000000806163c                __sigtramp_r
                0x0000000008061698                raise
                0x00000000080616a8                signal
                0x00000000080616b8                _init_signal
                0x00000000080616cc                __sigtramp
 .text          0x00000000080616dc       0x2c /usr/lib/gcc/arm-none-eabi/6.3.1/../../../arm-none-eabi/lib/thumb/v7e-m/fpv4-sp/hard/libc.a(lib_a-signalr.o)
                0x00000000080616dc                _kill_r
                0x0000000008061704                _getpid_r
 .text          0x0000000008061708       0x90 /usr/lib/gcc/arm-none-eabi/6.3.1/../../../arm-none-eabi/lib/thumb/v7e-m/fpv4-sp/hard/libc.a(lib_a-sprintf.o)
                0x0000000008061708                _sprintf_r
                0x000000000806174c                sprintf
 .text          0x0000000008061798       0x5c /usr/lib/gcc/arm-none-eabi/6.3.1/../../../arm-none-eabi/lib/thumb/v7e-m/fpv4-sp/hard/libc.a(lib_a-stpcpy.o)
                0x0000000008061798                stpcpy
 .text          0x00000000080617f4       0x40 /usr/lib/gcc/arm-none-eabi/6.3.1/../../../arm-none-eabi/lib/thumb/v7e-m/fpv4-sp/hard/libc.a(lib_a-strcat.o)
                0x00000000080617f4                strcat
 .text          0x0000000008061834       0xe8 /usr/lib/gcc/arm-none-eabi/6.3.1/../../../arm-none-eabi/lib/thumb/v7e-m/fpv4-sp/hard/libc.a(lib_a-strchr.o)
                0x0000000008061834                strchr
 .text          0x000000000806191c       0xbc /usr/lib/gcc/arm-none-eabi/6.3.1/../../../arm-none-eabi/lib/thumb/v7e-m/fpv4-sp/hard/libc.a(lib_a-strcpy.o)
                0x000000000806191c                strcpy
 *fill*         0x00000000080619d8       0x28 
 .text          0x0000000008061a00       0xdc /usr/lib/gcc/arm-none-eabi/6.3.1/../../../arm-none-eabi/lib/thumb/v7e-m/fpv4-sp/hard/libc.a(lib_a-strlen.o)
                0x0000000008061a00                strlen
 .text          0x0000000008061adc       0x5c /usr/lib/gcc/arm-none-eabi/6.3.1/../../../arm-none-eabi/lib/thumb/v7e-m/fpv4-sp/hard/libc.a(lib_a-strncat.o)
                0x0000000008061adc                strncat
 .text          0x0000000008061b38      0x128 /usr/lib/gcc/arm-none-eabi/6.3.1/../../../arm-none-eabi/lib/thumb/v7e-m/fpv4-sp/hard/libc.a(lib_a-strtol.o)
                0x0000000008061b38                _strtol_r
                0x0000000008061c48                strtol
 .text          0x0000000008061c60     0x1488 /usr/lib/gcc/arm-none-eabi/6.3.1/../../../arm-none-eabi/lib/thumb/v7e-m/fpv4-sp/hard/libc.a(lib_a-svfprintf.o)
                0x0000000008061c60                _svfprintf_r
 .text          0x00000000080630e8     0x1568 /usr/lib/gcc/arm-none-eabi/6.3.1/../../../arm-none-eabi/lib/thumb/v7e-m/fpv4-sp/hard/libc.a(lib_a-vfprintf.o)
                0x00000000080630e8                _vfprintf_r
                0x00000000080645cc                vfprintf
 .text          0x0000000008064650       0xc8 /usr/lib/gcc/arm-none-eabi/6.3.1/../../../arm-none-eabi/lib/thumb/v7e-m/fpv4-sp/hard/libc.a(lib_a-wsetup.o)
                0x0000000008064650                __swsetup_r
 .text          0x0000000008064718       0xa4 /usr/lib/gcc/arm-none-eabi/6.3.1/../../../arm-none-eabi/lib/thumb/v7e-m/fpv4-sp/hard/libc.a(lib_a-__atexit.o)
                0x0000000008064718                __register_exitproc
 *fill*         0x00000000080647bc        0x4 
 .text          0x00000000080647c0      0xf74 /usr/lib/gcc/arm-none-eabi/6.3.1/../../../arm-none-eabi/lib/thumb/v7e-m/fpv4-sp/hard/libc.a(lib_a-dtoa.o)
                0x00000000080648e8                _dtoa_r
 .text          0x0000000008065734      0x190 /usr/lib/gcc/arm-none-eabi/6.3.1/../../../arm-none-eabi/lib/thumb/v7e-m/fpv4-sp/hard/libc.a(lib_a-fflush.o)
                0x0000000008065734                __sflush_r
                0x0000000008065874                _fflush_r
                0x00000000080658a0                fflush
 .text          0x00000000080658c4      0x214 /usr/lib/gcc/arm-none-eabi/6.3.1/../../../arm-none-eabi/lib/thumb/v7e-m/fpv4-sp/hard/libc.a(lib_a-findfp.o)
                0x00000000080658c8                _cleanup_r
                0x00000000080659c8                __sfmoreglue
                0x00000000080659f8                __sfp
                0x0000000008065a84                _cleanup
                0x0000000008065a98                __sinit
                0x0000000008065aa0                __sfp_lock_acquire
                0x0000000008065aa4                __sfp_lock_release
                0x0000000008065aa8                __sinit_lock_acquire
                0x0000000008065aac                __sinit_lock_release
                0x0000000008065ab0                __fp_lock_all
                0x0000000008065ac4                __fp_unlock_all
 .text          0x0000000008065ad8       0xa0 /usr/lib/gcc/arm-none-eabi/6.3.1/../../../arm-none-eabi/lib/thumb/v7e-m/fpv4-sp/hard/libc.a(lib_a-fwalk.o)
                0x0000000008065ad8                _fwalk
                0x0000000008065b24                _fwalk_reent
 .text          0x0000000008065b78       0x80 /usr/lib/gcc/arm-none-eabi/6.3.1/../../../arm-none-eabi/lib/thumb/v7e-m/fpv4-sp/hard/libc.a(lib_a-locale.o)
                0x0000000008065b78                _setlocale_r
                0x0000000008065bb8                __locale_charset
                0x0000000008065bc0                __locale_mb_cur_max
                0x0000000008065bcc                __locale_msgcharset
                0x0000000008065bd4                __locale_cjk_lang
                0x0000000008065bd8                _localeconv_r
                0x0000000008065be0                setlocale
                0x0000000008065bf0                localeconv
 .text          0x0000000008065bf8       0xe4 /usr/lib/gcc/arm-none-eabi/6.3.1/../../../arm-none-eabi/lib/thumb/v7e-m/fpv4-sp/hard/libc.a(lib_a-makebuf.o)
                0x0000000008065bf8                __swhatbuf_r
                0x0000000008065c54                __smakebuf_r
 *fill*         0x0000000008065cdc        0x4 
 .text          0x0000000008065ce0       0xa0 /usr/lib/gcc/arm-none-eabi/6.3.1/../../../arm-none-eabi/lib/thumb/v7e-m/fpv4-sp/hard/libc.a(lib_a-memchr.o)
                0x0000000008065ce0                memchr
 .text          0x0000000008065d80      0x134 /usr/lib/gcc/arm-none-eabi/6.3.1/../../../arm-none-eabi/lib/thumb/v7e-m/fpv4-sp/hard/libc.a(lib_a-memcpy.o)
                0x0000000008065d80                memcpy
 .text          0x0000000008065eb4      0x8f4 /usr/lib/gcc/arm-none-eabi/6.3.1/../../../arm-none-eabi/lib/thumb/v7e-m/fpv4-sp/hard/libc.a(lib_a-mprec.o)
                0x0000000008065eb4                _Balloc
                0x0000000008065f00                _Bfree
                0x0000000008065f14                __multadd
                0x0000000008065f94                __s2b
                0x0000000008066030                __hi0bits
                0x0000000008066070                __lo0bits
                0x00000000080660d0                __i2b
                0x00000000080660e4                __multiply
                0x0000000008066208                __pow5mult
                0x00000000080662a8                __lshift
                0x000000000806634c                __mcmp
                0x0000000008066384                __mdiff
                0x000000000806648c                __ulp
                0x00000000080664e0                __b2d
                0x00000000080665a4                __d2b
                0x0000000008066660                __ratio
                0x00000000080666c0                _mprec_log10
                0x0000000008066700                __copybits
                0x0000000008066748                __any_on
 .text          0x00000000080667a8       0x8c /usr/lib/gcc/arm-none-eabi/6.3.1/../../../arm-none-eabi/lib/thumb/v7e-m/fpv4-sp/hard/libc.a(lib_a-stdio.o)
                0x00000000080667a8                __sread
                0x00000000080667cc                __seofread
                0x00000000080667d0                __swrite
                0x000000000806680c                __sseek
                0x000000000806682c                __sclose
 *fill*         0x0000000008066834        0xc 
 .text          0x0000000008066840      0x2dc /usr/lib/gcc/arm-none-eabi/6.3.1/../../../arm-none-eabi/lib/thumb/v7e-m/fpv4-sp/hard/libc.a(lib_a-strcmp.o)
                0x0000000008066848                strcmp
 .text          0x0000000008066b1c      0xb50 /usr/lib/gcc/arm-none-eabi/6.3.1/../../../arm-none-eabi/lib/thumb/v7e-m/fpv4-sp/hard/libc.a(lib_a-svfiprintf.o)
                0x0000000008066b1c                __ssprint_r
                0x0000000008066c18                _svfiprintf_r
 .text          0x000000000806766c      0xd18 /usr/lib/gcc/arm-none-eabi/6.3.1/../../../arm-none-eabi/lib/thumb/v7e-m/fpv4-sp/hard/libc.a(lib_a-vfiprintf.o)
                0x00000000080676ec                __sprint_r
                0x0000000008067700                _vfiprintf_r
                0x0000000008068300                vfiprintf
 .text          0x0000000008068384       0x2c /usr/lib/gcc/arm-none-eabi/6.3.1/../../../arm-none-eabi/lib/thumb/v7e-m/fpv4-sp/hard/libc.a(lib_a-writer.o)
                0x0000000008068384                _write_r
 .text          0x00000000080683b0       0x24 /usr/lib/gcc/arm-none-eabi/6.3.1/../../../arm-none-eabi/lib/thumb/v7e-m/fpv4-sp/hard/libc.a(lib_a-closer.o)
                0x00000000080683b0                _close_r
 .text          0x00000000080683d4       0x90 /usr/lib/gcc/arm-none-eabi/6.3.1/../../../arm-none-eabi/lib/thumb/v7e-m/fpv4-sp/hard/libc.a(lib_a-fclose.o)
                0x00000000080683d4                _fclose_r
                0x0000000008068454                fclose
 .text          0x0000000008068464      0x108 /usr/lib/gcc/arm-none-eabi/6.3.1/../../../arm-none-eabi/lib/thumb/v7e-m/fpv4-sp/hard/libc.a(lib_a-fputwc.o)
                0x0000000008068464                __fputwc
                0x0000000008068504                _fputwc_r
                0x000000000806852c                fputwc
 .text          0x000000000806856c       0x28 /usr/lib/gcc/arm-none-eabi/6.3.1/../../../arm-none-eabi/lib/thumb/v7e-m/fpv4-sp/hard/libc.a(lib_a-fstatr.o)
                0x000000000806856c                _fstat_r
 .text          0x0000000008068594      0x2f0 /usr/lib/gcc/arm-none-eabi/6.3.1/../../../arm-none-eabi/lib/thumb/v7e-m/fpv4-sp/hard/libc.a(lib_a-fvwrite.o)
                0x0000000008068594                __sfvwrite_r
 .text          0x0000000008068884       0x24 /usr/lib/gcc/arm-none-eabi/6.3.1/../../../arm-none-eabi/lib/thumb/v7e-m/fpv4-sp/hard/libc.a(lib_a-isattyr.o)
                0x0000000008068884                _isatty_r
 .text          0x00000000080688a8       0x2c /usr/lib/gcc/arm-none-eabi/6.3.1/../../../arm-none-eabi/lib/thumb/v7e-m/fpv4-sp/hard/libc.a(lib_a-lseekr.o)
                0x00000000080688a8                _lseek_r
 .text          0x00000000080688d4       0x2c /usr/lib/gcc/arm-none-eabi/6.3.1/../../../arm-none-eabi/lib/thumb/v7e-m/fpv4-sp/hard/libc.a(lib_a-readr.o)
                0x00000000080688d4                _read_r
 .text          0x0000000008068900       0xc0 /usr/lib/gcc/arm-none-eabi/6.3.1/../../../arm-none-eabi/lib/thumb/v7e-m/fpv4-sp/hard/libc.a(lib_a-wbuf.o)
                0x0000000008068900                __swbuf_r
                0x00000000080689b0                __swbuf
 .text          0x00000000080689c0       0xac /usr/lib/gcc/arm-none-eabi/6.3.1/../../../arm-none-eabi/lib/thumb/v7e-m/fpv4-sp/hard/libc.a(lib_a-wcrtomb.o)
                0x00000000080689c0                _wcrtomb_r
                0x0000000008068a14                wcrtomb
 .text          0x0000000008068a6c       0x4c /usr/lib/gcc/arm-none-eabi/6.3.1/../../../arm-none-eabi/lib/thumb/v7e-m/fpv4-sp/hard/libc.a(lib_a-wctomb_r.o)
                0x0000000008068a6c                __ascii_wctomb
                0x0000000008068a88                _wctomb_r
 .text          0x0000000008068ab8       0x2c /usr/lib/gcc/arm-none-eabi/6.3.1/thumb/v7e-m/fpv4-sp/hard/libgcc.a(_arm_unorddf2.o)
                0x0000000008068ab8                __aeabi_dcmpun
                0x0000000008068ab8                __unorddf2
 .text          0x0000000008068ae4       0x50 /usr/lib/gcc/arm-none-eabi/6.3.1/thumb/v7e-m/fpv4-sp/hard/libgcc.a(_arm_fixdfsi.o)
                0x0000000008068ae4                __fixdfsi
                0x0000000008068ae4                __aeabi_d2iz
 .text          0x0000000008068b34       0xb8 /usr/lib/gcc/arm-none-eabi/6.3.1/../../../arm-none-eabi/lib/thumb/v7e-m/fpv4-sp/hard/libm.a(lib_a-w_sqrt.o)
                0x0000000008068b34                sqrt
 .text          0x0000000008068bec      0x198 /usr/lib/gcc/arm-none-eabi/6.3.1/../../../arm-none-eabi/lib/thumb/v7e-m/fpv4-sp/hard/libm.a(lib_a-e_sqrt.o)
                0x0000000008068bec                __ieee754_sqrt
 .text          0x0000000008068d84        0x4 /usr/lib/gcc/arm-none-eabi/6.3.1/../../../arm-none-eabi/lib/thumb/v7e-m/fpv4-sp/hard/libm.a(lib_a-s_matherr.o)
                0x0000000008068d84                matherr
 *(.text*)
 .text._read    0x0000000008068d88        0x4 build/pgm_syscalls.o
                0x0000000008068d88                _read
 .text._write   0x0000000008068d8c        0x8 build/pgm_syscalls.o
                0x0000000008068d8c                _write
 .text._close   0x0000000008068d94        0x8 build/pgm_syscalls.o
                0x0000000008068d94                _close
 .text._fstat   0x0000000008068d9c        0xc build/pgm_syscalls.o
                0x0000000008068d9c                _fstat
 .text._isatty  0x0000000008068da8        0x4 build/pgm_syscalls.o
                0x0000000008068da8                _isatty
 .text._lseek   0x0000000008068dac        0x4 build/pgm_syscalls.o
                0x0000000008068dac                _lseek
 .text._kill    0x0000000008068db0       0x10 build/pgm_syscalls.o
                0x0000000008068db0                _kill
 .text._getpid  0x0000000008068dc0        0x4 build/pgm_syscalls.o
                0x0000000008068dc0                _getpid
 .text.malloc   0x0000000008068dc4        0x8 build/pgm_syscalls.o
                0x0000000008068dc4                malloc
 .text.__wrap__malloc_r
                0x0000000008068dcc        0xc build/pgm_syscalls.o
                0x0000000008068dcc                __wrap__malloc_r
 .text._calloc_r
                0x0000000008068dd8        0xc build/pgm_syscalls.o
                0x0000000008068dd8                _calloc_r
 .text._realloc_r
                0x0000000008068de4        0xc build/pgm_syscalls.o
                0x0000000008068de4                _realloc_r
 .text._free_r  0x0000000008068df0        0xc build/pgm_syscalls.o
                0x0000000008068df0                _free_r
 .text.post_main
                0x0000000008068dfc       0x1c build/pgm_syscalls.o
                0x0000000008068dfc                post_main
 .text.round_string.part.0
                0x0000000008068e18       0x2c build/main.o
 .text.make_screenshot
                0x0000000008068e44       0x50 build/main.o
                0x0000000008068e44                make_screenshot
 .text.num_format
                0x0000000008068e94      0x348 build/main.o
                0x0000000008068e94                num_format
 .text.disp_stack_line
                0x00000000080691dc       0x7c build/main.o
                0x00000000080691dc                disp_stack_line
 .text.disp_annun
                0x0000000008069258       0x68 build/main.o
                0x0000000008069258                disp_annun
 .text.redraw_lcd
                0x00000000080692c0      0x170 build/main.o
                0x00000000080692c0                redraw_lcd
 .text.start_edit
                0x0000000008069430       0x30 build/main.o
                0x0000000008069430                start_edit
 .text.add_edit_key
                0x0000000008069460      0x170 build/main.o
                0x0000000008069460                add_edit_key
 .text.reg_by_ix
                0x00000000080695d0       0x64 build/main.o
                0x00000000080695d0                reg_by_ix
 .text.TO_RAD   0x0000000008069634       0x3c build/main.o
                0x0000000008069634                TO_RAD
 .text.FROM_RAD
                0x0000000008069670       0x3c build/main.o
                0x0000000008069670                FROM_RAD
 .text.run_fn   0x00000000080696ac      0x3f4 build/main.o
                0x00000000080696ac                run_fn
 .text.handle_fmenu
                0x0000000008069aa0       0x2c build/main.o
                0x0000000008069aa0                handle_fmenu
 .text.handle_key
                0x0000000008069acc      0x288 build/main.o
                0x0000000008069acc                handle_key
 .text.program_init
                0x0000000008069d54       0xdc build/main.o
                0x0000000008069d54                program_init
 .text.program_main
                0x0000000008069e30       0xf4 build/main.o
                0x0000000008069e30                program_main
 .text.disp_about
                0x0000000008069f24       0xdc build/menu.o
                0x0000000008069f24                disp_about
 .text.run_menu_item
                0x000000000806a000       0x2c build/menu.o
                0x000000000806a000                run_menu_item
 .text.menu_line_str
                0x000000000806a02c       0x1c build/menu.o
                0x000000000806a02c                menu_line_str
 .text.Program_Entry
                0x000000000806a048       0x48 build/startup_pgm.o
                0x000000000806a048                Program_Entry
 .text.__bid128_acos
                0x000000000806a090      0x240 lib/gcc111libbid_hard.a(bid128_acos.o)
                0x000000000806a090                __bid128_acos
 .text.__bid128_asin
                0x000000000806a2d0      0x204 lib/gcc111libbid_hard.a(bid128_asin.o)
                0x000000000806a2d0                __bid128_asin
 *fill*         0x000000000806a4d4        0x4 
 .text.__bid128_atan
                0x000000000806a4d8      0x15c lib/gcc111libbid_hard.a(bid128_atan.o)
                0x000000000806a4d8                __bid128_atan
 *fill*         0x000000000806a634        0x4 
 .text.__bid128_cos
                0x000000000806a638      0xe7c lib/gcc111libbid_hard.a(bid128_cos.o)
                0x000000000806a638                __bid128_cos
 *fill*         0x000000000806b4b4        0x4 
 .text.__bid128_exp
                0x000000000806b4b8      0x280 lib/gcc111libbid_hard.a(bid128_exp.o)
                0x000000000806b4b8                __bid128_exp
 .text.__bid128_exp10
                0x000000000806b738      0x3c8 lib/gcc111libbid_hard.a(bid128_exp10.o)
                0x000000000806b738                __bid128_exp10
 .text.__bid128_log
                0x000000000806bb00      0x290 lib/gcc111libbid_hard.a(bid128_log.o)
                0x000000000806bb00                __bid128_log
 .text.__bid128_log10
                0x000000000806bd90      0x2ac lib/gcc111libbid_hard.a(bid128_log10.o)
                0x000000000806bd90                __bid128_log10
 *fill*         0x000000000806c03c        0x4 
 .text.__bid128_pow
                0x000000000806c040     0xa44c lib/gcc111libbid_hard.a(bid128_pow.o)
                0x000000000806c040                __bid128_pow
 *fill*         0x000000000807648c        0x4 
 .text.__bid128_sin
                0x0000000008076490      0xe9c lib/gcc111libbid_hard.a(bid128_sin.o)
                0x0000000008076490                __bid128_sin
 *fill*         0x000000000807732c        0x4 
 .text.__bid128_tan
                0x0000000008077330      0xe60 lib/gcc111libbid_hard.a(bid128_tan.o)
                0x0000000008077330                __bid128_tan
 .text.__bid128_add
                0x0000000008078190     0x5f48 lib/gcc111libbid_hard.a(bid128_add.o)
                0x0000000008078190                __bid128_add
 .text.__bid128_sub
                0x000000000807e0d8       0x6c lib/gcc111libbid_hard.a(bid128_add.o)
                0x000000000807e0d8                __bid128_sub
 *fill*         0x000000000807e144        0x4 
 .text.__bid128_quiet_equal
                0x000000000807e148      0x7d4 lib/gcc111libbid_hard.a(bid128_compare.o)
                0x000000000807e148                __bid128_quiet_equal
 *fill*         0x000000000807e91c        0x4 
 .text.__bid128_quiet_greater
                0x000000000807e920      0xe98 lib/gcc111libbid_hard.a(bid128_compare.o)
                0x000000000807e920                __bid128_quiet_greater
 .text.__bid128_quiet_less
                0x000000000807f7b8      0xea4 lib/gcc111libbid_hard.a(bid128_compare.o)
                0x000000000807f7b8                __bid128_quiet_less
 *fill*         0x000000000808065c        0x4 
 .text.bid_get_BID128.constprop.3
                0x0000000008080660      0xb8c lib/gcc111libbid_hard.a(bid128_div.o)
 *fill*         0x00000000080811ec        0x4 
 .text.__bid128_div
                0x00000000080811f0     0x43c4 lib/gcc111libbid_hard.a(bid128_div.o)
                0x00000000080811f0                __bid128_div
 .text.bid_bid_nr_digits256
                0x00000000080855b4      0x188 lib/gcc111libbid_hard.a(bid128_fma.o)
 *fill*         0x000000000808573c        0x4 
 .text.bid_rounding_correction.constprop.1
                0x0000000008085740      0x2b0 lib/gcc111libbid_hard.a(bid128_fma.o)
 .text.bid_add_and_round.constprop.0
                0x00000000080859f0     0x1864 lib/gcc111libbid_hard.a(bid128_fma.o)
 *fill*         0x0000000008087254        0x4 
 .text.bid128_ext_fma
                0x0000000008087258     0x7354 lib/gcc111libbid_hard.a(bid128_fma.o)
 .text.__bid128_fma
                0x000000000808e5ac       0x68 lib/gcc111libbid_hard.a(bid128_fma.o)
                0x000000000808e5ac                __bid128_fma
 *fill*         0x000000000808e614        0x4 
 .text.__bid128_mul
                0x000000000808e618      0x260 lib/gcc111libbid_hard.a(bid128_mul.o)
                0x000000000808e618                __bid128_mul
 .text.__bid128_isZero
                0x000000000808e878       0xb4 lib/gcc111libbid_hard.a(bid128_noncomp.o)
                0x000000000808e878                __bid128_isZero
 .text.__bid128_isInf
                0x000000000808e92c       0x40 lib/gcc111libbid_hard.a(bid128_noncomp.o)
                0x000000000808e92c                __bid128_isInf
 *fill*         0x000000000808e96c        0x4 
 .text.__bid128_round_integral_nearest_even
                0x000000000808e970      0x880 lib/gcc111libbid_hard.a(bid128_round_integral.o)
                0x000000000808e970                __bid128_round_integral_nearest_even
 .text.bid_long_sqrt128
                0x000000000808f1f0     0x1724 lib/gcc111libbid_hard.a(bid128_sqrt.o)
 *fill*         0x0000000008090914        0x4 
 .text.__bid128_sqrt
                0x0000000008090918     0x20f0 lib/gcc111libbid_hard.a(bid128_sqrt.o)
                0x0000000008090918                __bid128_sqrt
 .text.__bid128_to_string
                0x0000000008092a08      0xab4 lib/gcc111libbid_hard.a(bid128_string.o)
                0x0000000008092a08                __bid128_to_string
 *fill*         0x00000000080934bc        0x4 
 .text.__bid128_from_string
                0x00000000080934c0     0x2190 lib/gcc111libbid_hard.a(bid128_string.o)
                0x00000000080934c0                __bid128_from_string
 .text.__bid128_to_int32_rnint
                0x0000000008095650      0xc88 lib/gcc111libbid_hard.a(bid128_to_int32.o)
                0x0000000008095650                __bid128_to_int32_rnint
 .text.__bid128_to_int32_xrnint
                0x00000000080962d8      0xe90 lib/gcc111libbid_hard.a(bid128_to_int32.o)
                0x00000000080962d8                __bid128_to_int32_xrnint
 .text.__bid128_to_int32_int
                0x0000000008097168      0xb38 lib/gcc111libbid_hard.a(bid128_to_int32.o)
                0x0000000008097168                __bid128_to_int32_int
 .text.__bid64_to_bid128
                0x0000000008097ca0      0x23c lib/gcc111libbid_hard.a(bid64_to_bid128.o)
                0x0000000008097ca0                __bid64_to_bid128
 *fill*         0x0000000008097edc        0x4 
 .text.__bid128_to_binary128
                0x0000000008097ee0     0x1158 lib/gcc111libbid_hard.a(bid_binarydecimal.o)
                0x0000000008097ee0                __bid128_to_binary128
 .text.__binary64_to_bid64
                0x0000000008099038      0x914 lib/gcc111libbid_hard.a(bid_binarydecimal.o)
                0x0000000008099038                __binary64_to_bid64
 *fill*         0x000000000809994c        0x4 
 .text.__binary128_to_bid128
                0x0000000008099950     0x279c lib/gcc111libbid_hard.a(bid_binarydecimal.o)
                0x0000000008099950                __binary128_to_bid128
 *fill*         0x000000000809c0ec        0x4 
 .text.bid128_to_binary128_2part
                0x000000000809c0f0     0x125c lib/gcc111libbid_hard.a(bid_binarydecimal.o)
                0x000000000809c0f0                bid128_to_binary128_2part
 .text.__bid128_from_int32
                0x000000000809d34c       0x2c lib/gcc111libbid_hard.a(bid_from_int.o)
                0x000000000809d34c                __bid128_from_int32
 .text.__bid_round64_2_18
                0x000000000809d378      0x1cc lib/gcc111libbid_hard.a(bid_round.o)
                0x000000000809d378                __bid_round64_2_18
 .text.__bid_round128_19_38
                0x000000000809d544      0x780 lib/gcc111libbid_hard.a(bid_round.o)
                0x000000000809d544                __bid_round128_19_38
 .text.__bid_round192_39_57
                0x000000000809dcc4     0x1150 lib/gcc111libbid_hard.a(bid_round.o)
                0x000000000809dcc4                __bid_round192_39_57
 .text.__bid_round256_58_76
                0x000000000809ee14     0x1f6c lib/gcc111libbid_hard.a(bid_round.o)
                0x000000000809ee14                __bid_round256_58_76
 .text.__dpml_bid_ux_cmp__.part.0
                0x00000000080a0d80       0x78 lib/gcc111libbid_hard.a(dpml_ux_bid.o)
 .text.bid_f128_mul
                0x00000000080a0df8       0x5c lib/gcc111libbid_hard.a(dpml_ux_bid.o)
                0x00000000080a0df8                bid_f128_mul
 .text.bid_f128_div
                0x00000000080a0e54       0x60 lib/gcc111libbid_hard.a(dpml_ux_bid.o)
                0x00000000080a0e54                bid_f128_div
 .text.bid_f128_add
                0x00000000080a0eb4       0x60 lib/gcc111libbid_hard.a(dpml_ux_bid.o)
                0x00000000080a0eb4                bid_f128_add
 .text.bid_f128_sub
                0x00000000080a0f14       0x60 lib/gcc111libbid_hard.a(dpml_ux_bid.o)
                0x00000000080a0f14                bid_f128_sub
 .text.bid_f128_neg
                0x00000000080a0f74       0x20 lib/gcc111libbid_hard.a(dpml_ux_bid.o)
                0x00000000080a0f74                bid_f128_neg
 .text.bid_f128_fabs
                0x00000000080a0f94       0x20 lib/gcc111libbid_hard.a(dpml_ux_bid.o)
                0x00000000080a0f94                bid_f128_fabs
 .text.bid_f128_cmp
                0x00000000080a0fb4       0x60 lib/gcc111libbid_hard.a(dpml_ux_bid.o)
                0x00000000080a0fb4                bid_f128_cmp
 .text.__dpml_bid_ux_exp_reduce__
                0x00000000080a1014      0x2c8 lib/gcc111libbid_hard.a(dpml_ux_exp.o)
 .text.__dpml_bid_ux_exp_common__
                0x00000000080a12dc       0x3c lib/gcc111libbid_hard.a(dpml_ux_exp.o)
                0x00000000080a12dc                __dpml_bid_ux_exp_common__
 .text.bid_f128_exp
                0x00000000080a1318       0x4c lib/gcc111libbid_hard.a(dpml_ux_exp.o)
                0x00000000080a1318                bid_f128_exp
 .text.bid_f128_exp10
                0x00000000080a1364       0x4c lib/gcc111libbid_hard.a(dpml_ux_exp.o)
                0x00000000080a1364                bid_f128_exp10
 .text.__dpml_bid_ux_asin_acos__
                0x00000000080a13b0      0x19c lib/gcc111libbid_hard.a(dpml_ux_inv_trig.o)
 .text.__dpml_bid_ux_atan2__
                0x00000000080a154c      0x1ac lib/gcc111libbid_hard.a(dpml_ux_inv_trig.o)
                0x00000000080a154c                __dpml_bid_ux_atan2__
 .text.__dpml_bid_C_ux_atan2__
                0x00000000080a16f8       0x5c lib/gcc111libbid_hard.a(dpml_ux_inv_trig.o)
 .text.bid_f128_atan
                0x00000000080a1754       0x28 lib/gcc111libbid_hard.a(dpml_ux_inv_trig.o)
                0x00000000080a1754                bid_f128_atan
 .text.bid_f128_asin
                0x00000000080a177c       0x2c lib/gcc111libbid_hard.a(dpml_ux_inv_trig.o)
                0x00000000080a177c                bid_f128_asin
 .text.bid_f128_acos
                0x00000000080a17a8       0x34 lib/gcc111libbid_hard.a(dpml_ux_inv_trig.o)
                0x00000000080a17a8                bid_f128_acos
 .text.__dpml_bid_ux_log__
                0x00000000080a17dc       0xac lib/gcc111libbid_hard.a(dpml_ux_log.o)
                0x00000000080a17dc                __dpml_bid_ux_log__
 .text.__dpml_bid_C_ux_log__
                0x00000000080a1888       0x40 lib/gcc111libbid_hard.a(dpml_ux_log.o)
 .text.bid_f128_log
                0x00000000080a18c8       0x20 lib/gcc111libbid_hard.a(dpml_ux_log.o)
                0x00000000080a18c8                bid_f128_log
 .text.__dpml_bid_ux_sqrt_evaluation__
                0x00000000080a18e8      0x39c lib/gcc111libbid_hard.a(dpml_ux_sqrt.o)
                0x00000000080a18e8                __dpml_bid_ux_sqrt_evaluation__
 .text.__dpml_bid_C_ux_sqrt__
                0x00000000080a1c84      0x114 lib/gcc111libbid_hard.a(dpml_ux_sqrt.o)
 .text.bid_f128_sqrt
                0x00000000080a1d98       0x1c lib/gcc111libbid_hard.a(dpml_ux_sqrt.o)
                0x00000000080a1d98                bid_f128_sqrt
 .text.__dpml_bid_ux_sincos
                0x00000000080a1db4      0x100 lib/gcc111libbid_hard.a(dpml_ux_trig.o)
                0x00000000080a1db4                __dpml_bid_ux_sincos
 .text.__dpml_bid_ux_tancot__
                0x00000000080a1eb4       0xe4 lib/gcc111libbid_hard.a(dpml_ux_trig.o)
 .text.__dpml_bid_ux_radian_reduce__
                0x00000000080a1f98      0xbb0 lib/gcc111libbid_hard.a(dpml_ux_trig.o)
 .text.__dpml_bid_ux_degree_reduce__
                0x00000000080a2b48      0x5b8 lib/gcc111libbid_hard.a(dpml_ux_trig.o)
 .text.__dpml_bid_C_ux_trig__
                0x00000000080a3100       0xd8 lib/gcc111libbid_hard.a(dpml_ux_trig.o)
 .text.bid_f128_sin
                0x00000000080a31d8       0x2c lib/gcc111libbid_hard.a(dpml_ux_trig.o)
                0x00000000080a31d8                bid_f128_sin
 .text.bid_f128_cos
                0x00000000080a3204       0x2c lib/gcc111libbid_hard.a(dpml_ux_trig.o)
                0x00000000080a3204                bid_f128_cos
 .text.bid_f128_tan
                0x00000000080a3230       0x2c lib/gcc111libbid_hard.a(dpml_ux_trig.o)
                0x00000000080a3230                bid_f128_tan
 .text.__dpml_bid_ffs_and_shift__
                0x00000000080a325c      0x21c lib/gcc111libbid_hard.a(dpml_ux_ops.o)
                0x00000000080a325c                __dpml_bid_ffs_and_shift__
 .text.__dpml_bid_addsub__
                0x00000000080a3478      0x3d8 lib/gcc111libbid_hard.a(dpml_ux_ops.o)
                0x00000000080a3478                __dpml_bid_addsub__
 .text.__dpml_bid_unpack_x_or_y__
                0x00000000080a3850      0x2bc lib/gcc111libbid_hard.a(dpml_ux_ops.o)
                0x00000000080a3850                __dpml_bid_unpack_x_or_y__
 .text.__dpml_bid_unpack2__
                0x00000000080a3b0c       0xb4 lib/gcc111libbid_hard.a(dpml_ux_ops.o)
                0x00000000080a3b0c                __dpml_bid_unpack2__
 .text.__dpml_bid_pack__
                0x00000000080a3bc0      0x184 lib/gcc111libbid_hard.a(dpml_ux_ops.o)
                0x00000000080a3bc0                __dpml_bid_pack__
 .text.__dpml_bid_group_d
                0x00000000080a3d44        0x4 lib/gcc111libbid_hard.a(dpml_ux_ops.o)
                0x00000000080a3d44                __dpml_bid_group_d
 .text.__eval_pos_poly
                0x00000000080a3d48      0xb58 lib/gcc111libbid_hard.a(dpml_ux_ops_64.o)
 .text.__eval_neg_poly
                0x00000000080a48a0      0x974 lib/gcc111libbid_hard.a(dpml_ux_ops_64.o)
 .text.__dpml_bid_multiply__
                0x00000000080a5214      0x200 lib/gcc111libbid_hard.a(dpml_ux_ops_64.o)
                0x00000000080a5214                __dpml_bid_multiply__
 .text.__dpml_bid_extended_multiply__
                0x00000000080a5414      0x34c lib/gcc111libbid_hard.a(dpml_ux_ops_64.o)
                0x00000000080a5414                __dpml_bid_extended_multiply__
 .text.__dpml_bid_divide__
                0x00000000080a5760      0x674 lib/gcc111libbid_hard.a(dpml_ux_ops_64.o)
                0x00000000080a5760                __dpml_bid_divide__
 .text.__dpml_bid_evaluate_rational__
                0x00000000080a5dd4      0x240 lib/gcc111libbid_hard.a(dpml_ux_ops_64.o)
                0x00000000080a5dd4                __dpml_bid_evaluate_rational__
 .text.__dpml_bid_exception
                0x00000000080a6014       0xac lib/gcc111libbid_hard.a(dpml_exception.o)
                0x00000000080a6014                __dpml_bid_exception
 .text.startup  0x00000000080a60c0       0x14 /usr/lib/gcc/arm-none-eabi/6.3.1/../../../arm-none-eabi/lib/thumb/v7e-m/fpv4-sp/hard/libc.a(lib_a-__call_atexit.o)
 *(.glue_7)
 .glue_7        0x00000000080a60d4        0x0 linker stubs
 *(.glue_7t)
 .glue_7t       0x00000000080a60d4        0x0 linker stubs
 *(.eh_frame)
 .eh_frame      0x00000000080a60d4        0x0 /usr/lib/gcc/arm-none-eabi/6.3.1/thumb/v7e-m/fpv4-sp/hard/crtbegin.o
 *(.init)
 .init          0x00000000080a60d4        0x4 /usr/lib/gcc/arm-none-eabi/6.3.1/thumb/v7e-m/fpv4-sp/hard/crti.o
                0x00000000080a60d4                _init
 .init          0x00000000080a60d8        0x8 /usr/lib/gcc/arm-none-eabi/6.3.1/thumb/v7e-m/fpv4-sp/hard/crtn.o
 *(.fini)
 .fini          0x00000000080a60e0        0x4 /usr/lib/gcc/arm-none-eabi/6.3.1/thumb/v7e-m/fpv4-sp/hard/crti.o
                0x00000000080a60e0                _fini
 .fini          0x00000000080a60e4        0x8 /usr/lib/gcc/arm-none-eabi/6.3.1/thumb/v7e-m/fpv4-sp/hard/crtn.o
                0x00000000080a60f0                . = ALIGN (0x8)
 *fill*         0x00000000080a60ec        0x4 
                0x00000000080a60f0                _etext = .

.vfp11_veneer   0x00000000080a60f0        0x0
 .vfp11_veneer  0x00000000080a60f0        0x0 linker stubs

.v4_bx          0x00000000080a60f0        0x0
 .v4_bx         0x00000000080a60f0        0x0 linker stubs

.iplt           0x00000000080a60f0        0x0
 .iplt          0x00000000080a60f0        0x0 /usr/lib/gcc/arm-none-eabi/6.3.1/thumb/v7e-m/fpv4-sp/hard/crtbegin.o

.ARM.extab      0x00000000080a60f0        0x0
                0x00000000080a60f0                . = ALIGN (0x8)
 *(.ARM.extab* .gnu.linkonce.armextab.*)
                0x00000000080a60f0                . = ALIGN (0x8)

.ARM            0x00000000080a60f0        0x8
                0x00000000080a60f0                . = ALIGN (0x8)
                0x00000000080a60f0                __exidx_start = .
 *(.ARM.exidx*)
 .ARM.exidx     0x00000000080a60f0        0x8 /usr/lib/gcc/arm-none-eabi/6.3.1/thumb/v7e-m/fpv4-sp/hard/libgcc.a(_udivmoddi4.o)
                0x00000000080a60f8                __exidx_end = .
                0x00000000080a60f8                . = ALIGN (0x8)

.rel.dyn        0x00000000080a60f8        0x0
 .rel.iplt      0x00000000080a60f8        0x0 /usr/lib/gcc/arm-none-eabi/6.3.1/thumb/v7e-m/fpv4-sp/hard/crtbegin.o

.preinit_array  0x00000000080a60f8        0x0
                0x00000000080a60f8                . = ALIGN (0x8)
                0x00000000080a60f8                PROVIDE (__preinit_array_start, .)
 *(.preinit_array*)
                0x00000000080a60f8                PROVIDE (__preinit_array_end, .)
                0x00000000080a60f8                . = ALIGN (0x8)

.init_array     0x00000000080a60f8        0x8
                0x00000000080a60f8                . = ALIGN (0x8)
                0x00000000080a60f8                PROVIDE (__init_array_start, .)
 *(SORT(.init_array.*))
 .init_array.00000
                0x00000000080a60f8        0x4 /usr/lib/gcc/arm-none-eabi/6.3.1/../../../arm-none-eabi/lib/thumb/v7e-m/fpv4-sp/hard/libc.a(lib_a-__call_atexit.o)
 *(.init_array*)
 .init_array    0x00000000080a60fc        0x4 /usr/lib/gcc/arm-none-eabi/6.3.1/thumb/v7e-m/fpv4-sp/hard/crtbegin.o
                0x00000000080a6100                PROVIDE (__init_array_end, .)
                0x00000000080a6100                . = ALIGN (0x8)

.fini_array     0x00000000080a6100        0x8
                0x00000000080a6100                . = ALIGN (0x8)
                0x00000000080a6100                PROVIDE (__fini_array_start, .)
 *(SORT(.fini_array.*))
 *(.fini_array*)
 .fini_array    0x00000000080a6100        0x4 /usr/lib/gcc/arm-none-eabi/6.3.1/thumb/v7e-m/fpv4-sp/hard/crtbegin.o
                0x00000000080a6104                PROVIDE (__fini_array_end, .)
                0x00000000080a6108                . = ALIGN (0x8)
 *fill*         0x00000000080a6104        0x4 
                0x00000000080a6108                _sidata = LOADADDR (.data)

.data           0x0000000010000000      0x678 load address 0x00000000080a6108
                0x0000000010000000                . = ALIGN (0x8)
                0x0000000010000000                _sdata = .
 *(.data.sdb)
 *(.data)
 .data          0x0000000010000000        0x4 /usr/lib/gcc/arm-none-eabi/6.3.1/../../../arm-none-eabi/lib/thumb/v7e-m/fpv4-sp/hard/libc.a(lib_a-ctype_.o)
                0x0000000010000000                __ctype_ptr__
 *fill*         0x0000000010000004        0x4 
 .data          0x0000000010000008      0x430 /usr/lib/gcc/arm-none-eabi/6.3.1/../../../arm-none-eabi/lib/thumb/v7e-m/fpv4-sp/hard/libc.a(lib_a-impure.o)
                0x0000000010000008                _impure_ptr
 .data          0x0000000010000438       0x7c /usr/lib/gcc/arm-none-eabi/6.3.1/../../../arm-none-eabi/lib/thumb/v7e-m/fpv4-sp/hard/libc.a(lib_a-locale.o)
                0x0000000010000458                __mb_cur_max
 .data          0x00000000100004b4        0x4 /usr/lib/gcc/arm-none-eabi/6.3.1/../../../arm-none-eabi/lib/thumb/v7e-m/fpv4-sp/hard/libc.a(lib_a-wctomb_r.o)
                0x00000000100004b4                __wctomb
 .data          0x00000000100004b8        0x1 /usr/lib/gcc/arm-none-eabi/6.3.1/../../../arm-none-eabi/lib/thumb/v7e-m/fpv4-sp/hard/libm.a(lib_a-s_lib_ver.o)
                0x00000000100004b8                __fdlib_version
 *(.data*)
 *fill*         0x00000000100004b9        0x3 
 .data.ang_mode_ann
                0x00000000100004bc        0xc build/main.o
                0x00000000100004bc                ang_mode_ann
 .data.dotchar  0x00000000100004c8        0x1 build/main.o
                0x00000000100004c8                dotchar
 *fill*         0x00000000100004c9        0x3 
 .data.fm_disp  0x00000000100004cc       0x18 build/main.o
                0x00000000100004cc                fm_disp
 .data.reg_font_ix
                0x00000000100004e4        0x4 build/main.o
                0x00000000100004e4                reg_font_ix
 *fill*         0x00000000100004e8        0x8 
 .data.BID128_1
                0x00000000100004f0       0x10 lib/gcc111libbid_hard.a(bid128_atan.o)
 .data.BID128_10PM40
                0x0000000010000500       0x10 lib/gcc111libbid_hard.a(bid128_atan.o)
 .data.BID128_1
                0x0000000010000510       0x10 lib/gcc111libbid_hard.a(bid128_cos.o)
 .data.BID128_10PM40
                0x0000000010000520       0x10 lib/gcc111libbid_hard.a(bid128_cos.o)
 .data.BID128_10POWN6000
                0x0000000010000530       0x10 lib/gcc111libbid_hard.a(bid128_exp.o)
 .data.BID128_15000
                0x0000000010000540       0x10 lib/gcc111libbid_hard.a(bid128_exp.o)
 .data.BID128_EXP_11000
                0x0000000010000550       0x10 lib/gcc111libbid_hard.a(bid128_exp.o)
 .data.BID128_EXP_M11000
                0x0000000010000560       0x10 lib/gcc111libbid_hard.a(bid128_exp.o)
 .data.BID128_N15000
                0x0000000010000570       0x10 lib/gcc111libbid_hard.a(bid128_exp.o)
 .data.BID128_1
                0x0000000010000580       0x10 lib/gcc111libbid_hard.a(bid128_log.o)
 .data.BID128_10POW4464
                0x0000000010000590       0x10 lib/gcc111libbid_hard.a(bid128_log.o)
 .data.BID128_10POWN4464
                0x00000000100005a0       0x10 lib/gcc111libbid_hard.a(bid128_log.o)
 .data.BID128_1
                0x00000000100005b0       0x10 lib/gcc111libbid_hard.a(bid128_log10.o)
 .data.BID128_10POW4464
                0x00000000100005c0       0x10 lib/gcc111libbid_hard.a(bid128_log10.o)
 .data.BID128_10POWN4464
                0x00000000100005d0       0x10 lib/gcc111libbid_hard.a(bid128_log10.o)
 .data.BID128_1
                0x00000000100005e0       0x10 lib/gcc111libbid_hard.a(bid128_pow.o)
 .data.bid_coeff_2
                0x00000000100005f0       0x10 lib/gcc111libbid_hard.a(bid128_pow.o)
 .data.bid_coeff_3
                0x0000000010000600       0x10 lib/gcc111libbid_hard.a(bid128_pow.o)
 .data.bid_coeff_4
                0x0000000010000610       0x10 lib/gcc111libbid_hard.a(bid128_pow.o)
 .data.BID128_1
                0x0000000010000620       0x10 lib/gcc111libbid_hard.a(bid128_sin.o)
 .data.BID128_10PM40
                0x0000000010000630       0x10 lib/gcc111libbid_hard.a(bid128_sin.o)
 .data.BID128_10PP40
                0x0000000010000640       0x10 lib/gcc111libbid_hard.a(bid128_tan.o)
 .data.__bid_Inv_Tento9
                0x0000000010000650        0x8 lib/gcc111libbid_hard.a(bid128_2_str_tables.o)
                0x0000000010000650                __bid_Inv_Tento9
 .data.__bid_Tento3
                0x0000000010000658        0x4 lib/gcc111libbid_hard.a(bid128_2_str_tables.o)
                0x0000000010000658                __bid_Tento3
 .data.__bid_Tento6
                0x000000001000065c        0x4 lib/gcc111libbid_hard.a(bid128_2_str_tables.o)
                0x000000001000065c                __bid_Tento6
 .data.__bid_Tento9
                0x0000000010000660        0x4 lib/gcc111libbid_hard.a(bid128_2_str_tables.o)
                0x0000000010000660                __bid_Tento9
 *fill*         0x0000000010000664        0x4 
 .data.__bid_Twoto60
                0x0000000010000668        0x8 lib/gcc111libbid_hard.a(bid128_2_str_tables.o)
                0x0000000010000668                __bid_Twoto60
 .data.__bid_Twoto60_m_10to18
                0x0000000010000670        0x8 lib/gcc111libbid_hard.a(bid128_2_str_tables.o)
                0x0000000010000670                __bid_Twoto60_m_10to18
                0x0000000010000678                . = ALIGN (0x8)
                0x0000000010000678                _edata = .

.jcr            0x0000000010000678        0x0 load address 0x00000000080a6780
 .jcr           0x0000000010000678        0x0 /usr/lib/gcc/arm-none-eabi/6.3.1/thumb/v7e-m/fpv4-sp/hard/crtbegin.o

.tm_clone_table
                0x0000000010000678        0x0 load address 0x00000000080a6780
 .tm_clone_table
                0x0000000010000678        0x0 /usr/lib/gcc/arm-none-eabi/6.3.1/thumb/v7e-m/fpv4-sp/hard/crtbegin.o
 .tm_clone_table
                0x0000000010000678        0x0 /usr/lib/gcc/arm-none-eabi/6.3.1/thumb/v7e-m/fpv4-sp/hard/crtend.o

.igot.plt       0x0000000010000678        0x0 load address 0x00000000080a6780
 .igot.plt      0x0000000010000678        0x0 /usr/lib/gcc/arm-none-eabi/6.3.1/thumb/v7e-m/fpv4-sp/hard/crtbegin.o
                0x0000000010000678                . = ALIGN (0x4)

.bss            0x0000000010000680      0x808
                0x0000000010000680                _sbss = .
                0x0000000010000680                __bss_start__ = _sbss
 *(.bss)
 .bss           0x0000000010000680       0x1c /usr/lib/gcc/arm-none-eabi/6.3.1/thumb/v7e-m/fpv4-sp/hard/crtbegin.o
 *(.bss*)
 .bss.f_menu    0x000000001000069c        0x4 build/main.o
                0x000000001000069c                f_menu
 .bss.f_menu_fns
                0x00000000100006a0        0x4 build/main.o
                0x00000000100006a0                f_menu_fns
 .bss.__bid_IDEC_glbflags
                0x00000000100006a4        0x4 lib/gcc111libbid_hard.a(bid_decimal_globals.o)
                0x00000000100006a4                __bid_IDEC_glbflags
 .bss.__bid_IDEC_glbround
                0x00000000100006a8        0x4 lib/gcc111libbid_hard.a(bid_decimal_globals.o)
                0x00000000100006a8                __bid_IDEC_glbround
 *(COMMON)
 *fill*         0x00000000100006ac        0x4 
 COMMON         0x00000000100006b0      0x7d1 build/main.o
                0x00000000100006b0                num_180_pi
                0x00000000100006c0                num_pi
                0x00000000100006d0                num_10
                0x00000000100006e0                shift
                0x00000000100006f0                num_pi_180
                0x0000000010000700                stack
                0x00000000100007a0                edit
                0x00000000100007a1                fmt_mode_digits
                0x00000000100007a2                fmt_mode
                0x00000000100007b0                num_pi_200
                0x00000000100007c0                ed
                0x0000000010000800                num_200_pi
                0x0000000010000810                num_one
                0x0000000010000820                num_1_100
                0x0000000010000830                regs
                0x0000000010000e70                num_zero
                0x0000000010000e80                ang_mode
 *fill*         0x0000000010000e81        0x3 
 COMMON         0x0000000010000e84        0x4 /usr/lib/gcc/arm-none-eabi/6.3.1/../../../arm-none-eabi/lib/thumb/v7e-m/fpv4-sp/hard/libc.a(lib_a-reent.o)
                0x0000000010000e84                errno
                0x0000000010000e88                . = ALIGN (0x4)
                0x0000000010000e88                _ebss = .
                0x0000000010000e88                __bss_end__ = _ebss

/DISCARD/
 libc.a(*)
 libm.a(*)
 libgcc.a(*)

.ARM.attributes
                0x0000000000000000       0x30
 *(.ARM.attributes)
 .ARM.attributes
                0x0000000000000000       0x22 /usr/lib/gcc/arm-none-eabi/6.3.1/thumb/v7e-m/fpv4-sp/hard/crti.o
 .ARM.attributes
                0x0000000000000022       0x34 /usr/lib/gcc/arm-none-eabi/6.3.1/thumb/v7e-m/fpv4-sp/hard/crtbegin.o
 .ARM.attributes
                0x0000000000000056       0x34 build/pgm_syscalls.o
 .ARM.attributes
                0x000000000000008a       0x34 build/main.o
 .ARM.attributes
                0x00000000000000be       0x34 build/menu.o
 .ARM.attributes
                0x00000000000000f2       0x21 build/startup_pgm.o
 .ARM.attributes
                0x0000000000000113       0x34 lib/gcc111libbid_hard.a(bid128_acos.o)
 .ARM.attributes
                0x0000000000000147       0x34 lib/gcc111libbid_hard.a(bid128_asin.o)
 .ARM.attributes
                0x000000000000017b       0x34 lib/gcc111libbid_hard.a(bid128_atan.o)
 .ARM.attributes
                0x00000000000001af       0x34 lib/gcc111libbid_hard.a(bid128_cos.o)
 .ARM.attributes
                0x00000000000001e3       0x34 lib/gcc111libbid_hard.a(bid128_exp.o)
 .ARM.attributes
                0x0000000000000217       0x34 lib/gcc111libbid_hard.a(bid128_exp10.o)
 .ARM.attributes
                0x000000000000024b       0x34 lib/gcc111libbid_hard.a(bid128_log.o)
 .ARM.attributes
                0x000000000000027f       0x34 lib/gcc111libbid_hard.a(bid128_log10.o)
 .ARM.attributes
                0x00000000000002b3       0x34 lib/gcc111libbid_hard.a(bid128_pow.o)
 .ARM.attributes
                0x00000000000002e7       0x34 lib/gcc111libbid_hard.a(bid128_sin.o)
 .ARM.attributes
                0x000000000000031b       0x34 lib/gcc111libbid_hard.a(bid128_tan.o)
 .ARM.attributes
                0x000000000000034f       0x34 lib/gcc111libbid_hard.a(bid128_add.o)
 .ARM.attributes
                0x0000000000000383       0x34 lib/gcc111libbid_hard.a(bid128_compare.o)
 .ARM.attributes
                0x00000000000003b7       0x34 lib/gcc111libbid_hard.a(bid128_div.o)
 .ARM.attributes
                0x00000000000003eb       0x34 lib/gcc111libbid_hard.a(bid128_fma.o)
 .ARM.attributes
                0x000000000000041f       0x34 lib/gcc111libbid_hard.a(bid128_mul.o)
 .ARM.attributes
                0x0000000000000453       0x34 lib/gcc111libbid_hard.a(bid128_noncomp.o)
 .ARM.attributes
                0x0000000000000487       0x34 lib/gcc111libbid_hard.a(bid128_round_integral.o)
 .ARM.attributes
                0x00000000000004bb       0x34 lib/gcc111libbid_hard.a(bid128_sqrt.o)
 .ARM.attributes
                0x00000000000004ef       0x34 lib/gcc111libbid_hard.a(bid128_string.o)
 .ARM.attributes
                0x0000000000000523       0x34 lib/gcc111libbid_hard.a(bid128_to_int32.o)
 .ARM.attributes
                0x0000000000000557       0x34 lib/gcc111libbid_hard.a(bid64_to_bid128.o)
 .ARM.attributes
                0x000000000000058b       0x34 lib/gcc111libbid_hard.a(bid128_2_str_tables.o)
 .ARM.attributes
                0x00000000000005bf       0x34 lib/gcc111libbid_hard.a(bid_binarydecimal.o)
 .ARM.attributes
                0x00000000000005f3       0x34 lib/gcc111libbid_hard.a(bid_convert_data.o)
 .ARM.attributes
                0x0000000000000627       0x34 lib/gcc111libbid_hard.a(bid_decimal_data.o)
 .ARM.attributes
                0x000000000000065b       0x34 lib/gcc111libbid_hard.a(bid_decimal_globals.o)
 .ARM.attributes
                0x000000000000068f       0x34 lib/gcc111libbid_hard.a(bid_from_int.o)
 .ARM.attributes
                0x00000000000006c3       0x34 lib/gcc111libbid_hard.a(bid_round.o)
 .ARM.attributes
                0x00000000000006f7       0x34 lib/gcc111libbid_hard.a(bid128.o)
 .ARM.attributes
                0x000000000000072b       0x34 lib/gcc111libbid_hard.a(dpml_ux_bid.o)
 .ARM.attributes
                0x000000000000075f       0x34 lib/gcc111libbid_hard.a(dpml_ux_exp.o)
 .ARM.attributes
                0x0000000000000793       0x34 lib/gcc111libbid_hard.a(dpml_ux_inv_trig.o)
 .ARM.attributes
                0x00000000000007c7       0x34 lib/gcc111libbid_hard.a(dpml_ux_log.o)
 .ARM.attributes
                0x00000000000007fb       0x34 lib/gcc111libbid_hard.a(dpml_ux_sqrt.o)
 .ARM.attributes
                0x000000000000082f       0x34 lib/gcc111libbid_hard.a(dpml_ux_trig.o)
 .ARM.attributes
                0x0000000000000863       0x34 lib/gcc111libbid_hard.a(dpml_ux_ops.o)
 .ARM.attributes
                0x0000000000000897       0x34 lib/gcc111libbid_hard.a(dpml_ux_ops_64.o)
 .ARM.attributes
                0x00000000000008cb       0x34 lib/gcc111libbid_hard.a(dpml_four_over_pi.o)
 .ARM.attributes
                0x00000000000008ff       0x34 lib/gcc111libbid_hard.a(dpml_exception.o)
 .ARM.attributes
                0x0000000000000933       0x34 lib/gcc111libbid_hard.a(sqrt_tab_t.o)
 .ARM.attributes
                0x0000000000000967       0x22 /usr/lib/gcc/arm-none-eabi/6.3.1/thumb/v7e-m/fpv4-sp/hard/libgcc.a(_arm_addsubdf3.o)
 .ARM.attributes
                0x0000000000000989       0x22 /usr/lib/gcc/arm-none-eabi/6.3.1/thumb/v7e-m/fpv4-sp/hard/libgcc.a(_arm_muldivdf3.o)
 .ARM.attributes
                0x00000000000009ab       0x22 /usr/lib/gcc/arm-none-eabi/6.3.1/thumb/v7e-m/fpv4-sp/hard/libgcc.a(_arm_truncdfsf2.o)
 .ARM.attributes
                0x00000000000009cd       0x22 /usr/lib/gcc/arm-none-eabi/6.3.1/thumb/v7e-m/fpv4-sp/hard/libgcc.a(_arm_addsubsf3.o)
 .ARM.attributes
                0x00000000000009ef       0x22 /usr/lib/gcc/arm-none-eabi/6.3.1/thumb/v7e-m/fpv4-sp/hard/libgcc.a(_aeabi_uldivmod.o)
 .ARM.attributes
                0x0000000000000a11       0x34 /usr/lib/gcc/arm-none-eabi/6.3.1/thumb/v7e-m/fpv4-sp/hard/libgcc.a(_fixdfdi.o)
 .ARM.attributes
                0x0000000000000a45       0x34 /usr/lib/gcc/arm-none-eabi/6.3.1/thumb/v7e-m/fpv4-sp/hard/libgcc.a(_fixunsdfdi.o)
 .ARM.attributes
                0x0000000000000a79       0x34 /usr/lib/gcc/arm-none-eabi/6.3.1/thumb/v7e-m/fpv4-sp/hard/libgcc.a(_udivmoddi4.o)
 .ARM.attributes
                0x0000000000000aad       0x22 /usr/lib/gcc/arm-none-eabi/6.3.1/thumb/v7e-m/fpv4-sp/hard/libgcc.a(_dvmd_tls.o)
 .ARM.attributes
                0x0000000000000acf       0x22 /usr/lib/gcc/arm-none-eabi/6.3.1/thumb/v7e-m/fpv4-sp/hard/libgcc.a(_arm_cmpdf2.o)
 .ARM.attributes
                0x0000000000000af1       0x22 /usr/lib/gcc/arm-none-eabi/6.3.1/thumb/v7e-m/fpv4-sp/hard/libgcc.a(_arm_fixunsdfsi.o)
 .ARM.attributes
                0x0000000000000b13       0x34 /usr/lib/gcc/arm-none-eabi/6.3.1/../../../arm-none-eabi/lib/thumb/v7e-m/fpv4-sp/hard/libc.a(lib_a-atexit.o)
 .ARM.attributes
                0x0000000000000b47       0x34 /usr/lib/gcc/arm-none-eabi/6.3.1/../../../arm-none-eabi/lib/thumb/v7e-m/fpv4-sp/hard/libc.a(lib_a-atoi.o)
 .ARM.attributes
                0x0000000000000b7b       0x34 /usr/lib/gcc/arm-none-eabi/6.3.1/../../../arm-none-eabi/lib/thumb/v7e-m/fpv4-sp/hard/libc.a(lib_a-ctype_.o)
 .ARM.attributes
                0x0000000000000baf       0x34 /usr/lib/gcc/arm-none-eabi/6.3.1/../../../arm-none-eabi/lib/thumb/v7e-m/fpv4-sp/hard/libc.a(lib_a-errno.o)
 .ARM.attributes
                0x0000000000000be3       0x34 /usr/lib/gcc/arm-none-eabi/6.3.1/../../../arm-none-eabi/lib/thumb/v7e-m/fpv4-sp/hard/libc.a(lib_a-fini.o)
 .ARM.attributes
                0x0000000000000c17       0x34 /usr/lib/gcc/arm-none-eabi/6.3.1/../../../arm-none-eabi/lib/thumb/v7e-m/fpv4-sp/hard/libc.a(lib_a-impure.o)
 .ARM.attributes
                0x0000000000000c4b       0x34 /usr/lib/gcc/arm-none-eabi/6.3.1/../../../arm-none-eabi/lib/thumb/v7e-m/fpv4-sp/hard/libc.a(lib_a-init.o)
 .ARM.attributes
                0x0000000000000c7f       0x34 /usr/lib/gcc/arm-none-eabi/6.3.1/../../../arm-none-eabi/lib/thumb/v7e-m/fpv4-sp/hard/libc.a(lib_a-memmove.o)
 .ARM.attributes
                0x0000000000000cb3       0x34 /usr/lib/gcc/arm-none-eabi/6.3.1/../../../arm-none-eabi/lib/thumb/v7e-m/fpv4-sp/hard/libc.a(lib_a-memset.o)
 .ARM.attributes
                0x0000000000000ce7       0x34 /usr/lib/gcc/arm-none-eabi/6.3.1/../../../arm-none-eabi/lib/thumb/v7e-m/fpv4-sp/hard/libc.a(lib_a-printf.o)
 .ARM.attributes
                0x0000000000000d1b       0x34 /usr/lib/gcc/arm-none-eabi/6.3.1/../../../arm-none-eabi/lib/thumb/v7e-m/fpv4-sp/hard/libc.a(lib_a-signal.o)
 .ARM.attributes
                0x0000000000000d4f       0x34 /usr/lib/gcc/arm-none-eabi/6.3.1/../../../arm-none-eabi/lib/thumb/v7e-m/fpv4-sp/hard/libc.a(lib_a-signalr.o)
 .ARM.attributes
                0x0000000000000d83       0x34 /usr/lib/gcc/arm-none-eabi/6.3.1/../../../arm-none-eabi/lib/thumb/v7e-m/fpv4-sp/hard/libc.a(lib_a-sprintf.o)
 .ARM.attributes
                0x0000000000000db7       0x34 /usr/lib/gcc/arm-none-eabi/6.3.1/../../../arm-none-eabi/lib/thumb/v7e-m/fpv4-sp/hard/libc.a(lib_a-stpcpy.o)
 .ARM.attributes
                0x0000000000000deb       0x34 /usr/lib/gcc/arm-none-eabi/6.3.1/../../../arm-none-eabi/lib/thumb/v7e-m/fpv4-sp/hard/libc.a(lib_a-strcat.o)
 .ARM.attributes
                0x0000000000000e1f       0x34 /usr/lib/gcc/arm-none-eabi/6.3.1/../../../arm-none-eabi/lib/thumb/v7e-m/fpv4-sp/hard/libc.a(lib_a-strchr.o)
 .ARM.attributes
                0x0000000000000e53       0x34 /usr/lib/gcc/arm-none-eabi/6.3.1/../../../arm-none-eabi/lib/thumb/v7e-m/fpv4-sp/hard/libc.a(lib_a-strcpy.o)
 .ARM.attributes
                0x0000000000000e87       0x20 /usr/lib/gcc/arm-none-eabi/6.3.1/../../../arm-none-eabi/lib/thumb/v7e-m/fpv4-sp/hard/libc.a(lib_a-strlen.o)
 .ARM.attributes
                0x0000000000000ea7       0x34 /usr/lib/gcc/arm-none-eabi/6.3.1/../../../arm-none-eabi/lib/thumb/v7e-m/fpv4-sp/hard/libc.a(lib_a-strncat.o)
 .ARM.attributes
                0x0000000000000edb       0x34 /usr/lib/gcc/arm-none-eabi/6.3.1/../../../arm-none-eabi/lib/thumb/v7e-m/fpv4-sp/hard/libc.a(lib_a-strtol.o)
 .ARM.attributes
                0x0000000000000f0f       0x34 /usr/lib/gcc/arm-none-eabi/6.3.1/../../../arm-none-eabi/lib/thumb/v7e-m/fpv4-sp/hard/libc.a(lib_a-svfprintf.o)
 .ARM.attributes
                0x0000000000000f43       0x34 /usr/lib/gcc/arm-none-eabi/6.3.1/../../../arm-none-eabi/lib/thumb/v7e-m/fpv4-sp/hard/libc.a(lib_a-vfprintf.o)
 .ARM.attributes
                0x0000000000000f77       0x34 /usr/lib/gcc/arm-none-eabi/6.3.1/../../../arm-none-eabi/lib/thumb/v7e-m/fpv4-sp/hard/libc.a(lib_a-wsetup.o)
 .ARM.attributes
                0x0000000000000fab       0x34 /usr/lib/gcc/arm-none-eabi/6.3.1/../../../arm-none-eabi/lib/thumb/v7e-m/fpv4-sp/hard/libc.a(lib_a-__atexit.o)
 .ARM.attributes
                0x0000000000000fdf       0x34 /usr/lib/gcc/arm-none-eabi/6.3.1/../../../arm-none-eabi/lib/thumb/v7e-m/fpv4-sp/hard/libc.a(lib_a-__call_atexit.o)
 .ARM.attributes
                0x0000000000001013       0x34 /usr/lib/gcc/arm-none-eabi/6.3.1/../../../arm-none-eabi/lib/thumb/v7e-m/fpv4-sp/hard/libc.a(lib_a-dtoa.o)
 .ARM.attributes
                0x0000000000001047       0x34 /usr/lib/gcc/arm-none-eabi/6.3.1/../../../arm-none-eabi/lib/thumb/v7e-m/fpv4-sp/hard/libc.a(lib_a-fflush.o)
 .ARM.attributes
                0x000000000000107b       0x34 /usr/lib/gcc/arm-none-eabi/6.3.1/../../../arm-none-eabi/lib/thumb/v7e-m/fpv4-sp/hard/libc.a(lib_a-findfp.o)
 .ARM.attributes
                0x00000000000010af       0x34 /usr/lib/gcc/arm-none-eabi/6.3.1/../../../arm-none-eabi/lib/thumb/v7e-m/fpv4-sp/hard/libc.a(lib_a-fwalk.o)
 .ARM.attributes
                0x00000000000010e3       0x34 /usr/lib/gcc/arm-none-eabi/6.3.1/../../../arm-none-eabi/lib/thumb/v7e-m/fpv4-sp/hard/libc.a(lib_a-locale.o)
 .ARM.attributes
                0x0000000000001117       0x34 /usr/lib/gcc/arm-none-eabi/6.3.1/../../../arm-none-eabi/lib/thumb/v7e-m/fpv4-sp/hard/libc.a(lib_a-makebuf.o)
 .ARM.attributes
                0x000000000000114b       0x20 /usr/lib/gcc/arm-none-eabi/6.3.1/../../../arm-none-eabi/lib/thumb/v7e-m/fpv4-sp/hard/libc.a(lib_a-memchr.o)
 .ARM.attributes
                0x000000000000116b       0x20 /usr/lib/gcc/arm-none-eabi/6.3.1/../../../arm-none-eabi/lib/thumb/v7e-m/fpv4-sp/hard/libc.a(lib_a-memcpy.o)
 .ARM.attributes
                0x000000000000118b       0x34 /usr/lib/gcc/arm-none-eabi/6.3.1/../../../arm-none-eabi/lib/thumb/v7e-m/fpv4-sp/hard/libc.a(lib_a-mprec.o)
 .ARM.attributes
                0x00000000000011bf       0x34 /usr/lib/gcc/arm-none-eabi/6.3.1/../../../arm-none-eabi/lib/thumb/v7e-m/fpv4-sp/hard/libc.a(lib_a-reent.o)
 .ARM.attributes
                0x00000000000011f3       0x34 /usr/lib/gcc/arm-none-eabi/6.3.1/../../../arm-none-eabi/lib/thumb/v7e-m/fpv4-sp/hard/libc.a(lib_a-stdio.o)
 .ARM.attributes
                0x0000000000001227       0x20 /usr/lib/gcc/arm-none-eabi/6.3.1/../../../arm-none-eabi/lib/thumb/v7e-m/fpv4-sp/hard/libc.a(lib_a-strcmp.o)
 .ARM.attributes
                0x0000000000001247       0x34 /usr/lib/gcc/arm-none-eabi/6.3.1/../../../arm-none-eabi/lib/thumb/v7e-m/fpv4-sp/hard/libc.a(lib_a-svfiprintf.o)
 .ARM.attributes
                0x000000000000127b       0x34 /usr/lib/gcc/arm-none-eabi/6.3.1/../../../arm-none-eabi/lib/thumb/v7e-m/fpv4-sp/hard/libc.a(lib_a-vfiprintf.o)
 .ARM.attributes
                0x00000000000012af       0x34 /usr/lib/gcc/arm-none-eabi/6.3.1/../../../arm-none-eabi/lib/thumb/v7e-m/fpv4-sp/hard/libc.a(lib_a-writer.o)
 .ARM.attributes
                0x00000000000012e3       0x34 /usr/lib/gcc/arm-none-eabi/6.3.1/../../../arm-none-eabi/lib/thumb/v7e-m/fpv4-sp/hard/libc.a(lib_a-closer.o)
 .ARM.attributes
                0x0000000000001317       0x34 /usr/lib/gcc/arm-none-eabi/6.3.1/../../../arm-none-eabi/lib/thumb/v7e-m/fpv4-sp/hard/libc.a(lib_a-fclose.o)
 .ARM.attributes
                0x000000000000134b       0x34 /usr/lib/gcc/arm-none-eabi/6.3.1/../../../arm-none-eabi/lib/thumb/v7e-m/fpv4-sp/hard/libc.a(lib_a-fputwc.o)
 .ARM.attributes
                0x000000000000137f       0x34 /usr/lib/gcc/arm-none-eabi/6.3.1/../../../arm-none-eabi/lib/thumb/v7e-m/fpv4-sp/hard/libc.a(lib_a-fstatr.o)
 .ARM.attributes
                0x00000000000013b3       0x34 /usr/lib/gcc/arm-none-eabi/6.3.1/../../../arm-none-eabi/lib/thumb/v7e-m/fpv4-sp/hard/libc.a(lib_a-fvwrite.o)
 .ARM.attributes
                0x00000000000013e7       0x34 /usr/lib/gcc/arm-none-eabi/6.3.1/../../../arm-none-eabi/lib/thumb/v7e-m/fpv4-sp/hard/libc.a(lib_a-isattyr.o)
 .ARM.attributes
                0x000000000000141b       0x34 /usr/lib/gcc/arm-none-eabi/6.3.1/../../../arm-none-eabi/lib/thumb/v7e-m/fpv4-sp/hard/libc.a(lib_a-lseekr.o)
 .ARM.attributes
                0x000000000000144f       0x34 /usr/lib/gcc/arm-none-eabi/6.3.1/../../../arm-none-eabi/lib/thumb/v7e-m/fpv4-sp/hard/libc.a(lib_a-readr.o)
 .ARM.attributes
                0x0000000000001483       0x34 /usr/lib/gcc/arm-none-eabi/6.3.1/../../../arm-none-eabi/lib/thumb/v7e-m/fpv4-sp/hard/libc.a(lib_a-wbuf.o)
 .ARM.attributes
                0x00000000000014b7       0x34 /usr/lib/gcc/arm-none-eabi/6.3.1/../../../arm-none-eabi/lib/thumb/v7e-m/fpv4-sp/hard/libc.a(lib_a-wcrtomb.o)
 .ARM.attributes
                0x00000000000014eb       0x34 /usr/lib/gcc/arm-none-eabi/6.3.1/../../../arm-none-eabi/lib/thumb/v7e-m/fpv4-sp/hard/libc.a(lib_a-wctomb_r.o)
 .ARM.attributes
                0x000000000000151f       0x22 /usr/lib/gcc/arm-none-eabi/6.3.1/thumb/v7e-m/fpv4-sp/hard/libgcc.a(_arm_unorddf2.o)
 .ARM.attributes
                0x0000000000001541       0x22 /usr/lib/gcc/arm-none-eabi/6.3.1/thumb/v7e-m/fpv4-sp/hard/libgcc.a(_arm_fixdfsi.o)
 .ARM.attributes
                0x0000000000001563       0x34 /usr/lib/gcc/arm-none-eabi/6.3.1/thumb/v7e-m/fpv4-sp/hard/crtend.o
 .ARM.attributes
                0x0000000000001597       0x22 /usr/lib/gcc/arm-none-eabi/6.3.1/thumb/v7e-m/fpv4-sp/hard/crtn.o
OUTPUT(build/SDKdemo.elf elf32-littlearm)

.comment        0x0000000000000000       0xb0
 .comment       0x0000000000000000       0x31 /usr/lib/gcc/arm-none-eabi/6.3.1/thumb/v7e-m/fpv4-sp/hard/crtbegin.o
                                         0x32 (size before relaxing)
 .comment       0x0000000000000031       0x32 build/pgm_syscalls.o
 .comment       0x0000000000000031       0x32 build/main.o
 .comment       0x0000000000000031       0x32 build/menu.o
 .comment       0x0000000000000031       0x7f lib/gcc111libbid_hard.a(bid128_acos.o)
                                         0x80 (size before relaxing)
 .comment       0x00000000000000b0       0x80 lib/gcc111libbid_hard.a(bid128_asin.o)
 .comment       0x00000000000000b0       0x80 lib/gcc111libbid_hard.a(bid128_atan.o)
 .comment       0x00000000000000b0       0x80 lib/gcc111libbid_hard.a(bid128_cos.o)
 .comment       0x00000000000000b0       0x80 lib/gcc111libbid_hard.a(bid128_exp.o)
 .comment       0x00000000000000b0       0x80 lib/gcc111libbid_hard.a(bid128_exp10.o)
 .comment       0x00000000000000b0       0x80 lib/gcc111libbid_hard.a(bid128_log.o)
 .comment       0x00000000000000b0       0x80 lib/gcc111libbid_hard.a(bid128_log10.o)
 .comment       0x00000000000000b0       0x80 lib/gcc111libbid_hard.a(bid128_pow.o)
 .comment       0x00000000000000b0       0x80 lib/gcc111libbid_hard.a(bid128_sin.o)
 .comment       0x00000000000000b0       0x80 lib/gcc111libbid_hard.a(bid128_tan.o)
 .comment       0x00000000000000b0       0x80 lib/gcc111libbid_hard.a(bid128_add.o)
 .comment       0x00000000000000b0       0x80 lib/gcc111libbid_hard.a(bid128_compare.o)
 .comment       0x00000000000000b0       0x80 lib/gcc111libbid_hard.a(bid128_div.o)
 .comment       0x00000000000000b0       0x80 lib/gcc111libbid_hard.a(bid128_fma.o)
 .comment       0x00000000000000b0       0x80 lib/gcc111libbid_hard.a(bid128_mul.o)
 .comment       0x00000000000000b0       0x80 lib/gcc111libbid_hard.a(bid128_noncomp.o)
 .comment       0x00000000000000b0       0x80 lib/gcc111libbid_hard.a(bid128_round_integral.o)
 .comment       0x00000000000000b0       0x80 lib/gcc111libbid_hard.a(bid128_sqrt.o)
 .comment       0x00000000000000b0       0x80 lib/gcc111libbid_hard.a(bid128_string.o)
 .comment       0x00000000000000b0       0x80 lib/gcc111libbid_hard.a(bid128_to_int32.o)
 .comment       0x00000000000000b0       0x80 lib/gcc111libbid_hard.a(bid64_to_bid128.o)
 .comment       0x00000000000000b0       0x80 lib/gcc111libbid_hard.a(bid128_2_str_tables.o)
 .comment       0x00000000000000b0       0x80 lib/gcc111libbid_hard.a(bid_binarydecimal.o)
 .comment       0x00000000000000b0       0x80 lib/gcc111libbid_hard.a(bid_convert_data.o)
 .comment       0x00000000000000b0       0x80 lib/gcc111libbid_hard.a(bid_decimal_data.o)
 .comment       0x00000000000000b0       0x80 lib/gcc111libbid_hard.a(bid_decimal_globals.o)
 .comment       0x00000000000000b0       0x80 lib/gcc111libbid_hard.a(bid_from_int.o)
 .comment       0x00000000000000b0       0x80 lib/gcc111libbid_hard.a(bid_round.o)
 .comment       0x00000000000000b0       0x80 lib/gcc111libbid_hard.a(bid128.o)
 .comment       0x00000000000000b0       0x80 lib/gcc111libbid_hard.a(dpml_ux_bid.o)
 .comment       0x00000000000000b0       0x80 lib/gcc111libbid_hard.a(dpml_ux_exp.o)
 .comment       0x00000000000000b0       0x80 lib/gcc111libbid_hard.a(dpml_ux_inv_trig.o)
 .comment       0x00000000000000b0       0x80 lib/gcc111libbid_hard.a(dpml_ux_log.o)
 .comment       0x00000000000000b0       0x80 lib/gcc111libbid_hard.a(dpml_ux_sqrt.o)
 .comment       0x00000000000000b0       0x80 lib/gcc111libbid_hard.a(dpml_ux_trig.o)
 .comment       0x00000000000000b0       0x80 lib/gcc111libbid_hard.a(dpml_ux_ops.o)
 .comment       0x00000000000000b0       0x80 lib/gcc111libbid_hard.a(dpml_ux_ops_64.o)
 .comment       0x00000000000000b0       0x80 lib/gcc111libbid_hard.a(dpml_four_over_pi.o)
 .comment       0x00000000000000b0       0x80 lib/gcc111libbid_hard.a(dpml_exception.o)
 .comment       0x00000000000000b0       0x80 lib/gcc111libbid_hard.a(sqrt_tab_t.o)
 .comment       0x00000000000000b0       0x32 /usr/lib/gcc/arm-none-eabi/6.3.1/thumb/v7e-m/fpv4-sp/hard/libgcc.a(_fixdfdi.o)
 .comment       0x00000000000000b0       0x32 /usr/lib/gcc/arm-none-eabi/6.3.1/thumb/v7e-m/fpv4-sp/hard/libgcc.a(_fixunsdfdi.o)
 .comment       0x00000000000000b0       0x32 /usr/lib/gcc/arm-none-eabi/6.3.1/thumb/v7e-m/fpv4-sp/hard/libgcc.a(_udivmoddi4.o)
 .comment       0x00000000000000b0       0x32 /usr/lib/gcc/arm-none-eabi/6.3.1/../../../arm-none-eabi/lib/thumb/v7e-m/fpv4-sp/hard/libc.a(lib_a-atexit.o)
 .comment       0x00000000000000b0       0x32 /usr/lib/gcc/arm-none-eabi/6.3.1/../../../arm-none-eabi/lib/thumb/v7e-m/fpv4-sp/hard/libc.a(lib_a-atoi.o)
 .comment       0x00000000000000b0       0x32 /usr/lib/gcc/arm-none-eabi/6.3.1/../../../arm-none-eabi/lib/thumb/v7e-m/fpv4-sp/hard/libc.a(lib_a-ctype_.o)
 .comment       0x00000000000000b0       0x32 /usr/lib/gcc/arm-none-eabi/6.3.1/../../../arm-none-eabi/lib/thumb/v7e-m/fpv4-sp/hard/libc.a(lib_a-errno.o)
 .comment       0x00000000000000b0       0x32 /usr/lib/gcc/arm-none-eabi/6.3.1/../../../arm-none-eabi/lib/thumb/v7e-m/fpv4-sp/hard/libc.a(lib_a-fini.o)
 .comment       0x00000000000000b0       0x32 /usr/lib/gcc/arm-none-eabi/6.3.1/../../../arm-none-eabi/lib/thumb/v7e-m/fpv4-sp/hard/libc.a(lib_a-impure.o)
 .comment       0x00000000000000b0       0x32 /usr/lib/gcc/arm-none-eabi/6.3.1/../../../arm-none-eabi/lib/thumb/v7e-m/fpv4-sp/hard/libc.a(lib_a-init.o)
 .comment       0x00000000000000b0       0x32 /usr/lib/gcc/arm-none-eabi/6.3.1/../../../arm-none-eabi/lib/thumb/v7e-m/fpv4-sp/hard/libc.a(lib_a-memmove.o)
 .comment       0x00000000000000b0       0x32 /usr/lib/gcc/arm-none-eabi/6.3.1/../../../arm-none-eabi/lib/thumb/v7e-m/fpv4-sp/hard/libc.a(lib_a-memset.o)
 .comment       0x00000000000000b0       0x32 /usr/lib/gcc/arm-none-eabi/6.3.1/../../../arm-none-eabi/lib/thumb/v7e-m/fpv4-sp/hard/libc.a(lib_a-printf.o)
 .comment       0x00000000000000b0       0x32 /usr/lib/gcc/arm-none-eabi/6.3.1/../../../arm-none-eabi/lib/thumb/v7e-m/fpv4-sp/hard/libc.a(lib_a-signal.o)
 .comment       0x00000000000000b0       0x32 /usr/lib/gcc/arm-none-eabi/6.3.1/../../../arm-none-eabi/lib/thumb/v7e-m/fpv4-sp/hard/libc.a(lib_a-signalr.o)
 .comment       0x00000000000000b0       0x32 /usr/lib/gcc/arm-none-eabi/6.3.1/../../../arm-none-eabi/lib/thumb/v7e-m/fpv4-sp/hard/libc.a(lib_a-sprintf.o)
 .comment       0x00000000000000b0       0x32 /usr/lib/gcc/arm-none-eabi/6.3.1/../../../arm-none-eabi/lib/thumb/v7e-m/fpv4-sp/hard/libc.a(lib_a-stpcpy.o)
 .comment       0x00000000000000b0       0x32 /usr/lib/gcc/arm-none-eabi/6.3.1/../../../arm-none-eabi/lib/thumb/v7e-m/fpv4-sp/hard/libc.a(lib_a-strcat.o)
 .comment       0x00000000000000b0       0x32 /usr/lib/gcc/arm-none-eabi/6.3.1/../../../arm-none-eabi/lib/thumb/v7e-m/fpv4-sp/hard/libc.a(lib_a-strchr.o)
 .comment       0x00000000000000b0       0x32 /usr/lib/gcc/arm-none-eabi/6.3.1/../../../arm-none-eabi/lib/thumb/v7e-m/fpv4-sp/hard/libc.a(lib_a-strcpy.o)
 .comment       0x00000000000000b0       0x32 /usr/lib/gcc/arm-none-eabi/6.3.1/../../../arm-none-eabi/lib/thumb/v7e-m/fpv4-sp/hard/libc.a(lib_a-strncat.o)
 .comment       0x00000000000000b0       0x32 /usr/lib/gcc/arm-none-eabi/6.3.1/../../../arm-none-eabi/lib/thumb/v7e-m/fpv4-sp/hard/libc.a(lib_a-strtol.o)
 .comment       0x00000000000000b0       0x32 /usr/lib/gcc/arm-none-eabi/6.3.1/../../../arm-none-eabi/lib/thumb/v7e-m/fpv4-sp/hard/libc.a(lib_a-svfprintf.o)
 .comment       0x00000000000000b0       0x32 /usr/lib/gcc/arm-none-eabi/6.3.1/../../../arm-none-eabi/lib/thumb/v7e-m/fpv4-sp/hard/libc.a(lib_a-vfprintf.o)
 .comment       0x00000000000000b0       0x32 /usr/lib/gcc/arm-none-eabi/6.3.1/../../../arm-none-eabi/lib/thumb/v7e-m/fpv4-sp/hard/libc.a(lib_a-wsetup.o)
 .comment       0x00000000000000b0       0x32 /usr/lib/gcc/arm-none-eabi/6.3.1/../../../arm-none-eabi/lib/thumb/v7e-m/fpv4-sp/hard/libc.a(lib_a-__atexit.o)
 .comment       0x00000000000000b0       0x32 /usr/lib/gcc/arm-none-eabi/6.3.1/../../../arm-none-eabi/lib/thumb/v7e-m/fpv4-sp/hard/libc.a(lib_a-__call_atexit.o)
 .comment       0x00000000000000b0       0x32 /usr/lib/gcc/arm-none-eabi/6.3.1/../../../arm-none-eabi/lib/thumb/v7e-m/fpv4-sp/hard/libc.a(lib_a-dtoa.o)
 .comment       0x00000000000000b0       0x32 /usr/lib/gcc/arm-none-eabi/6.3.1/../../../arm-none-eabi/lib/thumb/v7e-m/fpv4-sp/hard/libc.a(lib_a-fflush.o)
 .comment       0x00000000000000b0       0x32 /usr/lib/gcc/arm-none-eabi/6.3.1/../../../arm-none-eabi/lib/thumb/v7e-m/fpv4-sp/hard/libc.a(lib_a-findfp.o)
 .comment       0x00000000000000b0       0x32 /usr/lib/gcc/arm-none-eabi/6.3.1/../../../arm-none-eabi/lib/thumb/v7e-m/fpv4-sp/hard/libc.a(lib_a-fwalk.o)
 .comment       0x00000000000000b0       0x32 /usr/lib/gcc/arm-none-eabi/6.3.1/../../../arm-none-eabi/lib/thumb/v7e-m/fpv4-sp/hard/libc.a(lib_a-locale.o)
 .comment       0x00000000000000b0       0x32 /usr/lib/gcc/arm-none-eabi/6.3.1/../../../arm-none-eabi/lib/thumb/v7e-m/fpv4-sp/hard/libc.a(lib_a-makebuf.o)
 .comment       0x00000000000000b0       0x32 /usr/lib/gcc/arm-none-eabi/6.3.1/../../../arm-none-eabi/lib/thumb/v7e-m/fpv4-sp/hard/libc.a(lib_a-mprec.o)
 .comment       0x00000000000000b0       0x32 /usr/lib/gcc/arm-none-eabi/6.3.1/../../../arm-none-eabi/lib/thumb/v7e-m/fpv4-sp/hard/libc.a(lib_a-reent.o)
 .comment       0x00000000000000b0       0x32 /usr/lib/gcc/arm-none-eabi/6.3.1/../../../arm-none-eabi/lib/thumb/v7e-m/fpv4-sp/hard/libc.a(lib_a-stdio.o)
 .comment       0x00000000000000b0       0x32 /usr/lib/gcc/arm-none-eabi/6.3.1/../../../arm-none-eabi/lib/thumb/v7e-m/fpv4-sp/hard/libc.a(lib_a-svfiprintf.o)
 .comment       0x00000000000000b0       0x32 /usr/lib/gcc/arm-none-eabi/6.3.1/../../../arm-none-eabi/lib/thumb/v7e-m/fpv4-sp/hard/libc.a(lib_a-vfiprintf.o)
 .comment       0x00000000000000b0       0x32 /usr/lib/gcc/arm-none-eabi/6.3.1/../../../arm-none-eabi/lib/thumb/v7e-m/fpv4-sp/hard/libc.a(lib_a-writer.o)
 .comment       0x00000000000000b0       0x32 /usr/lib/gcc/arm-none-eabi/6.3.1/../../../arm-none-eabi/lib/thumb/v7e-m/fpv4-sp/hard/libc.a(lib_a-closer.o)
 .comment       0x00000000000000b0       0x32 /usr/lib/gcc/arm-none-eabi/6.3.1/../../../arm-none-eabi/lib/thumb/v7e-m/fpv4-sp/hard/libc.a(lib_a-fclose.o)
 .comment       0x00000000000000b0       0x32 /usr/lib/gcc/arm-none-eabi/6.3.1/../../../arm-none-eabi/lib/thumb/v7e-m/fpv4-sp/hard/libc.a(lib_a-fputwc.o)
 .comment       0x00000000000000b0       0x32 /usr/lib/gcc/arm-none-eabi/6.3.1/../../../arm-none-eabi/lib/thumb/v7e-m/fpv4-sp/hard/libc.a(lib_a-fstatr.o)
 .comment       0x00000000000000b0       0x32 /usr/lib/gcc/arm-none-eabi/6.3.1/../../../arm-none-eabi/lib/thumb/v7e-m/fpv4-sp/hard/libc.a(lib_a-fvwrite.o)
 .comment       0x00000000000000b0       0x32 /usr/lib/gcc/arm-none-eabi/6.3.1/../../../arm-none-eabi/lib/thumb/v7e-m/fpv4-sp/hard/libc.a(lib_a-isattyr.o)
 .comment       0x00000000000000b0       0x32 /usr/lib/gcc/arm-none-eabi/6.3.1/../../../arm-none-eabi/lib/thumb/v7e-m/fpv4-sp/hard/libc.a(lib_a-lseekr.o)
 .comment       0x00000000000000b0       0x32 /usr/lib/gcc/arm-none-eabi/6.3.1/../../../arm-none-eabi/lib/thumb/v7e-m/fpv4-sp/hard/libc.a(lib_a-readr.o)
 .comment       0x00000000000000b0       0x32 /usr/lib/gcc/arm-none-eabi/6.3.1/../../../arm-none-eabi/lib/thumb/v7e-m/fpv4-sp/hard/libc.a(lib_a-wbuf.o)
 .comment       0x00000000000000b0       0x32 /usr/lib/gcc/arm-none-eabi/6.3.1/../../../arm-none-eabi/lib/thumb/v7e-m/fpv4-sp/hard/libc.a(lib_a-wcrtomb.o)
 .comment       0x00000000000000b0       0x32 /usr/lib/gcc/arm-none-eabi/6.3.1/../../../arm-none-eabi/lib/thumb/v7e-m/fpv4-sp/hard/libc.a(lib_a-wctomb_r.o)
 .comment       0x00000000000000b0       0x32 /usr/lib/gcc/arm-none-eabi/6.3.1/thumb/v7e-m/fpv4-sp/hard/crtend.o

.debug_info     0x0000000000000000    0x29d48
 .debug_info    0x0000000000000000     0x11c2 build/pgm_syscalls.o
 .debug_info    0x00000000000011c2     0x3017 build/main.o
 .debug_info    0x00000000000041d9     0x105e build/menu.o
 .debug_info    0x0000000000005237       0x62 build/startup_pgm.o
 .debug_info    0x0000000000005299       0xd4 /usr/lib/gcc/arm-none-eabi/6.3.1/thumb/v7e-m/fpv4-sp/hard/libgcc.a(_arm_addsubdf3.o)
 .debug_info    0x000000000000536d       0xd4 /usr/lib/gcc/arm-none-eabi/6.3.1/thumb/v7e-m/fpv4-sp/hard/libgcc.a(_arm_muldivdf3.o)
 .debug_info    0x0000000000005441       0xd4 /usr/lib/gcc/arm-none-eabi/6.3.1/thumb/v7e-m/fpv4-sp/hard/libgcc.a(_arm_truncdfsf2.o)
 .debug_info    0x0000000000005515       0xd4 /usr/lib/gcc/arm-none-eabi/6.3.1/thumb/v7e-m/fpv4-sp/hard/libgcc.a(_arm_addsubsf3.o)
 .debug_info    0x00000000000055e9       0xcf /usr/lib/gcc/arm-none-eabi/6.3.1/thumb/v7e-m/fpv4-sp/hard/libgcc.a(_aeabi_uldivmod.o)
 .debug_info    0x00000000000056b8      0x8e0 /usr/lib/gcc/arm-none-eabi/6.3.1/thumb/v7e-m/fpv4-sp/hard/libgcc.a(_fixdfdi.o)
 .debug_info    0x0000000000005f98      0x8e9 /usr/lib/gcc/arm-none-eabi/6.3.1/thumb/v7e-m/fpv4-sp/hard/libgcc.a(_fixunsdfdi.o)
 .debug_info    0x0000000000006881      0xc24 /usr/lib/gcc/arm-none-eabi/6.3.1/thumb/v7e-m/fpv4-sp/hard/libgcc.a(_udivmoddi4.o)
 .debug_info    0x00000000000074a5       0xd3 /usr/lib/gcc/arm-none-eabi/6.3.1/thumb/v7e-m/fpv4-sp/hard/libgcc.a(_dvmd_tls.o)
 .debug_info    0x0000000000007578       0xd4 /usr/lib/gcc/arm-none-eabi/6.3.1/thumb/v7e-m/fpv4-sp/hard/libgcc.a(_arm_cmpdf2.o)
 .debug_info    0x000000000000764c       0xd4 /usr/lib/gcc/arm-none-eabi/6.3.1/thumb/v7e-m/fpv4-sp/hard/libgcc.a(_arm_fixunsdfsi.o)
 .debug_info    0x0000000000007720      0x907 /usr/lib/gcc/arm-none-eabi/6.3.1/../../../arm-none-eabi/lib/thumb/v7e-m/fpv4-sp/hard/libc.a(lib_a-atexit.o)
 .debug_info    0x0000000000008027      0x941 /usr/lib/gcc/arm-none-eabi/6.3.1/../../../arm-none-eabi/lib/thumb/v7e-m/fpv4-sp/hard/libc.a(lib_a-atoi.o)
 .debug_info    0x0000000000008968       0xc0 /usr/lib/gcc/arm-none-eabi/6.3.1/../../../arm-none-eabi/lib/thumb/v7e-m/fpv4-sp/hard/libc.a(lib_a-ctype_.o)
 .debug_info    0x0000000000008a28      0x8cc /usr/lib/gcc/arm-none-eabi/6.3.1/../../../arm-none-eabi/lib/thumb/v7e-m/fpv4-sp/hard/libc.a(lib_a-errno.o)
 .debug_info    0x00000000000092f4       0xfa /usr/lib/gcc/arm-none-eabi/6.3.1/../../../arm-none-eabi/lib/thumb/v7e-m/fpv4-sp/hard/libc.a(lib_a-fini.o)
 .debug_info    0x00000000000093ee      0x8a5 /usr/lib/gcc/arm-none-eabi/6.3.1/../../../arm-none-eabi/lib/thumb/v7e-m/fpv4-sp/hard/libc.a(lib_a-impure.o)
 .debug_info    0x0000000000009c93      0x110 /usr/lib/gcc/arm-none-eabi/6.3.1/../../../arm-none-eabi/lib/thumb/v7e-m/fpv4-sp/hard/libc.a(lib_a-init.o)
 .debug_info    0x0000000000009da3      0x92a /usr/lib/gcc/arm-none-eabi/6.3.1/../../../arm-none-eabi/lib/thumb/v7e-m/fpv4-sp/hard/libc.a(lib_a-memmove.o)
 .debug_info    0x000000000000a6cd      0x91b /usr/lib/gcc/arm-none-eabi/6.3.1/../../../arm-none-eabi/lib/thumb/v7e-m/fpv4-sp/hard/libc.a(lib_a-memset.o)
 .debug_info    0x000000000000afe8      0xb7d /usr/lib/gcc/arm-none-eabi/6.3.1/../../../arm-none-eabi/lib/thumb/v7e-m/fpv4-sp/hard/libc.a(lib_a-printf.o)
 .debug_info    0x000000000000bb65      0xc44 /usr/lib/gcc/arm-none-eabi/6.3.1/../../../arm-none-eabi/lib/thumb/v7e-m/fpv4-sp/hard/libc.a(lib_a-signal.o)
 .debug_info    0x000000000000c7a9      0x9c0 /usr/lib/gcc/arm-none-eabi/6.3.1/../../../arm-none-eabi/lib/thumb/v7e-m/fpv4-sp/hard/libc.a(lib_a-signalr.o)
 .debug_info    0x000000000000d169      0xbd0 /usr/lib/gcc/arm-none-eabi/6.3.1/../../../arm-none-eabi/lib/thumb/v7e-m/fpv4-sp/hard/libc.a(lib_a-sprintf.o)
 .debug_info    0x000000000000dd39      0x8f7 /usr/lib/gcc/arm-none-eabi/6.3.1/../../../arm-none-eabi/lib/thumb/v7e-m/fpv4-sp/hard/libc.a(lib_a-stpcpy.o)
 .debug_info    0x000000000000e630      0x90a /usr/lib/gcc/arm-none-eabi/6.3.1/../../../arm-none-eabi/lib/thumb/v7e-m/fpv4-sp/hard/libc.a(lib_a-strcat.o)
 .debug_info    0x000000000000ef3a      0x911 /usr/lib/gcc/arm-none-eabi/6.3.1/../../../arm-none-eabi/lib/thumb/v7e-m/fpv4-sp/hard/libc.a(lib_a-strchr.o)
 .debug_info    0x000000000000f84b      0x8b8 /usr/lib/gcc/arm-none-eabi/6.3.1/../../../arm-none-eabi/lib/thumb/v7e-m/fpv4-sp/hard/libc.a(lib_a-strcpy.o)
 .debug_info    0x0000000000010103       0xdb /usr/lib/gcc/arm-none-eabi/6.3.1/../../../arm-none-eabi/lib/thumb/v7e-m/fpv4-sp/hard/libc.a(lib_a-strlen.o)
 .debug_info    0x00000000000101de      0x908 /usr/lib/gcc/arm-none-eabi/6.3.1/../../../arm-none-eabi/lib/thumb/v7e-m/fpv4-sp/hard/libc.a(lib_a-strncat.o)
 .debug_info    0x0000000000010ae6      0xa19 /usr/lib/gcc/arm-none-eabi/6.3.1/../../../arm-none-eabi/lib/thumb/v7e-m/fpv4-sp/hard/libc.a(lib_a-strtol.o)
 .debug_info    0x00000000000114ff     0x1857 /usr/lib/gcc/arm-none-eabi/6.3.1/../../../arm-none-eabi/lib/thumb/v7e-m/fpv4-sp/hard/libc.a(lib_a-svfprintf.o)
 .debug_info    0x0000000000012d56     0x19fc /usr/lib/gcc/arm-none-eabi/6.3.1/../../../arm-none-eabi/lib/thumb/v7e-m/fpv4-sp/hard/libc.a(lib_a-vfprintf.o)
 .debug_info    0x0000000000014752      0xb46 /usr/lib/gcc/arm-none-eabi/6.3.1/../../../arm-none-eabi/lib/thumb/v7e-m/fpv4-sp/hard/libc.a(lib_a-wsetup.o)
 .debug_info    0x0000000000015298      0x950 /usr/lib/gcc/arm-none-eabi/6.3.1/../../../arm-none-eabi/lib/thumb/v7e-m/fpv4-sp/hard/libc.a(lib_a-__atexit.o)
 .debug_info    0x0000000000015be8      0x9bc /usr/lib/gcc/arm-none-eabi/6.3.1/../../../arm-none-eabi/lib/thumb/v7e-m/fpv4-sp/hard/libc.a(lib_a-__call_atexit.o)
 .debug_info    0x00000000000165a4     0x1318 /usr/lib/gcc/arm-none-eabi/6.3.1/../../../arm-none-eabi/lib/thumb/v7e-m/fpv4-sp/hard/libc.a(lib_a-dtoa.o)
 .debug_info    0x00000000000178bc      0xc8f /usr/lib/gcc/arm-none-eabi/6.3.1/../../../arm-none-eabi/lib/thumb/v7e-m/fpv4-sp/hard/libc.a(lib_a-fflush.o)
 .debug_info    0x000000000001854b      0xf99 /usr/lib/gcc/arm-none-eabi/6.3.1/../../../arm-none-eabi/lib/thumb/v7e-m/fpv4-sp/hard/libc.a(lib_a-findfp.o)
 .debug_info    0x00000000000194e4      0xbcc /usr/lib/gcc/arm-none-eabi/6.3.1/../../../arm-none-eabi/lib/thumb/v7e-m/fpv4-sp/hard/libc.a(lib_a-fwalk.o)
 .debug_info    0x000000000001a0b0      0xd35 /usr/lib/gcc/arm-none-eabi/6.3.1/../../../arm-none-eabi/lib/thumb/v7e-m/fpv4-sp/hard/libc.a(lib_a-locale.o)
 .debug_info    0x000000000001ade5      0xe49 /usr/lib/gcc/arm-none-eabi/6.3.1/../../../arm-none-eabi/lib/thumb/v7e-m/fpv4-sp/hard/libc.a(lib_a-makebuf.o)
 .debug_info    0x000000000001bc2e       0xd5 /usr/lib/gcc/arm-none-eabi/6.3.1/../../../arm-none-eabi/lib/thumb/v7e-m/fpv4-sp/hard/libc.a(lib_a-memchr.o)
 .debug_info    0x000000000001bd03       0xdc /usr/lib/gcc/arm-none-eabi/6.3.1/../../../arm-none-eabi/lib/thumb/v7e-m/fpv4-sp/hard/libc.a(lib_a-memcpy.o)
 .debug_info    0x000000000001bddf     0x1744 /usr/lib/gcc/arm-none-eabi/6.3.1/../../../arm-none-eabi/lib/thumb/v7e-m/fpv4-sp/hard/libc.a(lib_a-mprec.o)
 .debug_info    0x000000000001d523      0xa18 /usr/lib/gcc/arm-none-eabi/6.3.1/../../../arm-none-eabi/lib/thumb/v7e-m/fpv4-sp/hard/libc.a(lib_a-reent.o)
 .debug_info    0x000000000001df3b      0xd56 /usr/lib/gcc/arm-none-eabi/6.3.1/../../../arm-none-eabi/lib/thumb/v7e-m/fpv4-sp/hard/libc.a(lib_a-stdio.o)
 .debug_info    0x000000000001ec91       0xdb /usr/lib/gcc/arm-none-eabi/6.3.1/../../../arm-none-eabi/lib/thumb/v7e-m/fpv4-sp/hard/libc.a(lib_a-strcmp.o)
 .debug_info    0x000000000001ed6c     0x12df /usr/lib/gcc/arm-none-eabi/6.3.1/../../../arm-none-eabi/lib/thumb/v7e-m/fpv4-sp/hard/libc.a(lib_a-svfiprintf.o)
 .debug_info    0x000000000002004b     0x179a /usr/lib/gcc/arm-none-eabi/6.3.1/../../../arm-none-eabi/lib/thumb/v7e-m/fpv4-sp/hard/libc.a(lib_a-vfiprintf.o)
 .debug_info    0x00000000000217e5      0x998 /usr/lib/gcc/arm-none-eabi/6.3.1/../../../arm-none-eabi/lib/thumb/v7e-m/fpv4-sp/hard/libc.a(lib_a-writer.o)
 .debug_info    0x000000000002217d      0x950 /usr/lib/gcc/arm-none-eabi/6.3.1/../../../arm-none-eabi/lib/thumb/v7e-m/fpv4-sp/hard/libc.a(lib_a-closer.o)
 .debug_info    0x0000000000022acd      0xc08 /usr/lib/gcc/arm-none-eabi/6.3.1/../../../arm-none-eabi/lib/thumb/v7e-m/fpv4-sp/hard/libc.a(lib_a-fclose.o)
 .debug_info    0x00000000000236d5      0xd4d /usr/lib/gcc/arm-none-eabi/6.3.1/../../../arm-none-eabi/lib/thumb/v7e-m/fpv4-sp/hard/libc.a(lib_a-fputwc.o)
 .debug_info    0x0000000000024422      0xb62 /usr/lib/gcc/arm-none-eabi/6.3.1/../../../arm-none-eabi/lib/thumb/v7e-m/fpv4-sp/hard/libc.a(lib_a-fstatr.o)
 .debug_info    0x0000000000024f84      0xe17 /usr/lib/gcc/arm-none-eabi/6.3.1/../../../arm-none-eabi/lib/thumb/v7e-m/fpv4-sp/hard/libc.a(lib_a-fvwrite.o)
 .debug_info    0x0000000000025d9b      0x950 /usr/lib/gcc/arm-none-eabi/6.3.1/../../../arm-none-eabi/lib/thumb/v7e-m/fpv4-sp/hard/libc.a(lib_a-isattyr.o)
 .debug_info    0x00000000000266eb      0x97b /usr/lib/gcc/arm-none-eabi/6.3.1/../../../arm-none-eabi/lib/thumb/v7e-m/fpv4-sp/hard/libc.a(lib_a-lseekr.o)
 .debug_info    0x0000000000027066      0x991 /usr/lib/gcc/arm-none-eabi/6.3.1/../../../arm-none-eabi/lib/thumb/v7e-m/fpv4-sp/hard/libc.a(lib_a-readr.o)
 .debug_info    0x00000000000279f7      0xbce /usr/lib/gcc/arm-none-eabi/6.3.1/../../../arm-none-eabi/lib/thumb/v7e-m/fpv4-sp/hard/libc.a(lib_a-wbuf.o)
 .debug_info    0x00000000000285c5      0xb49 /usr/lib/gcc/arm-none-eabi/6.3.1/../../../arm-none-eabi/lib/thumb/v7e-m/fpv4-sp/hard/libc.a(lib_a-wcrtomb.o)
 .debug_info    0x000000000002910e      0xa92 /usr/lib/gcc/arm-none-eabi/6.3.1/../../../arm-none-eabi/lib/thumb/v7e-m/fpv4-sp/hard/libc.a(lib_a-wctomb_r.o)
 .debug_info    0x0000000000029ba0       0xd4 /usr/lib/gcc/arm-none-eabi/6.3.1/thumb/v7e-m/fpv4-sp/hard/libgcc.a(_arm_unorddf2.o)
 .debug_info    0x0000000000029c74       0xd4 /usr/lib/gcc/arm-none-eabi/6.3.1/thumb/v7e-m/fpv4-sp/hard/libgcc.a(_arm_fixdfsi.o)

.debug_abbrev   0x0000000000000000     0x7c33
 .debug_abbrev  0x0000000000000000      0x328 build/pgm_syscalls.o
 .debug_abbrev  0x0000000000000328      0x579 build/main.o
 .debug_abbrev  0x00000000000008a1      0x2c7 build/menu.o
 .debug_abbrev  0x0000000000000b68       0x14 build/startup_pgm.o
 .debug_abbrev  0x0000000000000b7c       0x14 /usr/lib/gcc/arm-none-eabi/6.3.1/thumb/v7e-m/fpv4-sp/hard/libgcc.a(_arm_addsubdf3.o)
 .debug_abbrev  0x0000000000000b90       0x14 /usr/lib/gcc/arm-none-eabi/6.3.1/thumb/v7e-m/fpv4-sp/hard/libgcc.a(_arm_muldivdf3.o)
 .debug_abbrev  0x0000000000000ba4       0x14 /usr/lib/gcc/arm-none-eabi/6.3.1/thumb/v7e-m/fpv4-sp/hard/libgcc.a(_arm_truncdfsf2.o)
 .debug_abbrev  0x0000000000000bb8       0x14 /usr/lib/gcc/arm-none-eabi/6.3.1/thumb/v7e-m/fpv4-sp/hard/libgcc.a(_arm_addsubsf3.o)
 .debug_abbrev  0x0000000000000bcc       0x14 /usr/lib/gcc/arm-none-eabi/6.3.1/thumb/v7e-m/fpv4-sp/hard/libgcc.a(_aeabi_uldivmod.o)
 .debug_abbrev  0x0000000000000be0      0x163 /usr/lib/gcc/arm-none-eabi/6.3.1/thumb/v7e-m/fpv4-sp/hard/libgcc.a(_fixdfdi.o)
 .debug_abbrev  0x0000000000000d43      0x144 /usr/lib/gcc/arm-none-eabi/6.3.1/thumb/v7e-m/fpv4-sp/hard/libgcc.a(_fixunsdfdi.o)
 .debug_abbrev  0x0000000000000e87      0x18c /usr/lib/gcc/arm-none-eabi/6.3.1/thumb/v7e-m/fpv4-sp/hard/libgcc.a(_udivmoddi4.o)
 .debug_abbrev  0x0000000000001013       0x14 /usr/lib/gcc/arm-none-eabi/6.3.1/thumb/v7e-m/fpv4-sp/hard/libgcc.a(_dvmd_tls.o)
 .debug_abbrev  0x0000000000001027       0x14 /usr/lib/gcc/arm-none-eabi/6.3.1/thumb/v7e-m/fpv4-sp/hard/libgcc.a(_arm_cmpdf2.o)
 .debug_abbrev  0x000000000000103b       0x14 /usr/lib/gcc/arm-none-eabi/6.3.1/thumb/v7e-m/fpv4-sp/hard/libgcc.a(_arm_fixunsdfsi.o)
 .debug_abbrev  0x000000000000104f      0x1f6 /usr/lib/gcc/arm-none-eabi/6.3.1/../../../arm-none-eabi/lib/thumb/v7e-m/fpv4-sp/hard/libc.a(lib_a-atexit.o)
 .debug_abbrev  0x0000000000001245      0x1dc /usr/lib/gcc/arm-none-eabi/6.3.1/../../../arm-none-eabi/lib/thumb/v7e-m/fpv4-sp/hard/libc.a(lib_a-atoi.o)
 .debug_abbrev  0x0000000000001421       0x5e /usr/lib/gcc/arm-none-eabi/6.3.1/../../../arm-none-eabi/lib/thumb/v7e-m/fpv4-sp/hard/libc.a(lib_a-ctype_.o)
 .debug_abbrev  0x000000000000147f      0x1a5 /usr/lib/gcc/arm-none-eabi/6.3.1/../../../arm-none-eabi/lib/thumb/v7e-m/fpv4-sp/hard/libc.a(lib_a-errno.o)
 .debug_abbrev  0x0000000000001624       0xbd /usr/lib/gcc/arm-none-eabi/6.3.1/../../../arm-none-eabi/lib/thumb/v7e-m/fpv4-sp/hard/libc.a(lib_a-fini.o)
 .debug_abbrev  0x00000000000016e1      0x189 /usr/lib/gcc/arm-none-eabi/6.3.1/../../../arm-none-eabi/lib/thumb/v7e-m/fpv4-sp/hard/libc.a(lib_a-impure.o)
 .debug_abbrev  0x000000000000186a       0xba /usr/lib/gcc/arm-none-eabi/6.3.1/../../../arm-none-eabi/lib/thumb/v7e-m/fpv4-sp/hard/libc.a(lib_a-init.o)
 .debug_abbrev  0x0000000000001924      0x1d2 /usr/lib/gcc/arm-none-eabi/6.3.1/../../../arm-none-eabi/lib/thumb/v7e-m/fpv4-sp/hard/libc.a(lib_a-memmove.o)
 .debug_abbrev  0x0000000000001af6      0x1cd /usr/lib/gcc/arm-none-eabi/6.3.1/../../../arm-none-eabi/lib/thumb/v7e-m/fpv4-sp/hard/libc.a(lib_a-memset.o)
 .debug_abbrev  0x0000000000001cc3      0x25c /usr/lib/gcc/arm-none-eabi/6.3.1/../../../arm-none-eabi/lib/thumb/v7e-m/fpv4-sp/hard/libc.a(lib_a-printf.o)
 .debug_abbrev  0x0000000000001f1f      0x304 /usr/lib/gcc/arm-none-eabi/6.3.1/../../../arm-none-eabi/lib/thumb/v7e-m/fpv4-sp/hard/libc.a(lib_a-signal.o)
 .debug_abbrev  0x0000000000002223      0x222 /usr/lib/gcc/arm-none-eabi/6.3.1/../../../arm-none-eabi/lib/thumb/v7e-m/fpv4-sp/hard/libc.a(lib_a-signalr.o)
 .debug_abbrev  0x0000000000002445      0x24d /usr/lib/gcc/arm-none-eabi/6.3.1/../../../arm-none-eabi/lib/thumb/v7e-m/fpv4-sp/hard/libc.a(lib_a-sprintf.o)
 .debug_abbrev  0x0000000000002692      0x1b6 /usr/lib/gcc/arm-none-eabi/6.3.1/../../../arm-none-eabi/lib/thumb/v7e-m/fpv4-sp/hard/libc.a(lib_a-stpcpy.o)
 .debug_abbrev  0x0000000000002848      0x1ec /usr/lib/gcc/arm-none-eabi/6.3.1/../../../arm-none-eabi/lib/thumb/v7e-m/fpv4-sp/hard/libc.a(lib_a-strcat.o)
 .debug_abbrev  0x0000000000002a34      0x1be /usr/lib/gcc/arm-none-eabi/6.3.1/../../../arm-none-eabi/lib/thumb/v7e-m/fpv4-sp/hard/libc.a(lib_a-strchr.o)
 .debug_abbrev  0x0000000000002bf2      0x1ad /usr/lib/gcc/arm-none-eabi/6.3.1/../../../arm-none-eabi/lib/thumb/v7e-m/fpv4-sp/hard/libc.a(lib_a-strcpy.o)
 .debug_abbrev  0x0000000000002d9f       0x14 /usr/lib/gcc/arm-none-eabi/6.3.1/../../../arm-none-eabi/lib/thumb/v7e-m/fpv4-sp/hard/libc.a(lib_a-strlen.o)
 .debug_abbrev  0x0000000000002db3      0x1ce /usr/lib/gcc/arm-none-eabi/6.3.1/../../../arm-none-eabi/lib/thumb/v7e-m/fpv4-sp/hard/libc.a(lib_a-strncat.o)
 .debug_abbrev  0x0000000000002f81      0x213 /usr/lib/gcc/arm-none-eabi/6.3.1/../../../arm-none-eabi/lib/thumb/v7e-m/fpv4-sp/hard/libc.a(lib_a-strtol.o)
 .debug_abbrev  0x0000000000003194      0x395 /usr/lib/gcc/arm-none-eabi/6.3.1/../../../arm-none-eabi/lib/thumb/v7e-m/fpv4-sp/hard/libc.a(lib_a-svfprintf.o)
 .debug_abbrev  0x0000000000003529      0x3e2 /usr/lib/gcc/arm-none-eabi/6.3.1/../../../arm-none-eabi/lib/thumb/v7e-m/fpv4-sp/hard/libc.a(lib_a-vfprintf.o)
 .debug_abbrev  0x000000000000390b      0x240 /usr/lib/gcc/arm-none-eabi/6.3.1/../../../arm-none-eabi/lib/thumb/v7e-m/fpv4-sp/hard/libc.a(lib_a-wsetup.o)
 .debug_abbrev  0x0000000000003b4b      0x220 /usr/lib/gcc/arm-none-eabi/6.3.1/../../../arm-none-eabi/lib/thumb/v7e-m/fpv4-sp/hard/libc.a(lib_a-__atexit.o)
 .debug_abbrev  0x0000000000003d6b      0x270 /usr/lib/gcc/arm-none-eabi/6.3.1/../../../arm-none-eabi/lib/thumb/v7e-m/fpv4-sp/hard/libc.a(lib_a-__call_atexit.o)
 .debug_abbrev  0x0000000000003fdb      0x2dd /usr/lib/gcc/arm-none-eabi/6.3.1/../../../arm-none-eabi/lib/thumb/v7e-m/fpv4-sp/hard/libc.a(lib_a-dtoa.o)
 .debug_abbrev  0x00000000000042b8      0x2c9 /usr/lib/gcc/arm-none-eabi/6.3.1/../../../arm-none-eabi/lib/thumb/v7e-m/fpv4-sp/hard/libc.a(lib_a-fflush.o)
 .debug_abbrev  0x0000000000004581      0x3a0 /usr/lib/gcc/arm-none-eabi/6.3.1/../../../arm-none-eabi/lib/thumb/v7e-m/fpv4-sp/hard/libc.a(lib_a-findfp.o)
 .debug_abbrev  0x0000000000004921      0x20a /usr/lib/gcc/arm-none-eabi/6.3.1/../../../arm-none-eabi/lib/thumb/v7e-m/fpv4-sp/hard/libc.a(lib_a-fwalk.o)
 .debug_abbrev  0x0000000000004b2b      0x2bc /usr/lib/gcc/arm-none-eabi/6.3.1/../../../arm-none-eabi/lib/thumb/v7e-m/fpv4-sp/hard/libc.a(lib_a-locale.o)
 .debug_abbrev  0x0000000000004de7      0x2d9 /usr/lib/gcc/arm-none-eabi/6.3.1/../../../arm-none-eabi/lib/thumb/v7e-m/fpv4-sp/hard/libc.a(lib_a-makebuf.o)
 .debug_abbrev  0x00000000000050c0       0x14 /usr/lib/gcc/arm-none-eabi/6.3.1/../../../arm-none-eabi/lib/thumb/v7e-m/fpv4-sp/hard/libc.a(lib_a-memchr.o)
 .debug_abbrev  0x00000000000050d4       0x14 /usr/lib/gcc/arm-none-eabi/6.3.1/../../../arm-none-eabi/lib/thumb/v7e-m/fpv4-sp/hard/libc.a(lib_a-memcpy.o)
 .debug_abbrev  0x00000000000050e8      0x3df /usr/lib/gcc/arm-none-eabi/6.3.1/../../../arm-none-eabi/lib/thumb/v7e-m/fpv4-sp/hard/libc.a(lib_a-mprec.o)
 .debug_abbrev  0x00000000000054c7      0x26d /usr/lib/gcc/arm-none-eabi/6.3.1/../../../arm-none-eabi/lib/thumb/v7e-m/fpv4-sp/hard/libc.a(lib_a-reent.o)
 .debug_abbrev  0x0000000000005734      0x26d /usr/lib/gcc/arm-none-eabi/6.3.1/../../../arm-none-eabi/lib/thumb/v7e-m/fpv4-sp/hard/libc.a(lib_a-stdio.o)
 .debug_abbrev  0x00000000000059a1       0x14 /usr/lib/gcc/arm-none-eabi/6.3.1/../../../arm-none-eabi/lib/thumb/v7e-m/fpv4-sp/hard/libc.a(lib_a-strcmp.o)
 .debug_abbrev  0x00000000000059b5      0x2ed /usr/lib/gcc/arm-none-eabi/6.3.1/../../../arm-none-eabi/lib/thumb/v7e-m/fpv4-sp/hard/libc.a(lib_a-svfiprintf.o)
 .debug_abbrev  0x0000000000005ca2      0x3f2 /usr/lib/gcc/arm-none-eabi/6.3.1/../../../arm-none-eabi/lib/thumb/v7e-m/fpv4-sp/hard/libc.a(lib_a-vfiprintf.o)
 .debug_abbrev  0x0000000000006094      0x20c /usr/lib/gcc/arm-none-eabi/6.3.1/../../../arm-none-eabi/lib/thumb/v7e-m/fpv4-sp/hard/libc.a(lib_a-writer.o)
 .debug_abbrev  0x00000000000062a0      0x207 /usr/lib/gcc/arm-none-eabi/6.3.1/../../../arm-none-eabi/lib/thumb/v7e-m/fpv4-sp/hard/libc.a(lib_a-closer.o)
 .debug_abbrev  0x00000000000064a7      0x2c5 /usr/lib/gcc/arm-none-eabi/6.3.1/../../../arm-none-eabi/lib/thumb/v7e-m/fpv4-sp/hard/libc.a(lib_a-fclose.o)
 .debug_abbrev  0x000000000000676c      0x329 /usr/lib/gcc/arm-none-eabi/6.3.1/../../../arm-none-eabi/lib/thumb/v7e-m/fpv4-sp/hard/libc.a(lib_a-fputwc.o)
 .debug_abbrev  0x0000000000006a95      0x216 /usr/lib/gcc/arm-none-eabi/6.3.1/../../../arm-none-eabi/lib/thumb/v7e-m/fpv4-sp/hard/libc.a(lib_a-fstatr.o)
 .debug_abbrev  0x0000000000006cab      0x264 /usr/lib/gcc/arm-none-eabi/6.3.1/../../../arm-none-eabi/lib/thumb/v7e-m/fpv4-sp/hard/libc.a(lib_a-fvwrite.o)
 .debug_abbrev  0x0000000000006f0f      0x207 /usr/lib/gcc/arm-none-eabi/6.3.1/../../../arm-none-eabi/lib/thumb/v7e-m/fpv4-sp/hard/libc.a(lib_a-isattyr.o)
 .debug_abbrev  0x0000000000007116      0x216 /usr/lib/gcc/arm-none-eabi/6.3.1/../../../arm-none-eabi/lib/thumb/v7e-m/fpv4-sp/hard/libc.a(lib_a-lseekr.o)
 .debug_abbrev  0x000000000000732c      0x207 /usr/lib/gcc/arm-none-eabi/6.3.1/../../../arm-none-eabi/lib/thumb/v7e-m/fpv4-sp/hard/libc.a(lib_a-readr.o)
 .debug_abbrev  0x0000000000007533      0x279 /usr/lib/gcc/arm-none-eabi/6.3.1/../../../arm-none-eabi/lib/thumb/v7e-m/fpv4-sp/hard/libc.a(lib_a-wbuf.o)
 .debug_abbrev  0x00000000000077ac      0x22c /usr/lib/gcc/arm-none-eabi/6.3.1/../../../arm-none-eabi/lib/thumb/v7e-m/fpv4-sp/hard/libc.a(lib_a-wcrtomb.o)
 .debug_abbrev  0x00000000000079d8      0x233 /usr/lib/gcc/arm-none-eabi/6.3.1/../../../arm-none-eabi/lib/thumb/v7e-m/fpv4-sp/hard/libc.a(lib_a-wctomb_r.o)
 .debug_abbrev  0x0000000000007c0b       0x14 /usr/lib/gcc/arm-none-eabi/6.3.1/thumb/v7e-m/fpv4-sp/hard/libgcc.a(_arm_unorddf2.o)
 .debug_abbrev  0x0000000000007c1f       0x14 /usr/lib/gcc/arm-none-eabi/6.3.1/thumb/v7e-m/fpv4-sp/hard/libgcc.a(_arm_fixdfsi.o)

.debug_loc      0x0000000000000000    0x129c6
 .debug_loc     0x0000000000000000      0x44c build/pgm_syscalls.o
 .debug_loc     0x000000000000044c     0x1861 build/main.o
 .debug_loc     0x0000000000001cad       0xe0 build/menu.o
 .debug_loc     0x0000000000001d8d       0x28 /usr/lib/gcc/arm-none-eabi/6.3.1/thumb/v7e-m/fpv4-sp/hard/libgcc.a(_fixdfdi.o)
 .debug_loc     0x0000000000001db5       0x9f /usr/lib/gcc/arm-none-eabi/6.3.1/thumb/v7e-m/fpv4-sp/hard/libgcc.a(_fixunsdfdi.o)
 .debug_loc     0x0000000000001e54      0xd77 /usr/lib/gcc/arm-none-eabi/6.3.1/thumb/v7e-m/fpv4-sp/hard/libgcc.a(_udivmoddi4.o)
 .debug_loc     0x0000000000002bcb       0x2c /usr/lib/gcc/arm-none-eabi/6.3.1/../../../arm-none-eabi/lib/thumb/v7e-m/fpv4-sp/hard/libc.a(lib_a-atexit.o)
 .debug_loc     0x0000000000002bf7       0x63 /usr/lib/gcc/arm-none-eabi/6.3.1/../../../arm-none-eabi/lib/thumb/v7e-m/fpv4-sp/hard/libc.a(lib_a-atoi.o)
 .debug_loc     0x0000000000002c5a       0x5c /usr/lib/gcc/arm-none-eabi/6.3.1/../../../arm-none-eabi/lib/thumb/v7e-m/fpv4-sp/hard/libc.a(lib_a-fini.o)
 .debug_loc     0x0000000000002cb6       0xae /usr/lib/gcc/arm-none-eabi/6.3.1/../../../arm-none-eabi/lib/thumb/v7e-m/fpv4-sp/hard/libc.a(lib_a-init.o)
 .debug_loc     0x0000000000002d64      0x269 /usr/lib/gcc/arm-none-eabi/6.3.1/../../../arm-none-eabi/lib/thumb/v7e-m/fpv4-sp/hard/libc.a(lib_a-memmove.o)
 .debug_loc     0x0000000000002fcd      0x1bd /usr/lib/gcc/arm-none-eabi/6.3.1/../../../arm-none-eabi/lib/thumb/v7e-m/fpv4-sp/hard/libc.a(lib_a-memset.o)
 .debug_loc     0x000000000000318a       0x34 /usr/lib/gcc/arm-none-eabi/6.3.1/../../../arm-none-eabi/lib/thumb/v7e-m/fpv4-sp/hard/libc.a(lib_a-printf.o)
 .debug_loc     0x00000000000031be      0x475 /usr/lib/gcc/arm-none-eabi/6.3.1/../../../arm-none-eabi/lib/thumb/v7e-m/fpv4-sp/hard/libc.a(lib_a-signal.o)
 .debug_loc     0x0000000000003633       0xa5 /usr/lib/gcc/arm-none-eabi/6.3.1/../../../arm-none-eabi/lib/thumb/v7e-m/fpv4-sp/hard/libc.a(lib_a-signalr.o)
 .debug_loc     0x00000000000036d8       0x7a /usr/lib/gcc/arm-none-eabi/6.3.1/../../../arm-none-eabi/lib/thumb/v7e-m/fpv4-sp/hard/libc.a(lib_a-sprintf.o)
 .debug_loc     0x0000000000003752      0x115 /usr/lib/gcc/arm-none-eabi/6.3.1/../../../arm-none-eabi/lib/thumb/v7e-m/fpv4-sp/hard/libc.a(lib_a-stpcpy.o)
 .debug_loc     0x0000000000003867       0x95 /usr/lib/gcc/arm-none-eabi/6.3.1/../../../arm-none-eabi/lib/thumb/v7e-m/fpv4-sp/hard/libc.a(lib_a-strcat.o)
 .debug_loc     0x00000000000038fc      0x25d /usr/lib/gcc/arm-none-eabi/6.3.1/../../../arm-none-eabi/lib/thumb/v7e-m/fpv4-sp/hard/libc.a(lib_a-strchr.o)
 .debug_loc     0x0000000000003b59       0x21 /usr/lib/gcc/arm-none-eabi/6.3.1/../../../arm-none-eabi/lib/thumb/v7e-m/fpv4-sp/hard/libc.a(lib_a-strcpy.o)
 .debug_loc     0x0000000000003b7a       0xf2 /usr/lib/gcc/arm-none-eabi/6.3.1/../../../arm-none-eabi/lib/thumb/v7e-m/fpv4-sp/hard/libc.a(lib_a-strncat.o)
 .debug_loc     0x0000000000003c6c      0x30f /usr/lib/gcc/arm-none-eabi/6.3.1/../../../arm-none-eabi/lib/thumb/v7e-m/fpv4-sp/hard/libc.a(lib_a-strtol.o)
 .debug_loc     0x0000000000003f7b     0x2655 /usr/lib/gcc/arm-none-eabi/6.3.1/../../../arm-none-eabi/lib/thumb/v7e-m/fpv4-sp/hard/libc.a(lib_a-svfprintf.o)
 .debug_loc     0x00000000000065d0     0x2a7f /usr/lib/gcc/arm-none-eabi/6.3.1/../../../arm-none-eabi/lib/thumb/v7e-m/fpv4-sp/hard/libc.a(lib_a-vfprintf.o)
 .debug_loc     0x000000000000904f       0xa2 /usr/lib/gcc/arm-none-eabi/6.3.1/../../../arm-none-eabi/lib/thumb/v7e-m/fpv4-sp/hard/libc.a(lib_a-wsetup.o)
 .debug_loc     0x00000000000090f1      0x197 /usr/lib/gcc/arm-none-eabi/6.3.1/../../../arm-none-eabi/lib/thumb/v7e-m/fpv4-sp/hard/libc.a(lib_a-__atexit.o)
 .debug_loc     0x0000000000009288      0x199 /usr/lib/gcc/arm-none-eabi/6.3.1/../../../arm-none-eabi/lib/thumb/v7e-m/fpv4-sp/hard/libc.a(lib_a-__call_atexit.o)
 .debug_loc     0x0000000000009421     0x268b /usr/lib/gcc/arm-none-eabi/6.3.1/../../../arm-none-eabi/lib/thumb/v7e-m/fpv4-sp/hard/libc.a(lib_a-dtoa.o)
 .debug_loc     0x000000000000baac      0x29f /usr/lib/gcc/arm-none-eabi/6.3.1/../../../arm-none-eabi/lib/thumb/v7e-m/fpv4-sp/hard/libc.a(lib_a-fflush.o)
 .debug_loc     0x000000000000bd4b      0x312 /usr/lib/gcc/arm-none-eabi/6.3.1/../../../arm-none-eabi/lib/thumb/v7e-m/fpv4-sp/hard/libc.a(lib_a-findfp.o)
 .debug_loc     0x000000000000c05d      0x207 /usr/lib/gcc/arm-none-eabi/6.3.1/../../../arm-none-eabi/lib/thumb/v7e-m/fpv4-sp/hard/libc.a(lib_a-fwalk.o)
 .debug_loc     0x000000000000c264      0x147 /usr/lib/gcc/arm-none-eabi/6.3.1/../../../arm-none-eabi/lib/thumb/v7e-m/fpv4-sp/hard/libc.a(lib_a-locale.o)
 .debug_loc     0x000000000000c3ab      0x120 /usr/lib/gcc/arm-none-eabi/6.3.1/../../../arm-none-eabi/lib/thumb/v7e-m/fpv4-sp/hard/libc.a(lib_a-makebuf.o)
 .debug_loc     0x000000000000c4cb     0x1d38 /usr/lib/gcc/arm-none-eabi/6.3.1/../../../arm-none-eabi/lib/thumb/v7e-m/fpv4-sp/hard/libc.a(lib_a-mprec.o)
 .debug_loc     0x000000000000e203      0x11d /usr/lib/gcc/arm-none-eabi/6.3.1/../../../arm-none-eabi/lib/thumb/v7e-m/fpv4-sp/hard/libc.a(lib_a-reent.o)
 .debug_loc     0x000000000000e320      0x2bf /usr/lib/gcc/arm-none-eabi/6.3.1/../../../arm-none-eabi/lib/thumb/v7e-m/fpv4-sp/hard/libc.a(lib_a-stdio.o)
 .debug_loc     0x000000000000e5df     0x14af /usr/lib/gcc/arm-none-eabi/6.3.1/../../../arm-none-eabi/lib/thumb/v7e-m/fpv4-sp/hard/libc.a(lib_a-svfiprintf.o)
 .debug_loc     0x000000000000fa8e     0x1c3b /usr/lib/gcc/arm-none-eabi/6.3.1/../../../arm-none-eabi/lib/thumb/v7e-m/fpv4-sp/hard/libc.a(lib_a-vfiprintf.o)
 .debug_loc     0x00000000000116c9       0xb0 /usr/lib/gcc/arm-none-eabi/6.3.1/../../../arm-none-eabi/lib/thumb/v7e-m/fpv4-sp/hard/libc.a(lib_a-writer.o)
 .debug_loc     0x0000000000011779       0x4d /usr/lib/gcc/arm-none-eabi/6.3.1/../../../arm-none-eabi/lib/thumb/v7e-m/fpv4-sp/hard/libc.a(lib_a-closer.o)
 .debug_loc     0x00000000000117c6      0x16a /usr/lib/gcc/arm-none-eabi/6.3.1/../../../arm-none-eabi/lib/thumb/v7e-m/fpv4-sp/hard/libc.a(lib_a-fclose.o)
 .debug_loc     0x0000000000011930      0x334 /usr/lib/gcc/arm-none-eabi/6.3.1/../../../arm-none-eabi/lib/thumb/v7e-m/fpv4-sp/hard/libc.a(lib_a-fputwc.o)
 .debug_loc     0x0000000000011c64       0x84 /usr/lib/gcc/arm-none-eabi/6.3.1/../../../arm-none-eabi/lib/thumb/v7e-m/fpv4-sp/hard/libc.a(lib_a-fstatr.o)
 .debug_loc     0x0000000000011ce8      0x6e8 /usr/lib/gcc/arm-none-eabi/6.3.1/../../../arm-none-eabi/lib/thumb/v7e-m/fpv4-sp/hard/libc.a(lib_a-fvwrite.o)
 .debug_loc     0x00000000000123d0       0x4d /usr/lib/gcc/arm-none-eabi/6.3.1/../../../arm-none-eabi/lib/thumb/v7e-m/fpv4-sp/hard/libc.a(lib_a-isattyr.o)
 .debug_loc     0x000000000001241d       0xb0 /usr/lib/gcc/arm-none-eabi/6.3.1/../../../arm-none-eabi/lib/thumb/v7e-m/fpv4-sp/hard/libc.a(lib_a-lseekr.o)
 .debug_loc     0x00000000000124cd       0xb0 /usr/lib/gcc/arm-none-eabi/6.3.1/../../../arm-none-eabi/lib/thumb/v7e-m/fpv4-sp/hard/libc.a(lib_a-readr.o)
 .debug_loc     0x000000000001257d      0x12b /usr/lib/gcc/arm-none-eabi/6.3.1/../../../arm-none-eabi/lib/thumb/v7e-m/fpv4-sp/hard/libc.a(lib_a-wbuf.o)
 .debug_loc     0x00000000000126a8      0x1fa /usr/lib/gcc/arm-none-eabi/6.3.1/../../../arm-none-eabi/lib/thumb/v7e-m/fpv4-sp/hard/libc.a(lib_a-wcrtomb.o)
 .debug_loc     0x00000000000128a2      0x124 /usr/lib/gcc/arm-none-eabi/6.3.1/../../../arm-none-eabi/lib/thumb/v7e-m/fpv4-sp/hard/libc.a(lib_a-wctomb_r.o)

.debug_aranges  0x0000000000000000      0x9d8
 .debug_aranges
                0x0000000000000000       0xa0 build/pgm_syscalls.o
 .debug_aranges
                0x00000000000000a0       0xf0 build/main.o
 .debug_aranges
                0x0000000000000190       0x30 build/menu.o
 .debug_aranges
                0x00000000000001c0       0x20 build/startup_pgm.o
 .debug_aranges
                0x00000000000001e0       0x20 /usr/lib/gcc/arm-none-eabi/6.3.1/thumb/v7e-m/fpv4-sp/hard/libgcc.a(_arm_addsubdf3.o)
 .debug_aranges
                0x0000000000000200       0x20 /usr/lib/gcc/arm-none-eabi/6.3.1/thumb/v7e-m/fpv4-sp/hard/libgcc.a(_arm_muldivdf3.o)
 .debug_aranges
                0x0000000000000220       0x20 /usr/lib/gcc/arm-none-eabi/6.3.1/thumb/v7e-m/fpv4-sp/hard/libgcc.a(_arm_truncdfsf2.o)
 .debug_aranges
                0x0000000000000240       0x20 /usr/lib/gcc/arm-none-eabi/6.3.1/thumb/v7e-m/fpv4-sp/hard/libgcc.a(_arm_addsubsf3.o)
 .debug_aranges
                0x0000000000000260       0x20 /usr/lib/gcc/arm-none-eabi/6.3.1/thumb/v7e-m/fpv4-sp/hard/libgcc.a(_aeabi_uldivmod.o)
 .debug_aranges
                0x0000000000000280       0x20 /usr/lib/gcc/arm-none-eabi/6.3.1/thumb/v7e-m/fpv4-sp/hard/libgcc.a(_fixdfdi.o)
 .debug_aranges
                0x00000000000002a0       0x20 /usr/lib/gcc/arm-none-eabi/6.3.1/thumb/v7e-m/fpv4-sp/hard/libgcc.a(_fixunsdfdi.o)
 .debug_aranges
                0x00000000000002c0       0x20 /usr/lib/gcc/arm-none-eabi/6.3.1/thumb/v7e-m/fpv4-sp/hard/libgcc.a(_udivmoddi4.o)
 .debug_aranges
                0x00000000000002e0       0x20 /usr/lib/gcc/arm-none-eabi/6.3.1/thumb/v7e-m/fpv4-sp/hard/libgcc.a(_dvmd_tls.o)
 .debug_aranges
                0x0000000000000300       0x20 /usr/lib/gcc/arm-none-eabi/6.3.1/thumb/v7e-m/fpv4-sp/hard/libgcc.a(_arm_cmpdf2.o)
 .debug_aranges
                0x0000000000000320       0x20 /usr/lib/gcc/arm-none-eabi/6.3.1/thumb/v7e-m/fpv4-sp/hard/libgcc.a(_arm_fixunsdfsi.o)
 .debug_aranges
                0x0000000000000340       0x20 /usr/lib/gcc/arm-none-eabi/6.3.1/../../../arm-none-eabi/lib/thumb/v7e-m/fpv4-sp/hard/libc.a(lib_a-atexit.o)
 .debug_aranges
                0x0000000000000360       0x20 /usr/lib/gcc/arm-none-eabi/6.3.1/../../../arm-none-eabi/lib/thumb/v7e-m/fpv4-sp/hard/libc.a(lib_a-atoi.o)
 .debug_aranges
                0x0000000000000380       0x18 /usr/lib/gcc/arm-none-eabi/6.3.1/../../../arm-none-eabi/lib/thumb/v7e-m/fpv4-sp/hard/libc.a(lib_a-ctype_.o)
 .debug_aranges
                0x0000000000000398       0x20 /usr/lib/gcc/arm-none-eabi/6.3.1/../../../arm-none-eabi/lib/thumb/v7e-m/fpv4-sp/hard/libc.a(lib_a-errno.o)
 .debug_aranges
                0x00000000000003b8       0x20 /usr/lib/gcc/arm-none-eabi/6.3.1/../../../arm-none-eabi/lib/thumb/v7e-m/fpv4-sp/hard/libc.a(lib_a-fini.o)
 .debug_aranges
                0x00000000000003d8       0x18 /usr/lib/gcc/arm-none-eabi/6.3.1/../../../arm-none-eabi/lib/thumb/v7e-m/fpv4-sp/hard/libc.a(lib_a-impure.o)
 .debug_aranges
                0x00000000000003f0       0x20 /usr/lib/gcc/arm-none-eabi/6.3.1/../../../arm-none-eabi/lib/thumb/v7e-m/fpv4-sp/hard/libc.a(lib_a-init.o)
 .debug_aranges
                0x0000000000000410       0x20 /usr/lib/gcc/arm-none-eabi/6.3.1/../../../arm-none-eabi/lib/thumb/v7e-m/fpv4-sp/hard/libc.a(lib_a-memmove.o)
 .debug_aranges
                0x0000000000000430       0x20 /usr/lib/gcc/arm-none-eabi/6.3.1/../../../arm-none-eabi/lib/thumb/v7e-m/fpv4-sp/hard/libc.a(lib_a-memset.o)
 .debug_aranges
                0x0000000000000450       0x20 /usr/lib/gcc/arm-none-eabi/6.3.1/../../../arm-none-eabi/lib/thumb/v7e-m/fpv4-sp/hard/libc.a(lib_a-printf.o)
 .debug_aranges
                0x0000000000000470       0x20 /usr/lib/gcc/arm-none-eabi/6.3.1/../../../arm-none-eabi/lib/thumb/v7e-m/fpv4-sp/hard/libc.a(lib_a-signal.o)
 .debug_aranges
                0x0000000000000490       0x20 /usr/lib/gcc/arm-none-eabi/6.3.1/../../../arm-none-eabi/lib/thumb/v7e-m/fpv4-sp/hard/libc.a(lib_a-signalr.o)
 .debug_aranges
                0x00000000000004b0       0x20 /usr/lib/gcc/arm-none-eabi/6.3.1/../../../arm-none-eabi/lib/thumb/v7e-m/fpv4-sp/hard/libc.a(lib_a-sprintf.o)
 .debug_aranges
                0x00000000000004d0       0x20 /usr/lib/gcc/arm-none-eabi/6.3.1/../../../arm-none-eabi/lib/thumb/v7e-m/fpv4-sp/hard/libc.a(lib_a-stpcpy.o)
 .debug_aranges
                0x00000000000004f0       0x20 /usr/lib/gcc/arm-none-eabi/6.3.1/../../../arm-none-eabi/lib/thumb/v7e-m/fpv4-sp/hard/libc.a(lib_a-strcat.o)
 .debug_aranges
                0x0000000000000510       0x20 /usr/lib/gcc/arm-none-eabi/6.3.1/../../../arm-none-eabi/lib/thumb/v7e-m/fpv4-sp/hard/libc.a(lib_a-strchr.o)
 .debug_aranges
                0x0000000000000530       0x20 /usr/lib/gcc/arm-none-eabi/6.3.1/../../../arm-none-eabi/lib/thumb/v7e-m/fpv4-sp/hard/libc.a(lib_a-strcpy.o)
 .debug_aranges
                0x0000000000000550       0x20 /usr/lib/gcc/arm-none-eabi/6.3.1/../../../arm-none-eabi/lib/thumb/v7e-m/fpv4-sp/hard/libc.a(lib_a-strlen.o)
 .debug_aranges
                0x0000000000000570       0x20 /usr/lib/gcc/arm-none-eabi/6.3.1/../../../arm-none-eabi/lib/thumb/v7e-m/fpv4-sp/hard/libc.a(lib_a-strncat.o)
 .debug_aranges
                0x0000000000000590       0x20 /usr/lib/gcc/arm-none-eabi/6.3.1/../../../arm-none-eabi/lib/thumb/v7e-m/fpv4-sp/hard/libc.a(lib_a-strtol.o)
 .debug_aranges
                0x00000000000005b0       0x20 /usr/lib/gcc/arm-none-eabi/6.3.1/../../../arm-none-eabi/lib/thumb/v7e-m/fpv4-sp/hard/libc.a(lib_a-svfprintf.o)
 .debug_aranges
                0x00000000000005d0       0x20 /usr/lib/gcc/arm-none-eabi/6.3.1/../../../arm-none-eabi/lib/thumb/v7e-m/fpv4-sp/hard/libc.a(lib_a-vfprintf.o)
 .debug_aranges
                0x00000000000005f0       0x20 /usr/lib/gcc/arm-none-eabi/6.3.1/../../../arm-none-eabi/lib/thumb/v7e-m/fpv4-sp/hard/libc.a(lib_a-wsetup.o)
 .debug_aranges
                0x0000000000000610       0x20 /usr/lib/gcc/arm-none-eabi/6.3.1/../../../arm-none-eabi/lib/thumb/v7e-m/fpv4-sp/hard/libc.a(lib_a-__atexit.o)
 .debug_aranges
                0x0000000000000630       0x28 /usr/lib/gcc/arm-none-eabi/6.3.1/../../../arm-none-eabi/lib/thumb/v7e-m/fpv4-sp/hard/libc.a(lib_a-__call_atexit.o)
 .debug_aranges
                0x0000000000000658       0x20 /usr/lib/gcc/arm-none-eabi/6.3.1/../../../arm-none-eabi/lib/thumb/v7e-m/fpv4-sp/hard/libc.a(lib_a-dtoa.o)
 .debug_aranges
                0x0000000000000678       0x20 /usr/lib/gcc/arm-none-eabi/6.3.1/../../../arm-none-eabi/lib/thumb/v7e-m/fpv4-sp/hard/libc.a(lib_a-fflush.o)
 .debug_aranges
                0x0000000000000698       0x20 /usr/lib/gcc/arm-none-eabi/6.3.1/../../../arm-none-eabi/lib/thumb/v7e-m/fpv4-sp/hard/libc.a(lib_a-findfp.o)
 .debug_aranges
                0x00000000000006b8       0x20 /usr/lib/gcc/arm-none-eabi/6.3.1/../../../arm-none-eabi/lib/thumb/v7e-m/fpv4-sp/hard/libc.a(lib_a-fwalk.o)
 .debug_aranges
                0x00000000000006d8       0x20 /usr/lib/gcc/arm-none-eabi/6.3.1/../../../arm-none-eabi/lib/thumb/v7e-m/fpv4-sp/hard/libc.a(lib_a-locale.o)
 .debug_aranges
                0x00000000000006f8       0x20 /usr/lib/gcc/arm-none-eabi/6.3.1/../../../arm-none-eabi/lib/thumb/v7e-m/fpv4-sp/hard/libc.a(lib_a-makebuf.o)
 .debug_aranges
                0x0000000000000718       0x20 /usr/lib/gcc/arm-none-eabi/6.3.1/../../../arm-none-eabi/lib/thumb/v7e-m/fpv4-sp/hard/libc.a(lib_a-memchr.o)
 .debug_aranges
                0x0000000000000738       0x20 /usr/lib/gcc/arm-none-eabi/6.3.1/../../../arm-none-eabi/lib/thumb/v7e-m/fpv4-sp/hard/libc.a(lib_a-memcpy.o)
 .debug_aranges
                0x0000000000000758       0x20 /usr/lib/gcc/arm-none-eabi/6.3.1/../../../arm-none-eabi/lib/thumb/v7e-m/fpv4-sp/hard/libc.a(lib_a-mprec.o)
 .debug_aranges
                0x0000000000000778       0x20 /usr/lib/gcc/arm-none-eabi/6.3.1/../../../arm-none-eabi/lib/thumb/v7e-m/fpv4-sp/hard/libc.a(lib_a-reent.o)
 .debug_aranges
                0x0000000000000798       0x20 /usr/lib/gcc/arm-none-eabi/6.3.1/../../../arm-none-eabi/lib/thumb/v7e-m/fpv4-sp/hard/libc.a(lib_a-stdio.o)
 .debug_aranges
                0x00000000000007b8       0x20 /usr/lib/gcc/arm-none-eabi/6.3.1/../../../arm-none-eabi/lib/thumb/v7e-m/fpv4-sp/hard/libc.a(lib_a-strcmp.o)
 .debug_aranges
                0x00000000000007d8       0x20 /usr/lib/gcc/arm-none-eabi/6.3.1/../../../arm-none-eabi/lib/thumb/v7e-m/fpv4-sp/hard/libc.a(lib_a-svfiprintf.o)
 .debug_aranges
                0x00000000000007f8       0x20 /usr/lib/gcc/arm-none-eabi/6.3.1/../../../arm-none-eabi/lib/thumb/v7e-m/fpv4-sp/hard/libc.a(lib_a-vfiprintf.o)
 .debug_aranges
                0x0000000000000818       0x20 /usr/lib/gcc/arm-none-eabi/6.3.1/../../../arm-none-eabi/lib/thumb/v7e-m/fpv4-sp/hard/libc.a(lib_a-writer.o)
 .debug_aranges
                0x0000000000000838       0x20 /usr/lib/gcc/arm-none-eabi/6.3.1/../../../arm-none-eabi/lib/thumb/v7e-m/fpv4-sp/hard/libc.a(lib_a-closer.o)
 .debug_aranges
                0x0000000000000858       0x20 /usr/lib/gcc/arm-none-eabi/6.3.1/../../../arm-none-eabi/lib/thumb/v7e-m/fpv4-sp/hard/libc.a(lib_a-fclose.o)
 .debug_aranges
                0x0000000000000878       0x20 /usr/lib/gcc/arm-none-eabi/6.3.1/../../../arm-none-eabi/lib/thumb/v7e-m/fpv4-sp/hard/libc.a(lib_a-fputwc.o)
 .debug_aranges
                0x0000000000000898       0x20 /usr/lib/gcc/arm-none-eabi/6.3.1/../../../arm-none-eabi/lib/thumb/v7e-m/fpv4-sp/hard/libc.a(lib_a-fstatr.o)
 .debug_aranges
                0x00000000000008b8       0x20 /usr/lib/gcc/arm-none-eabi/6.3.1/../../../arm-none-eabi/lib/thumb/v7e-m/fpv4-sp/hard/libc.a(lib_a-fvwrite.o)
 .debug_aranges
                0x00000000000008d8       0x20 /usr/lib/gcc/arm-none-eabi/6.3.1/../../../arm-none-eabi/lib/thumb/v7e-m/fpv4-sp/hard/libc.a(lib_a-isattyr.o)
 .debug_aranges
                0x00000000000008f8       0x20 /usr/lib/gcc/arm-none-eabi/6.3.1/../../../arm-none-eabi/lib/thumb/v7e-m/fpv4-sp/hard/libc.a(lib_a-lseekr.o)
 .debug_aranges
                0x0000000000000918       0x20 /usr/lib/gcc/arm-none-eabi/6.3.1/../../../arm-none-eabi/lib/thumb/v7e-m/fpv4-sp/hard/libc.a(lib_a-readr.o)
 .debug_aranges
                0x0000000000000938       0x20 /usr/lib/gcc/arm-none-eabi/6.3.1/../../../arm-none-eabi/lib/thumb/v7e-m/fpv4-sp/hard/libc.a(lib_a-wbuf.o)
 .debug_aranges
                0x0000000000000958       0x20 /usr/lib/gcc/arm-none-eabi/6.3.1/../../../arm-none-eabi/lib/thumb/v7e-m/fpv4-sp/hard/libc.a(lib_a-wcrtomb.o)
 .debug_aranges
                0x0000000000000978       0x20 /usr/lib/gcc/arm-none-eabi/6.3.1/../../../arm-none-eabi/lib/thumb/v7e-m/fpv4-sp/hard/libc.a(lib_a-wctomb_r.o)
 .debug_aranges
                0x0000000000000998       0x20 /usr/lib/gcc/arm-none-eabi/6.3.1/thumb/v7e-m/fpv4-sp/hard/libgcc.a(_arm_unorddf2.o)
 .debug_aranges
                0x00000000000009b8       0x20 /usr/lib/gcc/arm-none-eabi/6.3.1/thumb/v7e-m/fpv4-sp/hard/libgcc.a(_arm_fixdfsi.o)

.debug_ranges   0x0000000000000000      0xd40
 .debug_ranges  0x0000000000000000       0x90 build/pgm_syscalls.o
 .debug_ranges  0x0000000000000090      0x320 build/main.o
 .debug_ranges  0x00000000000003b0       0x20 build/menu.o
 .debug_ranges  0x00000000000003d0       0xd0 /usr/lib/gcc/arm-none-eabi/6.3.1/thumb/v7e-m/fpv4-sp/hard/libgcc.a(_udivmoddi4.o)
 .debug_ranges  0x00000000000004a0       0x30 /usr/lib/gcc/arm-none-eabi/6.3.1/../../../arm-none-eabi/lib/thumb/v7e-m/fpv4-sp/hard/libc.a(lib_a-signal.o)
 .debug_ranges  0x00000000000004d0       0x20 /usr/lib/gcc/arm-none-eabi/6.3.1/../../../arm-none-eabi/lib/thumb/v7e-m/fpv4-sp/hard/libc.a(lib_a-signalr.o)
 .debug_ranges  0x00000000000004f0       0x10 /usr/lib/gcc/arm-none-eabi/6.3.1/../../../arm-none-eabi/lib/thumb/v7e-m/fpv4-sp/hard/libc.a(lib_a-strcpy.o)
 .debug_ranges  0x0000000000000500      0x138 /usr/lib/gcc/arm-none-eabi/6.3.1/../../../arm-none-eabi/lib/thumb/v7e-m/fpv4-sp/hard/libc.a(lib_a-svfprintf.o)
 .debug_ranges  0x0000000000000638      0x160 /usr/lib/gcc/arm-none-eabi/6.3.1/../../../arm-none-eabi/lib/thumb/v7e-m/fpv4-sp/hard/libc.a(lib_a-vfprintf.o)
 .debug_ranges  0x0000000000000798       0x20 /usr/lib/gcc/arm-none-eabi/6.3.1/../../../arm-none-eabi/lib/thumb/v7e-m/fpv4-sp/hard/libc.a(lib_a-wsetup.o)
 .debug_ranges  0x00000000000007b8       0x38 /usr/lib/gcc/arm-none-eabi/6.3.1/../../../arm-none-eabi/lib/thumb/v7e-m/fpv4-sp/hard/libc.a(lib_a-__call_atexit.o)
 .debug_ranges  0x00000000000007f0       0x60 /usr/lib/gcc/arm-none-eabi/6.3.1/../../../arm-none-eabi/lib/thumb/v7e-m/fpv4-sp/hard/libc.a(lib_a-fflush.o)
 .debug_ranges  0x0000000000000850       0x70 /usr/lib/gcc/arm-none-eabi/6.3.1/../../../arm-none-eabi/lib/thumb/v7e-m/fpv4-sp/hard/libc.a(lib_a-findfp.o)
 .debug_ranges  0x00000000000008c0       0x20 /usr/lib/gcc/arm-none-eabi/6.3.1/../../../arm-none-eabi/lib/thumb/v7e-m/fpv4-sp/hard/libc.a(lib_a-locale.o)
 .debug_ranges  0x00000000000008e0       0x18 /usr/lib/gcc/arm-none-eabi/6.3.1/../../../arm-none-eabi/lib/thumb/v7e-m/fpv4-sp/hard/libc.a(lib_a-makebuf.o)
 .debug_ranges  0x00000000000008f8       0x90 /usr/lib/gcc/arm-none-eabi/6.3.1/../../../arm-none-eabi/lib/thumb/v7e-m/fpv4-sp/hard/libc.a(lib_a-mprec.o)
 .debug_ranges  0x0000000000000988       0x40 /usr/lib/gcc/arm-none-eabi/6.3.1/../../../arm-none-eabi/lib/thumb/v7e-m/fpv4-sp/hard/libc.a(lib_a-svfiprintf.o)
 .debug_ranges  0x00000000000009c8      0x1f0 /usr/lib/gcc/arm-none-eabi/6.3.1/../../../arm-none-eabi/lib/thumb/v7e-m/fpv4-sp/hard/libc.a(lib_a-vfiprintf.o)
 .debug_ranges  0x0000000000000bb8       0x28 /usr/lib/gcc/arm-none-eabi/6.3.1/../../../arm-none-eabi/lib/thumb/v7e-m/fpv4-sp/hard/libc.a(lib_a-writer.o)
 .debug_ranges  0x0000000000000be0       0x20 /usr/lib/gcc/arm-none-eabi/6.3.1/../../../arm-none-eabi/lib/thumb/v7e-m/fpv4-sp/hard/libc.a(lib_a-closer.o)
 .debug_ranges  0x0000000000000c00       0x30 /usr/lib/gcc/arm-none-eabi/6.3.1/../../../arm-none-eabi/lib/thumb/v7e-m/fpv4-sp/hard/libc.a(lib_a-fclose.o)
 .debug_ranges  0x0000000000000c30       0x48 /usr/lib/gcc/arm-none-eabi/6.3.1/../../../arm-none-eabi/lib/thumb/v7e-m/fpv4-sp/hard/libc.a(lib_a-fputwc.o)
 .debug_ranges  0x0000000000000c78       0x20 /usr/lib/gcc/arm-none-eabi/6.3.1/../../../arm-none-eabi/lib/thumb/v7e-m/fpv4-sp/hard/libc.a(lib_a-fstatr.o)
 .debug_ranges  0x0000000000000c98       0x20 /usr/lib/gcc/arm-none-eabi/6.3.1/../../../arm-none-eabi/lib/thumb/v7e-m/fpv4-sp/hard/libc.a(lib_a-fvwrite.o)
 .debug_ranges  0x0000000000000cb8       0x20 /usr/lib/gcc/arm-none-eabi/6.3.1/../../../arm-none-eabi/lib/thumb/v7e-m/fpv4-sp/hard/libc.a(lib_a-isattyr.o)
 .debug_ranges  0x0000000000000cd8       0x28 /usr/lib/gcc/arm-none-eabi/6.3.1/../../../arm-none-eabi/lib/thumb/v7e-m/fpv4-sp/hard/libc.a(lib_a-lseekr.o)
 .debug_ranges  0x0000000000000d00       0x28 /usr/lib/gcc/arm-none-eabi/6.3.1/../../../arm-none-eabi/lib/thumb/v7e-m/fpv4-sp/hard/libc.a(lib_a-readr.o)
 .debug_ranges  0x0000000000000d28       0x18 /usr/lib/gcc/arm-none-eabi/6.3.1/../../../arm-none-eabi/lib/thumb/v7e-m/fpv4-sp/hard/libc.a(lib_a-wbuf.o)

.debug_line     0x0000000000000000     0x88ae
 .debug_line    0x0000000000000000      0x278 build/pgm_syscalls.o
 .debug_line    0x0000000000000278      0x840 build/main.o
 .debug_line    0x0000000000000ab8      0x164 build/menu.o
 .debug_line    0x0000000000000c1c       0x5d build/startup_pgm.o
 .debug_line    0x0000000000000c79      0x189 /usr/lib/gcc/arm-none-eabi/6.3.1/thumb/v7e-m/fpv4-sp/hard/libgcc.a(_arm_addsubdf3.o)
 .debug_line    0x0000000000000e02      0x1a5 /usr/lib/gcc/arm-none-eabi/6.3.1/thumb/v7e-m/fpv4-sp/hard/libgcc.a(_arm_muldivdf3.o)
 .debug_line    0x0000000000000fa7       0x94 /usr/lib/gcc/arm-none-eabi/6.3.1/thumb/v7e-m/fpv4-sp/hard/libgcc.a(_arm_truncdfsf2.o)
 .debug_line    0x000000000000103b      0x120 /usr/lib/gcc/arm-none-eabi/6.3.1/thumb/v7e-m/fpv4-sp/hard/libgcc.a(_arm_addsubsf3.o)
 .debug_line    0x000000000000115b       0x67 /usr/lib/gcc/arm-none-eabi/6.3.1/thumb/v7e-m/fpv4-sp/hard/libgcc.a(_aeabi_uldivmod.o)
 .debug_line    0x00000000000011c2      0x11c /usr/lib/gcc/arm-none-eabi/6.3.1/thumb/v7e-m/fpv4-sp/hard/libgcc.a(_fixdfdi.o)
 .debug_line    0x00000000000012de      0x11a /usr/lib/gcc/arm-none-eabi/6.3.1/thumb/v7e-m/fpv4-sp/hard/libgcc.a(_fixunsdfdi.o)
 .debug_line    0x00000000000013f8      0x258 /usr/lib/gcc/arm-none-eabi/6.3.1/thumb/v7e-m/fpv4-sp/hard/libgcc.a(_udivmoddi4.o)
 .debug_line    0x0000000000001650       0x67 /usr/lib/gcc/arm-none-eabi/6.3.1/thumb/v7e-m/fpv4-sp/hard/libgcc.a(_dvmd_tls.o)
 .debug_line    0x00000000000016b7       0xc4 /usr/lib/gcc/arm-none-eabi/6.3.1/thumb/v7e-m/fpv4-sp/hard/libgcc.a(_arm_cmpdf2.o)
 .debug_line    0x000000000000177b       0x7c /usr/lib/gcc/arm-none-eabi/6.3.1/thumb/v7e-m/fpv4-sp/hard/libgcc.a(_arm_fixunsdfsi.o)
 .debug_line    0x00000000000017f7      0x157 /usr/lib/gcc/arm-none-eabi/6.3.1/../../../arm-none-eabi/lib/thumb/v7e-m/fpv4-sp/hard/libc.a(lib_a-atexit.o)
 .debug_line    0x000000000000194e      0x14c /usr/lib/gcc/arm-none-eabi/6.3.1/../../../arm-none-eabi/lib/thumb/v7e-m/fpv4-sp/hard/libc.a(lib_a-atoi.o)
 .debug_line    0x0000000000001a9a       0x67 /usr/lib/gcc/arm-none-eabi/6.3.1/../../../arm-none-eabi/lib/thumb/v7e-m/fpv4-sp/hard/libc.a(lib_a-ctype_.o)
 .debug_line    0x0000000000001b01      0x10a /usr/lib/gcc/arm-none-eabi/6.3.1/../../../arm-none-eabi/lib/thumb/v7e-m/fpv4-sp/hard/libc.a(lib_a-errno.o)
 .debug_line    0x0000000000001c0b       0xa5 /usr/lib/gcc/arm-none-eabi/6.3.1/../../../arm-none-eabi/lib/thumb/v7e-m/fpv4-sp/hard/libc.a(lib_a-fini.o)
 .debug_line    0x0000000000001cb0       0xef /usr/lib/gcc/arm-none-eabi/6.3.1/../../../arm-none-eabi/lib/thumb/v7e-m/fpv4-sp/hard/libc.a(lib_a-impure.o)
 .debug_line    0x0000000000001d9f       0xbe /usr/lib/gcc/arm-none-eabi/6.3.1/../../../arm-none-eabi/lib/thumb/v7e-m/fpv4-sp/hard/libc.a(lib_a-init.o)
 .debug_line    0x0000000000001e5d      0x182 /usr/lib/gcc/arm-none-eabi/6.3.1/../../../arm-none-eabi/lib/thumb/v7e-m/fpv4-sp/hard/libc.a(lib_a-memmove.o)
 .debug_line    0x0000000000001fdf      0x17c /usr/lib/gcc/arm-none-eabi/6.3.1/../../../arm-none-eabi/lib/thumb/v7e-m/fpv4-sp/hard/libc.a(lib_a-memset.o)
 .debug_line    0x000000000000215b      0x199 /usr/lib/gcc/arm-none-eabi/6.3.1/../../../arm-none-eabi/lib/thumb/v7e-m/fpv4-sp/hard/libc.a(lib_a-printf.o)
 .debug_line    0x00000000000022f4      0x206 /usr/lib/gcc/arm-none-eabi/6.3.1/../../../arm-none-eabi/lib/thumb/v7e-m/fpv4-sp/hard/libc.a(lib_a-signal.o)
 .debug_line    0x00000000000024fa      0x167 /usr/lib/gcc/arm-none-eabi/6.3.1/../../../arm-none-eabi/lib/thumb/v7e-m/fpv4-sp/hard/libc.a(lib_a-signalr.o)
 .debug_line    0x0000000000002661      0x1bc /usr/lib/gcc/arm-none-eabi/6.3.1/../../../arm-none-eabi/lib/thumb/v7e-m/fpv4-sp/hard/libc.a(lib_a-sprintf.o)
 .debug_line    0x000000000000281d      0x161 /usr/lib/gcc/arm-none-eabi/6.3.1/../../../arm-none-eabi/lib/thumb/v7e-m/fpv4-sp/hard/libc.a(lib_a-stpcpy.o)
 .debug_line    0x000000000000297e      0x15c /usr/lib/gcc/arm-none-eabi/6.3.1/../../../arm-none-eabi/lib/thumb/v7e-m/fpv4-sp/hard/libc.a(lib_a-strcat.o)
 .debug_line    0x0000000000002ada      0x181 /usr/lib/gcc/arm-none-eabi/6.3.1/../../../arm-none-eabi/lib/thumb/v7e-m/fpv4-sp/hard/libc.a(lib_a-strchr.o)
 .debug_line    0x0000000000002c5b      0x153 /usr/lib/gcc/arm-none-eabi/6.3.1/../../../arm-none-eabi/lib/thumb/v7e-m/fpv4-sp/hard/libc.a(lib_a-strcpy.o)
 .debug_line    0x0000000000002dae       0xb2 /usr/lib/gcc/arm-none-eabi/6.3.1/../../../arm-none-eabi/lib/thumb/v7e-m/fpv4-sp/hard/libc.a(lib_a-strlen.o)
 .debug_line    0x0000000000002e60      0x163 /usr/lib/gcc/arm-none-eabi/6.3.1/../../../arm-none-eabi/lib/thumb/v7e-m/fpv4-sp/hard/libc.a(lib_a-strncat.o)
 .debug_line    0x0000000000002fc3      0x1e2 /usr/lib/gcc/arm-none-eabi/6.3.1/../../../arm-none-eabi/lib/thumb/v7e-m/fpv4-sp/hard/libc.a(lib_a-strtol.o)
 .debug_line    0x00000000000031a5      0x913 /usr/lib/gcc/arm-none-eabi/6.3.1/../../../arm-none-eabi/lib/thumb/v7e-m/fpv4-sp/hard/libc.a(lib_a-svfprintf.o)
 .debug_line    0x0000000000003ab8      0x980 /usr/lib/gcc/arm-none-eabi/6.3.1/../../../arm-none-eabi/lib/thumb/v7e-m/fpv4-sp/hard/libc.a(lib_a-vfprintf.o)
 .debug_line    0x0000000000004438      0x1c6 /usr/lib/gcc/arm-none-eabi/6.3.1/../../../arm-none-eabi/lib/thumb/v7e-m/fpv4-sp/hard/libc.a(lib_a-wsetup.o)
 .debug_line    0x00000000000045fe      0x18a /usr/lib/gcc/arm-none-eabi/6.3.1/../../../arm-none-eabi/lib/thumb/v7e-m/fpv4-sp/hard/libc.a(lib_a-__atexit.o)
 .debug_line    0x0000000000004788      0x1b8 /usr/lib/gcc/arm-none-eabi/6.3.1/../../../arm-none-eabi/lib/thumb/v7e-m/fpv4-sp/hard/libc.a(lib_a-__call_atexit.o)
 .debug_line    0x0000000000004940      0x69c /usr/lib/gcc/arm-none-eabi/6.3.1/../../../arm-none-eabi/lib/thumb/v7e-m/fpv4-sp/hard/libc.a(lib_a-dtoa.o)
 .debug_line    0x0000000000004fdc      0x23b /usr/lib/gcc/arm-none-eabi/6.3.1/../../../arm-none-eabi/lib/thumb/v7e-m/fpv4-sp/hard/libc.a(lib_a-fflush.o)
 .debug_line    0x0000000000005217      0x27f /usr/lib/gcc/arm-none-eabi/6.3.1/../../../arm-none-eabi/lib/thumb/v7e-m/fpv4-sp/hard/libc.a(lib_a-findfp.o)
 .debug_line    0x0000000000005496      0x1ca /usr/lib/gcc/arm-none-eabi/6.3.1/../../../arm-none-eabi/lib/thumb/v7e-m/fpv4-sp/hard/libc.a(lib_a-fwalk.o)
 .debug_line    0x0000000000005660      0x1e9 /usr/lib/gcc/arm-none-eabi/6.3.1/../../../arm-none-eabi/lib/thumb/v7e-m/fpv4-sp/hard/libc.a(lib_a-locale.o)
 .debug_line    0x0000000000005849      0x26d /usr/lib/gcc/arm-none-eabi/6.3.1/../../../arm-none-eabi/lib/thumb/v7e-m/fpv4-sp/hard/libc.a(lib_a-makebuf.o)
 .debug_line    0x0000000000005ab6       0xa7 /usr/lib/gcc/arm-none-eabi/6.3.1/../../../arm-none-eabi/lib/thumb/v7e-m/fpv4-sp/hard/libc.a(lib_a-memchr.o)
 .debug_line    0x0000000000005b5d       0xc1 /usr/lib/gcc/arm-none-eabi/6.3.1/../../../arm-none-eabi/lib/thumb/v7e-m/fpv4-sp/hard/libc.a(lib_a-memcpy.o)
 .debug_line    0x0000000000005c1e      0x5c1 /usr/lib/gcc/arm-none-eabi/6.3.1/../../../arm-none-eabi/lib/thumb/v7e-m/fpv4-sp/hard/libc.a(lib_a-mprec.o)
 .debug_line    0x00000000000061df      0x17f /usr/lib/gcc/arm-none-eabi/6.3.1/../../../arm-none-eabi/lib/thumb/v7e-m/fpv4-sp/hard/libc.a(lib_a-reent.o)
 .debug_line    0x000000000000635e      0x1bb /usr/lib/gcc/arm-none-eabi/6.3.1/../../../arm-none-eabi/lib/thumb/v7e-m/fpv4-sp/hard/libc.a(lib_a-stdio.o)
 .debug_line    0x0000000000006519      0x13a /usr/lib/gcc/arm-none-eabi/6.3.1/../../../arm-none-eabi/lib/thumb/v7e-m/fpv4-sp/hard/libc.a(lib_a-strcmp.o)
 .debug_line    0x0000000000006653      0x63b /usr/lib/gcc/arm-none-eabi/6.3.1/../../../arm-none-eabi/lib/thumb/v7e-m/fpv4-sp/hard/libc.a(lib_a-svfiprintf.o)
 .debug_line    0x0000000000006c8e      0x6fe /usr/lib/gcc/arm-none-eabi/6.3.1/../../../arm-none-eabi/lib/thumb/v7e-m/fpv4-sp/hard/libc.a(lib_a-vfiprintf.o)
 .debug_line    0x000000000000738c      0x163 /usr/lib/gcc/arm-none-eabi/6.3.1/../../../arm-none-eabi/lib/thumb/v7e-m/fpv4-sp/hard/libc.a(lib_a-writer.o)
 .debug_line    0x00000000000074ef      0x161 /usr/lib/gcc/arm-none-eabi/6.3.1/../../../arm-none-eabi/lib/thumb/v7e-m/fpv4-sp/hard/libc.a(lib_a-closer.o)
 .debug_line    0x0000000000007650      0x19c /usr/lib/gcc/arm-none-eabi/6.3.1/../../../arm-none-eabi/lib/thumb/v7e-m/fpv4-sp/hard/libc.a(lib_a-fclose.o)
 .debug_line    0x00000000000077ec      0x1ff /usr/lib/gcc/arm-none-eabi/6.3.1/../../../arm-none-eabi/lib/thumb/v7e-m/fpv4-sp/hard/libc.a(lib_a-fputwc.o)
 .debug_line    0x00000000000079eb      0x1ea /usr/lib/gcc/arm-none-eabi/6.3.1/../../../arm-none-eabi/lib/thumb/v7e-m/fpv4-sp/hard/libc.a(lib_a-fstatr.o)
 .debug_line    0x0000000000007bd5      0x2c1 /usr/lib/gcc/arm-none-eabi/6.3.1/../../../arm-none-eabi/lib/thumb/v7e-m/fpv4-sp/hard/libc.a(lib_a-fvwrite.o)
 .debug_line    0x0000000000007e96      0x162 /usr/lib/gcc/arm-none-eabi/6.3.1/../../../arm-none-eabi/lib/thumb/v7e-m/fpv4-sp/hard/libc.a(lib_a-isattyr.o)
 .debug_line    0x0000000000007ff8      0x163 /usr/lib/gcc/arm-none-eabi/6.3.1/../../../arm-none-eabi/lib/thumb/v7e-m/fpv4-sp/hard/libc.a(lib_a-lseekr.o)
 .debug_line    0x000000000000815b      0x162 /usr/lib/gcc/arm-none-eabi/6.3.1/../../../arm-none-eabi/lib/thumb/v7e-m/fpv4-sp/hard/libc.a(lib_a-readr.o)
 .debug_line    0x00000000000082bd      0x1eb /usr/lib/gcc/arm-none-eabi/6.3.1/../../../arm-none-eabi/lib/thumb/v7e-m/fpv4-sp/hard/libc.a(lib_a-wbuf.o)
 .debug_line    0x00000000000084a8      0x18e /usr/lib/gcc/arm-none-eabi/6.3.1/../../../arm-none-eabi/lib/thumb/v7e-m/fpv4-sp/hard/libc.a(lib_a-wcrtomb.o)
 .debug_line    0x0000000000008636      0x183 /usr/lib/gcc/arm-none-eabi/6.3.1/../../../arm-none-eabi/lib/thumb/v7e-m/fpv4-sp/hard/libc.a(lib_a-wctomb_r.o)
 .debug_line    0x00000000000087b9       0x75 /usr/lib/gcc/arm-none-eabi/6.3.1/thumb/v7e-m/fpv4-sp/hard/libgcc.a(_arm_unorddf2.o)
 .debug_line    0x000000000000882e       0x80 /usr/lib/gcc/arm-none-eabi/6.3.1/thumb/v7e-m/fpv4-sp/hard/libgcc.a(_arm_fixdfsi.o)

.debug_str      0x0000000000000000     0x3658
 .debug_str     0x0000000000000000      0x75b build/pgm_syscalls.o
                                        0x885 (size before relaxing)
 .debug_str     0x000000000000075b      0x6ce build/main.o
                                        0xd4a (size before relaxing)
 .debug_str     0x0000000000000e29       0x62 build/menu.o
                                        0x8d6 (size before relaxing)
 .debug_str     0x0000000000000e8b      0xbca /usr/lib/gcc/arm-none-eabi/6.3.1/thumb/v7e-m/fpv4-sp/hard/libgcc.a(_fixdfdi.o)
                                        0xcb6 (size before relaxing)
 .debug_str     0x0000000000001a55       0x10 /usr/lib/gcc/arm-none-eabi/6.3.1/thumb/v7e-m/fpv4-sp/hard/libgcc.a(_fixunsdfdi.o)
                                        0xca7 (size before relaxing)
 .debug_str     0x0000000000001a65      0x101 /usr/lib/gcc/arm-none-eabi/6.3.1/thumb/v7e-m/fpv4-sp/hard/libgcc.a(_udivmoddi4.o)
                                        0xcf4 (size before relaxing)
 .debug_str     0x0000000000001b66      0x187 /usr/lib/gcc/arm-none-eabi/6.3.1/../../../arm-none-eabi/lib/thumb/v7e-m/fpv4-sp/hard/libc.a(lib_a-atexit.o)
                                        0x60b (size before relaxing)
 .debug_str     0x0000000000001ced       0x4e /usr/lib/gcc/arm-none-eabi/6.3.1/../../../arm-none-eabi/lib/thumb/v7e-m/fpv4-sp/hard/libc.a(lib_a-atoi.o)
                                        0x5dc (size before relaxing)
 .debug_str     0x0000000000001d3b       0xa0 /usr/lib/gcc/arm-none-eabi/6.3.1/../../../arm-none-eabi/lib/thumb/v7e-m/fpv4-sp/hard/libc.a(lib_a-ctype_.o)
                                        0x1f5 (size before relaxing)
 .debug_str     0x0000000000001ddb       0x9f /usr/lib/gcc/arm-none-eabi/6.3.1/../../../arm-none-eabi/lib/thumb/v7e-m/fpv4-sp/hard/libc.a(lib_a-errno.o)
                                        0x5d2 (size before relaxing)
 .debug_str     0x0000000000001e7a       0xd2 /usr/lib/gcc/arm-none-eabi/6.3.1/../../../arm-none-eabi/lib/thumb/v7e-m/fpv4-sp/hard/libc.a(lib_a-fini.o)
                                        0x224 (size before relaxing)
 .debug_str     0x0000000000001f4c       0xac /usr/lib/gcc/arm-none-eabi/6.3.1/../../../arm-none-eabi/lib/thumb/v7e-m/fpv4-sp/hard/libc.a(lib_a-impure.o)
                                        0x5c0 (size before relaxing)
 .debug_str     0x0000000000001ff8       0x93 /usr/lib/gcc/arm-none-eabi/6.3.1/../../../arm-none-eabi/lib/thumb/v7e-m/fpv4-sp/hard/libc.a(lib_a-init.o)
                                        0x24e (size before relaxing)
 .debug_str     0x000000000000208b       0xd4 /usr/lib/gcc/arm-none-eabi/6.3.1/../../../arm-none-eabi/lib/thumb/v7e-m/fpv4-sp/hard/libc.a(lib_a-memmove.o)
                                        0x5f7 (size before relaxing)
 .debug_str     0x000000000000215f       0x52 /usr/lib/gcc/arm-none-eabi/6.3.1/../../../arm-none-eabi/lib/thumb/v7e-m/fpv4-sp/hard/libc.a(lib_a-memset.o)
                                        0x5d8 (size before relaxing)
 .debug_str     0x00000000000021b1      0x1f4 /usr/lib/gcc/arm-none-eabi/6.3.1/../../../arm-none-eabi/lib/thumb/v7e-m/fpv4-sp/hard/libc.a(lib_a-printf.o)
                                        0x732 (size before relaxing)
 .debug_str     0x00000000000023a5      0x10e /usr/lib/gcc/arm-none-eabi/6.3.1/../../../arm-none-eabi/lib/thumb/v7e-m/fpv4-sp/hard/libc.a(lib_a-signal.o)
                                        0x663 (size before relaxing)
 .debug_str     0x00000000000024b3       0x37 /usr/lib/gcc/arm-none-eabi/6.3.1/../../../arm-none-eabi/lib/thumb/v7e-m/fpv4-sp/hard/libc.a(lib_a-signalr.o)
                                        0x608 (size before relaxing)
 .debug_str     0x00000000000024ea       0x4f /usr/lib/gcc/arm-none-eabi/6.3.1/../../../arm-none-eabi/lib/thumb/v7e-m/fpv4-sp/hard/libc.a(lib_a-sprintf.o)
                                        0x73b (size before relaxing)
 .debug_str     0x0000000000002539       0x37 /usr/lib/gcc/arm-none-eabi/6.3.1/../../../arm-none-eabi/lib/thumb/v7e-m/fpv4-sp/hard/libc.a(lib_a-stpcpy.o)
                                        0x5d5 (size before relaxing)
 .debug_str     0x0000000000002570       0x42 /usr/lib/gcc/arm-none-eabi/6.3.1/../../../arm-none-eabi/lib/thumb/v7e-m/fpv4-sp/hard/libc.a(lib_a-strcat.o)
                                        0x5cf (size before relaxing)
 .debug_str     0x00000000000025b2       0x3c /usr/lib/gcc/arm-none-eabi/6.3.1/../../../arm-none-eabi/lib/thumb/v7e-m/fpv4-sp/hard/libc.a(lib_a-strchr.o)
                                        0x5cf (size before relaxing)
 .debug_str     0x00000000000025ee       0xaf /usr/lib/gcc/arm-none-eabi/6.3.1/../../../arm-none-eabi/lib/thumb/v7e-m/fpv4-sp/hard/libc.a(lib_a-strcpy.o)
                                        0x5ca (size before relaxing)
 .debug_str     0x000000000000269d       0x38 /usr/lib/gcc/arm-none-eabi/6.3.1/../../../arm-none-eabi/lib/thumb/v7e-m/fpv4-sp/hard/libc.a(lib_a-strncat.o)
                                        0x5d1 (size before relaxing)
 .debug_str     0x00000000000026d5       0x56 /usr/lib/gcc/arm-none-eabi/6.3.1/../../../arm-none-eabi/lib/thumb/v7e-m/fpv4-sp/hard/libc.a(lib_a-strtol.o)
                                        0x622 (size before relaxing)
 .debug_str     0x000000000000272b      0x2e6 /usr/lib/gcc/arm-none-eabi/6.3.1/../../../arm-none-eabi/lib/thumb/v7e-m/fpv4-sp/hard/libc.a(lib_a-svfprintf.o)
                                        0x9dd (size before relaxing)
 .debug_str     0x0000000000002a11       0x52 /usr/lib/gcc/arm-none-eabi/6.3.1/../../../arm-none-eabi/lib/thumb/v7e-m/fpv4-sp/hard/libc.a(lib_a-vfprintf.o)
                                        0xa24 (size before relaxing)
 .debug_str     0x0000000000002a63       0x43 /usr/lib/gcc/arm-none-eabi/6.3.1/../../../arm-none-eabi/lib/thumb/v7e-m/fpv4-sp/hard/libc.a(lib_a-wsetup.o)
                                        0x744 (size before relaxing)
 .debug_str     0x0000000000002aa6       0x47 /usr/lib/gcc/arm-none-eabi/6.3.1/../../../arm-none-eabi/lib/thumb/v7e-m/fpv4-sp/hard/libc.a(lib_a-__atexit.o)
                                        0x625 (size before relaxing)
 .debug_str     0x0000000000002aed       0x77 /usr/lib/gcc/arm-none-eabi/6.3.1/../../../arm-none-eabi/lib/thumb/v7e-m/fpv4-sp/hard/libc.a(lib_a-__call_atexit.o)
                                        0x636 (size before relaxing)
 .debug_str     0x0000000000002b64      0x174 /usr/lib/gcc/arm-none-eabi/6.3.1/../../../arm-none-eabi/lib/thumb/v7e-m/fpv4-sp/hard/libc.a(lib_a-dtoa.o)
                                        0x7b4 (size before relaxing)
 .debug_str     0x0000000000002cd8       0x66 /usr/lib/gcc/arm-none-eabi/6.3.1/../../../arm-none-eabi/lib/thumb/v7e-m/fpv4-sp/hard/libc.a(lib_a-fflush.o)
                                        0x772 (size before relaxing)
 .debug_str     0x0000000000002d3e      0x119 /usr/lib/gcc/arm-none-eabi/6.3.1/../../../arm-none-eabi/lib/thumb/v7e-m/fpv4-sp/hard/libc.a(lib_a-findfp.o)
                                        0x84e (size before relaxing)
 .debug_str     0x0000000000002e57       0x44 /usr/lib/gcc/arm-none-eabi/6.3.1/../../../arm-none-eabi/lib/thumb/v7e-m/fpv4-sp/hard/libc.a(lib_a-fwalk.o)
                                        0x736 (size before relaxing)
 .debug_str     0x0000000000002e9b      0x276 /usr/lib/gcc/arm-none-eabi/6.3.1/../../../arm-none-eabi/lib/thumb/v7e-m/fpv4-sp/hard/libc.a(lib_a-locale.o)
                                        0x896 (size before relaxing)
 .debug_str     0x0000000000003111       0x6f /usr/lib/gcc/arm-none-eabi/6.3.1/../../../arm-none-eabi/lib/thumb/v7e-m/fpv4-sp/hard/libc.a(lib_a-makebuf.o)
                                        0x8b0 (size before relaxing)
 .debug_str     0x0000000000003180       0x86 /usr/lib/gcc/arm-none-eabi/6.3.1/../../../arm-none-eabi/lib/thumb/v7e-m/fpv4-sp/hard/libc.a(lib_a-mprec.o)
                                        0x75d (size before relaxing)
 .debug_str     0x0000000000003206       0x61 /usr/lib/gcc/arm-none-eabi/6.3.1/../../../arm-none-eabi/lib/thumb/v7e-m/fpv4-sp/hard/libc.a(lib_a-reent.o)
                                        0x5fc (size before relaxing)
 .debug_str     0x0000000000003267       0x95 /usr/lib/gcc/arm-none-eabi/6.3.1/../../../arm-none-eabi/lib/thumb/v7e-m/fpv4-sp/hard/libc.a(lib_a-stdio.o)
                                        0x78a (size before relaxing)
 .debug_str     0x00000000000032fc       0x1d /usr/lib/gcc/arm-none-eabi/6.3.1/../../../arm-none-eabi/lib/thumb/v7e-m/fpv4-sp/hard/libc.a(lib_a-svfiprintf.o)
                                        0x950 (size before relaxing)
 .debug_str     0x0000000000003319       0x2e /usr/lib/gcc/arm-none-eabi/6.3.1/../../../arm-none-eabi/lib/thumb/v7e-m/fpv4-sp/hard/libc.a(lib_a-vfiprintf.o)
                                        0x97e (size before relaxing)
 .debug_str     0x0000000000003347       0x36 /usr/lib/gcc/arm-none-eabi/6.3.1/../../../arm-none-eabi/lib/thumb/v7e-m/fpv4-sp/hard/libc.a(lib_a-writer.o)
                                        0x600 (size before relaxing)
 .debug_str     0x000000000000337d       0x36 /usr/lib/gcc/arm-none-eabi/6.3.1/../../../arm-none-eabi/lib/thumb/v7e-m/fpv4-sp/hard/libc.a(lib_a-closer.o)
                                        0x5f0 (size before relaxing)
 .debug_str     0x00000000000033b3       0x47 /usr/lib/gcc/arm-none-eabi/6.3.1/../../../arm-none-eabi/lib/thumb/v7e-m/fpv4-sp/hard/libc.a(lib_a-fclose.o)
                                        0x75b (size before relaxing)
 .debug_str     0x00000000000033fa       0x5e /usr/lib/gcc/arm-none-eabi/6.3.1/../../../arm-none-eabi/lib/thumb/v7e-m/fpv4-sp/hard/libc.a(lib_a-fputwc.o)
                                        0x78a (size before relaxing)
 .debug_str     0x0000000000003458       0x3c /usr/lib/gcc/arm-none-eabi/6.3.1/../../../arm-none-eabi/lib/thumb/v7e-m/fpv4-sp/hard/libc.a(lib_a-fstatr.o)
                                        0x757 (size before relaxing)
 .debug_str     0x0000000000003494       0x46 /usr/lib/gcc/arm-none-eabi/6.3.1/../../../arm-none-eabi/lib/thumb/v7e-m/fpv4-sp/hard/libc.a(lib_a-fvwrite.o)
                                        0x7c3 (size before relaxing)
 .debug_str     0x00000000000034da       0x37 /usr/lib/gcc/arm-none-eabi/6.3.1/../../../arm-none-eabi/lib/thumb/v7e-m/fpv4-sp/hard/libc.a(lib_a-isattyr.o)
                                        0x5fa (size before relaxing)
 .debug_str     0x0000000000003511       0x36 /usr/lib/gcc/arm-none-eabi/6.3.1/../../../arm-none-eabi/lib/thumb/v7e-m/fpv4-sp/hard/libc.a(lib_a-lseekr.o)
                                        0x5fe (size before relaxing)
 .debug_str     0x0000000000003547       0x35 /usr/lib/gcc/arm-none-eabi/6.3.1/../../../arm-none-eabi/lib/thumb/v7e-m/fpv4-sp/hard/libc.a(lib_a-readr.o)
                                        0x5fe (size before relaxing)
 .debug_str     0x000000000000357c       0x3c /usr/lib/gcc/arm-none-eabi/6.3.1/../../../arm-none-eabi/lib/thumb/v7e-m/fpv4-sp/hard/libc.a(lib_a-wbuf.o)
                                        0x749 (size before relaxing)
 .debug_str     0x00000000000035b8       0x47 /usr/lib/gcc/arm-none-eabi/6.3.1/../../../arm-none-eabi/lib/thumb/v7e-m/fpv4-sp/hard/libc.a(lib_a-wcrtomb.o)
                                        0x64e (size before relaxing)
 .debug_str     0x00000000000035ff       0x59 /usr/lib/gcc/arm-none-eabi/6.3.1/../../../arm-none-eabi/lib/thumb/v7e-m/fpv4-sp/hard/libc.a(lib_a-wctomb_r.o)
                                        0x663 (size before relaxing)

.debug_frame    0x0000000000000000     0x1b0c
 .debug_frame   0x0000000000000000      0x13c build/pgm_syscalls.o
 .debug_frame   0x000000000000013c      0x458 build/main.o
 .debug_frame   0x0000000000000594       0x78 build/menu.o
 .debug_frame   0x000000000000060c       0xac /usr/lib/gcc/arm-none-eabi/6.3.1/thumb/v7e-m/fpv4-sp/hard/libgcc.a(_arm_addsubdf3.o)
 .debug_frame   0x00000000000006b8       0x50 /usr/lib/gcc/arm-none-eabi/6.3.1/thumb/v7e-m/fpv4-sp/hard/libgcc.a(_arm_muldivdf3.o)
 .debug_frame   0x0000000000000708       0x24 /usr/lib/gcc/arm-none-eabi/6.3.1/thumb/v7e-m/fpv4-sp/hard/libgcc.a(_arm_truncdfsf2.o)
 .debug_frame   0x000000000000072c       0x4c /usr/lib/gcc/arm-none-eabi/6.3.1/thumb/v7e-m/fpv4-sp/hard/libgcc.a(_arm_addsubsf3.o)
 .debug_frame   0x0000000000000778       0x2c /usr/lib/gcc/arm-none-eabi/6.3.1/thumb/v7e-m/fpv4-sp/hard/libgcc.a(_aeabi_uldivmod.o)
 .debug_frame   0x00000000000007a4       0x38 /usr/lib/gcc/arm-none-eabi/6.3.1/thumb/v7e-m/fpv4-sp/hard/libgcc.a(_fixdfdi.o)
 .debug_frame   0x00000000000007dc       0x2c /usr/lib/gcc/arm-none-eabi/6.3.1/thumb/v7e-m/fpv4-sp/hard/libgcc.a(_fixunsdfdi.o)
 .debug_frame   0x0000000000000808       0x34 /usr/lib/gcc/arm-none-eabi/6.3.1/thumb/v7e-m/fpv4-sp/hard/libgcc.a(_udivmoddi4.o)
 .debug_frame   0x000000000000083c       0xc4 /usr/lib/gcc/arm-none-eabi/6.3.1/thumb/v7e-m/fpv4-sp/hard/libgcc.a(_arm_cmpdf2.o)
 .debug_frame   0x0000000000000900       0x24 /usr/lib/gcc/arm-none-eabi/6.3.1/thumb/v7e-m/fpv4-sp/hard/libgcc.a(_arm_fixunsdfsi.o)
 .debug_frame   0x0000000000000924       0x20 /usr/lib/gcc/arm-none-eabi/6.3.1/../../../arm-none-eabi/lib/thumb/v7e-m/fpv4-sp/hard/libc.a(lib_a-atexit.o)
 .debug_frame   0x0000000000000944       0x30 /usr/lib/gcc/arm-none-eabi/6.3.1/../../../arm-none-eabi/lib/thumb/v7e-m/fpv4-sp/hard/libc.a(lib_a-atoi.o)
 .debug_frame   0x0000000000000974       0x20 /usr/lib/gcc/arm-none-eabi/6.3.1/../../../arm-none-eabi/lib/thumb/v7e-m/fpv4-sp/hard/libc.a(lib_a-errno.o)
 .debug_frame   0x0000000000000994       0x34 /usr/lib/gcc/arm-none-eabi/6.3.1/../../../arm-none-eabi/lib/thumb/v7e-m/fpv4-sp/hard/libc.a(lib_a-fini.o)
 .debug_frame   0x00000000000009c8       0x2c /usr/lib/gcc/arm-none-eabi/6.3.1/../../../arm-none-eabi/lib/thumb/v7e-m/fpv4-sp/hard/libc.a(lib_a-init.o)
 .debug_frame   0x00000000000009f4       0x30 /usr/lib/gcc/arm-none-eabi/6.3.1/../../../arm-none-eabi/lib/thumb/v7e-m/fpv4-sp/hard/libc.a(lib_a-memmove.o)
 .debug_frame   0x0000000000000a24       0x34 /usr/lib/gcc/arm-none-eabi/6.3.1/../../../arm-none-eabi/lib/thumb/v7e-m/fpv4-sp/hard/libc.a(lib_a-memset.o)
 .debug_frame   0x0000000000000a58       0x74 /usr/lib/gcc/arm-none-eabi/6.3.1/../../../arm-none-eabi/lib/thumb/v7e-m/fpv4-sp/hard/libc.a(lib_a-printf.o)
 .debug_frame   0x0000000000000acc      0x108 /usr/lib/gcc/arm-none-eabi/6.3.1/../../../arm-none-eabi/lib/thumb/v7e-m/fpv4-sp/hard/libc.a(lib_a-signal.o)
 .debug_frame   0x0000000000000bd4       0x3c /usr/lib/gcc/arm-none-eabi/6.3.1/../../../arm-none-eabi/lib/thumb/v7e-m/fpv4-sp/hard/libc.a(lib_a-signalr.o)
 .debug_frame   0x0000000000000c10       0x84 /usr/lib/gcc/arm-none-eabi/6.3.1/../../../arm-none-eabi/lib/thumb/v7e-m/fpv4-sp/hard/libc.a(lib_a-sprintf.o)
 .debug_frame   0x0000000000000c94       0x2c /usr/lib/gcc/arm-none-eabi/6.3.1/../../../arm-none-eabi/lib/thumb/v7e-m/fpv4-sp/hard/libc.a(lib_a-stpcpy.o)
 .debug_frame   0x0000000000000cc0       0x28 /usr/lib/gcc/arm-none-eabi/6.3.1/../../../arm-none-eabi/lib/thumb/v7e-m/fpv4-sp/hard/libc.a(lib_a-strcat.o)
 .debug_frame   0x0000000000000ce8       0x50 /usr/lib/gcc/arm-none-eabi/6.3.1/../../../arm-none-eabi/lib/thumb/v7e-m/fpv4-sp/hard/libc.a(lib_a-strchr.o)
 .debug_frame   0x0000000000000d38       0x20 /usr/lib/gcc/arm-none-eabi/6.3.1/../../../arm-none-eabi/lib/thumb/v7e-m/fpv4-sp/hard/libc.a(lib_a-strcpy.o)
 .debug_frame   0x0000000000000d58       0x30 /usr/lib/gcc/arm-none-eabi/6.3.1/../../../arm-none-eabi/lib/thumb/v7e-m/fpv4-sp/hard/libc.a(lib_a-strncat.o)
 .debug_frame   0x0000000000000d88       0x5c /usr/lib/gcc/arm-none-eabi/6.3.1/../../../arm-none-eabi/lib/thumb/v7e-m/fpv4-sp/hard/libc.a(lib_a-strtol.o)
 .debug_frame   0x0000000000000de4       0x40 /usr/lib/gcc/arm-none-eabi/6.3.1/../../../arm-none-eabi/lib/thumb/v7e-m/fpv4-sp/hard/libc.a(lib_a-svfprintf.o)
 .debug_frame   0x0000000000000e24       0x84 /usr/lib/gcc/arm-none-eabi/6.3.1/../../../arm-none-eabi/lib/thumb/v7e-m/fpv4-sp/hard/libc.a(lib_a-vfprintf.o)
 .debug_frame   0x0000000000000ea8       0x2c /usr/lib/gcc/arm-none-eabi/6.3.1/../../../arm-none-eabi/lib/thumb/v7e-m/fpv4-sp/hard/libc.a(lib_a-wsetup.o)
 .debug_frame   0x0000000000000ed4       0x34 /usr/lib/gcc/arm-none-eabi/6.3.1/../../../arm-none-eabi/lib/thumb/v7e-m/fpv4-sp/hard/libc.a(lib_a-__atexit.o)
 .debug_frame   0x0000000000000f08       0x50 /usr/lib/gcc/arm-none-eabi/6.3.1/../../../arm-none-eabi/lib/thumb/v7e-m/fpv4-sp/hard/libc.a(lib_a-__call_atexit.o)
 .debug_frame   0x0000000000000f58       0x88 /usr/lib/gcc/arm-none-eabi/6.3.1/../../../arm-none-eabi/lib/thumb/v7e-m/fpv4-sp/hard/libc.a(lib_a-dtoa.o)
 .debug_frame   0x0000000000000fe0       0x6c /usr/lib/gcc/arm-none-eabi/6.3.1/../../../arm-none-eabi/lib/thumb/v7e-m/fpv4-sp/hard/libc.a(lib_a-fflush.o)
 .debug_frame   0x000000000000104c      0x124 /usr/lib/gcc/arm-none-eabi/6.3.1/../../../arm-none-eabi/lib/thumb/v7e-m/fpv4-sp/hard/libc.a(lib_a-findfp.o)
 .debug_frame   0x0000000000001170       0x54 /usr/lib/gcc/arm-none-eabi/6.3.1/../../../arm-none-eabi/lib/thumb/v7e-m/fpv4-sp/hard/libc.a(lib_a-fwalk.o)
 .debug_frame   0x00000000000011c4       0x9c /usr/lib/gcc/arm-none-eabi/6.3.1/../../../arm-none-eabi/lib/thumb/v7e-m/fpv4-sp/hard/libc.a(lib_a-locale.o)
 .debug_frame   0x0000000000001260       0x68 /usr/lib/gcc/arm-none-eabi/6.3.1/../../../arm-none-eabi/lib/thumb/v7e-m/fpv4-sp/hard/libc.a(lib_a-makebuf.o)
 .debug_frame   0x00000000000012c8      0x25c /usr/lib/gcc/arm-none-eabi/6.3.1/../../../arm-none-eabi/lib/thumb/v7e-m/fpv4-sp/hard/libc.a(lib_a-mprec.o)
 .debug_frame   0x0000000000001524       0x58 /usr/lib/gcc/arm-none-eabi/6.3.1/../../../arm-none-eabi/lib/thumb/v7e-m/fpv4-sp/hard/libc.a(lib_a-reent.o)
 .debug_frame   0x000000000000157c       0x88 /usr/lib/gcc/arm-none-eabi/6.3.1/../../../arm-none-eabi/lib/thumb/v7e-m/fpv4-sp/hard/libc.a(lib_a-stdio.o)
 .debug_frame   0x0000000000001604       0x68 /usr/lib/gcc/arm-none-eabi/6.3.1/../../../arm-none-eabi/lib/thumb/v7e-m/fpv4-sp/hard/libc.a(lib_a-strcmp.o)
 .debug_frame   0x000000000000166c       0x78 /usr/lib/gcc/arm-none-eabi/6.3.1/../../../arm-none-eabi/lib/thumb/v7e-m/fpv4-sp/hard/libc.a(lib_a-svfiprintf.o)
 .debug_frame   0x00000000000016e4       0xc4 /usr/lib/gcc/arm-none-eabi/6.3.1/../../../arm-none-eabi/lib/thumb/v7e-m/fpv4-sp/hard/libc.a(lib_a-vfiprintf.o)
 .debug_frame   0x00000000000017a8       0x2c /usr/lib/gcc/arm-none-eabi/6.3.1/../../../arm-none-eabi/lib/thumb/v7e-m/fpv4-sp/hard/libc.a(lib_a-writer.o)
 .debug_frame   0x00000000000017d4       0x2c /usr/lib/gcc/arm-none-eabi/6.3.1/../../../arm-none-eabi/lib/thumb/v7e-m/fpv4-sp/hard/libc.a(lib_a-closer.o)
 .debug_frame   0x0000000000001800       0x3c /usr/lib/gcc/arm-none-eabi/6.3.1/../../../arm-none-eabi/lib/thumb/v7e-m/fpv4-sp/hard/libc.a(lib_a-fclose.o)
 .debug_frame   0x000000000000183c       0x8c /usr/lib/gcc/arm-none-eabi/6.3.1/../../../arm-none-eabi/lib/thumb/v7e-m/fpv4-sp/hard/libc.a(lib_a-fputwc.o)
 .debug_frame   0x00000000000018c8       0x2c /usr/lib/gcc/arm-none-eabi/6.3.1/../../../arm-none-eabi/lib/thumb/v7e-m/fpv4-sp/hard/libc.a(lib_a-fstatr.o)
 .debug_frame   0x00000000000018f4       0x68 /usr/lib/gcc/arm-none-eabi/6.3.1/../../../arm-none-eabi/lib/thumb/v7e-m/fpv4-sp/hard/libc.a(lib_a-fvwrite.o)
 .debug_frame   0x000000000000195c       0x2c /usr/lib/gcc/arm-none-eabi/6.3.1/../../../arm-none-eabi/lib/thumb/v7e-m/fpv4-sp/hard/libc.a(lib_a-isattyr.o)
 .debug_frame   0x0000000000001988       0x2c /usr/lib/gcc/arm-none-eabi/6.3.1/../../../arm-none-eabi/lib/thumb/v7e-m/fpv4-sp/hard/libc.a(lib_a-lseekr.o)
 .debug_frame   0x00000000000019b4       0x2c /usr/lib/gcc/arm-none-eabi/6.3.1/../../../arm-none-eabi/lib/thumb/v7e-m/fpv4-sp/hard/libc.a(lib_a-readr.o)
 .debug_frame   0x00000000000019e0       0x40 /usr/lib/gcc/arm-none-eabi/6.3.1/../../../arm-none-eabi/lib/thumb/v7e-m/fpv4-sp/hard/libc.a(lib_a-wbuf.o)
 .debug_frame   0x0000000000001a20       0x60 /usr/lib/gcc/arm-none-eabi/6.3.1/../../../arm-none-eabi/lib/thumb/v7e-m/fpv4-sp/hard/libc.a(lib_a-wcrtomb.o)
 .debug_frame   0x0000000000001a80       0x48 /usr/lib/gcc/arm-none-eabi/6.3.1/../../../arm-none-eabi/lib/thumb/v7e-m/fpv4-sp/hard/libc.a(lib_a-wctomb_r.o)
 .debug_frame   0x0000000000001ac8       0x20 /usr/lib/gcc/arm-none-eabi/6.3.1/thumb/v7e-m/fpv4-sp/hard/libgcc.a(_arm_unorddf2.o)
 .debug_frame   0x0000000000001ae8       0x24 /usr/lib/gcc/arm-none-eabi/6.3.1/thumb/v7e-m/fpv4-sp/hard/libgcc.a(_arm_fixdfsi.o)

Cross Reference Table

Symbol                                            File
FROM_RAD                                          build/main.o
MID_MENU                                          build/menu.o
                                                  build/main.o
MID_SETTINGS                                      build/menu.o
Program_Entry                                     build/startup_pgm.o
                                                  build/pgm_syscalls.o
TO_RAD                                            build/main.o
_Balloc                                           /usr/lib/gcc/arm-none-eabi/6.3.1/../../../arm-none-eabi/lib/thumb/v7e-m/fpv4-sp/hard/libc.a(lib_a-mprec.o)
                                                  /usr/lib/gcc/arm-none-eabi/6.3.1/../../../arm-none-eabi/lib/thumb/v7e-m/fpv4-sp/hard/libc.a(lib_a-dtoa.o)
_Bfree                                            /usr/lib/gcc/arm-none-eabi/6.3.1/../../../arm-none-eabi/lib/thumb/v7e-m/fpv4-sp/hard/libc.a(lib_a-mprec.o)
                                                  /usr/lib/gcc/arm-none-eabi/6.3.1/../../../arm-none-eabi/lib/thumb/v7e-m/fpv4-sp/hard/libc.a(lib_a-dtoa.o)
_ITM_deregisterTMCloneTable                       /usr/lib/gcc/arm-none-eabi/6.3.1/thumb/v7e-m/fpv4-sp/hard/crtbegin.o
_ITM_registerTMCloneTable                         /usr/lib/gcc/arm-none-eabi/6.3.1/thumb/v7e-m/fpv4-sp/hard/crtbegin.o
_Jv_RegisterClasses                               /usr/lib/gcc/arm-none-eabi/6.3.1/thumb/v7e-m/fpv4-sp/hard/crtbegin.o
_PathLocale                                       /usr/lib/gcc/arm-none-eabi/6.3.1/../../../arm-none-eabi/lib/thumb/v7e-m/fpv4-sp/hard/libc.a(lib_a-locale.o)
__TMC_END__                                       /usr/lib/gcc/arm-none-eabi/6.3.1/thumb/v7e-m/fpv4-sp/hard/crtend.o
                                                  /usr/lib/gcc/arm-none-eabi/6.3.1/thumb/v7e-m/fpv4-sp/hard/crtbegin.o
__adddf3                                          /usr/lib/gcc/arm-none-eabi/6.3.1/thumb/v7e-m/fpv4-sp/hard/libgcc.a(_arm_addsubdf3.o)
__addsf3                                          /usr/lib/gcc/arm-none-eabi/6.3.1/thumb/v7e-m/fpv4-sp/hard/libgcc.a(_arm_addsubsf3.o)
__aeabi_cdcmpeq                                   /usr/lib/gcc/arm-none-eabi/6.3.1/thumb/v7e-m/fpv4-sp/hard/libgcc.a(_arm_cmpdf2.o)
__aeabi_cdcmple                                   /usr/lib/gcc/arm-none-eabi/6.3.1/thumb/v7e-m/fpv4-sp/hard/libgcc.a(_arm_cmpdf2.o)
__aeabi_cdrcmple                                  /usr/lib/gcc/arm-none-eabi/6.3.1/thumb/v7e-m/fpv4-sp/hard/libgcc.a(_arm_cmpdf2.o)
__aeabi_d2f                                       /usr/lib/gcc/arm-none-eabi/6.3.1/thumb/v7e-m/fpv4-sp/hard/libgcc.a(_arm_truncdfsf2.o)
                                                  lib/gcc111libbid_hard.a(dpml_ux_sqrt.o)
__aeabi_d2iz                                      /usr/lib/gcc/arm-none-eabi/6.3.1/thumb/v7e-m/fpv4-sp/hard/libgcc.a(_arm_fixdfsi.o)
                                                  /usr/lib/gcc/arm-none-eabi/6.3.1/../../../arm-none-eabi/lib/thumb/v7e-m/fpv4-sp/hard/libc.a(lib_a-dtoa.o)
__aeabi_d2lz                                      /usr/lib/gcc/arm-none-eabi/6.3.1/thumb/v7e-m/fpv4-sp/hard/libgcc.a(_fixdfdi.o)
                                                  lib/gcc111libbid_hard.a(dpml_ux_ops_64.o)
                                                  lib/gcc111libbid_hard.a(dpml_ux_sqrt.o)
__aeabi_d2uiz                                     /usr/lib/gcc/arm-none-eabi/6.3.1/thumb/v7e-m/fpv4-sp/hard/libgcc.a(_arm_fixunsdfsi.o)
                                                  /usr/lib/gcc/arm-none-eabi/6.3.1/thumb/v7e-m/fpv4-sp/hard/libgcc.a(_fixunsdfdi.o)
__aeabi_d2ulz                                     /usr/lib/gcc/arm-none-eabi/6.3.1/thumb/v7e-m/fpv4-sp/hard/libgcc.a(_fixunsdfdi.o)
                                                  /usr/lib/gcc/arm-none-eabi/6.3.1/thumb/v7e-m/fpv4-sp/hard/libgcc.a(_fixdfdi.o)
                                                  lib/gcc111libbid_hard.a(dpml_ux_sqrt.o)
                                                  lib/gcc111libbid_hard.a(bid128_div.o)
__aeabi_dadd                                      /usr/lib/gcc/arm-none-eabi/6.3.1/thumb/v7e-m/fpv4-sp/hard/libgcc.a(_arm_addsubdf3.o)
                                                  /usr/lib/gcc/arm-none-eabi/6.3.1/../../../arm-none-eabi/lib/thumb/v7e-m/fpv4-sp/hard/libm.a(lib_a-e_sqrt.o)
                                                  /usr/lib/gcc/arm-none-eabi/6.3.1/../../../arm-none-eabi/lib/thumb/v7e-m/fpv4-sp/hard/libc.a(lib_a-dtoa.o)
                                                  lib/gcc111libbid_hard.a(dpml_ux_ops_64.o)
                                                  lib/gcc111libbid_hard.a(dpml_ux_sqrt.o)
                                                  lib/gcc111libbid_hard.a(bid128_sqrt.o)
                                                  lib/gcc111libbid_hard.a(bid128_div.o)
__aeabi_dcmpeq                                    /usr/lib/gcc/arm-none-eabi/6.3.1/thumb/v7e-m/fpv4-sp/hard/libgcc.a(_arm_cmpdf2.o)
                                                  /usr/lib/gcc/arm-none-eabi/6.3.1/../../../arm-none-eabi/lib/thumb/v7e-m/fpv4-sp/hard/libc.a(lib_a-dtoa.o)
                                                  /usr/lib/gcc/arm-none-eabi/6.3.1/../../../arm-none-eabi/lib/thumb/v7e-m/fpv4-sp/hard/libc.a(lib_a-vfprintf.o)
                                                  /usr/lib/gcc/arm-none-eabi/6.3.1/../../../arm-none-eabi/lib/thumb/v7e-m/fpv4-sp/hard/libc.a(lib_a-svfprintf.o)
__aeabi_dcmpge                                    /usr/lib/gcc/arm-none-eabi/6.3.1/thumb/v7e-m/fpv4-sp/hard/libgcc.a(_arm_cmpdf2.o)
                                                  /usr/lib/gcc/arm-none-eabi/6.3.1/../../../arm-none-eabi/lib/thumb/v7e-m/fpv4-sp/hard/libc.a(lib_a-dtoa.o)
__aeabi_dcmpgt                                    /usr/lib/gcc/arm-none-eabi/6.3.1/thumb/v7e-m/fpv4-sp/hard/libgcc.a(_arm_cmpdf2.o)
                                                  /usr/lib/gcc/arm-none-eabi/6.3.1/../../../arm-none-eabi/lib/thumb/v7e-m/fpv4-sp/hard/libc.a(lib_a-dtoa.o)
__aeabi_dcmple                                    /usr/lib/gcc/arm-none-eabi/6.3.1/thumb/v7e-m/fpv4-sp/hard/libgcc.a(_arm_cmpdf2.o)
                                                  /usr/lib/gcc/arm-none-eabi/6.3.1/../../../arm-none-eabi/lib/thumb/v7e-m/fpv4-sp/hard/libc.a(lib_a-vfprintf.o)
                                                  /usr/lib/gcc/arm-none-eabi/6.3.1/../../../arm-none-eabi/lib/thumb/v7e-m/fpv4-sp/hard/libc.a(lib_a-svfprintf.o)
__aeabi_dcmplt                                    /usr/lib/gcc/arm-none-eabi/6.3.1/thumb/v7e-m/fpv4-sp/hard/libgcc.a(_arm_cmpdf2.o)
                                                  /usr/lib/gcc/arm-none-eabi/6.3.1/../../../arm-none-eabi/lib/thumb/v7e-m/fpv4-sp/hard/libm.a(lib_a-w_sqrt.o)
                                                  /usr/lib/gcc/arm-none-eabi/6.3.1/../../../arm-none-eabi/lib/thumb/v7e-m/fpv4-sp/hard/libc.a(lib_a-dtoa.o)
                                                  /usr/lib/gcc/arm-none-eabi/6.3.1/../../../arm-none-eabi/lib/thumb/v7e-m/fpv4-sp/hard/libc.a(lib_a-vfprintf.o)
                                                  /usr/lib/gcc/arm-none-eabi/6.3.1/../../../arm-none-eabi/lib/thumb/v7e-m/fpv4-sp/hard/libc.a(lib_a-svfprintf.o)
                                                  /usr/lib/gcc/arm-none-eabi/6.3.1/thumb/v7e-m/fpv4-sp/hard/libgcc.a(_fixdfdi.o)
__aeabi_dcmpun                                    /usr/lib/gcc/arm-none-eabi/6.3.1/thumb/v7e-m/fpv4-sp/hard/libgcc.a(_arm_unorddf2.o)
                                                  /usr/lib/gcc/arm-none-eabi/6.3.1/../../../arm-none-eabi/lib/thumb/v7e-m/fpv4-sp/hard/libm.a(lib_a-w_sqrt.o)
                                                  /usr/lib/gcc/arm-none-eabi/6.3.1/../../../arm-none-eabi/lib/thumb/v7e-m/fpv4-sp/hard/libc.a(lib_a-vfprintf.o)
                                                  /usr/lib/gcc/arm-none-eabi/6.3.1/../../../arm-none-eabi/lib/thumb/v7e-m/fpv4-sp/hard/libc.a(lib_a-svfprintf.o)
__aeabi_ddiv                                      /usr/lib/gcc/arm-none-eabi/6.3.1/thumb/v7e-m/fpv4-sp/hard/libgcc.a(_arm_muldivdf3.o)
                                                  /usr/lib/gcc/arm-none-eabi/6.3.1/../../../arm-none-eabi/lib/thumb/v7e-m/fpv4-sp/hard/libm.a(lib_a-e_sqrt.o)
                                                  /usr/lib/gcc/arm-none-eabi/6.3.1/../../../arm-none-eabi/lib/thumb/v7e-m/fpv4-sp/hard/libm.a(lib_a-w_sqrt.o)
                                                  /usr/lib/gcc/arm-none-eabi/6.3.1/../../../arm-none-eabi/lib/thumb/v7e-m/fpv4-sp/hard/libc.a(lib_a-mprec.o)
                                                  /usr/lib/gcc/arm-none-eabi/6.3.1/../../../arm-none-eabi/lib/thumb/v7e-m/fpv4-sp/hard/libc.a(lib_a-dtoa.o)
                                                  lib/gcc111libbid_hard.a(dpml_ux_ops_64.o)
                                                  lib/gcc111libbid_hard.a(bid128_sqrt.o)
                                                  lib/gcc111libbid_hard.a(bid128_div.o)
__aeabi_dmul                                      /usr/lib/gcc/arm-none-eabi/6.3.1/thumb/v7e-m/fpv4-sp/hard/libgcc.a(_arm_muldivdf3.o)
                                                  /usr/lib/gcc/arm-none-eabi/6.3.1/../../../arm-none-eabi/lib/thumb/v7e-m/fpv4-sp/hard/libm.a(lib_a-e_sqrt.o)
                                                  /usr/lib/gcc/arm-none-eabi/6.3.1/../../../arm-none-eabi/lib/thumb/v7e-m/fpv4-sp/hard/libc.a(lib_a-mprec.o)
                                                  /usr/lib/gcc/arm-none-eabi/6.3.1/../../../arm-none-eabi/lib/thumb/v7e-m/fpv4-sp/hard/libc.a(lib_a-dtoa.o)
                                                  /usr/lib/gcc/arm-none-eabi/6.3.1/thumb/v7e-m/fpv4-sp/hard/libgcc.a(_fixunsdfdi.o)
                                                  lib/gcc111libbid_hard.a(dpml_ux_ops_64.o)
                                                  lib/gcc111libbid_hard.a(dpml_ux_sqrt.o)
                                                  lib/gcc111libbid_hard.a(bid128_sqrt.o)
                                                  lib/gcc111libbid_hard.a(bid128_div.o)
__aeabi_drsub                                     /usr/lib/gcc/arm-none-eabi/6.3.1/thumb/v7e-m/fpv4-sp/hard/libgcc.a(_arm_addsubdf3.o)
__aeabi_dsub                                      /usr/lib/gcc/arm-none-eabi/6.3.1/thumb/v7e-m/fpv4-sp/hard/libgcc.a(_arm_addsubdf3.o)
                                                  /usr/lib/gcc/arm-none-eabi/6.3.1/../../../arm-none-eabi/lib/thumb/v7e-m/fpv4-sp/hard/libm.a(lib_a-e_sqrt.o)
                                                  /usr/lib/gcc/arm-none-eabi/6.3.1/../../../arm-none-eabi/lib/thumb/v7e-m/fpv4-sp/hard/libc.a(lib_a-dtoa.o)
                                                  /usr/lib/gcc/arm-none-eabi/6.3.1/thumb/v7e-m/fpv4-sp/hard/libgcc.a(_fixunsdfdi.o)
                                                  lib/gcc111libbid_hard.a(dpml_ux_ops_64.o)
                                                  lib/gcc111libbid_hard.a(dpml_ux_sqrt.o)
__aeabi_f2d                                       /usr/lib/gcc/arm-none-eabi/6.3.1/thumb/v7e-m/fpv4-sp/hard/libgcc.a(_arm_addsubdf3.o)
                                                  lib/gcc111libbid_hard.a(dpml_ux_sqrt.o)
__aeabi_fadd                                      /usr/lib/gcc/arm-none-eabi/6.3.1/thumb/v7e-m/fpv4-sp/hard/libgcc.a(_arm_addsubsf3.o)
__aeabi_frsub                                     /usr/lib/gcc/arm-none-eabi/6.3.1/thumb/v7e-m/fpv4-sp/hard/libgcc.a(_arm_addsubsf3.o)
__aeabi_fsub                                      /usr/lib/gcc/arm-none-eabi/6.3.1/thumb/v7e-m/fpv4-sp/hard/libgcc.a(_arm_addsubsf3.o)
__aeabi_i2d                                       /usr/lib/gcc/arm-none-eabi/6.3.1/thumb/v7e-m/fpv4-sp/hard/libgcc.a(_arm_addsubdf3.o)
                                                  /usr/lib/gcc/arm-none-eabi/6.3.1/../../../arm-none-eabi/lib/thumb/v7e-m/fpv4-sp/hard/libc.a(lib_a-dtoa.o)
                                                  build/main.o
__aeabi_i2f                                       /usr/lib/gcc/arm-none-eabi/6.3.1/thumb/v7e-m/fpv4-sp/hard/libgcc.a(_arm_addsubsf3.o)
__aeabi_idiv0                                     /usr/lib/gcc/arm-none-eabi/6.3.1/thumb/v7e-m/fpv4-sp/hard/libgcc.a(_dvmd_tls.o)
__aeabi_l2d                                       /usr/lib/gcc/arm-none-eabi/6.3.1/thumb/v7e-m/fpv4-sp/hard/libgcc.a(_arm_addsubdf3.o)
                                                  lib/gcc111libbid_hard.a(dpml_ux_ops_64.o)
__aeabi_l2f                                       /usr/lib/gcc/arm-none-eabi/6.3.1/thumb/v7e-m/fpv4-sp/hard/libgcc.a(_arm_addsubsf3.o)
__aeabi_ldiv0                                     /usr/lib/gcc/arm-none-eabi/6.3.1/thumb/v7e-m/fpv4-sp/hard/libgcc.a(_dvmd_tls.o)
                                                  /usr/lib/gcc/arm-none-eabi/6.3.1/thumb/v7e-m/fpv4-sp/hard/libgcc.a(_aeabi_uldivmod.o)
__aeabi_ui2d                                      /usr/lib/gcc/arm-none-eabi/6.3.1/thumb/v7e-m/fpv4-sp/hard/libgcc.a(_arm_addsubdf3.o)
                                                  /usr/lib/gcc/arm-none-eabi/6.3.1/../../../arm-none-eabi/lib/thumb/v7e-m/fpv4-sp/hard/libc.a(lib_a-dtoa.o)
                                                  /usr/lib/gcc/arm-none-eabi/6.3.1/thumb/v7e-m/fpv4-sp/hard/libgcc.a(_fixunsdfdi.o)
__aeabi_ui2f                                      /usr/lib/gcc/arm-none-eabi/6.3.1/thumb/v7e-m/fpv4-sp/hard/libgcc.a(_arm_addsubsf3.o)
__aeabi_ul2d                                      /usr/lib/gcc/arm-none-eabi/6.3.1/thumb/v7e-m/fpv4-sp/hard/libgcc.a(_arm_addsubdf3.o)
                                                  lib/gcc111libbid_hard.a(dpml_ux_ops.o)
                                                  lib/gcc111libbid_hard.a(dpml_ux_sqrt.o)
                                                  lib/gcc111libbid_hard.a(bid128_to_int32.o)
                                                  lib/gcc111libbid_hard.a(bid128_sqrt.o)
                                                  lib/gcc111libbid_hard.a(bid128_round_integral.o)
                                                  lib/gcc111libbid_hard.a(bid128_noncomp.o)
                                                  lib/gcc111libbid_hard.a(bid128_fma.o)
                                                  lib/gcc111libbid_hard.a(bid128_div.o)
                                                  lib/gcc111libbid_hard.a(bid128_add.o)
__aeabi_ul2f                                      /usr/lib/gcc/arm-none-eabi/6.3.1/thumb/v7e-m/fpv4-sp/hard/libgcc.a(_arm_addsubsf3.o)
                                                  lib/gcc111libbid_hard.a(bid64_to_bid128.o)
                                                  lib/gcc111libbid_hard.a(bid128_sqrt.o)
                                                  lib/gcc111libbid_hard.a(bid128_div.o)
__aeabi_uldivmod                                  /usr/lib/gcc/arm-none-eabi/6.3.1/thumb/v7e-m/fpv4-sp/hard/libgcc.a(_aeabi_uldivmod.o)
                                                  /usr/lib/gcc/arm-none-eabi/6.3.1/../../../arm-none-eabi/lib/thumb/v7e-m/fpv4-sp/hard/libc.a(lib_a-vfiprintf.o)
                                                  /usr/lib/gcc/arm-none-eabi/6.3.1/../../../arm-none-eabi/lib/thumb/v7e-m/fpv4-sp/hard/libc.a(lib_a-svfiprintf.o)
                                                  /usr/lib/gcc/arm-none-eabi/6.3.1/../../../arm-none-eabi/lib/thumb/v7e-m/fpv4-sp/hard/libc.a(lib_a-vfprintf.o)
                                                  /usr/lib/gcc/arm-none-eabi/6.3.1/../../../arm-none-eabi/lib/thumb/v7e-m/fpv4-sp/hard/libc.a(lib_a-svfprintf.o)
                                                  lib/gcc111libbid_hard.a(bid128_div.o)
__any_on                                          /usr/lib/gcc/arm-none-eabi/6.3.1/../../../arm-none-eabi/lib/thumb/v7e-m/fpv4-sp/hard/libc.a(lib_a-mprec.o)
__ascii_wctomb                                    /usr/lib/gcc/arm-none-eabi/6.3.1/../../../arm-none-eabi/lib/thumb/v7e-m/fpv4-sp/hard/libc.a(lib_a-wctomb_r.o)
__b2d                                             /usr/lib/gcc/arm-none-eabi/6.3.1/../../../arm-none-eabi/lib/thumb/v7e-m/fpv4-sp/hard/libc.a(lib_a-mprec.o)
__bid128_abs                                      lib/gcc111libbid_hard.a(bid128_noncomp.o)
__bid128_acos                                     lib/gcc111libbid_hard.a(bid128_acos.o)
                                                  build/main.o
__bid128_add                                      lib/gcc111libbid_hard.a(bid128_add.o)
                                                  lib/gcc111libbid_hard.a(bid128_pow.o)
                                                  lib/gcc111libbid_hard.a(bid128_exp10.o)
                                                  lib/gcc111libbid_hard.a(bid128_acos.o)
                                                  build/main.o
__bid128_asin                                     lib/gcc111libbid_hard.a(bid128_asin.o)
                                                  build/main.o
__bid128_atan                                     lib/gcc111libbid_hard.a(bid128_atan.o)
                                                  build/main.o
__bid128_class                                    lib/gcc111libbid_hard.a(bid128_noncomp.o)
__bid128_copy                                     lib/gcc111libbid_hard.a(bid128_noncomp.o)
__bid128_copySign                                 lib/gcc111libbid_hard.a(bid128_noncomp.o)
__bid128_cos                                      lib/gcc111libbid_hard.a(bid128_cos.o)
                                                  build/main.o
__bid128_div                                      lib/gcc111libbid_hard.a(bid128_div.o)
                                                  lib/gcc111libbid_hard.a(bid128_pow.o)
                                                  build/main.o
__bid128_exp                                      lib/gcc111libbid_hard.a(bid128_exp.o)
                                                  lib/gcc111libbid_hard.a(bid128_pow.o)
                                                  build/main.o
__bid128_exp10                                    lib/gcc111libbid_hard.a(bid128_exp10.o)
                                                  build/main.o
__bid128_fma                                      lib/gcc111libbid_hard.a(bid128_fma.o)
                                                  lib/gcc111libbid_hard.a(bid128_mul.o)
                                                  lib/gcc111libbid_hard.a(bid128_tan.o)
                                                  lib/gcc111libbid_hard.a(bid128_sin.o)
                                                  lib/gcc111libbid_hard.a(bid128_pow.o)
                                                  lib/gcc111libbid_hard.a(bid128_atan.o)
                                                  lib/gcc111libbid_hard.a(bid128_asin.o)
                                                  lib/gcc111libbid_hard.a(bid128_acos.o)
__bid128_from_int32                               lib/gcc111libbid_hard.a(bid_from_int.o)
                                                  build/main.o
__bid128_from_int64                               lib/gcc111libbid_hard.a(bid_from_int.o)
__bid128_from_string                              lib/gcc111libbid_hard.a(bid128_string.o)
                                                  lib/gcc111libbid_hard.a(bid128_noncomp.o)
                                                  build/main.o
__bid128_from_uint32                              lib/gcc111libbid_hard.a(bid_from_int.o)
__bid128_from_uint64                              lib/gcc111libbid_hard.a(bid_from_int.o)
__bid128_inf                                      lib/gcc111libbid_hard.a(bid128_noncomp.o)
__bid128_isCanonical                              lib/gcc111libbid_hard.a(bid128_noncomp.o)
__bid128_isFinite                                 lib/gcc111libbid_hard.a(bid128_noncomp.o)
__bid128_isInf                                    lib/gcc111libbid_hard.a(bid128_noncomp.o)
                                                  lib/gcc111libbid_hard.a(bid128_pow.o)
__bid128_isNaN                                    lib/gcc111libbid_hard.a(bid128_noncomp.o)
__bid128_isNormal                                 lib/gcc111libbid_hard.a(bid128_noncomp.o)
__bid128_isSignaling                              lib/gcc111libbid_hard.a(bid128_noncomp.o)
__bid128_isSigned                                 lib/gcc111libbid_hard.a(bid128_noncomp.o)
__bid128_isSubnormal                              lib/gcc111libbid_hard.a(bid128_noncomp.o)
__bid128_isZero                                   lib/gcc111libbid_hard.a(bid128_noncomp.o)
                                                  lib/gcc111libbid_hard.a(bid128_pow.o)
                                                  lib/gcc111libbid_hard.a(bid128_log10.o)
                                                  lib/gcc111libbid_hard.a(bid128_log.o)
                                                  lib/gcc111libbid_hard.a(bid128_exp.o)
                                                  lib/gcc111libbid_hard.a(bid128_atan.o)
__bid128_log                                      lib/gcc111libbid_hard.a(bid128_log.o)
                                                  build/main.o
__bid128_log10                                    lib/gcc111libbid_hard.a(bid128_log10.o)
                                                  build/main.o
__bid128_mul                                      lib/gcc111libbid_hard.a(bid128_mul.o)
                                                  lib/gcc111libbid_hard.a(bid128_sin.o)
                                                  lib/gcc111libbid_hard.a(bid128_pow.o)
                                                  lib/gcc111libbid_hard.a(bid128_log10.o)
                                                  lib/gcc111libbid_hard.a(bid128_log.o)
                                                  lib/gcc111libbid_hard.a(bid128_exp10.o)
                                                  lib/gcc111libbid_hard.a(bid128_exp.o)
                                                  lib/gcc111libbid_hard.a(bid128_atan.o)
                                                  build/main.o
__bid128_nan                                      lib/gcc111libbid_hard.a(bid128_noncomp.o)
__bid128_negate                                   lib/gcc111libbid_hard.a(bid128_noncomp.o)
__bid128_pow                                      lib/gcc111libbid_hard.a(bid128_pow.o)
                                                  build/main.o
__bid128_quiet_equal                              lib/gcc111libbid_hard.a(bid128_compare.o)
                                                  lib/gcc111libbid_hard.a(bid128_pow.o)
__bid128_quiet_greater                            lib/gcc111libbid_hard.a(bid128_compare.o)
                                                  lib/gcc111libbid_hard.a(bid128_log10.o)
                                                  lib/gcc111libbid_hard.a(bid128_log.o)
                                                  lib/gcc111libbid_hard.a(bid128_exp.o)
__bid128_quiet_greater_equal                      lib/gcc111libbid_hard.a(bid128_compare.o)
__bid128_quiet_greater_unordered                  lib/gcc111libbid_hard.a(bid128_compare.o)
__bid128_quiet_less                               lib/gcc111libbid_hard.a(bid128_compare.o)
                                                  lib/gcc111libbid_hard.a(bid128_pow.o)
                                                  lib/gcc111libbid_hard.a(bid128_log10.o)
                                                  lib/gcc111libbid_hard.a(bid128_log.o)
                                                  lib/gcc111libbid_hard.a(bid128_exp10.o)
                                                  lib/gcc111libbid_hard.a(bid128_exp.o)
__bid128_quiet_less_equal                         lib/gcc111libbid_hard.a(bid128_compare.o)
__bid128_quiet_less_unordered                     lib/gcc111libbid_hard.a(bid128_compare.o)
__bid128_quiet_not_equal                          lib/gcc111libbid_hard.a(bid128_compare.o)
__bid128_quiet_not_greater                        lib/gcc111libbid_hard.a(bid128_compare.o)
__bid128_quiet_not_less                           lib/gcc111libbid_hard.a(bid128_compare.o)
__bid128_quiet_ordered                            lib/gcc111libbid_hard.a(bid128_compare.o)
__bid128_quiet_unordered                          lib/gcc111libbid_hard.a(bid128_compare.o)
__bid128_radix                                    lib/gcc111libbid_hard.a(bid128_noncomp.o)
__bid128_round_integral_exact                     lib/gcc111libbid_hard.a(bid128_round_integral.o)
__bid128_round_integral_nearest_away              lib/gcc111libbid_hard.a(bid128_round_integral.o)
__bid128_round_integral_nearest_even              lib/gcc111libbid_hard.a(bid128_round_integral.o)
                                                  lib/gcc111libbid_hard.a(bid128_pow.o)
__bid128_round_integral_negative                  lib/gcc111libbid_hard.a(bid128_round_integral.o)
__bid128_round_integral_positive                  lib/gcc111libbid_hard.a(bid128_round_integral.o)
__bid128_round_integral_zero                      lib/gcc111libbid_hard.a(bid128_round_integral.o)
__bid128_sameQuantum                              lib/gcc111libbid_hard.a(bid128_noncomp.o)
__bid128_signaling_greater                        lib/gcc111libbid_hard.a(bid128_compare.o)
__bid128_signaling_greater_equal                  lib/gcc111libbid_hard.a(bid128_compare.o)
__bid128_signaling_greater_unordered              lib/gcc111libbid_hard.a(bid128_compare.o)
__bid128_signaling_less                           lib/gcc111libbid_hard.a(bid128_compare.o)
__bid128_signaling_less_equal                     lib/gcc111libbid_hard.a(bid128_compare.o)
__bid128_signaling_less_unordered                 lib/gcc111libbid_hard.a(bid128_compare.o)
__bid128_signaling_not_greater                    lib/gcc111libbid_hard.a(bid128_compare.o)
__bid128_signaling_not_less                       lib/gcc111libbid_hard.a(bid128_compare.o)
__bid128_sin                                      lib/gcc111libbid_hard.a(bid128_sin.o)
                                                  build/main.o
__bid128_sqrt                                     lib/gcc111libbid_hard.a(bid128_sqrt.o)
                                                  build/main.o
__bid128_sub                                      lib/gcc111libbid_hard.a(bid128_add.o)
                                                  lib/gcc111libbid_hard.a(bid128_pow.o)
                                                  lib/gcc111libbid_hard.a(bid128_log10.o)
                                                  lib/gcc111libbid_hard.a(bid128_log.o)
                                                  lib/gcc111libbid_hard.a(bid128_cos.o)
                                                  build/main.o
__bid128_tan                                      lib/gcc111libbid_hard.a(bid128_tan.o)
                                                  build/main.o
__bid128_to_bid64                                 lib/gcc111libbid_hard.a(bid64_to_bid128.o)
                                                  lib/gcc111libbid_hard.a(bid128_fma.o)
__bid128_to_binary128                             lib/gcc111libbid_hard.a(bid_binarydecimal.o)
                                                  lib/gcc111libbid_hard.a(bid128_tan.o)
                                                  lib/gcc111libbid_hard.a(bid128_sin.o)
                                                  lib/gcc111libbid_hard.a(bid128_log10.o)
                                                  lib/gcc111libbid_hard.a(bid128_log.o)
                                                  lib/gcc111libbid_hard.a(bid128_exp10.o)
                                                  lib/gcc111libbid_hard.a(bid128_cos.o)
                                                  lib/gcc111libbid_hard.a(bid128_atan.o)
                                                  lib/gcc111libbid_hard.a(bid128_asin.o)
                                                  lib/gcc111libbid_hard.a(bid128_acos.o)
__bid128_to_binary32                              lib/gcc111libbid_hard.a(bid_binarydecimal.o)
__bid128_to_binary64                              lib/gcc111libbid_hard.a(bid_binarydecimal.o)
__bid128_to_binary80                              lib/gcc111libbid_hard.a(bid_binarydecimal.o)
__bid128_to_int32_ceil                            lib/gcc111libbid_hard.a(bid128_to_int32.o)
__bid128_to_int32_floor                           lib/gcc111libbid_hard.a(bid128_to_int32.o)
__bid128_to_int32_int                             lib/gcc111libbid_hard.a(bid128_to_int32.o)
                                                  build/main.o
__bid128_to_int32_rnint                           lib/gcc111libbid_hard.a(bid128_to_int32.o)
                                                  lib/gcc111libbid_hard.a(bid128_exp10.o)
__bid128_to_int32_rninta                          lib/gcc111libbid_hard.a(bid128_to_int32.o)
__bid128_to_int32_xceil                           lib/gcc111libbid_hard.a(bid128_to_int32.o)
__bid128_to_int32_xfloor                          lib/gcc111libbid_hard.a(bid128_to_int32.o)
__bid128_to_int32_xint                            lib/gcc111libbid_hard.a(bid128_to_int32.o)
__bid128_to_int32_xrnint                          lib/gcc111libbid_hard.a(bid128_to_int32.o)
                                                  lib/gcc111libbid_hard.a(bid128_pow.o)
__bid128_to_int32_xrninta                         lib/gcc111libbid_hard.a(bid128_to_int32.o)
__bid128_to_string                                lib/gcc111libbid_hard.a(bid128_string.o)
                                                  build/main.o
__bid128_totalOrder                               lib/gcc111libbid_hard.a(bid128_noncomp.o)
__bid128_totalOrderMag                            lib/gcc111libbid_hard.a(bid128_noncomp.o)
__bid128d_sqrt                                    lib/gcc111libbid_hard.a(bid128_sqrt.o)
__bid128dd_add                                    lib/gcc111libbid_hard.a(bid128_add.o)
__bid128dd_div                                    lib/gcc111libbid_hard.a(bid128_div.o)
__bid128dd_mul                                    lib/gcc111libbid_hard.a(bid128_mul.o)
__bid128dd_sub                                    lib/gcc111libbid_hard.a(bid128_add.o)
__bid128ddd_fma                                   lib/gcc111libbid_hard.a(bid128_fma.o)
__bid128ddq_fma                                   lib/gcc111libbid_hard.a(bid128_fma.o)
__bid128dq_add                                    lib/gcc111libbid_hard.a(bid128_add.o)
__bid128dq_div                                    lib/gcc111libbid_hard.a(bid128_div.o)
__bid128dq_mul                                    lib/gcc111libbid_hard.a(bid128_mul.o)
__bid128dq_sub                                    lib/gcc111libbid_hard.a(bid128_add.o)
__bid128dqd_fma                                   lib/gcc111libbid_hard.a(bid128_fma.o)
__bid128dqq_fma                                   lib/gcc111libbid_hard.a(bid128_fma.o)
__bid128qd_add                                    lib/gcc111libbid_hard.a(bid128_add.o)
__bid128qd_div                                    lib/gcc111libbid_hard.a(bid128_div.o)
__bid128qd_mul                                    lib/gcc111libbid_hard.a(bid128_mul.o)
__bid128qd_sub                                    lib/gcc111libbid_hard.a(bid128_add.o)
__bid128qdd_fma                                   lib/gcc111libbid_hard.a(bid128_fma.o)
__bid128qdq_fma                                   lib/gcc111libbid_hard.a(bid128_fma.o)
__bid128qqd_fma                                   lib/gcc111libbid_hard.a(bid128_fma.o)
__bid32_from_int32                                lib/gcc111libbid_hard.a(bid_from_int.o)
__bid32_from_int64                                lib/gcc111libbid_hard.a(bid_from_int.o)
__bid32_from_uint32                               lib/gcc111libbid_hard.a(bid_from_int.o)
__bid32_from_uint64                               lib/gcc111libbid_hard.a(bid_from_int.o)
__bid32_to_binary128                              lib/gcc111libbid_hard.a(bid_binarydecimal.o)
__bid32_to_binary32                               lib/gcc111libbid_hard.a(bid_binarydecimal.o)
__bid32_to_binary64                               lib/gcc111libbid_hard.a(bid_binarydecimal.o)
__bid32_to_binary80                               lib/gcc111libbid_hard.a(bid_binarydecimal.o)
__bid64_from_int32                                lib/gcc111libbid_hard.a(bid_from_int.o)
__bid64_from_int64                                lib/gcc111libbid_hard.a(bid_from_int.o)
__bid64_from_uint32                               lib/gcc111libbid_hard.a(bid_from_int.o)
__bid64_from_uint64                               lib/gcc111libbid_hard.a(bid_from_int.o)
__bid64_to_bid128                                 lib/gcc111libbid_hard.a(bid64_to_bid128.o)
                                                  lib/gcc111libbid_hard.a(bid128_mul.o)
                                                  lib/gcc111libbid_hard.a(bid128_fma.o)
                                                  lib/gcc111libbid_hard.a(bid128_add.o)
                                                  build/main.o
__bid64_to_binary128                              lib/gcc111libbid_hard.a(bid_binarydecimal.o)
__bid64_to_binary32                               lib/gcc111libbid_hard.a(bid_binarydecimal.o)
__bid64_to_binary64                               lib/gcc111libbid_hard.a(bid_binarydecimal.o)
__bid64_to_binary80                               lib/gcc111libbid_hard.a(bid_binarydecimal.o)
__bid64ddq_fma                                    lib/gcc111libbid_hard.a(bid128_fma.o)
__bid64dq_add                                     lib/gcc111libbid_hard.a(bid128_add.o)
__bid64dq_mul                                     lib/gcc111libbid_hard.a(bid128_mul.o)
__bid64dq_sub                                     lib/gcc111libbid_hard.a(bid128_add.o)
__bid64dqd_fma                                    lib/gcc111libbid_hard.a(bid128_fma.o)
__bid64dqq_fma                                    lib/gcc111libbid_hard.a(bid128_fma.o)
__bid64qd_add                                     lib/gcc111libbid_hard.a(bid128_add.o)
__bid64qd_mul                                     lib/gcc111libbid_hard.a(bid128_mul.o)
__bid64qd_sub                                     lib/gcc111libbid_hard.a(bid128_add.o)
__bid64qdd_fma                                    lib/gcc111libbid_hard.a(bid128_fma.o)
__bid64qdq_fma                                    lib/gcc111libbid_hard.a(bid128_fma.o)
__bid64qq_add                                     lib/gcc111libbid_hard.a(bid128_add.o)
__bid64qq_mul                                     lib/gcc111libbid_hard.a(bid128_mul.o)
__bid64qq_sub                                     lib/gcc111libbid_hard.a(bid128_add.o)
__bid64qqd_fma                                    lib/gcc111libbid_hard.a(bid128_fma.o)
__bid64qqq_fma                                    lib/gcc111libbid_hard.a(bid128_fma.o)
                                                  lib/gcc111libbid_hard.a(bid128_mul.o)
                                                  lib/gcc111libbid_hard.a(bid128_add.o)
__bid_Ex128m128                                   lib/gcc111libbid_hard.a(bid128.o)
                                                  lib/gcc111libbid_hard.a(bid_round.o)
__bid_Ex192m192                                   lib/gcc111libbid_hard.a(bid128.o)
                                                  lib/gcc111libbid_hard.a(bid_round.o)
__bid_Ex256m256                                   lib/gcc111libbid_hard.a(bid128.o)
                                                  lib/gcc111libbid_hard.a(bid_round.o)
__bid_Ex64m64                                     lib/gcc111libbid_hard.a(bid128.o)
                                                  lib/gcc111libbid_hard.a(bid_round.o)
__bid_IDEC_glbflags                               lib/gcc111libbid_hard.a(bid_decimal_globals.o)
                                                  lib/gcc111libbid_hard.a(bid_from_int.o)
                                                  lib/gcc111libbid_hard.a(bid_binarydecimal.o)
                                                  lib/gcc111libbid_hard.a(bid64_to_bid128.o)
                                                  lib/gcc111libbid_hard.a(bid128_to_int32.o)
                                                  lib/gcc111libbid_hard.a(bid128_string.o)
                                                  lib/gcc111libbid_hard.a(bid128_sqrt.o)
                                                  lib/gcc111libbid_hard.a(bid128_round_integral.o)
                                                  lib/gcc111libbid_hard.a(bid128_fma.o)
                                                  lib/gcc111libbid_hard.a(bid128_div.o)
                                                  lib/gcc111libbid_hard.a(bid128_compare.o)
                                                  lib/gcc111libbid_hard.a(bid128_add.o)
                                                  lib/gcc111libbid_hard.a(bid128_tan.o)
                                                  lib/gcc111libbid_hard.a(bid128_sin.o)
                                                  lib/gcc111libbid_hard.a(bid128_pow.o)
                                                  lib/gcc111libbid_hard.a(bid128_log10.o)
                                                  lib/gcc111libbid_hard.a(bid128_log.o)
                                                  lib/gcc111libbid_hard.a(bid128_exp10.o)
                                                  lib/gcc111libbid_hard.a(bid128_exp.o)
                                                  lib/gcc111libbid_hard.a(bid128_cos.o)
                                                  lib/gcc111libbid_hard.a(bid128_atan.o)
                                                  lib/gcc111libbid_hard.a(bid128_asin.o)
                                                  lib/gcc111libbid_hard.a(bid128_acos.o)
__bid_IDEC_glbround                               lib/gcc111libbid_hard.a(bid_decimal_globals.o)
                                                  lib/gcc111libbid_hard.a(bid_from_int.o)
                                                  lib/gcc111libbid_hard.a(bid_binarydecimal.o)
                                                  lib/gcc111libbid_hard.a(bid64_to_bid128.o)
                                                  lib/gcc111libbid_hard.a(bid128_string.o)
                                                  lib/gcc111libbid_hard.a(bid128_sqrt.o)
                                                  lib/gcc111libbid_hard.a(bid128_round_integral.o)
                                                  lib/gcc111libbid_hard.a(bid128_fma.o)
                                                  lib/gcc111libbid_hard.a(bid128_div.o)
                                                  lib/gcc111libbid_hard.a(bid128_add.o)
__bid_Inv_Tento9                                  lib/gcc111libbid_hard.a(bid128_2_str_tables.o)
                                                  lib/gcc111libbid_hard.a(bid128_string.o)
__bid_Kx128                                       lib/gcc111libbid_hard.a(bid128.o)
                                                  lib/gcc111libbid_hard.a(bid_round.o)
__bid_Kx192                                       lib/gcc111libbid_hard.a(bid128.o)
                                                  lib/gcc111libbid_hard.a(bid_round.o)
__bid_Kx256                                       lib/gcc111libbid_hard.a(bid128.o)
                                                  lib/gcc111libbid_hard.a(bid_round.o)
__bid_Kx64                                        lib/gcc111libbid_hard.a(bid128.o)
                                                  lib/gcc111libbid_hard.a(bid_round.o)
__bid_Tento3                                      lib/gcc111libbid_hard.a(bid128_2_str_tables.o)
                                                  lib/gcc111libbid_hard.a(bid128_string.o)
__bid_Tento6                                      lib/gcc111libbid_hard.a(bid128_2_str_tables.o)
                                                  lib/gcc111libbid_hard.a(bid128_string.o)
__bid_Tento9                                      lib/gcc111libbid_hard.a(bid128_2_str_tables.o)
                                                  lib/gcc111libbid_hard.a(bid128_string.o)
__bid_Twoto30_m_10to9                             lib/gcc111libbid_hard.a(bid128_2_str_tables.o)
__bid_Twoto60                                     lib/gcc111libbid_hard.a(bid128_2_str_tables.o)
                                                  lib/gcc111libbid_hard.a(bid128_string.o)
__bid_Twoto60_m_10to18                            lib/gcc111libbid_hard.a(bid128_2_str_tables.o)
                                                  lib/gcc111libbid_hard.a(bid128_string.o)
__bid_char_table2                                 lib/gcc111libbid_hard.a(bid128.o)
                                                  lib/gcc111libbid_hard.a(bid128_string.o)
__bid_char_table3                                 lib/gcc111libbid_hard.a(bid128.o)
                                                  lib/gcc111libbid_hard.a(bid128_string.o)
__bid_convert_table                               lib/gcc111libbid_hard.a(bid_convert_data.o)
                                                  lib/gcc111libbid_hard.a(bid128_div.o)
__bid_estimate_bin_expon                          lib/gcc111libbid_hard.a(bid_decimal_data.o)
__bid_estimate_decimal_digits                     lib/gcc111libbid_hard.a(bid_decimal_data.o)
                                                  lib/gcc111libbid_hard.a(bid64_to_bid128.o)
                                                  lib/gcc111libbid_hard.a(bid128_sqrt.o)
                                                  lib/gcc111libbid_hard.a(bid128_div.o)
__bid_factors                                     lib/gcc111libbid_hard.a(bid_convert_data.o)
                                                  lib/gcc111libbid_hard.a(bid128_div.o)
__bid_half128                                     lib/gcc111libbid_hard.a(bid128.o)
                                                  lib/gcc111libbid_hard.a(bid_round.o)
__bid_half192                                     lib/gcc111libbid_hard.a(bid128.o)
                                                  lib/gcc111libbid_hard.a(bid_round.o)
__bid_half256                                     lib/gcc111libbid_hard.a(bid128.o)
                                                  lib/gcc111libbid_hard.a(bid_round.o)
__bid_half64                                      lib/gcc111libbid_hard.a(bid128.o)
                                                  lib/gcc111libbid_hard.a(bid_round.o)
__bid_mask128                                     lib/gcc111libbid_hard.a(bid128.o)
                                                  lib/gcc111libbid_hard.a(bid_round.o)
__bid_mask192                                     lib/gcc111libbid_hard.a(bid128.o)
                                                  lib/gcc111libbid_hard.a(bid_round.o)
__bid_mask256                                     lib/gcc111libbid_hard.a(bid128.o)
                                                  lib/gcc111libbid_hard.a(bid_round.o)
__bid_mask64                                      lib/gcc111libbid_hard.a(bid128.o)
                                                  lib/gcc111libbid_hard.a(bid_round.o)
__bid_maskhigh128                                 lib/gcc111libbid_hard.a(bid128.o)
                                                  lib/gcc111libbid_hard.a(bid128_to_int32.o)
                                                  lib/gcc111libbid_hard.a(bid128_round_integral.o)
                                                  lib/gcc111libbid_hard.a(bid128_add.o)
__bid_maskhigh128M                                lib/gcc111libbid_hard.a(bid128.o)
__bid_maskhigh192M                                lib/gcc111libbid_hard.a(bid128.o)
__bid_maskhigh256M                                lib/gcc111libbid_hard.a(bid128.o)
__bid_midi_tbl                                    lib/gcc111libbid_hard.a(bid128_2_str_tables.o)
                                                  lib/gcc111libbid_hard.a(bid128_string.o)
__bid_midpoint128                                 lib/gcc111libbid_hard.a(bid128.o)
                                                  lib/gcc111libbid_hard.a(bid_round.o)
                                                  lib/gcc111libbid_hard.a(bid128_to_int32.o)
                                                  lib/gcc111libbid_hard.a(bid128_round_integral.o)
                                                  lib/gcc111libbid_hard.a(bid128_fma.o)
                                                  lib/gcc111libbid_hard.a(bid128_add.o)
__bid_midpoint192                                 lib/gcc111libbid_hard.a(bid128.o)
                                                  lib/gcc111libbid_hard.a(bid_round.o)
                                                  lib/gcc111libbid_hard.a(bid128_fma.o)
__bid_midpoint256                                 lib/gcc111libbid_hard.a(bid128.o)
                                                  lib/gcc111libbid_hard.a(bid_round.o)
                                                  lib/gcc111libbid_hard.a(bid128_fma.o)
__bid_midpoint64                                  lib/gcc111libbid_hard.a(bid128.o)
                                                  lib/gcc111libbid_hard.a(bid_round.o)
                                                  lib/gcc111libbid_hard.a(bid128_to_int32.o)
                                                  lib/gcc111libbid_hard.a(bid128_round_integral.o)
                                                  lib/gcc111libbid_hard.a(bid128_fma.o)
                                                  lib/gcc111libbid_hard.a(bid128_add.o)
__bid_mod10_18_tbl                                lib/gcc111libbid_hard.a(bid128_2_str_tables.o)
                                                  lib/gcc111libbid_hard.a(bid128_string.o)
__bid_nr_digits                                   lib/gcc111libbid_hard.a(bid128.o)
                                                  lib/gcc111libbid_hard.a(bid128_to_int32.o)
                                                  lib/gcc111libbid_hard.a(bid128_round_integral.o)
                                                  lib/gcc111libbid_hard.a(bid128_noncomp.o)
                                                  lib/gcc111libbid_hard.a(bid128_fma.o)
                                                  lib/gcc111libbid_hard.a(bid128_add.o)
__bid_onehalf128                                  lib/gcc111libbid_hard.a(bid128.o)
                                                  lib/gcc111libbid_hard.a(bid128_to_int32.o)
                                                  lib/gcc111libbid_hard.a(bid128_round_integral.o)
                                                  lib/gcc111libbid_hard.a(bid128_add.o)
__bid_onehalf128M                                 lib/gcc111libbid_hard.a(bid128.o)
__bid_onehalf192M                                 lib/gcc111libbid_hard.a(bid128.o)
__bid_onehalf256M                                 lib/gcc111libbid_hard.a(bid128.o)
__bid_packed_10000_zeros                          lib/gcc111libbid_hard.a(bid_convert_data.o)
                                                  lib/gcc111libbid_hard.a(bid128_div.o)
__bid_power10_index_binexp                        lib/gcc111libbid_hard.a(bid_decimal_data.o)
__bid_power10_index_binexp_128                    lib/gcc111libbid_hard.a(bid_decimal_data.o)
                                                  lib/gcc111libbid_hard.a(bid64_to_bid128.o)
                                                  lib/gcc111libbid_hard.a(bid128_sqrt.o)
                                                  lib/gcc111libbid_hard.a(bid128_div.o)
__bid_power10_table_128                           lib/gcc111libbid_hard.a(bid_decimal_data.o)
                                                  lib/gcc111libbid_hard.a(bid64_to_bid128.o)
                                                  lib/gcc111libbid_hard.a(bid128_string.o)
                                                  lib/gcc111libbid_hard.a(bid128_sqrt.o)
                                                  lib/gcc111libbid_hard.a(bid128_div.o)
                                                  lib/gcc111libbid_hard.a(bid128_exp10.o)
__bid_recip_scale                                 lib/gcc111libbid_hard.a(bid_decimal_data.o)
                                                  lib/gcc111libbid_hard.a(bid64_to_bid128.o)
                                                  lib/gcc111libbid_hard.a(bid128_string.o)
                                                  lib/gcc111libbid_hard.a(bid128_div.o)
__bid_reciprocals10_128                           lib/gcc111libbid_hard.a(bid_decimal_data.o)
                                                  lib/gcc111libbid_hard.a(bid64_to_bid128.o)
                                                  lib/gcc111libbid_hard.a(bid128_string.o)
                                                  lib/gcc111libbid_hard.a(bid128_div.o)
__bid_reciprocals10_64                            lib/gcc111libbid_hard.a(bid_decimal_data.o)
                                                  lib/gcc111libbid_hard.a(bid128_div.o)
__bid_round128_19_38                              lib/gcc111libbid_hard.a(bid_round.o)
                                                  lib/gcc111libbid_hard.a(bid_from_int.o)
                                                  lib/gcc111libbid_hard.a(bid128_fma.o)
__bid_round192_39_57                              lib/gcc111libbid_hard.a(bid_round.o)
                                                  lib/gcc111libbid_hard.a(bid128_fma.o)
__bid_round256_58_76                              lib/gcc111libbid_hard.a(bid_round.o)
                                                  lib/gcc111libbid_hard.a(bid128_fma.o)
__bid_round64_2_18                                lib/gcc111libbid_hard.a(bid_round.o)
                                                  lib/gcc111libbid_hard.a(bid_from_int.o)
                                                  lib/gcc111libbid_hard.a(bid128_fma.o)
__bid_round_const_table                           lib/gcc111libbid_hard.a(bid_decimal_data.o)
                                                  lib/gcc111libbid_hard.a(bid64_to_bid128.o)
__bid_round_const_table_128                       lib/gcc111libbid_hard.a(bid_decimal_data.o)
                                                  lib/gcc111libbid_hard.a(bid64_to_bid128.o)
                                                  lib/gcc111libbid_hard.a(bid128_string.o)
                                                  lib/gcc111libbid_hard.a(bid128_div.o)
__bid_shift_ten2m3k128                            lib/gcc111libbid_hard.a(bid128.o)
__bid_shift_ten2m3k64                             lib/gcc111libbid_hard.a(bid128.o)
__bid_shiftright128                               lib/gcc111libbid_hard.a(bid128.o)
                                                  lib/gcc111libbid_hard.a(bid128_to_int32.o)
                                                  lib/gcc111libbid_hard.a(bid128_round_integral.o)
                                                  lib/gcc111libbid_hard.a(bid128_add.o)
__bid_shiftright128M                              lib/gcc111libbid_hard.a(bid128.o)
__bid_shiftright192M                              lib/gcc111libbid_hard.a(bid128.o)
__bid_shiftright256M                              lib/gcc111libbid_hard.a(bid128.o)
__bid_short_recip_scale                           lib/gcc111libbid_hard.a(bid_decimal_data.o)
                                                  lib/gcc111libbid_hard.a(bid128_div.o)
__bid_ten2k128                                    lib/gcc111libbid_hard.a(bid128.o)
                                                  lib/gcc111libbid_hard.a(bid_round.o)
                                                  lib/gcc111libbid_hard.a(bid128_to_int32.o)
                                                  lib/gcc111libbid_hard.a(bid128_noncomp.o)
                                                  lib/gcc111libbid_hard.a(bid128_fma.o)
                                                  lib/gcc111libbid_hard.a(bid128_compare.o)
                                                  lib/gcc111libbid_hard.a(bid128_add.o)
__bid_ten2k256                                    lib/gcc111libbid_hard.a(bid128.o)
                                                  lib/gcc111libbid_hard.a(bid_round.o)
                                                  lib/gcc111libbid_hard.a(bid128_fma.o)
__bid_ten2k64                                     lib/gcc111libbid_hard.a(bid128.o)
                                                  lib/gcc111libbid_hard.a(bid_round.o)
                                                  lib/gcc111libbid_hard.a(bid128_to_int32.o)
                                                  lib/gcc111libbid_hard.a(bid128_noncomp.o)
                                                  lib/gcc111libbid_hard.a(bid128_fma.o)
                                                  lib/gcc111libbid_hard.a(bid128_compare.o)
                                                  lib/gcc111libbid_hard.a(bid128_add.o)
__bid_ten2m3k128                                  lib/gcc111libbid_hard.a(bid128.o)
__bid_ten2m3k64                                   lib/gcc111libbid_hard.a(bid128.o)
__bid_ten2mk128                                   lib/gcc111libbid_hard.a(bid128.o)
                                                  lib/gcc111libbid_hard.a(bid128_to_int32.o)
                                                  lib/gcc111libbid_hard.a(bid128_round_integral.o)
                                                  lib/gcc111libbid_hard.a(bid128_add.o)
__bid_ten2mk128M                                  lib/gcc111libbid_hard.a(bid128.o)
__bid_ten2mk128trunc                              lib/gcc111libbid_hard.a(bid128.o)
                                                  lib/gcc111libbid_hard.a(bid128_to_int32.o)
                                                  lib/gcc111libbid_hard.a(bid128_add.o)
__bid_ten2mk128truncM                             lib/gcc111libbid_hard.a(bid128.o)
__bid_ten2mk192M                                  lib/gcc111libbid_hard.a(bid128.o)
__bid_ten2mk192truncM                             lib/gcc111libbid_hard.a(bid128.o)
__bid_ten2mk256M                                  lib/gcc111libbid_hard.a(bid128.o)
__bid_ten2mk256truncM                             lib/gcc111libbid_hard.a(bid128.o)
__bid_ten2mk64                                    lib/gcc111libbid_hard.a(bid128.o)
__bid_ten2mxtrunc128                              lib/gcc111libbid_hard.a(bid128.o)
                                                  lib/gcc111libbid_hard.a(bid_round.o)
__bid_ten2mxtrunc192                              lib/gcc111libbid_hard.a(bid128.o)
                                                  lib/gcc111libbid_hard.a(bid_round.o)
__bid_ten2mxtrunc256                              lib/gcc111libbid_hard.a(bid128.o)
                                                  lib/gcc111libbid_hard.a(bid_round.o)
__bid_ten2mxtrunc64                               lib/gcc111libbid_hard.a(bid128.o)
                                                  lib/gcc111libbid_hard.a(bid_round.o)
__binary128_to_bid128                             lib/gcc111libbid_hard.a(bid_binarydecimal.o)
                                                  lib/gcc111libbid_hard.a(bid128_tan.o)
                                                  lib/gcc111libbid_hard.a(bid128_sin.o)
                                                  lib/gcc111libbid_hard.a(bid128_log10.o)
                                                  lib/gcc111libbid_hard.a(bid128_log.o)
                                                  lib/gcc111libbid_hard.a(bid128_exp10.o)
                                                  lib/gcc111libbid_hard.a(bid128_exp.o)
                                                  lib/gcc111libbid_hard.a(bid128_cos.o)
                                                  lib/gcc111libbid_hard.a(bid128_atan.o)
                                                  lib/gcc111libbid_hard.a(bid128_asin.o)
                                                  lib/gcc111libbid_hard.a(bid128_acos.o)
__binary128_to_bid32                              lib/gcc111libbid_hard.a(bid_binarydecimal.o)
__binary128_to_bid64                              lib/gcc111libbid_hard.a(bid_binarydecimal.o)
__binary32_to_bid128                              lib/gcc111libbid_hard.a(bid_binarydecimal.o)
__binary32_to_bid32                               lib/gcc111libbid_hard.a(bid_binarydecimal.o)
__binary32_to_bid64                               lib/gcc111libbid_hard.a(bid_binarydecimal.o)
__binary64_to_bid128                              lib/gcc111libbid_hard.a(bid_binarydecimal.o)
__binary64_to_bid32                               lib/gcc111libbid_hard.a(bid_binarydecimal.o)
__binary64_to_bid64                               lib/gcc111libbid_hard.a(bid_binarydecimal.o)
                                                  build/main.o
__binary80_to_bid128                              lib/gcc111libbid_hard.a(bid_binarydecimal.o)
__binary80_to_bid32                               lib/gcc111libbid_hard.a(bid_binarydecimal.o)
__binary80_to_bid64                               lib/gcc111libbid_hard.a(bid_binarydecimal.o)
__bss_end__                                       /usr/lib/gcc/arm-none-eabi/6.3.1/../../../arm-none-eabi/lib/thumb/v7e-m/fpv4-sp/hard/crt0.o
__bss_start__                                     /usr/lib/gcc/arm-none-eabi/6.3.1/../../../arm-none-eabi/lib/thumb/v7e-m/fpv4-sp/hard/crt0.o
__call_exitprocs                                  /usr/lib/gcc/arm-none-eabi/6.3.1/../../../arm-none-eabi/lib/thumb/v7e-m/fpv4-sp/hard/libc.a(lib_a-__call_atexit.o)
                                                  /usr/lib/gcc/arm-none-eabi/6.3.1/../../../arm-none-eabi/lib/thumb/v7e-m/fpv4-sp/hard/libc.a(lib_a-exit.o)
__cmpdf2                                          /usr/lib/gcc/arm-none-eabi/6.3.1/thumb/v7e-m/fpv4-sp/hard/libgcc.a(_arm_cmpdf2.o)
__copybits                                        /usr/lib/gcc/arm-none-eabi/6.3.1/../../../arm-none-eabi/lib/thumb/v7e-m/fpv4-sp/hard/libc.a(lib_a-mprec.o)
__ctype_ptr__                                     /usr/lib/gcc/arm-none-eabi/6.3.1/../../../arm-none-eabi/lib/thumb/v7e-m/fpv4-sp/hard/libc.a(lib_a-ctype_.o)
                                                  /usr/lib/gcc/arm-none-eabi/6.3.1/../../../arm-none-eabi/lib/thumb/v7e-m/fpv4-sp/hard/libc.a(lib_a-strtol.o)
                                                  build/main.o
__d2b                                             /usr/lib/gcc/arm-none-eabi/6.3.1/../../../arm-none-eabi/lib/thumb/v7e-m/fpv4-sp/hard/libc.a(lib_a-mprec.o)
                                                  /usr/lib/gcc/arm-none-eabi/6.3.1/../../../arm-none-eabi/lib/thumb/v7e-m/fpv4-sp/hard/libc.a(lib_a-dtoa.o)
__deregister_frame_info                           /usr/lib/gcc/arm-none-eabi/6.3.1/thumb/v7e-m/fpv4-sp/hard/crtbegin.o
__divdf3                                          /usr/lib/gcc/arm-none-eabi/6.3.1/thumb/v7e-m/fpv4-sp/hard/libgcc.a(_arm_muldivdf3.o)
__dpml_bid_addsub__                               lib/gcc111libbid_hard.a(dpml_ux_ops.o)
                                                  lib/gcc111libbid_hard.a(dpml_ux_trig.o)
                                                  lib/gcc111libbid_hard.a(dpml_ux_sqrt.o)
                                                  lib/gcc111libbid_hard.a(dpml_ux_log.o)
                                                  lib/gcc111libbid_hard.a(dpml_ux_inv_trig.o)
                                                  lib/gcc111libbid_hard.a(dpml_ux_exp.o)
                                                  lib/gcc111libbid_hard.a(dpml_ux_bid.o)
__dpml_bid_divide__                               lib/gcc111libbid_hard.a(dpml_ux_ops_64.o)
                                                  lib/gcc111libbid_hard.a(dpml_ux_log.o)
                                                  lib/gcc111libbid_hard.a(dpml_ux_inv_trig.o)
                                                  lib/gcc111libbid_hard.a(dpml_ux_exp.o)
                                                  lib/gcc111libbid_hard.a(dpml_ux_bid.o)
__dpml_bid_evaluate_packed_poly__                 lib/gcc111libbid_hard.a(dpml_ux_ops.o)
__dpml_bid_evaluate_rational__                    lib/gcc111libbid_hard.a(dpml_ux_ops_64.o)
                                                  lib/gcc111libbid_hard.a(dpml_ux_trig.o)
                                                  lib/gcc111libbid_hard.a(dpml_ux_log.o)
                                                  lib/gcc111libbid_hard.a(dpml_ux_inv_trig.o)
                                                  lib/gcc111libbid_hard.a(dpml_ux_exp.o)
__dpml_bid_exception                              lib/gcc111libbid_hard.a(dpml_exception.o)
                                                  lib/gcc111libbid_hard.a(dpml_ux_ops.o)
__dpml_bid_extended_multiply__                    lib/gcc111libbid_hard.a(dpml_ux_ops_64.o)
                                                  lib/gcc111libbid_hard.a(dpml_ux_sqrt.o)
__dpml_bid_ffs_and_shift__                        lib/gcc111libbid_hard.a(dpml_ux_ops.o)
                                                  lib/gcc111libbid_hard.a(dpml_ux_ops_64.o)
                                                  lib/gcc111libbid_hard.a(dpml_ux_trig.o)
                                                  lib/gcc111libbid_hard.a(dpml_ux_sqrt.o)
                                                  lib/gcc111libbid_hard.a(dpml_ux_log.o)
                                                  lib/gcc111libbid_hard.a(dpml_ux_inv_trig.o)
__dpml_bid_globals_table                          lib/gcc111libbid_hard.a(dpml_exception.o)
__dpml_bid_group_d                                lib/gcc111libbid_hard.a(dpml_ux_ops.o)
                                                  lib/gcc111libbid_hard.a(dpml_ux_ops_64.o)
                                                  lib/gcc111libbid_hard.a(dpml_ux_sqrt.o)
__dpml_bid_multiply__                             lib/gcc111libbid_hard.a(dpml_ux_ops_64.o)
                                                  lib/gcc111libbid_hard.a(dpml_ux_ops.o)
                                                  lib/gcc111libbid_hard.a(dpml_ux_trig.o)
                                                  lib/gcc111libbid_hard.a(dpml_ux_sqrt.o)
                                                  lib/gcc111libbid_hard.a(dpml_ux_log.o)
                                                  lib/gcc111libbid_hard.a(dpml_ux_inv_trig.o)
                                                  lib/gcc111libbid_hard.a(dpml_ux_exp.o)
                                                  lib/gcc111libbid_hard.a(dpml_ux_bid.o)
__dpml_bid_pack__                                 lib/gcc111libbid_hard.a(dpml_ux_ops.o)
                                                  lib/gcc111libbid_hard.a(dpml_ux_trig.o)
                                                  lib/gcc111libbid_hard.a(dpml_ux_sqrt.o)
                                                  lib/gcc111libbid_hard.a(dpml_ux_log.o)
                                                  lib/gcc111libbid_hard.a(dpml_ux_inv_trig.o)
                                                  lib/gcc111libbid_hard.a(dpml_ux_exp.o)
                                                  lib/gcc111libbid_hard.a(dpml_ux_bid.o)
__dpml_bid_sqrt_t_table                           lib/gcc111libbid_hard.a(sqrt_tab_t.o)
                                                  lib/gcc111libbid_hard.a(dpml_ux_sqrt.o)
__dpml_bid_unpack2__                              lib/gcc111libbid_hard.a(dpml_ux_ops.o)
                                                  lib/gcc111libbid_hard.a(dpml_ux_sqrt.o)
                                                  lib/gcc111libbid_hard.a(dpml_ux_inv_trig.o)
                                                  lib/gcc111libbid_hard.a(dpml_ux_bid.o)
__dpml_bid_unpack_x_or_y__                        lib/gcc111libbid_hard.a(dpml_ux_ops.o)
                                                  lib/gcc111libbid_hard.a(dpml_ux_trig.o)
                                                  lib/gcc111libbid_hard.a(dpml_ux_sqrt.o)
                                                  lib/gcc111libbid_hard.a(dpml_ux_log.o)
                                                  lib/gcc111libbid_hard.a(dpml_ux_inv_trig.o)
                                                  lib/gcc111libbid_hard.a(dpml_ux_exp.o)
                                                  lib/gcc111libbid_hard.a(dpml_ux_bid.o)
__dpml_bid_ux_atan2__                             lib/gcc111libbid_hard.a(dpml_ux_inv_trig.o)
__dpml_bid_ux_exp__                               lib/gcc111libbid_hard.a(dpml_ux_exp.o)
__dpml_bid_ux_exp_common__                        lib/gcc111libbid_hard.a(dpml_ux_exp.o)
__dpml_bid_ux_hyperbolic__                        lib/gcc111libbid_hard.a(dpml_ux_exp.o)
__dpml_bid_ux_hypot__                             lib/gcc111libbid_hard.a(dpml_ux_sqrt.o)
__dpml_bid_ux_log__                               lib/gcc111libbid_hard.a(dpml_ux_log.o)
__dpml_bid_ux_log_poly__                          lib/gcc111libbid_hard.a(dpml_ux_log.o)
__dpml_bid_ux_sincos                              lib/gcc111libbid_hard.a(dpml_ux_trig.o)
__dpml_bid_ux_sqrt_evaluation__                   lib/gcc111libbid_hard.a(dpml_ux_sqrt.o)
                                                  lib/gcc111libbid_hard.a(dpml_ux_inv_trig.o)
__dpml_bid_x_constants__                          lib/gcc111libbid_hard.a(dpml_ux_ops.o)
__dso_handle                                      /usr/lib/gcc/arm-none-eabi/6.3.1/thumb/v7e-m/fpv4-sp/hard/crtbegin.o
__eqdf2                                           /usr/lib/gcc/arm-none-eabi/6.3.1/thumb/v7e-m/fpv4-sp/hard/libgcc.a(_arm_cmpdf2.o)
__errno                                           /usr/lib/gcc/arm-none-eabi/6.3.1/../../../arm-none-eabi/lib/thumb/v7e-m/fpv4-sp/hard/libc.a(lib_a-errno.o)
                                                  /usr/lib/gcc/arm-none-eabi/6.3.1/../../../arm-none-eabi/lib/thumb/v7e-m/fpv4-sp/hard/libm.a(lib_a-w_sqrt.o)
                                                  lib/gcc111libbid_hard.a(dpml_exception.o)
                                                  build/pgm_syscalls.o
__extendsfdf2                                     /usr/lib/gcc/arm-none-eabi/6.3.1/thumb/v7e-m/fpv4-sp/hard/libgcc.a(_arm_addsubdf3.o)
__fdlib_version                                   /usr/lib/gcc/arm-none-eabi/6.3.1/../../../arm-none-eabi/lib/thumb/v7e-m/fpv4-sp/hard/libm.a(lib_a-s_lib_ver.o)
                                                  /usr/lib/gcc/arm-none-eabi/6.3.1/../../../arm-none-eabi/lib/thumb/v7e-m/fpv4-sp/hard/libm.a(lib_a-w_sqrt.o)
__fini_array_end                                  /usr/lib/gcc/arm-none-eabi/6.3.1/../../../arm-none-eabi/lib/thumb/v7e-m/fpv4-sp/hard/libc.a(lib_a-fini.o)
__fini_array_start                                /usr/lib/gcc/arm-none-eabi/6.3.1/../../../arm-none-eabi/lib/thumb/v7e-m/fpv4-sp/hard/libc.a(lib_a-fini.o)
__fixdfdi                                         /usr/lib/gcc/arm-none-eabi/6.3.1/thumb/v7e-m/fpv4-sp/hard/libgcc.a(_fixdfdi.o)
__fixdfsi                                         /usr/lib/gcc/arm-none-eabi/6.3.1/thumb/v7e-m/fpv4-sp/hard/libgcc.a(_arm_fixdfsi.o)
__fixunsdfdi                                      /usr/lib/gcc/arm-none-eabi/6.3.1/thumb/v7e-m/fpv4-sp/hard/libgcc.a(_fixunsdfdi.o)
__fixunsdfsi                                      /usr/lib/gcc/arm-none-eabi/6.3.1/thumb/v7e-m/fpv4-sp/hard/libgcc.a(_arm_fixunsdfsi.o)
__floatdidf                                       /usr/lib/gcc/arm-none-eabi/6.3.1/thumb/v7e-m/fpv4-sp/hard/libgcc.a(_arm_addsubdf3.o)
__floatdisf                                       /usr/lib/gcc/arm-none-eabi/6.3.1/thumb/v7e-m/fpv4-sp/hard/libgcc.a(_arm_addsubsf3.o)
__floatsidf                                       /usr/lib/gcc/arm-none-eabi/6.3.1/thumb/v7e-m/fpv4-sp/hard/libgcc.a(_arm_addsubdf3.o)
__floatsisf                                       /usr/lib/gcc/arm-none-eabi/6.3.1/thumb/v7e-m/fpv4-sp/hard/libgcc.a(_arm_addsubsf3.o)
__floatundidf                                     /usr/lib/gcc/arm-none-eabi/6.3.1/thumb/v7e-m/fpv4-sp/hard/libgcc.a(_arm_addsubdf3.o)
__floatundisf                                     /usr/lib/gcc/arm-none-eabi/6.3.1/thumb/v7e-m/fpv4-sp/hard/libgcc.a(_arm_addsubsf3.o)
__floatunsidf                                     /usr/lib/gcc/arm-none-eabi/6.3.1/thumb/v7e-m/fpv4-sp/hard/libgcc.a(_arm_addsubdf3.o)
__floatunsisf                                     /usr/lib/gcc/arm-none-eabi/6.3.1/thumb/v7e-m/fpv4-sp/hard/libgcc.a(_arm_addsubsf3.o)
__four_over_pi                                    lib/gcc111libbid_hard.a(dpml_four_over_pi.o)
                                                  lib/gcc111libbid_hard.a(dpml_ux_trig.o)
__fp_lock_all                                     /usr/lib/gcc/arm-none-eabi/6.3.1/../../../arm-none-eabi/lib/thumb/v7e-m/fpv4-sp/hard/libc.a(lib_a-findfp.o)
__fp_unlock_all                                   /usr/lib/gcc/arm-none-eabi/6.3.1/../../../arm-none-eabi/lib/thumb/v7e-m/fpv4-sp/hard/libc.a(lib_a-findfp.o)
__fputwc                                          /usr/lib/gcc/arm-none-eabi/6.3.1/../../../arm-none-eabi/lib/thumb/v7e-m/fpv4-sp/hard/libc.a(lib_a-fputwc.o)
__gedf2                                           /usr/lib/gcc/arm-none-eabi/6.3.1/thumb/v7e-m/fpv4-sp/hard/libgcc.a(_arm_cmpdf2.o)
__gtdf2                                           /usr/lib/gcc/arm-none-eabi/6.3.1/thumb/v7e-m/fpv4-sp/hard/libgcc.a(_arm_cmpdf2.o)
__hi0bits                                         /usr/lib/gcc/arm-none-eabi/6.3.1/../../../arm-none-eabi/lib/thumb/v7e-m/fpv4-sp/hard/libc.a(lib_a-mprec.o)
                                                  /usr/lib/gcc/arm-none-eabi/6.3.1/../../../arm-none-eabi/lib/thumb/v7e-m/fpv4-sp/hard/libc.a(lib_a-dtoa.o)
__i2b                                             /usr/lib/gcc/arm-none-eabi/6.3.1/../../../arm-none-eabi/lib/thumb/v7e-m/fpv4-sp/hard/libc.a(lib_a-mprec.o)
                                                  /usr/lib/gcc/arm-none-eabi/6.3.1/../../../arm-none-eabi/lib/thumb/v7e-m/fpv4-sp/hard/libc.a(lib_a-dtoa.o)
__ieee754_sqrt                                    /usr/lib/gcc/arm-none-eabi/6.3.1/../../../arm-none-eabi/lib/thumb/v7e-m/fpv4-sp/hard/libm.a(lib_a-e_sqrt.o)
                                                  /usr/lib/gcc/arm-none-eabi/6.3.1/../../../arm-none-eabi/lib/thumb/v7e-m/fpv4-sp/hard/libm.a(lib_a-w_sqrt.o)
__init_array_end                                  /usr/lib/gcc/arm-none-eabi/6.3.1/../../../arm-none-eabi/lib/thumb/v7e-m/fpv4-sp/hard/libc.a(lib_a-init.o)
__init_array_start                                /usr/lib/gcc/arm-none-eabi/6.3.1/../../../arm-none-eabi/lib/thumb/v7e-m/fpv4-sp/hard/libc.a(lib_a-init.o)
__ledf2                                           /usr/lib/gcc/arm-none-eabi/6.3.1/thumb/v7e-m/fpv4-sp/hard/libgcc.a(_arm_cmpdf2.o)
__libc_fini                                       /usr/lib/gcc/arm-none-eabi/6.3.1/../../../arm-none-eabi/lib/thumb/v7e-m/fpv4-sp/hard/libc.a(lib_a-__call_atexit.o)
__libc_fini_array                                 /usr/lib/gcc/arm-none-eabi/6.3.1/../../../arm-none-eabi/lib/thumb/v7e-m/fpv4-sp/hard/libc.a(lib_a-fini.o)
                                                  /usr/lib/gcc/arm-none-eabi/6.3.1/../../../arm-none-eabi/lib/thumb/v7e-m/fpv4-sp/hard/libc.a(lib_a-__call_atexit.o)
                                                  /usr/lib/gcc/arm-none-eabi/6.3.1/../../../arm-none-eabi/lib/thumb/v7e-m/fpv4-sp/hard/crt0.o
__libc_init_array                                 /usr/lib/gcc/arm-none-eabi/6.3.1/../../../arm-none-eabi/lib/thumb/v7e-m/fpv4-sp/hard/libc.a(lib_a-init.o)
                                                  build/startup_pgm.o
                                                  /usr/lib/gcc/arm-none-eabi/6.3.1/../../../arm-none-eabi/lib/thumb/v7e-m/fpv4-sp/hard/crt0.o
__lo0bits                                         /usr/lib/gcc/arm-none-eabi/6.3.1/../../../arm-none-eabi/lib/thumb/v7e-m/fpv4-sp/hard/libc.a(lib_a-mprec.o)
__locale_charset                                  /usr/lib/gcc/arm-none-eabi/6.3.1/../../../arm-none-eabi/lib/thumb/v7e-m/fpv4-sp/hard/libc.a(lib_a-locale.o)
                                                  /usr/lib/gcc/arm-none-eabi/6.3.1/../../../arm-none-eabi/lib/thumb/v7e-m/fpv4-sp/hard/libc.a(lib_a-wctomb_r.o)
                                                  /usr/lib/gcc/arm-none-eabi/6.3.1/../../../arm-none-eabi/lib/thumb/v7e-m/fpv4-sp/hard/libc.a(lib_a-wcrtomb.o)
__locale_cjk_lang                                 /usr/lib/gcc/arm-none-eabi/6.3.1/../../../arm-none-eabi/lib/thumb/v7e-m/fpv4-sp/hard/libc.a(lib_a-locale.o)
__locale_mb_cur_max                               /usr/lib/gcc/arm-none-eabi/6.3.1/../../../arm-none-eabi/lib/thumb/v7e-m/fpv4-sp/hard/libc.a(lib_a-locale.o)
                                                  /usr/lib/gcc/arm-none-eabi/6.3.1/../../../arm-none-eabi/lib/thumb/v7e-m/fpv4-sp/hard/libc.a(lib_a-fputwc.o)
__locale_msgcharset                               /usr/lib/gcc/arm-none-eabi/6.3.1/../../../arm-none-eabi/lib/thumb/v7e-m/fpv4-sp/hard/libc.a(lib_a-locale.o)
__lshift                                          /usr/lib/gcc/arm-none-eabi/6.3.1/../../../arm-none-eabi/lib/thumb/v7e-m/fpv4-sp/hard/libc.a(lib_a-mprec.o)
                                                  /usr/lib/gcc/arm-none-eabi/6.3.1/../../../arm-none-eabi/lib/thumb/v7e-m/fpv4-sp/hard/libc.a(lib_a-dtoa.o)
__ltdf2                                           /usr/lib/gcc/arm-none-eabi/6.3.1/thumb/v7e-m/fpv4-sp/hard/libgcc.a(_arm_cmpdf2.o)
__mb_cur_max                                      /usr/lib/gcc/arm-none-eabi/6.3.1/../../../arm-none-eabi/lib/thumb/v7e-m/fpv4-sp/hard/libc.a(lib_a-locale.o)
__mcmp                                            /usr/lib/gcc/arm-none-eabi/6.3.1/../../../arm-none-eabi/lib/thumb/v7e-m/fpv4-sp/hard/libc.a(lib_a-mprec.o)
                                                  /usr/lib/gcc/arm-none-eabi/6.3.1/../../../arm-none-eabi/lib/thumb/v7e-m/fpv4-sp/hard/libc.a(lib_a-dtoa.o)
__mdiff                                           /usr/lib/gcc/arm-none-eabi/6.3.1/../../../arm-none-eabi/lib/thumb/v7e-m/fpv4-sp/hard/libc.a(lib_a-mprec.o)
                                                  /usr/lib/gcc/arm-none-eabi/6.3.1/../../../arm-none-eabi/lib/thumb/v7e-m/fpv4-sp/hard/libc.a(lib_a-dtoa.o)
__mlocale_changed                                 /usr/lib/gcc/arm-none-eabi/6.3.1/../../../arm-none-eabi/lib/thumb/v7e-m/fpv4-sp/hard/libc.a(lib_a-locale.o)
__mprec_bigtens                                   /usr/lib/gcc/arm-none-eabi/6.3.1/../../../arm-none-eabi/lib/thumb/v7e-m/fpv4-sp/hard/libc.a(lib_a-mprec.o)
                                                  /usr/lib/gcc/arm-none-eabi/6.3.1/../../../arm-none-eabi/lib/thumb/v7e-m/fpv4-sp/hard/libc.a(lib_a-dtoa.o)
__mprec_tens                                      /usr/lib/gcc/arm-none-eabi/6.3.1/../../../arm-none-eabi/lib/thumb/v7e-m/fpv4-sp/hard/libc.a(lib_a-mprec.o)
                                                  /usr/lib/gcc/arm-none-eabi/6.3.1/../../../arm-none-eabi/lib/thumb/v7e-m/fpv4-sp/hard/libc.a(lib_a-dtoa.o)
__mprec_tinytens                                  /usr/lib/gcc/arm-none-eabi/6.3.1/../../../arm-none-eabi/lib/thumb/v7e-m/fpv4-sp/hard/libc.a(lib_a-mprec.o)
__muldf3                                          /usr/lib/gcc/arm-none-eabi/6.3.1/thumb/v7e-m/fpv4-sp/hard/libgcc.a(_arm_muldivdf3.o)
__multadd                                         /usr/lib/gcc/arm-none-eabi/6.3.1/../../../arm-none-eabi/lib/thumb/v7e-m/fpv4-sp/hard/libc.a(lib_a-mprec.o)
                                                  /usr/lib/gcc/arm-none-eabi/6.3.1/../../../arm-none-eabi/lib/thumb/v7e-m/fpv4-sp/hard/libc.a(lib_a-dtoa.o)
__multiply                                        /usr/lib/gcc/arm-none-eabi/6.3.1/../../../arm-none-eabi/lib/thumb/v7e-m/fpv4-sp/hard/libc.a(lib_a-mprec.o)
                                                  /usr/lib/gcc/arm-none-eabi/6.3.1/../../../arm-none-eabi/lib/thumb/v7e-m/fpv4-sp/hard/libc.a(lib_a-dtoa.o)
__nedf2                                           /usr/lib/gcc/arm-none-eabi/6.3.1/thumb/v7e-m/fpv4-sp/hard/libgcc.a(_arm_cmpdf2.o)
__nlocale_changed                                 /usr/lib/gcc/arm-none-eabi/6.3.1/../../../arm-none-eabi/lib/thumb/v7e-m/fpv4-sp/hard/libc.a(lib_a-locale.o)
__pow5mult                                        /usr/lib/gcc/arm-none-eabi/6.3.1/../../../arm-none-eabi/lib/thumb/v7e-m/fpv4-sp/hard/libc.a(lib_a-mprec.o)
                                                  /usr/lib/gcc/arm-none-eabi/6.3.1/../../../arm-none-eabi/lib/thumb/v7e-m/fpv4-sp/hard/libc.a(lib_a-dtoa.o)
__preinit_array_end                               /usr/lib/gcc/arm-none-eabi/6.3.1/../../../arm-none-eabi/lib/thumb/v7e-m/fpv4-sp/hard/libc.a(lib_a-init.o)
__preinit_array_start                             /usr/lib/gcc/arm-none-eabi/6.3.1/../../../arm-none-eabi/lib/thumb/v7e-m/fpv4-sp/hard/libc.a(lib_a-init.o)
__ratio                                           /usr/lib/gcc/arm-none-eabi/6.3.1/../../../arm-none-eabi/lib/thumb/v7e-m/fpv4-sp/hard/libc.a(lib_a-mprec.o)
__register_exitproc                               /usr/lib/gcc/arm-none-eabi/6.3.1/../../../arm-none-eabi/lib/thumb/v7e-m/fpv4-sp/hard/libc.a(lib_a-__atexit.o)
                                                  /usr/lib/gcc/arm-none-eabi/6.3.1/../../../arm-none-eabi/lib/thumb/v7e-m/fpv4-sp/hard/libc.a(lib_a-atexit.o)
__register_frame_info                             /usr/lib/gcc/arm-none-eabi/6.3.1/thumb/v7e-m/fpv4-sp/hard/crtbegin.o
__rsqrt                                           lib/gcc111libbid_hard.a(dpml_ux_sqrt.o)
__s2b                                             /usr/lib/gcc/arm-none-eabi/6.3.1/../../../arm-none-eabi/lib/thumb/v7e-m/fpv4-sp/hard/libc.a(lib_a-mprec.o)
__sclose                                          /usr/lib/gcc/arm-none-eabi/6.3.1/../../../arm-none-eabi/lib/thumb/v7e-m/fpv4-sp/hard/libc.a(lib_a-stdio.o)
                                                  /usr/lib/gcc/arm-none-eabi/6.3.1/../../../arm-none-eabi/lib/thumb/v7e-m/fpv4-sp/hard/libc.a(lib_a-findfp.o)
__seofread                                        /usr/lib/gcc/arm-none-eabi/6.3.1/../../../arm-none-eabi/lib/thumb/v7e-m/fpv4-sp/hard/libc.a(lib_a-stdio.o)
__sflush_r                                        /usr/lib/gcc/arm-none-eabi/6.3.1/../../../arm-none-eabi/lib/thumb/v7e-m/fpv4-sp/hard/libc.a(lib_a-fflush.o)
                                                  /usr/lib/gcc/arm-none-eabi/6.3.1/../../../arm-none-eabi/lib/thumb/v7e-m/fpv4-sp/hard/libc.a(lib_a-fclose.o)
__sfmoreglue                                      /usr/lib/gcc/arm-none-eabi/6.3.1/../../../arm-none-eabi/lib/thumb/v7e-m/fpv4-sp/hard/libc.a(lib_a-findfp.o)
__sfp                                             /usr/lib/gcc/arm-none-eabi/6.3.1/../../../arm-none-eabi/lib/thumb/v7e-m/fpv4-sp/hard/libc.a(lib_a-findfp.o)
__sfp_lock_acquire                                /usr/lib/gcc/arm-none-eabi/6.3.1/../../../arm-none-eabi/lib/thumb/v7e-m/fpv4-sp/hard/libc.a(lib_a-findfp.o)
                                                  /usr/lib/gcc/arm-none-eabi/6.3.1/../../../arm-none-eabi/lib/thumb/v7e-m/fpv4-sp/hard/libc.a(lib_a-fclose.o)
__sfp_lock_release                                /usr/lib/gcc/arm-none-eabi/6.3.1/../../../arm-none-eabi/lib/thumb/v7e-m/fpv4-sp/hard/libc.a(lib_a-findfp.o)
                                                  /usr/lib/gcc/arm-none-eabi/6.3.1/../../../arm-none-eabi/lib/thumb/v7e-m/fpv4-sp/hard/libc.a(lib_a-fclose.o)
__sfvwrite_r                                      /usr/lib/gcc/arm-none-eabi/6.3.1/../../../arm-none-eabi/lib/thumb/v7e-m/fpv4-sp/hard/libc.a(lib_a-fvwrite.o)
                                                  /usr/lib/gcc/arm-none-eabi/6.3.1/../../../arm-none-eabi/lib/thumb/v7e-m/fpv4-sp/hard/libc.a(lib_a-vfiprintf.o)
__sigtramp                                        /usr/lib/gcc/arm-none-eabi/6.3.1/../../../arm-none-eabi/lib/thumb/v7e-m/fpv4-sp/hard/libc.a(lib_a-signal.o)
__sigtramp_r                                      /usr/lib/gcc/arm-none-eabi/6.3.1/../../../arm-none-eabi/lib/thumb/v7e-m/fpv4-sp/hard/libc.a(lib_a-signal.o)
__sinit                                           /usr/lib/gcc/arm-none-eabi/6.3.1/../../../arm-none-eabi/lib/thumb/v7e-m/fpv4-sp/hard/libc.a(lib_a-findfp.o)
                                                  /usr/lib/gcc/arm-none-eabi/6.3.1/../../../arm-none-eabi/lib/thumb/v7e-m/fpv4-sp/hard/libc.a(lib_a-wbuf.o)
                                                  /usr/lib/gcc/arm-none-eabi/6.3.1/../../../arm-none-eabi/lib/thumb/v7e-m/fpv4-sp/hard/libc.a(lib_a-fputwc.o)
                                                  /usr/lib/gcc/arm-none-eabi/6.3.1/../../../arm-none-eabi/lib/thumb/v7e-m/fpv4-sp/hard/libc.a(lib_a-fclose.o)
                                                  /usr/lib/gcc/arm-none-eabi/6.3.1/../../../arm-none-eabi/lib/thumb/v7e-m/fpv4-sp/hard/libc.a(lib_a-vfiprintf.o)
                                                  /usr/lib/gcc/arm-none-eabi/6.3.1/../../../arm-none-eabi/lib/thumb/v7e-m/fpv4-sp/hard/libc.a(lib_a-fflush.o)
                                                  /usr/lib/gcc/arm-none-eabi/6.3.1/../../../arm-none-eabi/lib/thumb/v7e-m/fpv4-sp/hard/libc.a(lib_a-wsetup.o)
                                                  /usr/lib/gcc/arm-none-eabi/6.3.1/../../../arm-none-eabi/lib/thumb/v7e-m/fpv4-sp/hard/libc.a(lib_a-vfprintf.o)
__sinit_lock_acquire                              /usr/lib/gcc/arm-none-eabi/6.3.1/../../../arm-none-eabi/lib/thumb/v7e-m/fpv4-sp/hard/libc.a(lib_a-findfp.o)
__sinit_lock_release                              /usr/lib/gcc/arm-none-eabi/6.3.1/../../../arm-none-eabi/lib/thumb/v7e-m/fpv4-sp/hard/libc.a(lib_a-findfp.o)
__smakebuf_r                                      /usr/lib/gcc/arm-none-eabi/6.3.1/../../../arm-none-eabi/lib/thumb/v7e-m/fpv4-sp/hard/libc.a(lib_a-makebuf.o)
                                                  /usr/lib/gcc/arm-none-eabi/6.3.1/../../../arm-none-eabi/lib/thumb/v7e-m/fpv4-sp/hard/libc.a(lib_a-wsetup.o)
__sprint_r                                        /usr/lib/gcc/arm-none-eabi/6.3.1/../../../arm-none-eabi/lib/thumb/v7e-m/fpv4-sp/hard/libc.a(lib_a-vfiprintf.o)
                                                  /usr/lib/gcc/arm-none-eabi/6.3.1/../../../arm-none-eabi/lib/thumb/v7e-m/fpv4-sp/hard/libc.a(lib_a-vfprintf.o)
__sread                                           /usr/lib/gcc/arm-none-eabi/6.3.1/../../../arm-none-eabi/lib/thumb/v7e-m/fpv4-sp/hard/libc.a(lib_a-stdio.o)
                                                  /usr/lib/gcc/arm-none-eabi/6.3.1/../../../arm-none-eabi/lib/thumb/v7e-m/fpv4-sp/hard/libc.a(lib_a-findfp.o)
__sseek                                           /usr/lib/gcc/arm-none-eabi/6.3.1/../../../arm-none-eabi/lib/thumb/v7e-m/fpv4-sp/hard/libc.a(lib_a-stdio.o)
                                                  /usr/lib/gcc/arm-none-eabi/6.3.1/../../../arm-none-eabi/lib/thumb/v7e-m/fpv4-sp/hard/libc.a(lib_a-findfp.o)
__ssprint_r                                       /usr/lib/gcc/arm-none-eabi/6.3.1/../../../arm-none-eabi/lib/thumb/v7e-m/fpv4-sp/hard/libc.a(lib_a-svfiprintf.o)
                                                  /usr/lib/gcc/arm-none-eabi/6.3.1/../../../arm-none-eabi/lib/thumb/v7e-m/fpv4-sp/hard/libc.a(lib_a-svfprintf.o)
__stack                                           /usr/lib/gcc/arm-none-eabi/6.3.1/../../../arm-none-eabi/lib/thumb/v7e-m/fpv4-sp/hard/crt0.o
__subdf3                                          /usr/lib/gcc/arm-none-eabi/6.3.1/thumb/v7e-m/fpv4-sp/hard/libgcc.a(_arm_addsubdf3.o)
__subsf3                                          /usr/lib/gcc/arm-none-eabi/6.3.1/thumb/v7e-m/fpv4-sp/hard/libgcc.a(_arm_addsubsf3.o)
__swbuf                                           /usr/lib/gcc/arm-none-eabi/6.3.1/../../../arm-none-eabi/lib/thumb/v7e-m/fpv4-sp/hard/libc.a(lib_a-wbuf.o)
__swbuf_r                                         /usr/lib/gcc/arm-none-eabi/6.3.1/../../../arm-none-eabi/lib/thumb/v7e-m/fpv4-sp/hard/libc.a(lib_a-wbuf.o)
                                                  /usr/lib/gcc/arm-none-eabi/6.3.1/../../../arm-none-eabi/lib/thumb/v7e-m/fpv4-sp/hard/libc.a(lib_a-fputwc.o)
__swhatbuf_r                                      /usr/lib/gcc/arm-none-eabi/6.3.1/../../../arm-none-eabi/lib/thumb/v7e-m/fpv4-sp/hard/libc.a(lib_a-makebuf.o)
__swrite                                          /usr/lib/gcc/arm-none-eabi/6.3.1/../../../arm-none-eabi/lib/thumb/v7e-m/fpv4-sp/hard/libc.a(lib_a-stdio.o)
                                                  /usr/lib/gcc/arm-none-eabi/6.3.1/../../../arm-none-eabi/lib/thumb/v7e-m/fpv4-sp/hard/libc.a(lib_a-findfp.o)
__swsetup_r                                       /usr/lib/gcc/arm-none-eabi/6.3.1/../../../arm-none-eabi/lib/thumb/v7e-m/fpv4-sp/hard/libc.a(lib_a-wsetup.o)
                                                  /usr/lib/gcc/arm-none-eabi/6.3.1/../../../arm-none-eabi/lib/thumb/v7e-m/fpv4-sp/hard/libc.a(lib_a-wbuf.o)
                                                  /usr/lib/gcc/arm-none-eabi/6.3.1/../../../arm-none-eabi/lib/thumb/v7e-m/fpv4-sp/hard/libc.a(lib_a-fvwrite.o)
                                                  /usr/lib/gcc/arm-none-eabi/6.3.1/../../../arm-none-eabi/lib/thumb/v7e-m/fpv4-sp/hard/libc.a(lib_a-vfiprintf.o)
                                                  /usr/lib/gcc/arm-none-eabi/6.3.1/../../../arm-none-eabi/lib/thumb/v7e-m/fpv4-sp/hard/libc.a(lib_a-vfprintf.o)
__truncdfsf2                                      /usr/lib/gcc/arm-none-eabi/6.3.1/thumb/v7e-m/fpv4-sp/hard/libgcc.a(_arm_truncdfsf2.o)
__udivmoddi4                                      /usr/lib/gcc/arm-none-eabi/6.3.1/thumb/v7e-m/fpv4-sp/hard/libgcc.a(_udivmoddi4.o)
                                                  /usr/lib/gcc/arm-none-eabi/6.3.1/thumb/v7e-m/fpv4-sp/hard/libgcc.a(_aeabi_uldivmod.o)
__ulp                                             /usr/lib/gcc/arm-none-eabi/6.3.1/../../../arm-none-eabi/lib/thumb/v7e-m/fpv4-sp/hard/libc.a(lib_a-mprec.o)
__unorddf2                                        /usr/lib/gcc/arm-none-eabi/6.3.1/thumb/v7e-m/fpv4-sp/hard/libgcc.a(_arm_unorddf2.o)
__wctomb                                          /usr/lib/gcc/arm-none-eabi/6.3.1/../../../arm-none-eabi/lib/thumb/v7e-m/fpv4-sp/hard/libc.a(lib_a-wctomb_r.o)
                                                  /usr/lib/gcc/arm-none-eabi/6.3.1/../../../arm-none-eabi/lib/thumb/v7e-m/fpv4-sp/hard/libc.a(lib_a-wcrtomb.o)
__wrap__malloc_r                                  build/pgm_syscalls.o
                                                  /usr/lib/gcc/arm-none-eabi/6.3.1/../../../arm-none-eabi/lib/thumb/v7e-m/fpv4-sp/hard/libc.a(lib_a-fvwrite.o)
                                                  /usr/lib/gcc/arm-none-eabi/6.3.1/../../../arm-none-eabi/lib/thumb/v7e-m/fpv4-sp/hard/libc.a(lib_a-svfiprintf.o)
                                                  /usr/lib/gcc/arm-none-eabi/6.3.1/../../../arm-none-eabi/lib/thumb/v7e-m/fpv4-sp/hard/libc.a(lib_a-makebuf.o)
                                                  /usr/lib/gcc/arm-none-eabi/6.3.1/../../../arm-none-eabi/lib/thumb/v7e-m/fpv4-sp/hard/libc.a(lib_a-findfp.o)
                                                  /usr/lib/gcc/arm-none-eabi/6.3.1/../../../arm-none-eabi/lib/thumb/v7e-m/fpv4-sp/hard/libc.a(lib_a-svfprintf.o)
                                                  /usr/lib/gcc/arm-none-eabi/6.3.1/../../../arm-none-eabi/lib/thumb/v7e-m/fpv4-sp/hard/libc.a(lib_a-signal.o)
_atoi_r                                           /usr/lib/gcc/arm-none-eabi/6.3.1/../../../arm-none-eabi/lib/thumb/v7e-m/fpv4-sp/hard/libc.a(lib_a-atoi.o)
_calloc_r                                         build/pgm_syscalls.o
                                                  /usr/lib/gcc/arm-none-eabi/6.3.1/../../../arm-none-eabi/lib/thumb/v7e-m/fpv4-sp/hard/libc.a(lib_a-mprec.o)
_cleanup                                          /usr/lib/gcc/arm-none-eabi/6.3.1/../../../arm-none-eabi/lib/thumb/v7e-m/fpv4-sp/hard/libc.a(lib_a-findfp.o)
_cleanup_r                                        /usr/lib/gcc/arm-none-eabi/6.3.1/../../../arm-none-eabi/lib/thumb/v7e-m/fpv4-sp/hard/libc.a(lib_a-findfp.o)
                                                  /usr/lib/gcc/arm-none-eabi/6.3.1/../../../arm-none-eabi/lib/thumb/v7e-m/fpv4-sp/hard/libc.a(lib_a-makebuf.o)
_close                                            build/pgm_syscalls.o
                                                  /usr/lib/gcc/arm-none-eabi/6.3.1/../../../arm-none-eabi/lib/thumb/v7e-m/fpv4-sp/hard/libc.a(lib_a-closer.o)
_close_r                                          /usr/lib/gcc/arm-none-eabi/6.3.1/../../../arm-none-eabi/lib/thumb/v7e-m/fpv4-sp/hard/libc.a(lib_a-closer.o)
                                                  /usr/lib/gcc/arm-none-eabi/6.3.1/../../../arm-none-eabi/lib/thumb/v7e-m/fpv4-sp/hard/libc.a(lib_a-stdio.o)
_ctype_                                           /usr/lib/gcc/arm-none-eabi/6.3.1/../../../arm-none-eabi/lib/thumb/v7e-m/fpv4-sp/hard/libc.a(lib_a-ctype_.o)
_dtoa_r                                           /usr/lib/gcc/arm-none-eabi/6.3.1/../../../arm-none-eabi/lib/thumb/v7e-m/fpv4-sp/hard/libc.a(lib_a-dtoa.o)
                                                  /usr/lib/gcc/arm-none-eabi/6.3.1/../../../arm-none-eabi/lib/thumb/v7e-m/fpv4-sp/hard/libc.a(lib_a-vfprintf.o)
                                                  /usr/lib/gcc/arm-none-eabi/6.3.1/../../../arm-none-eabi/lib/thumb/v7e-m/fpv4-sp/hard/libc.a(lib_a-svfprintf.o)
_ebss                                             build/startup_pgm.o
_edata                                            build/startup_pgm.o
_exit                                             /usr/lib/gcc/arm-none-eabi/6.3.1/../../../arm-none-eabi/lib/thumb/v7e-m/fpv4-sp/hard/libc.a(lib_a-exit.o)
_fclose_r                                         /usr/lib/gcc/arm-none-eabi/6.3.1/../../../arm-none-eabi/lib/thumb/v7e-m/fpv4-sp/hard/libc.a(lib_a-fclose.o)
                                                  /usr/lib/gcc/arm-none-eabi/6.3.1/../../../arm-none-eabi/lib/thumb/v7e-m/fpv4-sp/hard/libc.a(lib_a-findfp.o)
_fflush_r                                         /usr/lib/gcc/arm-none-eabi/6.3.1/../../../arm-none-eabi/lib/thumb/v7e-m/fpv4-sp/hard/libc.a(lib_a-fflush.o)
                                                  /usr/lib/gcc/arm-none-eabi/6.3.1/../../../arm-none-eabi/lib/thumb/v7e-m/fpv4-sp/hard/libc.a(lib_a-wbuf.o)
                                                  /usr/lib/gcc/arm-none-eabi/6.3.1/../../../arm-none-eabi/lib/thumb/v7e-m/fpv4-sp/hard/libc.a(lib_a-fvwrite.o)
                                                  /usr/lib/gcc/arm-none-eabi/6.3.1/../../../arm-none-eabi/lib/thumb/v7e-m/fpv4-sp/hard/libc.a(lib_a-vfiprintf.o)
                                                  /usr/lib/gcc/arm-none-eabi/6.3.1/../../../arm-none-eabi/lib/thumb/v7e-m/fpv4-sp/hard/libc.a(lib_a-vfprintf.o)
_fini                                             /usr/lib/gcc/arm-none-eabi/6.3.1/thumb/v7e-m/fpv4-sp/hard/crti.o
                                                  /usr/lib/gcc/arm-none-eabi/6.3.1/../../../arm-none-eabi/lib/thumb/v7e-m/fpv4-sp/hard/libc.a(lib_a-fini.o)
_fputwc_r                                         /usr/lib/gcc/arm-none-eabi/6.3.1/../../../arm-none-eabi/lib/thumb/v7e-m/fpv4-sp/hard/libc.a(lib_a-fputwc.o)
                                                  /usr/lib/gcc/arm-none-eabi/6.3.1/../../../arm-none-eabi/lib/thumb/v7e-m/fpv4-sp/hard/libc.a(lib_a-vfiprintf.o)
_free_r                                           build/pgm_syscalls.o
                                                  /usr/lib/gcc/arm-none-eabi/6.3.1/../../../arm-none-eabi/lib/thumb/v7e-m/fpv4-sp/hard/libc.a(lib_a-fvwrite.o)
                                                  /usr/lib/gcc/arm-none-eabi/6.3.1/../../../arm-none-eabi/lib/thumb/v7e-m/fpv4-sp/hard/libc.a(lib_a-fclose.o)
                                                  /usr/lib/gcc/arm-none-eabi/6.3.1/../../../arm-none-eabi/lib/thumb/v7e-m/fpv4-sp/hard/libc.a(lib_a-svfiprintf.o)
                                                  /usr/lib/gcc/arm-none-eabi/6.3.1/../../../arm-none-eabi/lib/thumb/v7e-m/fpv4-sp/hard/libc.a(lib_a-reent.o)
                                                  /usr/lib/gcc/arm-none-eabi/6.3.1/../../../arm-none-eabi/lib/thumb/v7e-m/fpv4-sp/hard/libc.a(lib_a-fflush.o)
                                                  /usr/lib/gcc/arm-none-eabi/6.3.1/../../../arm-none-eabi/lib/thumb/v7e-m/fpv4-sp/hard/libc.a(lib_a-wsetup.o)
_fstat                                            build/pgm_syscalls.o
                                                  /usr/lib/gcc/arm-none-eabi/6.3.1/../../../arm-none-eabi/lib/thumb/v7e-m/fpv4-sp/hard/libc.a(lib_a-fstatr.o)
_fstat_r                                          /usr/lib/gcc/arm-none-eabi/6.3.1/../../../arm-none-eabi/lib/thumb/v7e-m/fpv4-sp/hard/libc.a(lib_a-fstatr.o)
                                                  /usr/lib/gcc/arm-none-eabi/6.3.1/../../../arm-none-eabi/lib/thumb/v7e-m/fpv4-sp/hard/libc.a(lib_a-makebuf.o)
_fwalk                                            /usr/lib/gcc/arm-none-eabi/6.3.1/../../../arm-none-eabi/lib/thumb/v7e-m/fpv4-sp/hard/libc.a(lib_a-fwalk.o)
                                                  /usr/lib/gcc/arm-none-eabi/6.3.1/../../../arm-none-eabi/lib/thumb/v7e-m/fpv4-sp/hard/libc.a(lib_a-findfp.o)
_fwalk_reent                                      /usr/lib/gcc/arm-none-eabi/6.3.1/../../../arm-none-eabi/lib/thumb/v7e-m/fpv4-sp/hard/libc.a(lib_a-fwalk.o)
                                                  /usr/lib/gcc/arm-none-eabi/6.3.1/../../../arm-none-eabi/lib/thumb/v7e-m/fpv4-sp/hard/libc.a(lib_a-findfp.o)
                                                  /usr/lib/gcc/arm-none-eabi/6.3.1/../../../arm-none-eabi/lib/thumb/v7e-m/fpv4-sp/hard/libc.a(lib_a-fflush.o)
_getpid                                           build/pgm_syscalls.o
                                                  /usr/lib/gcc/arm-none-eabi/6.3.1/../../../arm-none-eabi/lib/thumb/v7e-m/fpv4-sp/hard/libc.a(lib_a-signalr.o)
_getpid_r                                         /usr/lib/gcc/arm-none-eabi/6.3.1/../../../arm-none-eabi/lib/thumb/v7e-m/fpv4-sp/hard/libc.a(lib_a-signalr.o)
                                                  /usr/lib/gcc/arm-none-eabi/6.3.1/../../../arm-none-eabi/lib/thumb/v7e-m/fpv4-sp/hard/libc.a(lib_a-signal.o)
_global_impure_ptr                                /usr/lib/gcc/arm-none-eabi/6.3.1/../../../arm-none-eabi/lib/thumb/v7e-m/fpv4-sp/hard/libc.a(lib_a-impure.o)
                                                  /usr/lib/gcc/arm-none-eabi/6.3.1/../../../arm-none-eabi/lib/thumb/v7e-m/fpv4-sp/hard/libc.a(lib_a-findfp.o)
                                                  /usr/lib/gcc/arm-none-eabi/6.3.1/../../../arm-none-eabi/lib/thumb/v7e-m/fpv4-sp/hard/libc.a(lib_a-fflush.o)
                                                  /usr/lib/gcc/arm-none-eabi/6.3.1/../../../arm-none-eabi/lib/thumb/v7e-m/fpv4-sp/hard/libc.a(lib_a-__call_atexit.o)
                                                  /usr/lib/gcc/arm-none-eabi/6.3.1/../../../arm-none-eabi/lib/thumb/v7e-m/fpv4-sp/hard/libc.a(lib_a-__atexit.o)
                                                  /usr/lib/gcc/arm-none-eabi/6.3.1/../../../arm-none-eabi/lib/thumb/v7e-m/fpv4-sp/hard/libc.a(lib_a-exit.o)
_impure_ptr                                       /usr/lib/gcc/arm-none-eabi/6.3.1/../../../arm-none-eabi/lib/thumb/v7e-m/fpv4-sp/hard/libc.a(lib_a-impure.o)
                                                  /usr/lib/gcc/arm-none-eabi/6.3.1/../../../arm-none-eabi/lib/thumb/v7e-m/fpv4-sp/hard/libc.a(lib_a-wcrtomb.o)
                                                  /usr/lib/gcc/arm-none-eabi/6.3.1/../../../arm-none-eabi/lib/thumb/v7e-m/fpv4-sp/hard/libc.a(lib_a-wbuf.o)
                                                  /usr/lib/gcc/arm-none-eabi/6.3.1/../../../arm-none-eabi/lib/thumb/v7e-m/fpv4-sp/hard/libc.a(lib_a-fputwc.o)
                                                  /usr/lib/gcc/arm-none-eabi/6.3.1/../../../arm-none-eabi/lib/thumb/v7e-m/fpv4-sp/hard/libc.a(lib_a-fclose.o)
                                                  /usr/lib/gcc/arm-none-eabi/6.3.1/../../../arm-none-eabi/lib/thumb/v7e-m/fpv4-sp/hard/libc.a(lib_a-vfiprintf.o)
                                                  /usr/lib/gcc/arm-none-eabi/6.3.1/../../../arm-none-eabi/lib/thumb/v7e-m/fpv4-sp/hard/libc.a(lib_a-reent.o)
                                                  /usr/lib/gcc/arm-none-eabi/6.3.1/../../../arm-none-eabi/lib/thumb/v7e-m/fpv4-sp/hard/libc.a(lib_a-locale.o)
                                                  /usr/lib/gcc/arm-none-eabi/6.3.1/../../../arm-none-eabi/lib/thumb/v7e-m/fpv4-sp/hard/libc.a(lib_a-findfp.o)
                                                  /usr/lib/gcc/arm-none-eabi/6.3.1/../../../arm-none-eabi/lib/thumb/v7e-m/fpv4-sp/hard/libc.a(lib_a-fflush.o)
                                                  /usr/lib/gcc/arm-none-eabi/6.3.1/../../../arm-none-eabi/lib/thumb/v7e-m/fpv4-sp/hard/libc.a(lib_a-wsetup.o)
                                                  /usr/lib/gcc/arm-none-eabi/6.3.1/../../../arm-none-eabi/lib/thumb/v7e-m/fpv4-sp/hard/libc.a(lib_a-vfprintf.o)
                                                  /usr/lib/gcc/arm-none-eabi/6.3.1/../../../arm-none-eabi/lib/thumb/v7e-m/fpv4-sp/hard/libc.a(lib_a-strtol.o)
                                                  /usr/lib/gcc/arm-none-eabi/6.3.1/../../../arm-none-eabi/lib/thumb/v7e-m/fpv4-sp/hard/libc.a(lib_a-sprintf.o)
                                                  /usr/lib/gcc/arm-none-eabi/6.3.1/../../../arm-none-eabi/lib/thumb/v7e-m/fpv4-sp/hard/libc.a(lib_a-signal.o)
                                                  /usr/lib/gcc/arm-none-eabi/6.3.1/../../../arm-none-eabi/lib/thumb/v7e-m/fpv4-sp/hard/libc.a(lib_a-printf.o)
                                                  /usr/lib/gcc/arm-none-eabi/6.3.1/../../../arm-none-eabi/lib/thumb/v7e-m/fpv4-sp/hard/libc.a(lib_a-errno.o)
_init                                             /usr/lib/gcc/arm-none-eabi/6.3.1/thumb/v7e-m/fpv4-sp/hard/crti.o
                                                  /usr/lib/gcc/arm-none-eabi/6.3.1/../../../arm-none-eabi/lib/thumb/v7e-m/fpv4-sp/hard/libc.a(lib_a-init.o)
_init_signal                                      /usr/lib/gcc/arm-none-eabi/6.3.1/../../../arm-none-eabi/lib/thumb/v7e-m/fpv4-sp/hard/libc.a(lib_a-signal.o)
_init_signal_r                                    /usr/lib/gcc/arm-none-eabi/6.3.1/../../../arm-none-eabi/lib/thumb/v7e-m/fpv4-sp/hard/libc.a(lib_a-signal.o)
_isatty                                           build/pgm_syscalls.o
                                                  /usr/lib/gcc/arm-none-eabi/6.3.1/../../../arm-none-eabi/lib/thumb/v7e-m/fpv4-sp/hard/libc.a(lib_a-isattyr.o)
_isatty_r                                         /usr/lib/gcc/arm-none-eabi/6.3.1/../../../arm-none-eabi/lib/thumb/v7e-m/fpv4-sp/hard/libc.a(lib_a-isattyr.o)
                                                  /usr/lib/gcc/arm-none-eabi/6.3.1/../../../arm-none-eabi/lib/thumb/v7e-m/fpv4-sp/hard/libc.a(lib_a-makebuf.o)
_kill                                             build/pgm_syscalls.o
                                                  /usr/lib/gcc/arm-none-eabi/6.3.1/../../../arm-none-eabi/lib/thumb/v7e-m/fpv4-sp/hard/libc.a(lib_a-signalr.o)
_kill_r                                           /usr/lib/gcc/arm-none-eabi/6.3.1/../../../arm-none-eabi/lib/thumb/v7e-m/fpv4-sp/hard/libc.a(lib_a-signalr.o)
                                                  /usr/lib/gcc/arm-none-eabi/6.3.1/../../../arm-none-eabi/lib/thumb/v7e-m/fpv4-sp/hard/libc.a(lib_a-signal.o)
_localeconv_r                                     /usr/lib/gcc/arm-none-eabi/6.3.1/../../../arm-none-eabi/lib/thumb/v7e-m/fpv4-sp/hard/libc.a(lib_a-locale.o)
                                                  /usr/lib/gcc/arm-none-eabi/6.3.1/../../../arm-none-eabi/lib/thumb/v7e-m/fpv4-sp/hard/libc.a(lib_a-vfprintf.o)
                                                  /usr/lib/gcc/arm-none-eabi/6.3.1/../../../arm-none-eabi/lib/thumb/v7e-m/fpv4-sp/hard/libc.a(lib_a-svfprintf.o)
_lseek                                            build/pgm_syscalls.o
                                                  /usr/lib/gcc/arm-none-eabi/6.3.1/../../../arm-none-eabi/lib/thumb/v7e-m/fpv4-sp/hard/libc.a(lib_a-lseekr.o)
_lseek_r                                          /usr/lib/gcc/arm-none-eabi/6.3.1/../../../arm-none-eabi/lib/thumb/v7e-m/fpv4-sp/hard/libc.a(lib_a-lseekr.o)
                                                  /usr/lib/gcc/arm-none-eabi/6.3.1/../../../arm-none-eabi/lib/thumb/v7e-m/fpv4-sp/hard/libc.a(lib_a-stdio.o)
_mainCRTStartup                                   /usr/lib/gcc/arm-none-eabi/6.3.1/../../../arm-none-eabi/lib/thumb/v7e-m/fpv4-sp/hard/crt0.o
_mprec_log10                                      /usr/lib/gcc/arm-none-eabi/6.3.1/../../../arm-none-eabi/lib/thumb/v7e-m/fpv4-sp/hard/libc.a(lib_a-mprec.o)
_printf_r                                         /usr/lib/gcc/arm-none-eabi/6.3.1/../../../arm-none-eabi/lib/thumb/v7e-m/fpv4-sp/hard/libc.a(lib_a-printf.o)
_raise_r                                          /usr/lib/gcc/arm-none-eabi/6.3.1/../../../arm-none-eabi/lib/thumb/v7e-m/fpv4-sp/hard/libc.a(lib_a-signal.o)
_read                                             build/pgm_syscalls.o
                                                  /usr/lib/gcc/arm-none-eabi/6.3.1/../../../arm-none-eabi/lib/thumb/v7e-m/fpv4-sp/hard/libc.a(lib_a-readr.o)
_read_r                                           /usr/lib/gcc/arm-none-eabi/6.3.1/../../../arm-none-eabi/lib/thumb/v7e-m/fpv4-sp/hard/libc.a(lib_a-readr.o)
                                                  /usr/lib/gcc/arm-none-eabi/6.3.1/../../../arm-none-eabi/lib/thumb/v7e-m/fpv4-sp/hard/libc.a(lib_a-stdio.o)
_realloc_r                                        build/pgm_syscalls.o
                                                  /usr/lib/gcc/arm-none-eabi/6.3.1/../../../arm-none-eabi/lib/thumb/v7e-m/fpv4-sp/hard/libc.a(lib_a-fvwrite.o)
                                                  /usr/lib/gcc/arm-none-eabi/6.3.1/../../../arm-none-eabi/lib/thumb/v7e-m/fpv4-sp/hard/libc.a(lib_a-svfiprintf.o)
_reclaim_reent                                    /usr/lib/gcc/arm-none-eabi/6.3.1/../../../arm-none-eabi/lib/thumb/v7e-m/fpv4-sp/hard/libc.a(lib_a-reent.o)
_sbss                                             build/startup_pgm.o
_sdata                                            build/startup_pgm.o
_setlocale_r                                      /usr/lib/gcc/arm-none-eabi/6.3.1/../../../arm-none-eabi/lib/thumb/v7e-m/fpv4-sp/hard/libc.a(lib_a-locale.o)
_sidata                                           build/startup_pgm.o
_signal_r                                         /usr/lib/gcc/arm-none-eabi/6.3.1/../../../arm-none-eabi/lib/thumb/v7e-m/fpv4-sp/hard/libc.a(lib_a-signal.o)
_sprintf_r                                        /usr/lib/gcc/arm-none-eabi/6.3.1/../../../arm-none-eabi/lib/thumb/v7e-m/fpv4-sp/hard/libc.a(lib_a-sprintf.o)
_start                                            /usr/lib/gcc/arm-none-eabi/6.3.1/../../../arm-none-eabi/lib/thumb/v7e-m/fpv4-sp/hard/crt0.o
_strtol_r                                         /usr/lib/gcc/arm-none-eabi/6.3.1/../../../arm-none-eabi/lib/thumb/v7e-m/fpv4-sp/hard/libc.a(lib_a-strtol.o)
                                                  /usr/lib/gcc/arm-none-eabi/6.3.1/../../../arm-none-eabi/lib/thumb/v7e-m/fpv4-sp/hard/libc.a(lib_a-atoi.o)
_svfiprintf_r                                     /usr/lib/gcc/arm-none-eabi/6.3.1/../../../arm-none-eabi/lib/thumb/v7e-m/fpv4-sp/hard/libc.a(lib_a-svfiprintf.o)
_svfprintf_r                                      /usr/lib/gcc/arm-none-eabi/6.3.1/../../../arm-none-eabi/lib/thumb/v7e-m/fpv4-sp/hard/libc.a(lib_a-svfprintf.o)
                                                  /usr/lib/gcc/arm-none-eabi/6.3.1/../../../arm-none-eabi/lib/thumb/v7e-m/fpv4-sp/hard/libc.a(lib_a-sprintf.o)
_vfiprintf_r                                      /usr/lib/gcc/arm-none-eabi/6.3.1/../../../arm-none-eabi/lib/thumb/v7e-m/fpv4-sp/hard/libc.a(lib_a-vfiprintf.o)
_vfprintf_r                                       /usr/lib/gcc/arm-none-eabi/6.3.1/../../../arm-none-eabi/lib/thumb/v7e-m/fpv4-sp/hard/libc.a(lib_a-vfprintf.o)
                                                  /usr/lib/gcc/arm-none-eabi/6.3.1/../../../arm-none-eabi/lib/thumb/v7e-m/fpv4-sp/hard/libc.a(lib_a-printf.o)
_wcrtomb_r                                        /usr/lib/gcc/arm-none-eabi/6.3.1/../../../arm-none-eabi/lib/thumb/v7e-m/fpv4-sp/hard/libc.a(lib_a-wcrtomb.o)
                                                  /usr/lib/gcc/arm-none-eabi/6.3.1/../../../arm-none-eabi/lib/thumb/v7e-m/fpv4-sp/hard/libc.a(lib_a-fputwc.o)
_wctomb_r                                         /usr/lib/gcc/arm-none-eabi/6.3.1/../../../arm-none-eabi/lib/thumb/v7e-m/fpv4-sp/hard/libc.a(lib_a-wctomb_r.o)
_write                                            build/pgm_syscalls.o
                                                  /usr/lib/gcc/arm-none-eabi/6.3.1/../../../arm-none-eabi/lib/thumb/v7e-m/fpv4-sp/hard/libc.a(lib_a-writer.o)
_write_r                                          /usr/lib/gcc/arm-none-eabi/6.3.1/../../../arm-none-eabi/lib/thumb/v7e-m/fpv4-sp/hard/libc.a(lib_a-writer.o)
                                                  /usr/lib/gcc/arm-none-eabi/6.3.1/../../../arm-none-eabi/lib/thumb/v7e-m/fpv4-sp/hard/libc.a(lib_a-stdio.o)
add_edit_key                                      build/main.o
ang_mode                                          build/main.o
ang_mode_ann                                      build/main.o
atexit                                            /usr/lib/gcc/arm-none-eabi/6.3.1/../../../arm-none-eabi/lib/thumb/v7e-m/fpv4-sp/hard/libc.a(lib_a-atexit.o)
                                                  /usr/lib/gcc/arm-none-eabi/6.3.1/../../../arm-none-eabi/lib/thumb/v7e-m/fpv4-sp/hard/libc.a(lib_a-__call_atexit.o)
                                                  /usr/lib/gcc/arm-none-eabi/6.3.1/../../../arm-none-eabi/lib/thumb/v7e-m/fpv4-sp/hard/crt0.o
atoi                                              /usr/lib/gcc/arm-none-eabi/6.3.1/../../../arm-none-eabi/lib/thumb/v7e-m/fpv4-sp/hard/libc.a(lib_a-atoi.o)
                                                  build/main.o
beep                                              build/main.o
bid128_to_binary128_2part                         lib/gcc111libbid_hard.a(bid_binarydecimal.o)
                                                  lib/gcc111libbid_hard.a(bid128_exp.o)
bid_bid_bid_recip_scale32                         lib/gcc111libbid_hard.a(bid_decimal_data.o)
bid_bid_reciprocals10_32                          lib/gcc111libbid_hard.a(bid_decimal_data.o)
bid_decimal128_moduli                             lib/gcc111libbid_hard.a(bid128_cos.o)
                                                  lib/gcc111libbid_hard.a(bid128_tan.o)
                                                  lib/gcc111libbid_hard.a(bid128_sin.o)
bid_f128_acos                                     lib/gcc111libbid_hard.a(dpml_ux_inv_trig.o)
                                                  lib/gcc111libbid_hard.a(bid128_asin.o)
                                                  lib/gcc111libbid_hard.a(bid128_acos.o)
bid_f128_acosd                                    lib/gcc111libbid_hard.a(dpml_ux_inv_trig.o)
bid_f128_add                                      lib/gcc111libbid_hard.a(dpml_ux_bid.o)
                                                  lib/gcc111libbid_hard.a(bid128_log10.o)
                                                  lib/gcc111libbid_hard.a(bid128_log.o)
                                                  lib/gcc111libbid_hard.a(bid128_exp.o)
bid_f128_asin                                     lib/gcc111libbid_hard.a(dpml_ux_inv_trig.o)
                                                  lib/gcc111libbid_hard.a(bid128_asin.o)
                                                  lib/gcc111libbid_hard.a(bid128_acos.o)
bid_f128_asind                                    lib/gcc111libbid_hard.a(dpml_ux_inv_trig.o)
bid_f128_atan                                     lib/gcc111libbid_hard.a(dpml_ux_inv_trig.o)
                                                  lib/gcc111libbid_hard.a(bid128_atan.o)
bid_f128_atan2                                    lib/gcc111libbid_hard.a(dpml_ux_inv_trig.o)
bid_f128_atand                                    lib/gcc111libbid_hard.a(dpml_ux_inv_trig.o)
bid_f128_atand2                                   lib/gcc111libbid_hard.a(dpml_ux_inv_trig.o)
bid_f128_cmp                                      lib/gcc111libbid_hard.a(dpml_ux_bid.o)
                                                  lib/gcc111libbid_hard.a(bid128_log10.o)
                                                  lib/gcc111libbid_hard.a(bid128_log.o)
                                                  lib/gcc111libbid_hard.a(bid128_exp.o)
                                                  lib/gcc111libbid_hard.a(bid128_atan.o)
                                                  lib/gcc111libbid_hard.a(bid128_asin.o)
                                                  lib/gcc111libbid_hard.a(bid128_acos.o)
bid_f128_cos                                      lib/gcc111libbid_hard.a(dpml_ux_trig.o)
                                                  lib/gcc111libbid_hard.a(bid128_sin.o)
                                                  lib/gcc111libbid_hard.a(bid128_cos.o)
bid_f128_cosd                                     lib/gcc111libbid_hard.a(dpml_ux_trig.o)
bid_f128_cosh                                     lib/gcc111libbid_hard.a(dpml_ux_exp.o)
bid_f128_cot                                      lib/gcc111libbid_hard.a(dpml_ux_trig.o)
bid_f128_cotd                                     lib/gcc111libbid_hard.a(dpml_ux_trig.o)
bid_f128_div                                      lib/gcc111libbid_hard.a(dpml_ux_bid.o)
                                                  lib/gcc111libbid_hard.a(bid128_tan.o)
                                                  lib/gcc111libbid_hard.a(bid128_log10.o)
                                                  lib/gcc111libbid_hard.a(bid128_log.o)
bid_f128_exp                                      lib/gcc111libbid_hard.a(dpml_ux_exp.o)
                                                  lib/gcc111libbid_hard.a(bid128_exp.o)
bid_f128_exp10                                    lib/gcc111libbid_hard.a(dpml_ux_exp.o)
                                                  lib/gcc111libbid_hard.a(bid128_exp10.o)
bid_f128_expm1                                    lib/gcc111libbid_hard.a(dpml_ux_exp.o)
bid_f128_fabs                                     lib/gcc111libbid_hard.a(dpml_ux_bid.o)
                                                  lib/gcc111libbid_hard.a(bid128_log10.o)
                                                  lib/gcc111libbid_hard.a(bid128_log.o)
                                                  lib/gcc111libbid_hard.a(bid128_atan.o)
                                                  lib/gcc111libbid_hard.a(bid128_asin.o)
                                                  lib/gcc111libbid_hard.a(bid128_acos.o)
bid_f128_hypot                                    lib/gcc111libbid_hard.a(dpml_ux_sqrt.o)
bid_f128_itof                                     lib/gcc111libbid_hard.a(dpml_ux_bid.o)
bid_f128_log                                      lib/gcc111libbid_hard.a(dpml_ux_log.o)
                                                  lib/gcc111libbid_hard.a(bid128_log10.o)
                                                  lib/gcc111libbid_hard.a(bid128_log.o)
bid_f128_log10                                    lib/gcc111libbid_hard.a(dpml_ux_log.o)
bid_f128_log1p                                    lib/gcc111libbid_hard.a(dpml_ux_log.o)
bid_f128_log2                                     lib/gcc111libbid_hard.a(dpml_ux_log.o)
bid_f128_mul                                      lib/gcc111libbid_hard.a(dpml_ux_bid.o)
                                                  lib/gcc111libbid_hard.a(bid128_tan.o)
                                                  lib/gcc111libbid_hard.a(bid128_sin.o)
                                                  lib/gcc111libbid_hard.a(bid128_log10.o)
                                                  lib/gcc111libbid_hard.a(bid128_exp.o)
                                                  lib/gcc111libbid_hard.a(bid128_cos.o)
bid_f128_neg                                      lib/gcc111libbid_hard.a(dpml_ux_bid.o)
                                                  lib/gcc111libbid_hard.a(bid128_sin.o)
                                                  lib/gcc111libbid_hard.a(bid128_cos.o)
                                                  lib/gcc111libbid_hard.a(bid128_asin.o)
                                                  lib/gcc111libbid_hard.a(bid128_acos.o)
bid_f128_nextafter                                lib/gcc111libbid_hard.a(dpml_ux_bid.o)
bid_f128_sin                                      lib/gcc111libbid_hard.a(dpml_ux_trig.o)
                                                  lib/gcc111libbid_hard.a(bid128_sin.o)
                                                  lib/gcc111libbid_hard.a(bid128_cos.o)
bid_f128_sincos                                   lib/gcc111libbid_hard.a(dpml_ux_trig.o)
bid_f128_sincosd                                  lib/gcc111libbid_hard.a(dpml_ux_trig.o)
bid_f128_sind                                     lib/gcc111libbid_hard.a(dpml_ux_trig.o)
bid_f128_sinh                                     lib/gcc111libbid_hard.a(dpml_ux_exp.o)
bid_f128_sinhcosh                                 lib/gcc111libbid_hard.a(dpml_ux_exp.o)
bid_f128_sqrt                                     lib/gcc111libbid_hard.a(dpml_ux_sqrt.o)
                                                  lib/gcc111libbid_hard.a(bid128_asin.o)
                                                  lib/gcc111libbid_hard.a(bid128_acos.o)
bid_f128_sub                                      lib/gcc111libbid_hard.a(dpml_ux_bid.o)
                                                  lib/gcc111libbid_hard.a(bid128_log10.o)
                                                  lib/gcc111libbid_hard.a(bid128_log.o)
                                                  lib/gcc111libbid_hard.a(bid128_exp.o)
                                                  lib/gcc111libbid_hard.a(bid128_acos.o)
bid_f128_tan                                      lib/gcc111libbid_hard.a(dpml_ux_trig.o)
                                                  lib/gcc111libbid_hard.a(bid128_tan.o)
bid_f128_tand                                     lib/gcc111libbid_hard.a(dpml_ux_trig.o)
bid_f128_tanh                                     lib/gcc111libbid_hard.a(dpml_ux_exp.o)
calloc                                            build/pgm_syscalls.o
cancel_edit                                       build/main.o
cleanup_glue                                      /usr/lib/gcc/arm-none-eabi/6.3.1/../../../arm-none-eabi/lib/thumb/v7e-m/fpv4-sp/hard/libc.a(lib_a-reent.o)
clear_regs                                        build/main.o
disp_about                                        build/menu.o
disp_annun                                        build/main.o
disp_stack_line                                   build/main.o
dotchar                                           build/main.o
ed                                                build/main.o
ed_cat                                            build/main.o
ed_del                                            build/main.o
ed_ins                                            build/main.o
edit                                              build/main.o
errno                                             /usr/lib/gcc/arm-none-eabi/6.3.1/../../../arm-none-eabi/lib/thumb/v7e-m/fpv4-sp/hard/libc.a(lib_a-reent.o)
                                                  /usr/lib/gcc/arm-none-eabi/6.3.1/../../../arm-none-eabi/lib/thumb/v7e-m/fpv4-sp/hard/libc.a(lib_a-readr.o)
                                                  /usr/lib/gcc/arm-none-eabi/6.3.1/../../../arm-none-eabi/lib/thumb/v7e-m/fpv4-sp/hard/libc.a(lib_a-lseekr.o)
                                                  /usr/lib/gcc/arm-none-eabi/6.3.1/../../../arm-none-eabi/lib/thumb/v7e-m/fpv4-sp/hard/libc.a(lib_a-isattyr.o)
                                                  /usr/lib/gcc/arm-none-eabi/6.3.1/../../../arm-none-eabi/lib/thumb/v7e-m/fpv4-sp/hard/libc.a(lib_a-fstatr.o)
                                                  /usr/lib/gcc/arm-none-eabi/6.3.1/../../../arm-none-eabi/lib/thumb/v7e-m/fpv4-sp/hard/libc.a(lib_a-closer.o)
                                                  /usr/lib/gcc/arm-none-eabi/6.3.1/../../../arm-none-eabi/lib/thumb/v7e-m/fpv4-sp/hard/libc.a(lib_a-writer.o)
                                                  /usr/lib/gcc/arm-none-eabi/6.3.1/../../../arm-none-eabi/lib/thumb/v7e-m/fpv4-sp/hard/libc.a(lib_a-signalr.o)
exit                                              /usr/lib/gcc/arm-none-eabi/6.3.1/../../../arm-none-eabi/lib/thumb/v7e-m/fpv4-sp/hard/libc.a(lib_a-exit.o)
                                                  /usr/lib/gcc/arm-none-eabi/6.3.1/../../../arm-none-eabi/lib/thumb/v7e-m/fpv4-sp/hard/crt0.o
expchar                                           build/main.o
f_menu                                            build/main.o
f_menu_fns                                        build/main.o
fclose                                            /usr/lib/gcc/arm-none-eabi/6.3.1/../../../arm-none-eabi/lib/thumb/v7e-m/fpv4-sp/hard/libc.a(lib_a-fclose.o)
fflush                                            /usr/lib/gcc/arm-none-eabi/6.3.1/../../../arm-none-eabi/lib/thumb/v7e-m/fpv4-sp/hard/libc.a(lib_a-fflush.o)
finish_edit                                       build/main.o
fm_disp                                           build/main.o
fm_disp_fns                                       build/main.o
fmt_mode                                          build/main.o
fmt_mode_digits                                   build/main.o
fputwc                                            /usr/lib/gcc/arm-none-eabi/6.3.1/../../../arm-none-eabi/lib/thumb/v7e-m/fpv4-sp/hard/libc.a(lib_a-fputwc.o)
free                                              build/pgm_syscalls.o
                                                  /usr/lib/gcc/arm-none-eabi/6.3.1/../../../arm-none-eabi/lib/thumb/v7e-m/fpv4-sp/hard/libc.a(lib_a-__call_atexit.o)
handle_fmenu                                      build/main.o
handle_key                                        build/main.o
hardware_init_hook                                /usr/lib/gcc/arm-none-eabi/6.3.1/../../../arm-none-eabi/lib/thumb/v7e-m/fpv4-sp/hard/crt0.o
key_to_char                                       build/main.o
localeconv                                        /usr/lib/gcc/arm-none-eabi/6.3.1/../../../arm-none-eabi/lib/thumb/v7e-m/fpv4-sp/hard/libc.a(lib_a-locale.o)
main                                              /usr/lib/gcc/arm-none-eabi/6.3.1/../../../arm-none-eabi/lib/thumb/v7e-m/fpv4-sp/hard/crt0.o
make_screenshot                                   build/main.o
malloc                                            build/pgm_syscalls.o
                                                  /usr/lib/gcc/arm-none-eabi/6.3.1/../../../arm-none-eabi/lib/thumb/v7e-m/fpv4-sp/hard/libc.a(lib_a-__atexit.o)
matherr                                           /usr/lib/gcc/arm-none-eabi/6.3.1/../../../arm-none-eabi/lib/thumb/v7e-m/fpv4-sp/hard/libm.a(lib_a-s_matherr.o)
                                                  /usr/lib/gcc/arm-none-eabi/6.3.1/../../../arm-none-eabi/lib/thumb/v7e-m/fpv4-sp/hard/libm.a(lib_a-w_sqrt.o)
memchr                                            /usr/lib/gcc/arm-none-eabi/6.3.1/../../../arm-none-eabi/lib/thumb/v7e-m/fpv4-sp/hard/libc.a(lib_a-memchr.o)
                                                  /usr/lib/gcc/arm-none-eabi/6.3.1/../../../arm-none-eabi/lib/thumb/v7e-m/fpv4-sp/hard/libc.a(lib_a-fvwrite.o)
                                                  /usr/lib/gcc/arm-none-eabi/6.3.1/../../../arm-none-eabi/lib/thumb/v7e-m/fpv4-sp/hard/libc.a(lib_a-vfiprintf.o)
                                                  /usr/lib/gcc/arm-none-eabi/6.3.1/../../../arm-none-eabi/lib/thumb/v7e-m/fpv4-sp/hard/libc.a(lib_a-svfiprintf.o)
                                                  /usr/lib/gcc/arm-none-eabi/6.3.1/../../../arm-none-eabi/lib/thumb/v7e-m/fpv4-sp/hard/libc.a(lib_a-vfprintf.o)
                                                  /usr/lib/gcc/arm-none-eabi/6.3.1/../../../arm-none-eabi/lib/thumb/v7e-m/fpv4-sp/hard/libc.a(lib_a-svfprintf.o)
memcpy                                            /usr/lib/gcc/arm-none-eabi/6.3.1/../../../arm-none-eabi/lib/thumb/v7e-m/fpv4-sp/hard/libc.a(lib_a-memcpy.o)
                                                  /usr/lib/gcc/arm-none-eabi/6.3.1/../../../arm-none-eabi/lib/thumb/v7e-m/fpv4-sp/hard/libc.a(lib_a-fvwrite.o)
                                                  /usr/lib/gcc/arm-none-eabi/6.3.1/../../../arm-none-eabi/lib/thumb/v7e-m/fpv4-sp/hard/libc.a(lib_a-svfiprintf.o)
                                                  /usr/lib/gcc/arm-none-eabi/6.3.1/../../../arm-none-eabi/lib/thumb/v7e-m/fpv4-sp/hard/libc.a(lib_a-mprec.o)
                                                  /usr/lib/gcc/arm-none-eabi/6.3.1/../../../arm-none-eabi/lib/thumb/v7e-m/fpv4-sp/hard/libc.a(lib_a-dtoa.o)
memmove                                           /usr/lib/gcc/arm-none-eabi/6.3.1/../../../arm-none-eabi/lib/thumb/v7e-m/fpv4-sp/hard/libc.a(lib_a-memmove.o)
                                                  /usr/lib/gcc/arm-none-eabi/6.3.1/../../../arm-none-eabi/lib/thumb/v7e-m/fpv4-sp/hard/libc.a(lib_a-fvwrite.o)
                                                  /usr/lib/gcc/arm-none-eabi/6.3.1/../../../arm-none-eabi/lib/thumb/v7e-m/fpv4-sp/hard/libc.a(lib_a-svfiprintf.o)
                                                  build/main.o
memset                                            /usr/lib/gcc/arm-none-eabi/6.3.1/../../../arm-none-eabi/lib/thumb/v7e-m/fpv4-sp/hard/libc.a(lib_a-memset.o)
                                                  /usr/lib/gcc/arm-none-eabi/6.3.1/../../../arm-none-eabi/lib/thumb/v7e-m/fpv4-sp/hard/libc.a(lib_a-findfp.o)
                                                  /usr/lib/gcc/arm-none-eabi/6.3.1/../../../arm-none-eabi/lib/thumb/v7e-m/fpv4-sp/hard/crt0.o
menu_line_str                                     build/menu.o
                                                  build/main.o
mid_menu                                          build/menu.o
mid_settings                                      build/menu.o
num_10                                            build/main.o
num_180_pi                                        build/main.o
num_1_100                                         build/main.o
num_200_pi                                        build/main.o
num_format                                        build/main.o
num_one                                           build/main.o
num_pi                                            build/main.o
num_pi_180                                        build/main.o
num_pi_200                                        build/main.o
num_zero                                          build/main.o
post_main                                         build/pgm_syscalls.o
                                                  build/startup_pgm.o
printf                                            /usr/lib/gcc/arm-none-eabi/6.3.1/../../../arm-none-eabi/lib/thumb/v7e-m/fpv4-sp/hard/libc.a(lib_a-printf.o)
                                                  build/main.o
prog_info                                         build/pgm_syscalls.o
program_init                                      build/main.o
program_main                                      build/main.o
                                                  build/startup_pgm.o
raise                                             /usr/lib/gcc/arm-none-eabi/6.3.1/../../../arm-none-eabi/lib/thumb/v7e-m/fpv4-sp/hard/libc.a(lib_a-signal.o)
                                                  lib/gcc111libbid_hard.a(dpml_exception.o)
realloc                                           build/pgm_syscalls.o
redraw_lcd                                        build/main.o
reg_by_ix                                         build/main.o
reg_font_ix                                       build/main.o
reg_to_fmt_num                                    build/main.o
regs                                              build/main.o
round_string                                      build/main.o
run_fn                                            build/main.o
run_menu_item                                     build/menu.o
                                                  build/main.o
setlocale                                         /usr/lib/gcc/arm-none-eabi/6.3.1/../../../arm-none-eabi/lib/thumb/v7e-m/fpv4-sp/hard/libc.a(lib_a-locale.o)
shift                                             build/main.o
signal                                            /usr/lib/gcc/arm-none-eabi/6.3.1/../../../arm-none-eabi/lib/thumb/v7e-m/fpv4-sp/hard/libc.a(lib_a-signal.o)
software_init_hook                                /usr/lib/gcc/arm-none-eabi/6.3.1/../../../arm-none-eabi/lib/thumb/v7e-m/fpv4-sp/hard/crt0.o
sprintf                                           /usr/lib/gcc/arm-none-eabi/6.3.1/../../../arm-none-eabi/lib/thumb/v7e-m/fpv4-sp/hard/libc.a(lib_a-sprintf.o)
                                                  lib/gcc111libbid_hard.a(bid128_string.o)
                                                  build/main.o
sqrt                                              /usr/lib/gcc/arm-none-eabi/6.3.1/../../../arm-none-eabi/lib/thumb/v7e-m/fpv4-sp/hard/libm.a(lib_a-w_sqrt.o)
                                                  lib/gcc111libbid_hard.a(bid128_sqrt.o)
stack                                             build/main.o
stack_dup                                         build/main.o
stack_pop                                         build/main.o
start_edit                                        build/main.o
stpcpy                                            /usr/lib/gcc/arm-none-eabi/6.3.1/../../../arm-none-eabi/lib/thumb/v7e-m/fpv4-sp/hard/libc.a(lib_a-stpcpy.o)
                                                  build/main.o
strcat                                            /usr/lib/gcc/arm-none-eabi/6.3.1/../../../arm-none-eabi/lib/thumb/v7e-m/fpv4-sp/hard/libc.a(lib_a-strcat.o)
                                                  build/main.o
strchr                                            /usr/lib/gcc/arm-none-eabi/6.3.1/../../../arm-none-eabi/lib/thumb/v7e-m/fpv4-sp/hard/libc.a(lib_a-strchr.o)
                                                  build/main.o
strcmp                                            /usr/lib/gcc/arm-none-eabi/6.3.1/../../../arm-none-eabi/lib/thumb/v7e-m/fpv4-sp/hard/libc.a(lib_a-strcmp.o)
                                                  /usr/lib/gcc/arm-none-eabi/6.3.1/../../../arm-none-eabi/lib/thumb/v7e-m/fpv4-sp/hard/libc.a(lib_a-locale.o)
strcpy                                            /usr/lib/gcc/arm-none-eabi/6.3.1/../../../arm-none-eabi/lib/thumb/v7e-m/fpv4-sp/hard/libc.a(lib_a-strcpy.o)
                                                  /usr/lib/gcc/arm-none-eabi/6.3.1/../../../arm-none-eabi/lib/thumb/v7e-m/fpv4-sp/hard/libc.a(lib_a-strcat.o)
                                                  build/main.o
strlen                                            /usr/lib/gcc/arm-none-eabi/6.3.1/../../../arm-none-eabi/lib/thumb/v7e-m/fpv4-sp/hard/libc.a(lib_a-strlen.o)
                                                  /usr/lib/gcc/arm-none-eabi/6.3.1/../../../arm-none-eabi/lib/thumb/v7e-m/fpv4-sp/hard/libc.a(lib_a-vfiprintf.o)
                                                  /usr/lib/gcc/arm-none-eabi/6.3.1/../../../arm-none-eabi/lib/thumb/v7e-m/fpv4-sp/hard/libc.a(lib_a-svfiprintf.o)
                                                  /usr/lib/gcc/arm-none-eabi/6.3.1/../../../arm-none-eabi/lib/thumb/v7e-m/fpv4-sp/hard/libc.a(lib_a-vfprintf.o)
                                                  /usr/lib/gcc/arm-none-eabi/6.3.1/../../../arm-none-eabi/lib/thumb/v7e-m/fpv4-sp/hard/libc.a(lib_a-svfprintf.o)
                                                  build/main.o
strncat                                           /usr/lib/gcc/arm-none-eabi/6.3.1/../../../arm-none-eabi/lib/thumb/v7e-m/fpv4-sp/hard/libc.a(lib_a-strncat.o)
                                                  build/main.o
strtol                                            /usr/lib/gcc/arm-none-eabi/6.3.1/../../../arm-none-eabi/lib/thumb/v7e-m/fpv4-sp/hard/libc.a(lib_a-strtol.o)
                                                  /usr/lib/gcc/arm-none-eabi/6.3.1/../../../arm-none-eabi/lib/thumb/v7e-m/fpv4-sp/hard/libc.a(lib_a-atoi.o)
vfiprintf                                         /usr/lib/gcc/arm-none-eabi/6.3.1/../../../arm-none-eabi/lib/thumb/v7e-m/fpv4-sp/hard/libc.a(lib_a-vfiprintf.o)
vfprintf                                          /usr/lib/gcc/arm-none-eabi/6.3.1/../../../arm-none-eabi/lib/thumb/v7e-m/fpv4-sp/hard/libc.a(lib_a-vfprintf.o)
wcrtomb                                           /usr/lib/gcc/arm-none-eabi/6.3.1/../../../arm-none-eabi/lib/thumb/v7e-m/fpv4-sp/hard/libc.a(lib_a-wcrtomb.o)
