ARM GAS  /tmp/ccW6yM84.s 			page 1


   1              		.arch armv7e-m
   2              		.eabi_attribute 27, 1
   3              		.eabi_attribute 28, 1
   4              		.eabi_attribute 20, 1
   5              		.eabi_attribute 21, 1
   6              		.eabi_attribute 23, 3
   7              		.eabi_attribute 24, 1
   8              		.eabi_attribute 25, 1
   9              		.eabi_attribute 26, 1
  10              		.eabi_attribute 30, 2
  11              		.eabi_attribute 34, 1
  12              		.eabi_attribute 18, 4
  13              		.file	"string.c"
  14              		.text
  15              	.Ltext0:
  16              		.cfi_sections	.debug_frame
  17              		.section	.text.xcopy,"ax",%progbits
  18              		.align	1
  19              		.p2align 2,,3
  20              		.global	xcopy
  21              		.arch armv7e-m
  22              		.syntax unified
  23              		.thumb
  24              		.thumb_func
  25              		.fpu fpv4-sp-d16
  27              	xcopy:
  28              	.LVL0:
  29              	.LFB0:
  30              		.file 1 "src/string.c"
   1:src/string.c  **** /* This file is part of 34S.
   2:src/string.c  ****  * 
   3:src/string.c  ****  * 34S is free software: you can redistribute it and/or modify
   4:src/string.c  ****  * it under the terms of the GNU General Public License as published by
   5:src/string.c  ****  * the Free Software Foundation, either version 3 of the License, or
   6:src/string.c  ****  * (at your option) any later version.
   7:src/string.c  ****  * 
   8:src/string.c  ****  * 34S is distributed in the hope that it will be useful,
   9:src/string.c  ****  * but WITHOUT ANY WARRANTY; without even the implied warranty of
  10:src/string.c  ****  * MERCHANTABILITY or FITNESS FOR A PARTICULAR PURPOSE.  See the
  11:src/string.c  ****  * GNU General Public License for more details.
  12:src/string.c  ****  * 
  13:src/string.c  ****  * You should have received a copy of the GNU General Public License
  14:src/string.c  ****  * along with 34S.  If not, see <http://www.gnu.org/licenses/>.
  15:src/string.c  ****  */
  16:src/string.c  **** 
  17:src/string.c  **** #include "xeq.h"
  18:src/string.c  **** 
  19:src/string.c  **** 
  20:src/string.c  **** /* Some utilities to replace the various string and mem functions.
  21:src/string.c  ****  * This one does something akin to memmove and memcpy.
  22:src/string.c  ****  */
  23:src/string.c  **** void *xcopy(void *d, const void *s, int n) {
  31              		.loc 1 23 44 view -0
  32              		.cfi_startproc
  33              		@ args = 0, pretend = 0, frame = 0
  34              		@ frame_needed = 0, uses_anonymous_args = 0
  35              		@ link register save eliminated.
ARM GAS  /tmp/ccW6yM84.s 			page 2


  24:src/string.c  ****         char *dp = d;
  36              		.loc 1 24 9 view .LVU1
  25:src/string.c  ****         const char *sp = s;
  37              		.loc 1 25 9 view .LVU2
  26:src/string.c  **** 
  27:src/string.c  ****         if (sp > dp)
  38              		.loc 1 27 9 view .LVU3
  39              		.loc 1 27 12 is_stmt 0 view .LVU4
  40 0000 8842     		cmp	r0, r1
  23:src/string.c  ****         char *dp = d;
  41              		.loc 1 23 44 view .LVU5
  42 0002 10B4     		push	{r4}
  43              		.cfi_def_cfa_offset 4
  44              		.cfi_offset 4, -4
  45              		.loc 1 27 12 view .LVU6
  46 0004 0BD2     		bcs	.L2
  28:src/string.c  ****                 while (n--)
  47              		.loc 1 28 23 is_stmt 1 view .LVU7
  48              	.LVL1:
  49              		.loc 1 28 23 is_stmt 0 view .LVU8
  50 0006 3AB1     		cbz	r2, .L3
  51 0008 0A44     		add	r2, r2, r1
  52              	.LVL2:
  53              		.loc 1 28 23 view .LVU9
  54 000a 431E     		subs	r3, r0, #1
  55              	.LVL3:
  56              	.L4:
  29:src/string.c  ****                         *dp++ = *sp++;
  57              		.loc 1 29 25 is_stmt 1 view .LVU10
  58              		.loc 1 29 33 is_stmt 0 view .LVU11
  59 000c 11F8014B 		ldrb	r4, [r1], #1	@ zero_extendqisi2
  60              	.LVL4:
  61              		.loc 1 29 31 view .LVU12
  62 0010 03F8014F 		strb	r4, [r3, #1]!
  28:src/string.c  ****                 while (n--)
  63              		.loc 1 28 23 is_stmt 1 view .LVU13
  28:src/string.c  ****                 while (n--)
  64              		.loc 1 28 23 is_stmt 0 view .LVU14
  65 0014 8A42     		cmp	r2, r1
  66 0016 F9D1     		bne	.L4
  67              	.LVL5:
  68              	.L3:
  30:src/string.c  ****         else if (sp < dp)
  31:src/string.c  ****                 while (n--)
  32:src/string.c  ****                         dp[n] = sp[n];
  33:src/string.c  ****         return d;
  69              		.loc 1 33 9 is_stmt 1 view .LVU15
  34:src/string.c  **** }
  70              		.loc 1 34 1 is_stmt 0 view .LVU16
  71 0018 5DF8044B 		ldr	r4, [sp], #4
  72              		.cfi_remember_state
  73              		.cfi_restore 4
  74              		.cfi_def_cfa_offset 0
  75 001c 7047     		bx	lr
  76              	.LVL6:
  77              	.L2:
  78              		.cfi_restore_state
ARM GAS  /tmp/ccW6yM84.s 			page 3


  30:src/string.c  ****         else if (sp < dp)
  79              		.loc 1 30 14 is_stmt 1 view .LVU17
  30:src/string.c  ****         else if (sp < dp)
  80              		.loc 1 30 17 is_stmt 0 view .LVU18
  81 001e FBD9     		bls	.L3
  31:src/string.c  ****                         dp[n] = sp[n];
  82              		.loc 1 31 23 is_stmt 1 view .LVU19
  83              	.LVL7:
  31:src/string.c  ****                         dp[n] = sp[n];
  84              		.loc 1 31 23 is_stmt 0 view .LVU20
  85 0020 002A     		cmp	r2, #0
  86 0022 F9D0     		beq	.L3
  87 0024 8B18     		adds	r3, r1, r2
  88 0026 0244     		add	r2, r2, r0
  89              	.LVL8:
  90              	.L5:
  32:src/string.c  ****         return d;
  91              		.loc 1 32 25 is_stmt 1 view .LVU21
  32:src/string.c  ****         return d;
  92              		.loc 1 32 35 is_stmt 0 view .LVU22
  93 0028 13F8014D 		ldrb	r4, [r3, #-1]!	@ zero_extendqisi2
  94              	.LVL9:
  32:src/string.c  ****         return d;
  95              		.loc 1 32 31 view .LVU23
  96 002c 02F8014D 		strb	r4, [r2, #-1]!
  31:src/string.c  ****                         dp[n] = sp[n];
  97              		.loc 1 31 23 is_stmt 1 view .LVU24
  98              	.LVL10:
  31:src/string.c  ****                         dp[n] = sp[n];
  99              		.loc 1 31 23 is_stmt 0 view .LVU25
 100 0030 8B42     		cmp	r3, r1
 101 0032 F9D1     		bne	.L5
  33:src/string.c  **** }
 102              		.loc 1 33 9 is_stmt 1 view .LVU26
 103              		.loc 1 34 1 is_stmt 0 view .LVU27
 104 0034 5DF8044B 		ldr	r4, [sp], #4
 105              		.cfi_restore 4
 106              		.cfi_def_cfa_offset 0
 107 0038 7047     		bx	lr
 108              		.cfi_endproc
 109              	.LFE0:
 111 003a 00BF     		.section	.text.xset,"ax",%progbits
 112              		.align	1
 113              		.p2align 2,,3
 114              		.global	xset
 115              		.syntax unified
 116              		.thumb
 117              		.thumb_func
 118              		.fpu fpv4-sp-d16
 120              	xset:
 121              	.LVL11:
 122              	.LFB1:
  35:src/string.c  **** 
  36:src/string.c  **** /* And a little something to set memory to a value.
  37:src/string.c  ****  */
  38:src/string.c  **** void *xset(void *d, const char c, int n) {
 123              		.loc 1 38 42 is_stmt 1 view -0
ARM GAS  /tmp/ccW6yM84.s 			page 4


 124              		.cfi_startproc
 125              		@ args = 0, pretend = 0, frame = 0
 126              		@ frame_needed = 0, uses_anonymous_args = 0
 127              		@ link register save eliminated.
  39:src/string.c  ****         char *dp = d;
 128              		.loc 1 39 9 view .LVU29
  40:src/string.c  ****         while (n--)
 129              		.loc 1 40 9 view .LVU30
 130              		.loc 1 40 15 view .LVU31
 131              		.loc 1 40 15 is_stmt 0 view .LVU32
 132 0000 2AB1     		cbz	r2, .L17
 133 0002 0244     		add	r2, r2, r0
 134              	.LVL12:
  39:src/string.c  ****         char *dp = d;
 135              		.loc 1 39 15 view .LVU33
 136 0004 0346     		mov	r3, r0
 137              	.LVL13:
 138              	.L18:
  41:src/string.c  ****                 *dp++ = c;
 139              		.loc 1 41 17 is_stmt 1 view .LVU34
 140              		.loc 1 41 23 is_stmt 0 view .LVU35
 141 0006 03F8011B 		strb	r1, [r3], #1
 142              	.LVL14:
  40:src/string.c  ****         while (n--)
 143              		.loc 1 40 15 is_stmt 1 view .LVU36
  40:src/string.c  ****         while (n--)
 144              		.loc 1 40 15 is_stmt 0 view .LVU37
 145 000a 9A42     		cmp	r2, r3
 146 000c FBD1     		bne	.L18
 147              	.LVL15:
 148              	.L17:
  42:src/string.c  ****         return d;
 149              		.loc 1 42 9 is_stmt 1 view .LVU38
  43:src/string.c  **** }
 150              		.loc 1 43 1 is_stmt 0 view .LVU39
 151 000e 7047     		bx	lr
 152              		.cfi_endproc
 153              	.LFE1:
 155              		.section	.text.slen,"ax",%progbits
 156              		.align	1
 157              		.p2align 2,,3
 158              		.global	slen
 159              		.syntax unified
 160              		.thumb
 161              		.thumb_func
 162              		.fpu fpv4-sp-d16
 164              	slen:
 165              	.LVL16:
 166              	.LFB2:
  44:src/string.c  **** 
  45:src/string.c  **** 
  46:src/string.c  **** #if defined(REALBUILD) && !defined(HOSTBUILD)
  47:src/string.c  **** /* Needed by the C runtime */
  48:src/string.c  **** #undef memcpy
  49:src/string.c  **** #undef memset
  50:src/string.c  **** void *memcpy() __attribute__((alias("xcopy")));
  51:src/string.c  **** void *memset() __attribute__((alias("xset")));
ARM GAS  /tmp/ccW6yM84.s 			page 5


  52:src/string.c  **** #endif
  53:src/string.c  **** 
  54:src/string.c  **** /* Return the length of a string */
  55:src/string.c  **** int slen(const char *s) {
 167              		.loc 1 55 25 is_stmt 1 view -0
 168              		.cfi_startproc
 169              		@ args = 0, pretend = 0, frame = 0
 170              		@ frame_needed = 0, uses_anonymous_args = 0
 171              		@ link register save eliminated.
  56:src/string.c  ****         const char *p;
 172              		.loc 1 56 9 view .LVU41
  57:src/string.c  **** 
  58:src/string.c  ****         for (p=s; *p != '\0'; p++);
 173              		.loc 1 58 9 view .LVU42
 174              		.loc 1 58 19 view .LVU43
 175              		.loc 1 58 9 is_stmt 0 view .LVU44
 176 0000 0278     		ldrb	r2, [r0]	@ zero_extendqisi2
 177 0002 32B1     		cbz	r2, .L26
 178 0004 0346     		mov	r3, r0
 179              	.LVL17:
 180              	.L25:
 181              		.loc 1 58 35 is_stmt 1 discriminator 3 view .LVU45
 182              		.loc 1 58 31 discriminator 3 view .LVU46
 183              		.loc 1 58 19 discriminator 3 view .LVU47
 184              		.loc 1 58 9 is_stmt 0 discriminator 3 view .LVU48
 185 0006 13F8011F 		ldrb	r1, [r3, #1]!	@ zero_extendqisi2
 186              	.LVL18:
 187              		.loc 1 58 9 discriminator 3 view .LVU49
 188 000a 0029     		cmp	r1, #0
 189 000c FBD1     		bne	.L25
 190 000e 181A     		subs	r0, r3, r0
 191              	.LVL19:
 192              		.loc 1 58 9 discriminator 3 view .LVU50
 193 0010 7047     		bx	lr
 194              	.LVL20:
 195              	.L26:
 196              		.loc 1 58 9 view .LVU51
 197 0012 1046     		mov	r0, r2
 198              	.LVL21:
  59:src/string.c  ****         return p-s;
 199              		.loc 1 59 9 is_stmt 1 view .LVU52
  60:src/string.c  **** }
 200              		.loc 1 60 1 is_stmt 0 view .LVU53
 201 0014 7047     		bx	lr
 202              		.cfi_endproc
 203              	.LFE2:
 205 0016 00BF     		.section	.text.find_char,"ax",%progbits
 206              		.align	1
 207              		.p2align 2,,3
 208              		.global	find_char
 209              		.syntax unified
 210              		.thumb
 211              		.thumb_func
 212              		.fpu fpv4-sp-d16
 214              	find_char:
 215              	.LFB3:
  61:src/string.c  **** 
ARM GAS  /tmp/ccW6yM84.s 			page 6


  62:src/string.c  **** /* Find a character in a string -- strchr */
  63:src/string.c  **** char *find_char(const char *s, const char c) {
 216              		.loc 1 63 46 is_stmt 1 view -0
 217              		.cfi_startproc
 218              		@ args = 0, pretend = 0, frame = 0
 219              		@ frame_needed = 0, uses_anonymous_args = 0
 220              		@ link register save eliminated.
 221              	.LVL22:
 222              	.L30:
  64:src/string.c  ****         do
  65:src/string.c  ****                 if (*s == c)
  66:src/string.c  ****                         return (char *)s;
  67:src/string.c  ****         while (*s++);
 223              		.loc 1 67 15 view .LVU55
  65:src/string.c  ****                         return (char *)s;
 224              		.loc 1 65 21 is_stmt 0 view .LVU56
 225 0000 0378     		ldrb	r3, [r0]	@ zero_extendqisi2
  65:src/string.c  ****                         return (char *)s;
 226              		.loc 1 65 20 view .LVU57
 227 0002 8B42     		cmp	r3, r1
 228 0004 0246     		mov	r2, r0
 229              	.LVL23:
  64:src/string.c  ****         do
 230              		.loc 1 64 9 is_stmt 1 view .LVU58
  65:src/string.c  ****                         return (char *)s;
 231              		.loc 1 65 17 view .LVU59
 232 0006 00F10100 		add	r0, r0, #1
 233              	.LVL24:
  65:src/string.c  ****                         return (char *)s;
 234              		.loc 1 65 20 is_stmt 0 view .LVU60
 235 000a 02D0     		beq	.L28
 236              		.loc 1 67 9 view .LVU61
 237 000c 002B     		cmp	r3, #0
 238 000e F7D1     		bne	.L30
  68:src/string.c  ****         return NULL;
 239              		.loc 1 68 16 view .LVU62
 240 0010 1A46     		mov	r2, r3
 241              	.L28:
  69:src/string.c  **** }
 242              		.loc 1 69 1 view .LVU63
 243 0012 1046     		mov	r0, r2
 244              	.LVL25:
 245              		.loc 1 69 1 view .LVU64
 246 0014 7047     		bx	lr
 247              		.cfi_endproc
 248              	.LFE3:
 250 0016 00BF     		.section	.text.replace_char,"ax",%progbits
 251              		.align	1
 252              		.p2align 2,,3
 253              		.global	replace_char
 254              		.syntax unified
 255              		.thumb
 256              		.thumb_func
 257              		.fpu fpv4-sp-d16
 259              	replace_char:
 260              	.LVL26:
 261              	.LFB4:
ARM GAS  /tmp/ccW6yM84.s 			page 7


  70:src/string.c  **** 
  71:src/string.c  **** #if defined INCLUDE_YREG_CODE && defined INCLUDE_YREG_HMS
  72:src/string.c  **** void replace_char(char *str, const char from, const char to) {
 262              		.loc 1 72 62 is_stmt 1 view -0
 263              		.cfi_startproc
 264              		@ args = 0, pretend = 0, frame = 0
 265              		@ frame_needed = 0, uses_anonymous_args = 0
 266              		@ link register save eliminated.
  73:src/string.c  ****         while (*str) {
 267              		.loc 1 73 9 view .LVU66
 268              		.loc 1 73 15 view .LVU67
 269              		.loc 1 73 16 is_stmt 0 view .LVU68
 270 0000 0378     		ldrb	r3, [r0]	@ zero_extendqisi2
 271              		.loc 1 73 15 view .LVU69
 272 0002 33B1     		cbz	r3, .L32
 273              	.L35:
  74:src/string.c  ****                 if (*str == from) {
 274              		.loc 1 74 17 is_stmt 1 view .LVU70
  75:src/string.c  ****                         *str = to;
  76:src/string.c  ****                 }
  77:src/string.c  ****                 ++str;
 275              		.loc 1 77 17 view .LVU71
 276              	.LVL27:
  73:src/string.c  ****                 if (*str == from) {
 277              		.loc 1 73 15 view .LVU72
  74:src/string.c  ****                 if (*str == from) {
 278              		.loc 1 74 20 is_stmt 0 view .LVU73
 279 0004 9942     		cmp	r1, r3
  75:src/string.c  ****                         *str = to;
 280              		.loc 1 75 25 is_stmt 1 view .LVU74
  75:src/string.c  ****                         *str = to;
 281              		.loc 1 75 30 is_stmt 0 view .LVU75
 282 0006 08BF     		it	eq
 283 0008 0270     		strbeq	r2, [r0]
  73:src/string.c  ****                 if (*str == from) {
 284              		.loc 1 73 16 view .LVU76
 285 000a 10F8013F 		ldrb	r3, [r0, #1]!	@ zero_extendqisi2
 286              	.LVL28:
  73:src/string.c  ****                 if (*str == from) {
 287              		.loc 1 73 15 view .LVU77
 288 000e 002B     		cmp	r3, #0
 289 0010 F8D1     		bne	.L35
 290              	.L32:
  78:src/string.c  ****         }
  79:src/string.c  **** }
 291              		.loc 1 79 1 view .LVU78
 292 0012 7047     		bx	lr
 293              		.cfi_endproc
 294              	.LFE4:
 296              		.section	.text.scopy,"ax",%progbits
 297              		.align	1
 298              		.p2align 2,,3
 299              		.global	scopy
 300              		.syntax unified
 301              		.thumb
 302              		.thumb_func
 303              		.fpu fpv4-sp-d16
ARM GAS  /tmp/ccW6yM84.s 			page 8


 305              	scopy:
 306              	.LVL29:
 307              	.LFB5:
  80:src/string.c  **** #endif
  81:src/string.c  **** 
  82:src/string.c  **** /* Copy a string across and return a pointer to the terminating null
  83:src/string.c  ****  */
  84:src/string.c  **** char *scopy(char *d, const char *s) {
 308              		.loc 1 84 37 is_stmt 1 view -0
 309              		.cfi_startproc
 310              		@ args = 0, pretend = 0, frame = 0
 311              		@ frame_needed = 0, uses_anonymous_args = 0
 312              		@ link register save eliminated.
  85:src/string.c  ****         while (*s != '\0')
 313              		.loc 1 85 16 is_stmt 0 view .LVU80
 314 0000 0B78     		ldrb	r3, [r1]	@ zero_extendqisi2
 315              		.loc 1 85 9 is_stmt 1 view .LVU81
 316              		.loc 1 85 15 view .LVU82
 317 0002 2BB1     		cbz	r3, .L41
 318              	.LVL30:
 319              	.L42:
  86:src/string.c  ****                 *d++ = *s++;
 320              		.loc 1 86 17 view .LVU83
 321              		.loc 1 86 22 is_stmt 0 view .LVU84
 322 0004 00F8013B 		strb	r3, [r0], #1
 323              	.LVL31:
  85:src/string.c  ****         while (*s != '\0')
 324              		.loc 1 85 15 is_stmt 1 view .LVU85
  85:src/string.c  ****         while (*s != '\0')
 325              		.loc 1 85 16 is_stmt 0 view .LVU86
 326 0008 11F8013F 		ldrb	r3, [r1, #1]!	@ zero_extendqisi2
  85:src/string.c  ****         while (*s != '\0')
 327              		.loc 1 85 15 view .LVU87
 328 000c 002B     		cmp	r3, #0
 329 000e F9D1     		bne	.L42
 330              	.LVL32:
 331              	.L41:
  87:src/string.c  ****         *d = '\0';
 332              		.loc 1 87 9 is_stmt 1 view .LVU88
 333              		.loc 1 87 12 is_stmt 0 view .LVU89
 334 0010 0023     		movs	r3, #0
 335 0012 0370     		strb	r3, [r0]
  88:src/string.c  ****         return d;
 336              		.loc 1 88 9 is_stmt 1 view .LVU90
  89:src/string.c  **** }
 337              		.loc 1 89 1 is_stmt 0 view .LVU91
 338 0014 7047     		bx	lr
 339              		.cfi_endproc
 340              	.LFE5:
 342 0016 00BF     		.section	.text.sncopy,"ax",%progbits
 343              		.align	1
 344              		.p2align 2,,3
 345              		.global	sncopy
 346              		.syntax unified
 347              		.thumb
 348              		.thumb_func
 349              		.fpu fpv4-sp-d16
ARM GAS  /tmp/ccW6yM84.s 			page 9


 351              	sncopy:
 352              	.LVL33:
 353              	.LFB6:
  90:src/string.c  **** 
  91:src/string.c  **** 
  92:src/string.c  **** /* Copy a string to a given size limit and null terminate
  93:src/string.c  ****  */
  94:src/string.c  **** const char *sncopy(char *d, const char *s, int n) {
 354              		.loc 1 94 51 is_stmt 1 view -0
 355              		.cfi_startproc
 356              		@ args = 0, pretend = 0, frame = 0
 357              		@ frame_needed = 0, uses_anonymous_args = 0
 358              		@ link register save eliminated.
  95:src/string.c  ****         const char *const d0 = d;
 359              		.loc 1 95 9 view .LVU93
  96:src/string.c  **** 
  97:src/string.c  ****         while (n-- && *s != '\0')
 360              		.loc 1 97 9 view .LVU94
 361              		.loc 1 97 15 view .LVU95
 362              		.loc 1 97 15 is_stmt 0 view .LVU96
 363 0000 8AB1     		cbz	r2, .L49
  94:src/string.c  ****         const char *const d0 = d;
 364              		.loc 1 94 51 view .LVU97
 365 0002 10B4     		push	{r4}
 366              		.cfi_def_cfa_offset 4
 367              		.cfi_offset 4, -4
 368 0004 0139     		subs	r1, r1, #1
 369              	.LVL34:
 370              		.loc 1 97 15 view .LVU98
 371 0006 8418     		adds	r4, r0, r2
 372 0008 0346     		mov	r3, r0
 373 000a 03E0     		b	.L47
 374              	.LVL35:
 375              	.L48:
  98:src/string.c  ****                 *d++ = *s++;
 376              		.loc 1 98 22 view .LVU99
 377 000c 03F8012B 		strb	r2, [r3], #1
 378              	.LVL36:
  97:src/string.c  ****                 *d++ = *s++;
 379              		.loc 1 97 15 is_stmt 1 view .LVU100
  97:src/string.c  ****                 *d++ = *s++;
 380              		.loc 1 97 15 is_stmt 0 view .LVU101
 381 0010 A342     		cmp	r3, r4
 382 0012 03D0     		beq	.L46
 383              	.L47:
 384              		.loc 1 98 17 is_stmt 1 discriminator 1 view .LVU102
  97:src/string.c  ****                 *d++ = *s++;
 385              		.loc 1 97 23 is_stmt 0 discriminator 1 view .LVU103
 386 0014 11F8012F 		ldrb	r2, [r1, #1]!	@ zero_extendqisi2
  97:src/string.c  ****                 *d++ = *s++;
 387              		.loc 1 97 20 discriminator 1 view .LVU104
 388 0018 002A     		cmp	r2, #0
 389 001a F7D1     		bne	.L48
 390              	.L46:
  99:src/string.c  ****         *d = '\0';
 391              		.loc 1 99 9 is_stmt 1 view .LVU105
 392              		.loc 1 99 12 is_stmt 0 view .LVU106
ARM GAS  /tmp/ccW6yM84.s 			page 10


 393 001c 0022     		movs	r2, #0
 394 001e 1A70     		strb	r2, [r3]
 100:src/string.c  ****         return d0;
 395              		.loc 1 100 9 is_stmt 1 view .LVU107
 101:src/string.c  **** }
 396              		.loc 1 101 1 is_stmt 0 view .LVU108
 397 0020 5DF8044B 		ldr	r4, [sp], #4
 398              		.cfi_restore 4
 399              		.cfi_def_cfa_offset 0
 400 0024 7047     		bx	lr
 401              	.LVL37:
 402              	.L49:
  99:src/string.c  ****         *d = '\0';
 403              		.loc 1 99 9 is_stmt 1 view .LVU109
  99:src/string.c  ****         *d = '\0';
 404              		.loc 1 99 12 is_stmt 0 view .LVU110
 405 0026 0022     		movs	r2, #0
 406              	.LVL38:
  99:src/string.c  ****         *d = '\0';
 407              		.loc 1 99 12 view .LVU111
 408 0028 0270     		strb	r2, [r0]
 100:src/string.c  ****         return d0;
 409              		.loc 1 100 9 is_stmt 1 view .LVU112
 410              		.loc 1 101 1 is_stmt 0 view .LVU113
 411 002a 7047     		bx	lr
 412              		.cfi_endproc
 413              	.LFE6:
 415              		.section	.text.scopy_char,"ax",%progbits
 416              		.align	1
 417              		.p2align 2,,3
 418              		.global	scopy_char
 419              		.syntax unified
 420              		.thumb
 421              		.thumb_func
 422              		.fpu fpv4-sp-d16
 424              	scopy_char:
 425              	.LVL39:
 426              	.LFB7:
 102:src/string.c  **** 
 103:src/string.c  **** 
 104:src/string.c  **** /* Copy a string to the buffer and append a character.
 105:src/string.c  ****  */
 106:src/string.c  **** char *scopy_char(char *d, const char *s, const char c) {
 427              		.loc 1 106 56 is_stmt 1 view -0
 428              		.cfi_startproc
 429              		@ args = 0, pretend = 0, frame = 0
 430              		@ frame_needed = 0, uses_anonymous_args = 0
 431              		@ link register save eliminated.
 432              	.LBB10:
 433              	.LBB11:
  85:src/string.c  ****                 *d++ = *s++;
 434              		.loc 1 85 16 is_stmt 0 view .LVU115
 435 0000 0B78     		ldrb	r3, [r1]	@ zero_extendqisi2
 436              	.LBE11:
 437              	.LBE10:
 107:src/string.c  ****         d = scopy(d, s);
 438              		.loc 1 107 9 is_stmt 1 view .LVU116
ARM GAS  /tmp/ccW6yM84.s 			page 11


 439              	.LVL40:
 440              	.LBB13:
 441              	.LBI10:
  84:src/string.c  ****         while (*s != '\0')
 442              		.loc 1 84 7 view .LVU117
 443              	.LBB12:
  85:src/string.c  ****                 *d++ = *s++;
 444              		.loc 1 85 9 view .LVU118
  85:src/string.c  ****                 *d++ = *s++;
 445              		.loc 1 85 15 view .LVU119
 446 0002 2BB1     		cbz	r3, .L56
 447              	.LVL41:
 448              	.L57:
  86:src/string.c  ****         *d = '\0';
 449              		.loc 1 86 17 view .LVU120
  86:src/string.c  ****         *d = '\0';
 450              		.loc 1 86 22 is_stmt 0 view .LVU121
 451 0004 00F8013B 		strb	r3, [r0], #1
 452              	.LVL42:
  85:src/string.c  ****                 *d++ = *s++;
 453              		.loc 1 85 15 is_stmt 1 view .LVU122
  85:src/string.c  ****                 *d++ = *s++;
 454              		.loc 1 85 16 is_stmt 0 view .LVU123
 455 0008 11F8013F 		ldrb	r3, [r1, #1]!	@ zero_extendqisi2
  85:src/string.c  ****                 *d++ = *s++;
 456              		.loc 1 85 15 view .LVU124
 457 000c 002B     		cmp	r3, #0
 458 000e F9D1     		bne	.L57
 459              	.LVL43:
 460              	.L56:
  87:src/string.c  ****         return d;
 461              		.loc 1 87 9 is_stmt 1 view .LVU125
  88:src/string.c  **** }
 462              		.loc 1 88 9 view .LVU126
  88:src/string.c  **** }
 463              		.loc 1 88 9 is_stmt 0 view .LVU127
 464              	.LBE12:
 465              	.LBE13:
 108:src/string.c  ****         *d++ = c;
 466              		.loc 1 108 9 is_stmt 1 view .LVU128
 467              		.loc 1 108 14 is_stmt 0 view .LVU129
 468 0010 00F8012B 		strb	r2, [r0], #1
 469              	.LVL44:
 109:src/string.c  ****         return d;
 470              		.loc 1 109 9 is_stmt 1 view .LVU130
 110:src/string.c  **** }
 471              		.loc 1 110 1 is_stmt 0 view .LVU131
 472 0014 7047     		bx	lr
 473              		.cfi_endproc
 474              	.LFE7:
 476 0016 00BF     		.section	.text.scopy_spc,"ax",%progbits
 477              		.align	1
 478              		.p2align 2,,3
 479              		.global	scopy_spc
 480              		.syntax unified
 481              		.thumb
 482              		.thumb_func
ARM GAS  /tmp/ccW6yM84.s 			page 12


 483              		.fpu fpv4-sp-d16
 485              	scopy_spc:
 486              	.LVL45:
 487              	.LFB8:
 111:src/string.c  **** 
 112:src/string.c  **** char *scopy_spc(char *d, const char *s) {
 488              		.loc 1 112 41 is_stmt 1 view -0
 489              		.cfi_startproc
 490              		@ args = 0, pretend = 0, frame = 0
 491              		@ frame_needed = 0, uses_anonymous_args = 0
 492              		@ link register save eliminated.
 493              	.LBB14:
 494              	.LBB15:
 495              	.LBB16:
 496              	.LBB17:
  85:src/string.c  ****                 *d++ = *s++;
 497              		.loc 1 85 16 is_stmt 0 view .LVU133
 498 0000 0B78     		ldrb	r3, [r1]	@ zero_extendqisi2
 499              	.LBE17:
 500              	.LBE16:
 501              	.LBE15:
 502              	.LBE14:
 113:src/string.c  ****         return scopy_char(d, s, ' ');
 503              		.loc 1 113 9 is_stmt 1 view .LVU134
 504              	.LVL46:
 505              	.LBB21:
 506              	.LBI14:
 106:src/string.c  ****         d = scopy(d, s);
 507              		.loc 1 106 7 view .LVU135
 508              	.LBB20:
 107:src/string.c  ****         *d++ = c;
 509              		.loc 1 107 9 view .LVU136
 510              	.LBB19:
 511              	.LBI16:
  84:src/string.c  ****         while (*s != '\0')
 512              		.loc 1 84 7 view .LVU137
 513              	.LBB18:
  85:src/string.c  ****                 *d++ = *s++;
 514              		.loc 1 85 9 view .LVU138
  85:src/string.c  ****                 *d++ = *s++;
 515              		.loc 1 85 15 view .LVU139
 516 0002 2BB1     		cbz	r3, .L63
 517              	.LVL47:
 518              	.L64:
  86:src/string.c  ****         *d = '\0';
 519              		.loc 1 86 17 view .LVU140
  86:src/string.c  ****         *d = '\0';
 520              		.loc 1 86 22 is_stmt 0 view .LVU141
 521 0004 00F8013B 		strb	r3, [r0], #1
 522              	.LVL48:
  85:src/string.c  ****                 *d++ = *s++;
 523              		.loc 1 85 15 is_stmt 1 view .LVU142
  85:src/string.c  ****                 *d++ = *s++;
 524              		.loc 1 85 16 is_stmt 0 view .LVU143
 525 0008 11F8013F 		ldrb	r3, [r1, #1]!	@ zero_extendqisi2
  85:src/string.c  ****                 *d++ = *s++;
 526              		.loc 1 85 15 view .LVU144
ARM GAS  /tmp/ccW6yM84.s 			page 13


 527 000c 002B     		cmp	r3, #0
 528 000e F9D1     		bne	.L64
 529              	.LVL49:
 530              	.L63:
  87:src/string.c  ****         return d;
 531              		.loc 1 87 9 is_stmt 1 view .LVU145
  88:src/string.c  **** }
 532              		.loc 1 88 9 view .LVU146
  88:src/string.c  **** }
 533              		.loc 1 88 9 is_stmt 0 view .LVU147
 534              	.LBE18:
 535              	.LBE19:
 108:src/string.c  ****         return d;
 536              		.loc 1 108 9 is_stmt 1 view .LVU148
 108:src/string.c  ****         return d;
 537              		.loc 1 108 14 is_stmt 0 view .LVU149
 538 0010 2023     		movs	r3, #32
 539 0012 00F8013B 		strb	r3, [r0], #1
 540              	.LVL50:
 109:src/string.c  **** }
 541              		.loc 1 109 9 is_stmt 1 view .LVU150
 109:src/string.c  **** }
 542              		.loc 1 109 9 is_stmt 0 view .LVU151
 543              	.LBE20:
 544              	.LBE21:
 114:src/string.c  **** }
 545              		.loc 1 114 1 view .LVU152
 546 0016 7047     		bx	lr
 547              		.cfi_endproc
 548              	.LFE8:
 550              		.section	.text.sncopy_char,"ax",%progbits
 551              		.align	1
 552              		.p2align 2,,3
 553              		.global	sncopy_char
 554              		.syntax unified
 555              		.thumb
 556              		.thumb_func
 557              		.fpu fpv4-sp-d16
 559              	sncopy_char:
 560              	.LVL51:
 561              	.LFB9:
 115:src/string.c  **** 
 116:src/string.c  **** char *sncopy_char(char *d, const char *s, int n, const char c) {
 562              		.loc 1 116 64 is_stmt 1 view -0
 563              		.cfi_startproc
 564              		@ args = 0, pretend = 0, frame = 0
 565              		@ frame_needed = 0, uses_anonymous_args = 0
 566              		@ link register save eliminated.
 117:src/string.c  ****         while (n-- && *s != '\0')
 567              		.loc 1 117 9 view .LVU154
 568              		.loc 1 117 15 view .LVU155
 569              		.loc 1 117 15 is_stmt 0 view .LVU156
 570 0000 82B1     		cbz	r2, .L76
 116:src/string.c  ****         while (n-- && *s != '\0')
 571              		.loc 1 116 64 view .LVU157
 572 0002 10B4     		push	{r4}
 573              		.cfi_def_cfa_offset 4
ARM GAS  /tmp/ccW6yM84.s 			page 14


 574              		.cfi_offset 4, -4
 575 0004 0139     		subs	r1, r1, #1
 576              	.LVL52:
 577              		.loc 1 117 15 view .LVU158
 578 0006 8418     		adds	r4, r0, r2
 579 0008 03E0     		b	.L71
 580              	.LVL53:
 581              	.L72:
 118:src/string.c  ****                 *d++ = *s++;
 582              		.loc 1 118 22 view .LVU159
 583 000a 00F8012B 		strb	r2, [r0], #1
 584              	.LVL54:
 117:src/string.c  ****         while (n-- && *s != '\0')
 585              		.loc 1 117 15 is_stmt 1 view .LVU160
 117:src/string.c  ****         while (n-- && *s != '\0')
 586              		.loc 1 117 15 is_stmt 0 view .LVU161
 587 000e A042     		cmp	r0, r4
 588 0010 03D0     		beq	.L70
 589              	.L71:
 590              		.loc 1 118 17 is_stmt 1 discriminator 1 view .LVU162
 117:src/string.c  ****         while (n-- && *s != '\0')
 591              		.loc 1 117 23 is_stmt 0 discriminator 1 view .LVU163
 592 0012 11F8012F 		ldrb	r2, [r1, #1]!	@ zero_extendqisi2
 117:src/string.c  ****         while (n-- && *s != '\0')
 593              		.loc 1 117 20 discriminator 1 view .LVU164
 594 0016 002A     		cmp	r2, #0
 595 0018 F7D1     		bne	.L72
 596              	.L70:
 119:src/string.c  ****         *d++ = c;
 597              		.loc 1 119 9 is_stmt 1 view .LVU165
 598              	.LVL55:
 599              		.loc 1 119 14 is_stmt 0 view .LVU166
 600 001a 00F8013B 		strb	r3, [r0], #1
 601              	.LVL56:
 120:src/string.c  ****         return d;
 602              		.loc 1 120 9 is_stmt 1 view .LVU167
 121:src/string.c  **** }
 603              		.loc 1 121 1 is_stmt 0 view .LVU168
 604 001e 5DF8044B 		ldr	r4, [sp], #4
 605              		.cfi_restore 4
 606              		.cfi_def_cfa_offset 0
 607 0022 7047     		bx	lr
 608              	.LVL57:
 609              	.L76:
 119:src/string.c  ****         *d++ = c;
 610              		.loc 1 119 9 is_stmt 1 view .LVU169
 119:src/string.c  ****         *d++ = c;
 611              		.loc 1 119 14 is_stmt 0 view .LVU170
 612 0024 00F8013B 		strb	r3, [r0], #1
 613              	.LVL58:
 120:src/string.c  ****         return d;
 614              		.loc 1 120 9 is_stmt 1 view .LVU171
 615              		.loc 1 121 1 is_stmt 0 view .LVU172
 616 0028 7047     		bx	lr
 617              		.cfi_endproc
 618              	.LFE9:
 620 002a 00BF     		.section	.text.sncopy_spc,"ax",%progbits
ARM GAS  /tmp/ccW6yM84.s 			page 15


 621              		.align	1
 622              		.p2align 2,,3
 623              		.global	sncopy_spc
 624              		.syntax unified
 625              		.thumb
 626              		.thumb_func
 627              		.fpu fpv4-sp-d16
 629              	sncopy_spc:
 630              	.LVL59:
 631              	.LFB10:
 122:src/string.c  **** 
 123:src/string.c  **** char *sncopy_spc(char *d, const char *s, int n) {
 632              		.loc 1 123 49 is_stmt 1 view -0
 633              		.cfi_startproc
 634              		@ args = 0, pretend = 0, frame = 0
 635              		@ frame_needed = 0, uses_anonymous_args = 0
 636              		@ link register save eliminated.
 124:src/string.c  ****         return sncopy_char(d, s, n, ' ');
 637              		.loc 1 124 9 view .LVU174
 638              	.LBB22:
 639              	.LBI22:
 116:src/string.c  ****         while (n-- && *s != '\0')
 640              		.loc 1 116 7 view .LVU175
 641              	.LBB23:
 117:src/string.c  ****                 *d++ = *s++;
 642              		.loc 1 117 9 view .LVU176
 117:src/string.c  ****                 *d++ = *s++;
 643              		.loc 1 117 15 view .LVU177
 117:src/string.c  ****                 *d++ = *s++;
 644              		.loc 1 117 15 is_stmt 0 view .LVU178
 645 0000 52B1     		cbz	r2, .L80
 646 0002 0244     		add	r2, r2, r0
 647              	.LVL60:
 117:src/string.c  ****                 *d++ = *s++;
 648              		.loc 1 117 15 view .LVU179
 649 0004 0139     		subs	r1, r1, #1
 650              	.LVL61:
 117:src/string.c  ****                 *d++ = *s++;
 651              		.loc 1 117 15 view .LVU180
 652 0006 03E0     		b	.L81
 653              	.LVL62:
 654              	.L82:
 118:src/string.c  ****         *d++ = c;
 655              		.loc 1 118 22 view .LVU181
 656 0008 00F8013B 		strb	r3, [r0], #1
 657              	.LVL63:
 117:src/string.c  ****                 *d++ = *s++;
 658              		.loc 1 117 15 is_stmt 1 view .LVU182
 117:src/string.c  ****                 *d++ = *s++;
 659              		.loc 1 117 15 is_stmt 0 view .LVU183
 660 000c 9042     		cmp	r0, r2
 661 000e 03D0     		beq	.L80
 662              	.L81:
 118:src/string.c  ****         *d++ = c;
 663              		.loc 1 118 17 is_stmt 1 view .LVU184
 117:src/string.c  ****                 *d++ = *s++;
 664              		.loc 1 117 23 is_stmt 0 view .LVU185
ARM GAS  /tmp/ccW6yM84.s 			page 16


 665 0010 11F8013F 		ldrb	r3, [r1, #1]!	@ zero_extendqisi2
 117:src/string.c  ****                 *d++ = *s++;
 666              		.loc 1 117 20 view .LVU186
 667 0014 002B     		cmp	r3, #0
 668 0016 F7D1     		bne	.L82
 669              	.L80:
 119:src/string.c  ****         return d;
 670              		.loc 1 119 9 is_stmt 1 view .LVU187
 671              	.LVL64:
 119:src/string.c  ****         return d;
 672              		.loc 1 119 14 is_stmt 0 view .LVU188
 673 0018 2023     		movs	r3, #32
 674 001a 00F8013B 		strb	r3, [r0], #1
 675              	.LVL65:
 120:src/string.c  **** }
 676              		.loc 1 120 9 is_stmt 1 view .LVU189
 120:src/string.c  **** }
 677              		.loc 1 120 9 is_stmt 0 view .LVU190
 678              	.LBE23:
 679              	.LBE22:
 125:src/string.c  **** }
 680              		.loc 1 125 1 view .LVU191
 681 001e 7047     		bx	lr
 682              		.cfi_endproc
 683              	.LFE10:
 685              		.section	.text.num_arg_0,"ax",%progbits
 686              		.align	1
 687              		.p2align 2,,3
 688              		.global	num_arg_0
 689              		.syntax unified
 690              		.thumb
 691              		.thumb_func
 692              		.fpu fpv4-sp-d16
 694              	num_arg_0:
 695              	.LVL66:
 696              	.LFB11:
 126:src/string.c  **** 
 127:src/string.c  **** /* Convert an n digit number to a string with leading zeros
 128:src/string.c  ****  */
 129:src/string.c  **** char *num_arg_0(char *d, unsigned int arg, int n) {
 697              		.loc 1 129 51 is_stmt 1 view -0
 698              		.cfi_startproc
 699              		@ args = 0, pretend = 0, frame = 0
 700              		@ frame_needed = 0, uses_anonymous_args = 0
 701              		@ link register save eliminated.
 130:src/string.c  ****         int i;
 702              		.loc 1 130 9 view .LVU193
 131:src/string.c  **** 
 132:src/string.c  ****         for (i=0; i<n; i++) {
 703              		.loc 1 132 9 view .LVU194
 704              		.loc 1 132 19 view .LVU195
 705              		.loc 1 132 9 is_stmt 0 view .LVU196
 706 0000 002A     		cmp	r2, #0
 129:src/string.c  ****         int i;
 707              		.loc 1 129 51 view .LVU197
 708 0002 70B4     		push	{r4, r5, r6}
 709              		.cfi_def_cfa_offset 12
ARM GAS  /tmp/ccW6yM84.s 			page 17


 710              		.cfi_offset 4, -12
 711              		.cfi_offset 5, -8
 712              		.cfi_offset 6, -4
 713 0004 00EB0206 		add	r6, r0, r2
 714              		.loc 1 132 9 view .LVU198
 715 0008 0EDD     		ble	.L86
 133:src/string.c  ****                 d[n-i-1] = '0' + arg % 10;
 716              		.loc 1 133 38 view .LVU199
 717 000a 094D     		ldr	r5, .L92
 718 000c 3246     		mov	r2, r6
 719              	.LVL67:
 720              	.L87:
 721              		.loc 1 133 17 is_stmt 1 discriminator 3 view .LVU200
 722              		.loc 1 133 38 is_stmt 0 discriminator 3 view .LVU201
 723 000e A5FB0143 		umull	r4, r3, r5, r1
 724 0012 DB08     		lsrs	r3, r3, #3
 725 0014 03EB8304 		add	r4, r3, r3, lsl #2
 726 0018 A1EB4401 		sub	r1, r1, r4, lsl #1
 727              	.LVL68:
 728              		.loc 1 133 32 discriminator 3 view .LVU202
 729 001c 3031     		adds	r1, r1, #48
 730              		.loc 1 133 26 discriminator 3 view .LVU203
 731 001e 02F8011D 		strb	r1, [r2, #-1]!
 732              	.LVL69:
 134:src/string.c  ****                 arg /= 10;
 733              		.loc 1 134 17 is_stmt 1 discriminator 3 view .LVU204
 132:src/string.c  ****                 d[n-i-1] = '0' + arg % 10;
 734              		.loc 1 132 9 is_stmt 0 discriminator 3 view .LVU205
 735 0022 9042     		cmp	r0, r2
 736              		.loc 1 134 21 discriminator 3 view .LVU206
 737 0024 1946     		mov	r1, r3
 738              	.LVL70:
 132:src/string.c  ****                 d[n-i-1] = '0' + arg % 10;
 739              		.loc 1 132 24 is_stmt 1 discriminator 3 view .LVU207
 132:src/string.c  ****                 d[n-i-1] = '0' + arg % 10;
 740              		.loc 1 132 19 discriminator 3 view .LVU208
 132:src/string.c  ****                 d[n-i-1] = '0' + arg % 10;
 741              		.loc 1 132 9 is_stmt 0 discriminator 3 view .LVU209
 742 0026 F2D1     		bne	.L87
 743              	.LVL71:
 744              	.L86:
 135:src/string.c  ****         }
 136:src/string.c  ****         return d + n;
 745              		.loc 1 136 9 is_stmt 1 view .LVU210
 137:src/string.c  **** }
 746              		.loc 1 137 1 is_stmt 0 view .LVU211
 747 0028 3046     		mov	r0, r6
 748              	.LVL72:
 749              		.loc 1 137 1 view .LVU212
 750 002a 70BC     		pop	{r4, r5, r6}
 751              		.cfi_restore 6
 752              		.cfi_restore 5
 753              		.cfi_restore 4
 754              		.cfi_def_cfa_offset 0
 755 002c 7047     		bx	lr
 756              	.L93:
 757 002e 00BF     		.align	2
ARM GAS  /tmp/ccW6yM84.s 			page 18


 758              	.L92:
 759 0030 CDCCCCCC 		.word	-858993459
 760              		.cfi_endproc
 761              	.LFE11:
 763              		.section	.text.num_arg,"ax",%progbits
 764              		.align	1
 765              		.p2align 2,,3
 766              		.global	num_arg
 767              		.syntax unified
 768              		.thumb
 769              		.thumb_func
 770              		.fpu fpv4-sp-d16
 772              	num_arg:
 773              	.LVL73:
 774              	.LFB12:
 138:src/string.c  **** 
 139:src/string.c  **** char *num_arg(char *d, unsigned int arg) {
 775              		.loc 1 139 42 is_stmt 1 view -0
 776              		.cfi_startproc
 777              		@ args = 0, pretend = 0, frame = 24
 778              		@ frame_needed = 0, uses_anonymous_args = 0
 779              		@ link register save eliminated.
 140:src/string.c  ****         char buf[24];
 780              		.loc 1 140 9 view .LVU214
 141:src/string.c  ****         char *p = buf;
 781              		.loc 1 141 9 view .LVU215
 139:src/string.c  ****         char buf[24];
 782              		.loc 1 139 42 is_stmt 0 view .LVU216
 783 0000 F0B4     		push	{r4, r5, r6, r7}
 784              		.cfi_def_cfa_offset 16
 785              		.cfi_offset 4, -16
 786              		.cfi_offset 5, -12
 787              		.cfi_offset 6, -8
 788              		.cfi_offset 7, -4
 789 0002 86B0     		sub	sp, sp, #24
 790              		.cfi_def_cfa_offset 40
 791              	.LVL74:
 792              		.loc 1 141 15 view .LVU217
 793 0004 6F46     		mov	r7, sp
 142:src/string.c  **** 
 143:src/string.c  ****         do {
 144:src/string.c  ****                 *p++ = '0' + arg % 10;
 794              		.loc 1 144 34 view .LVU218
 795 0006 DFF844C0 		ldr	ip, .L101
 141:src/string.c  **** 
 796              		.loc 1 141 15 view .LVU219
 797 000a 3C46     		mov	r4, r7
 798              	.LVL75:
 799              	.L95:
 143:src/string.c  ****                 *p++ = '0' + arg % 10;
 800              		.loc 1 143 9 is_stmt 1 discriminator 1 view .LVU220
 801              		.loc 1 144 17 discriminator 1 view .LVU221
 802              		.loc 1 144 34 is_stmt 0 discriminator 1 view .LVU222
 803 000c ACFB0132 		umull	r3, r2, ip, r1
 804 0010 D208     		lsrs	r2, r2, #3
 805 0012 02EB8203 		add	r3, r2, r2, lsl #2
 806 0016 A1EB4303 		sub	r3, r1, r3, lsl #1
ARM GAS  /tmp/ccW6yM84.s 			page 19


 807 001a 0E46     		mov	r6, r1
 808              		.loc 1 144 28 discriminator 1 view .LVU223
 809 001c 3033     		adds	r3, r3, #48
 810 001e DBB2     		uxtb	r3, r3
 145:src/string.c  ****                 arg /= 10;
 146:src/string.c  ****         } while (arg != 0);
 811              		.loc 1 146 9 discriminator 1 view .LVU224
 812 0020 092E     		cmp	r6, #9
 813 0022 2546     		mov	r5, r4
 814              	.LVL76:
 145:src/string.c  ****                 arg /= 10;
 815              		.loc 1 145 21 discriminator 1 view .LVU225
 816 0024 1146     		mov	r1, r2
 817              	.LVL77:
 144:src/string.c  ****                 arg /= 10;
 818              		.loc 1 144 22 discriminator 1 view .LVU226
 819 0026 04F8013B 		strb	r3, [r4], #1
 820              	.LVL78:
 145:src/string.c  ****                 arg /= 10;
 821              		.loc 1 145 17 is_stmt 1 discriminator 1 view .LVU227
 822              		.loc 1 146 17 discriminator 1 view .LVU228
 823              		.loc 1 146 9 is_stmt 0 discriminator 1 view .LVU229
 824 002a EFD8     		bhi	.L95
 147:src/string.c  **** 
 148:src/string.c  ****         while (--p >= buf)
 825              		.loc 1 148 15 is_stmt 1 view .LVU230
 826              	.LVL79:
 146:src/string.c  **** 
 827              		.loc 1 146 9 is_stmt 0 view .LVU231
 828 002c 2A46     		mov	r2, r5
 829 002e 0146     		mov	r1, r0
 830              	.LVL80:
 146:src/string.c  **** 
 831              		.loc 1 146 9 view .LVU232
 832 0030 01E0     		b	.L97
 833              	.LVL81:
 834              	.L96:
 146:src/string.c  **** 
 835              		.loc 1 146 9 view .LVU233
 836 0032 12F8013D 		ldrb	r3, [r2, #-1]!	@ zero_extendqisi2
 837              	.LVL82:
 838              	.L97:
 149:src/string.c  ****                 *d++ = *p;
 839              		.loc 1 149 17 is_stmt 1 view .LVU234
 840              		.loc 1 149 22 is_stmt 0 view .LVU235
 841 0036 01F8013B 		strb	r3, [r1], #1
 842              	.LVL83:
 148:src/string.c  ****                 *d++ = *p;
 843              		.loc 1 148 15 is_stmt 1 view .LVU236
 148:src/string.c  ****                 *d++ = *p;
 844              		.loc 1 148 15 is_stmt 0 view .LVU237
 845 003a BA42     		cmp	r2, r7
 846 003c F9D1     		bne	.L96
 150:src/string.c  ****         return d;
 847              		.loc 1 150 9 is_stmt 1 view .LVU238
 848              		.loc 1 150 16 is_stmt 0 view .LVU239
 849 003e C2F10102 		rsb	r2, r2, #1
ARM GAS  /tmp/ccW6yM84.s 			page 20


 850              	.LVL84:
 851              		.loc 1 150 16 view .LVU240
 852 0042 2A44     		add	r2, r2, r5
 853 0044 1044     		add	r0, r0, r2
 151:src/string.c  **** }
 854              		.loc 1 151 1 view .LVU241
 855 0046 06B0     		add	sp, sp, #24
 856              		.cfi_def_cfa_offset 16
 857              		@ sp needed
 858 0048 F0BC     		pop	{r4, r5, r6, r7}
 859              		.cfi_restore 7
 860              		.cfi_restore 6
 861              		.cfi_restore 5
 862              		.cfi_restore 4
 863              		.cfi_def_cfa_offset 0
 864              	.LVL85:
 865              		.loc 1 151 1 view .LVU242
 866 004a 7047     		bx	lr
 867              	.L102:
 868              		.align	2
 869              	.L101:
 870 004c CDCCCCCC 		.word	-858993459
 871              		.cfi_endproc
 872              	.LFE12:
 874              		.text
 875              	.Letext0:
 876              		.file 2 "src/decNumber/decContext.h"
 877              		.file 3 "src/decNumber/decNumber.h"
 878              		.file 4 "src/decNumber/decimal64.h"
 879              		.file 5 "src/decNumber/decimal128.h"
 880              		.file 6 "src/xeq.h"
 881              		.file 7 "src/data.h"
ARM GAS  /tmp/ccW6yM84.s 			page 21

