Archive member included to satisfy reference by file (symbol)

build/libconsts.a(const_50.o)
                              build/decn.o (const_50)
build/libconsts.a(const_randfac.o)
                              build/stats.o (const_randfac)
build/libconsts.a(const_ln10.o)
                              build/decn.o (const_ln10)
build/libconsts.a(const_egamma.o)
                              build/decn.o (const_egamma)
build/libconsts.a(const_256.o)
                              build/decn.o (const_256)
build/libconsts.a(const_180.o)
                              build/decn.o (const_180)
build/libconsts.a(const_1e_32.o)
                              build/xeq.o (const_1e_32)
build/libconsts.a(const_gammaC03.o)
                              build/decn.o (const_gammaC03)
build/libconsts.a(const_60.o)
                              build/decn.o (const_60)
build/libconsts.a(const_10.o)
                              build/decn.o (const_10)
build/libconsts.a(const_360.o)
                              build/xeq.o (const_360)
build/libconsts.a(const_gammaC10.o)
                              build/decn.o (const_gammaC10)
build/libconsts.a(const_gammaC11.o)
                              build/decn.o (const_gammaC11)
build/libconsts.a(const__inf.o)
                              build/decn.o (const__inf)
build/libconsts.a(const_21.o)
                              build/decn.o (const_21)
build/libconsts.a(const_gammaC16.o)
                              build/decn.o (const_gammaC16)
build/libconsts.a(const_200.o)
                              build/decn.o (const_200)
build/libconsts.a(const_gammaC06.o)
                              build/decn.o (const_gammaC06)
build/libconsts.a(const_NaN.o)
                              build/xeq.o (const_NaN)
build/libconsts.a(const_gammaC15.o)
                              build/decn.o (const_gammaC15)
build/libconsts.a(const_1e_24.o)
                              build/xeq.o (const_1e_24)
build/libconsts.a(const_45.o)
                              build/decn.o (const_45)
build/libconsts.a(const_0_05.o)
                              build/xeq.o (const_0_05)
build/libconsts.a(const_3.o)  build/decn.o (const_3)
build/libconsts.a(const_hms_threshold.o)
                              build/display.o (const_hms_threshold)
build/libconsts.a(const_gammaC14.o)
                              build/decn.o (const_gammaC14)
build/libconsts.a(const_0_6.o)
                              build/decn.o (const_0_6)
build/libconsts.a(const_32.o)
                              build/xeq.o (const_32)
build/libconsts.a(const_0_75.o)
                              build/decn.o (const_0_75)
build/libconsts.a(const__1.o)
                              build/decn.o (const__1)
build/libconsts.a(const_gammaC00.o)
                              build/decn.o (const_gammaC00)
build/libconsts.a(const_ln2.o)
                              build/decn.o (const_ln2)
build/libconsts.a(const_gammaC18.o)
                              build/decn.o (const_gammaC18)
build/libconsts.a(const_2PI.o)
                              build/xeq.o (const_2PI)
build/libconsts.a(const_1e_14.o)
                              build/xeq.o (const_1e_14)
build/libconsts.a(const_0.o)  build/xeq.o (const_0)
build/libconsts.a(const_PIon180.o)
                              build/decn.o (const_PIon180)
build/libconsts.a(const_9000.o)
                              build/display.o (const_9000)
build/libconsts.a(const_0_9.o)
                              build/decn.o (const_0_9)
build/libconsts.a(const_gammaC08.o)
                              build/decn.o (const_gammaC08)
build/libconsts.a(const_gammaC21.o)
                              build/decn.o (const_gammaC21)
build/libconsts.a(const_1e_37.o)
                              build/decn.o (const_1e_37)
build/libconsts.a(const_gammaC05.o)
                              build/decn.o (const_gammaC05)
build/libconsts.a(const_2.o)  build/decn.o (const_2)
build/libconsts.a(const_gammaC13.o)
                              build/decn.o (const_gammaC13)
build/libconsts.a(const_100000.o)
                              build/display.o (const_100000)
build/libconsts.a(const_gammaR.o)
                              build/decn.o (const_gammaR)
build/libconsts.a(const_5.o)  build/decn.o (const_5)
build/libconsts.a(const_1.o)  build/xeq.o (const_1)
build/libconsts.a(const_gammaC19.o)
                              build/decn.o (const_gammaC19)
build/libconsts.a(const_inf.o)
                              build/decn.o (const_inf)
build/libconsts.a(const_0_995.o)
                              build/decn.o (const_0_995)
build/libconsts.a(const_0_0001.o)
                              build/display.o (const_0_0001)
build/libconsts.a(const_1on60.o)
                              build/decn.o (const_1on60)
build/libconsts.a(const_PIon200.o)
                              build/decn.o (const_PIon200)
build/libconsts.a(const_gammaC01.o)
                              build/decn.o (const_gammaC01)
build/libconsts.a(const_gammaC09.o)
                              build/decn.o (const_gammaC09)
build/libconsts.a(const_0_5.o)
                              build/decn.o (const_0_5)
build/libconsts.a(const_9on5.o)
                              build/xeq.o (const_9on5)
build/libconsts.a(const_20.o)
                              build/xeq.o (const_20)
build/libconsts.a(const_gammaC20.o)
                              build/decn.o (const_gammaC20)
build/libconsts.a(const_400.o)
                              build/xeq.o (const_400)
build/libconsts.a(const_gammaC07.o)
                              build/decn.o (const_gammaC07)
build/libconsts.a(const__0.o)
                              build/decn.o (const__0)
build/libconsts.a(const_0_4.o)
                              build/decn.o (const_0_4)
build/libconsts.a(const_1e_10000.o)
                              build/decn.o (const_1e_10000)
build/libconsts.a(const_gammaC12.o)
                              build/decn.o (const_gammaC12)
build/libconsts.a(const_2pow64.o)
                              build/xeq.o (const_2pow64)
build/libconsts.a(const_PIon2.o)
                              build/decn.o (const_PIon2)
build/libconsts.a(const_gammaC04.o)
                              build/decn.o (const_gammaC04)
build/libconsts.a(const_90.o)
                              build/decn.o (const_90)
build/libconsts.a(const_gammaC17.o)
                              build/decn.o (const_gammaC17)
build/libconsts.a(const_gammaC02.o)
                              build/decn.o (const_gammaC02)
build/libconsts.a(const_PI.o)
                              build/xeq.o (const_PI)
build/libconsts.a(const_root2on2.o)
                              build/decn.o (const_root2on2)
build/libconsts.a(const_100.o)
                              build/display.o (const_100)
build/libconsts.a(const_0_1.o)
                              build/decn.o (const_0_1)
build/libdecNumber.a(decContext.o)
                              build/xeq.o (decContextDefault)
build/libdecNumber.a(decNumber.o)
                              build/display.o (decNumberToString)
build/libdecNumber.a(decimal128.o)
                              build/xeq.o (decimal128FromNumber)
build/libdecNumber.a(decimal64.o)
                              build/libdecNumber.a(decimal128.o) (decDigitsToDPD)
/usr/lib/gcc/arm-none-eabi/9.2.1/thumb/v7e-m+fp/hard/libgcc.a(_aeabi_uldivmod.o)
                              build/display.o (__aeabi_uldivmod)
/usr/lib/gcc/arm-none-eabi/9.2.1/thumb/v7e-m+fp/hard/libgcc.a(_udivmoddi4.o)
                              /usr/lib/gcc/arm-none-eabi/9.2.1/thumb/v7e-m+fp/hard/libgcc.a(_aeabi_uldivmod.o) (__udivmoddi4)
/usr/lib/gcc/arm-none-eabi/9.2.1/thumb/v7e-m+fp/hard/libgcc.a(_dvmd_tls.o)
                              /usr/lib/gcc/arm-none-eabi/9.2.1/thumb/v7e-m+fp/hard/libgcc.a(_aeabi_uldivmod.o) (__aeabi_ldiv0)
/usr/lib/gcc/arm-none-eabi/9.2.1/../../../arm-none-eabi/lib/thumb/v7e-m+fp/hard/libc.a(lib_a-atexit.o)
                              /usr/lib/gcc/arm-none-eabi/9.2.1/../../../arm-none-eabi/lib/thumb/v7e-m+fp/hard/crt0.o (atexit)
/usr/lib/gcc/arm-none-eabi/9.2.1/../../../arm-none-eabi/lib/thumb/v7e-m+fp/hard/libc.a(lib_a-errno.o)
                              build/pgm_syscalls.o (__errno)
/usr/lib/gcc/arm-none-eabi/9.2.1/../../../arm-none-eabi/lib/thumb/v7e-m+fp/hard/libc.a(lib_a-exit.o)
                              /usr/lib/gcc/arm-none-eabi/9.2.1/../../../arm-none-eabi/lib/thumb/v7e-m+fp/hard/crt0.o (exit)
/usr/lib/gcc/arm-none-eabi/9.2.1/../../../arm-none-eabi/lib/thumb/v7e-m+fp/hard/libc.a(lib_a-fini.o)
                              /usr/lib/gcc/arm-none-eabi/9.2.1/../../../arm-none-eabi/lib/thumb/v7e-m+fp/hard/crt0.o (__libc_fini_array)
/usr/lib/gcc/arm-none-eabi/9.2.1/../../../arm-none-eabi/lib/thumb/v7e-m+fp/hard/libc.a(lib_a-impure.o)
                              /usr/lib/gcc/arm-none-eabi/9.2.1/../../../arm-none-eabi/lib/thumb/v7e-m+fp/hard/libc.a(lib_a-exit.o) (_global_impure_ptr)
/usr/lib/gcc/arm-none-eabi/9.2.1/../../../arm-none-eabi/lib/thumb/v7e-m+fp/hard/libc.a(lib_a-init.o)
                              /usr/lib/gcc/arm-none-eabi/9.2.1/../../../arm-none-eabi/lib/thumb/v7e-m+fp/hard/crt0.o (__libc_init_array)
/usr/lib/gcc/arm-none-eabi/9.2.1/../../../arm-none-eabi/lib/thumb/v7e-m+fp/hard/libc.a(lib_a-memset.o)
                              /usr/lib/gcc/arm-none-eabi/9.2.1/../../../arm-none-eabi/lib/thumb/v7e-m+fp/hard/crt0.o (memset)
/usr/lib/gcc/arm-none-eabi/9.2.1/../../../arm-none-eabi/lib/thumb/v7e-m+fp/hard/libc.a(lib_a-perror.o)
                              build/storage.o (perror)
/usr/lib/gcc/arm-none-eabi/9.2.1/../../../arm-none-eabi/lib/thumb/v7e-m+fp/hard/libc.a(lib_a-sprintf.o)
                              build/xeq.o (sprintf)
/usr/lib/gcc/arm-none-eabi/9.2.1/../../../arm-none-eabi/lib/thumb/v7e-m+fp/hard/libc.a(lib_a-strchr.o)
                              build/xeq.o (strchr)
/usr/lib/gcc/arm-none-eabi/9.2.1/../../../arm-none-eabi/lib/thumb/v7e-m+fp/hard/libc.a(lib_a-strcpy.o)
                              build/console.o (strcpy)
/usr/lib/gcc/arm-none-eabi/9.2.1/../../../arm-none-eabi/lib/thumb/v7e-m+fp/hard/libc.a(lib_a-strdup.o)
                              build/xeq.o (strdup)
/usr/lib/gcc/arm-none-eabi/9.2.1/../../../arm-none-eabi/lib/thumb/v7e-m+fp/hard/libc.a(lib_a-strdup_r.o)
                              /usr/lib/gcc/arm-none-eabi/9.2.1/../../../arm-none-eabi/lib/thumb/v7e-m+fp/hard/libc.a(lib_a-strdup.o) (_strdup_r)
/usr/lib/gcc/arm-none-eabi/9.2.1/../../../arm-none-eabi/lib/thumb/v7e-m+fp/hard/libc.a(lib_a-strerror.o)
                              /usr/lib/gcc/arm-none-eabi/9.2.1/../../../arm-none-eabi/lib/thumb/v7e-m+fp/hard/libc.a(lib_a-perror.o) (_strerror_r)
/usr/lib/gcc/arm-none-eabi/9.2.1/../../../arm-none-eabi/lib/thumb/v7e-m+fp/hard/libc.a(lib_a-strlen.o)
                              /usr/lib/gcc/arm-none-eabi/9.2.1/../../../arm-none-eabi/lib/thumb/v7e-m+fp/hard/libc.a(lib_a-perror.o) (strlen)
/usr/lib/gcc/arm-none-eabi/9.2.1/../../../arm-none-eabi/lib/thumb/v7e-m+fp/hard/libc.a(lib_a-strncpy.o)
                              build/console.o (strncpy)
/usr/lib/gcc/arm-none-eabi/9.2.1/../../../arm-none-eabi/lib/thumb/v7e-m+fp/hard/libc.a(lib_a-strtok.o)
                              build/xeq.o (strtok)
/usr/lib/gcc/arm-none-eabi/9.2.1/../../../arm-none-eabi/lib/thumb/v7e-m+fp/hard/libc.a(lib_a-strtok_r.o)
                              /usr/lib/gcc/arm-none-eabi/9.2.1/../../../arm-none-eabi/lib/thumb/v7e-m+fp/hard/libc.a(lib_a-strtok.o) (__strtok_r)
/usr/lib/gcc/arm-none-eabi/9.2.1/../../../arm-none-eabi/lib/thumb/v7e-m+fp/hard/libc.a(lib_a-strtoull.o)
                              build/xeq.o (strtoull)
/usr/lib/gcc/arm-none-eabi/9.2.1/../../../arm-none-eabi/lib/thumb/v7e-m+fp/hard/libc.a(lib_a-svfprintf.o)
                              /usr/lib/gcc/arm-none-eabi/9.2.1/../../../arm-none-eabi/lib/thumb/v7e-m+fp/hard/libc.a(lib_a-sprintf.o) (_svfprintf_r)
/usr/lib/gcc/arm-none-eabi/9.2.1/../../../arm-none-eabi/lib/thumb/v7e-m+fp/hard/libc.a(lib_a-u_strerr.o)
                              /usr/lib/gcc/arm-none-eabi/9.2.1/../../../arm-none-eabi/lib/thumb/v7e-m+fp/hard/libc.a(lib_a-strerror.o) (_user_strerror)
/usr/lib/gcc/arm-none-eabi/9.2.1/../../../arm-none-eabi/lib/thumb/v7e-m+fp/hard/libc.a(lib_a-writer.o)
                              /usr/lib/gcc/arm-none-eabi/9.2.1/../../../arm-none-eabi/lib/thumb/v7e-m+fp/hard/libc.a(lib_a-perror.o) (_write_r)
/usr/lib/gcc/arm-none-eabi/9.2.1/../../../arm-none-eabi/lib/thumb/v7e-m+fp/hard/libc.a(lib_a-__atexit.o)
                              /usr/lib/gcc/arm-none-eabi/9.2.1/../../../arm-none-eabi/lib/thumb/v7e-m+fp/hard/libc.a(lib_a-atexit.o) (__register_exitproc)
/usr/lib/gcc/arm-none-eabi/9.2.1/../../../arm-none-eabi/lib/thumb/v7e-m+fp/hard/libc.a(lib_a-__call_atexit.o)
                              /usr/lib/gcc/arm-none-eabi/9.2.1/../../../arm-none-eabi/lib/thumb/v7e-m+fp/hard/libc.a(lib_a-exit.o) (__call_exitprocs)
/usr/lib/gcc/arm-none-eabi/9.2.1/../../../arm-none-eabi/lib/thumb/v7e-m+fp/hard/libc.a(lib_a-ctype_.o)
                              /usr/lib/gcc/arm-none-eabi/9.2.1/../../../arm-none-eabi/lib/thumb/v7e-m+fp/hard/libc.a(lib_a-strtoull.o) (_ctype_)
/usr/lib/gcc/arm-none-eabi/9.2.1/../../../arm-none-eabi/lib/thumb/v7e-m+fp/hard/libc.a(lib_a-dtoa.o)
                              /usr/lib/gcc/arm-none-eabi/9.2.1/../../../arm-none-eabi/lib/thumb/v7e-m+fp/hard/libc.a(lib_a-svfprintf.o) (_dtoa_r)
/usr/lib/gcc/arm-none-eabi/9.2.1/../../../arm-none-eabi/lib/thumb/v7e-m+fp/hard/libc.a(lib_a-fflush.o)
                              /usr/lib/gcc/arm-none-eabi/9.2.1/../../../arm-none-eabi/lib/thumb/v7e-m+fp/hard/libc.a(lib_a-perror.o) (_fflush_r)
/usr/lib/gcc/arm-none-eabi/9.2.1/../../../arm-none-eabi/lib/thumb/v7e-m+fp/hard/libc.a(lib_a-fileno.o)
                              /usr/lib/gcc/arm-none-eabi/9.2.1/../../../arm-none-eabi/lib/thumb/v7e-m+fp/hard/libc.a(lib_a-perror.o) (fileno)
/usr/lib/gcc/arm-none-eabi/9.2.1/../../../arm-none-eabi/lib/thumb/v7e-m+fp/hard/libc.a(lib_a-findfp.o)
                              /usr/lib/gcc/arm-none-eabi/9.2.1/../../../arm-none-eabi/lib/thumb/v7e-m+fp/hard/libc.a(lib_a-perror.o) (__sinit)
/usr/lib/gcc/arm-none-eabi/9.2.1/../../../arm-none-eabi/lib/thumb/v7e-m+fp/hard/libc.a(lib_a-fwalk.o)
                              /usr/lib/gcc/arm-none-eabi/9.2.1/../../../arm-none-eabi/lib/thumb/v7e-m+fp/hard/libc.a(lib_a-findfp.o) (_fwalk)
/usr/lib/gcc/arm-none-eabi/9.2.1/../../../arm-none-eabi/lib/thumb/v7e-m+fp/hard/libc.a(lib_a-localeconv.o)
                              /usr/lib/gcc/arm-none-eabi/9.2.1/../../../arm-none-eabi/lib/thumb/v7e-m+fp/hard/libc.a(lib_a-svfprintf.o) (_localeconv_r)
/usr/lib/gcc/arm-none-eabi/9.2.1/../../../arm-none-eabi/lib/thumb/v7e-m+fp/hard/libc.a(lib_a-memchr.o)
                              /usr/lib/gcc/arm-none-eabi/9.2.1/../../../arm-none-eabi/lib/thumb/v7e-m+fp/hard/libc.a(lib_a-svfprintf.o) (memchr)
/usr/lib/gcc/arm-none-eabi/9.2.1/../../../arm-none-eabi/lib/thumb/v7e-m+fp/hard/libc.a(lib_a-memcpy.o)
                              /usr/lib/gcc/arm-none-eabi/9.2.1/../../../arm-none-eabi/lib/thumb/v7e-m+fp/hard/libc.a(lib_a-strdup_r.o) (memcpy)
/usr/lib/gcc/arm-none-eabi/9.2.1/../../../arm-none-eabi/lib/thumb/v7e-m+fp/hard/libc.a(lib_a-mprec.o)
                              /usr/lib/gcc/arm-none-eabi/9.2.1/../../../arm-none-eabi/lib/thumb/v7e-m+fp/hard/libc.a(lib_a-dtoa.o) (_Balloc)
/usr/lib/gcc/arm-none-eabi/9.2.1/../../../arm-none-eabi/lib/thumb/v7e-m+fp/hard/libc.a(lib_a-reent.o)
                              /usr/lib/gcc/arm-none-eabi/9.2.1/../../../arm-none-eabi/lib/thumb/v7e-m+fp/hard/libc.a(lib_a-writer.o) (errno)
/usr/lib/gcc/arm-none-eabi/9.2.1/../../../arm-none-eabi/lib/thumb/v7e-m+fp/hard/libc.a(lib_a-stdio.o)
                              /usr/lib/gcc/arm-none-eabi/9.2.1/../../../arm-none-eabi/lib/thumb/v7e-m+fp/hard/libc.a(lib_a-findfp.o) (__sread)
/usr/lib/gcc/arm-none-eabi/9.2.1/../../../arm-none-eabi/lib/thumb/v7e-m+fp/hard/libc.a(lib_a-svfiprintf.o)
                              /usr/lib/gcc/arm-none-eabi/9.2.1/../../../arm-none-eabi/lib/thumb/v7e-m+fp/hard/libc.a(lib_a-svfprintf.o) (__ssprint_r)
/usr/lib/gcc/arm-none-eabi/9.2.1/../../../arm-none-eabi/lib/thumb/v7e-m+fp/hard/libc.a(lib_a-assert.o)
                              /usr/lib/gcc/arm-none-eabi/9.2.1/../../../arm-none-eabi/lib/thumb/v7e-m+fp/hard/libc.a(lib_a-dtoa.o) (__assert_func)
/usr/lib/gcc/arm-none-eabi/9.2.1/../../../arm-none-eabi/lib/thumb/v7e-m+fp/hard/libc.a(lib_a-closer.o)
                              /usr/lib/gcc/arm-none-eabi/9.2.1/../../../arm-none-eabi/lib/thumb/v7e-m+fp/hard/libc.a(lib_a-stdio.o) (_close_r)
/usr/lib/gcc/arm-none-eabi/9.2.1/../../../arm-none-eabi/lib/thumb/v7e-m+fp/hard/libc.a(lib_a-fclose.o)
                              /usr/lib/gcc/arm-none-eabi/9.2.1/../../../arm-none-eabi/lib/thumb/v7e-m+fp/hard/libc.a(lib_a-findfp.o) (_fclose_r)
/usr/lib/gcc/arm-none-eabi/9.2.1/../../../arm-none-eabi/lib/thumb/v7e-m+fp/hard/libc.a(lib_a-fiprintf.o)
                              /usr/lib/gcc/arm-none-eabi/9.2.1/../../../arm-none-eabi/lib/thumb/v7e-m+fp/hard/libc.a(lib_a-assert.o) (fiprintf)
/usr/lib/gcc/arm-none-eabi/9.2.1/../../../arm-none-eabi/lib/thumb/v7e-m+fp/hard/libc.a(lib_a-locale.o)
                              /usr/lib/gcc/arm-none-eabi/9.2.1/../../../arm-none-eabi/lib/thumb/v7e-m+fp/hard/libc.a(lib_a-localeconv.o) (__global_locale)
/usr/lib/gcc/arm-none-eabi/9.2.1/../../../arm-none-eabi/lib/thumb/v7e-m+fp/hard/libc.a(lib_a-lseekr.o)
                              /usr/lib/gcc/arm-none-eabi/9.2.1/../../../arm-none-eabi/lib/thumb/v7e-m+fp/hard/libc.a(lib_a-stdio.o) (_lseek_r)
/usr/lib/gcc/arm-none-eabi/9.2.1/../../../arm-none-eabi/lib/thumb/v7e-m+fp/hard/libc.a(lib_a-mbtowc_r.o)
                              /usr/lib/gcc/arm-none-eabi/9.2.1/../../../arm-none-eabi/lib/thumb/v7e-m+fp/hard/libc.a(lib_a-locale.o) (__ascii_mbtowc)
/usr/lib/gcc/arm-none-eabi/9.2.1/../../../arm-none-eabi/lib/thumb/v7e-m+fp/hard/libc.a(lib_a-memmove.o)
                              /usr/lib/gcc/arm-none-eabi/9.2.1/../../../arm-none-eabi/lib/thumb/v7e-m+fp/hard/libc.a(lib_a-svfiprintf.o) (memmove)
/usr/lib/gcc/arm-none-eabi/9.2.1/../../../arm-none-eabi/lib/thumb/v7e-m+fp/hard/libc.a(lib_a-readr.o)
                              /usr/lib/gcc/arm-none-eabi/9.2.1/../../../arm-none-eabi/lib/thumb/v7e-m+fp/hard/libc.a(lib_a-stdio.o) (_read_r)
/usr/lib/gcc/arm-none-eabi/9.2.1/../../../arm-none-eabi/lib/thumb/v7e-m+fp/hard/libc.a(lib_a-strcmp.o)
                              /usr/lib/gcc/arm-none-eabi/9.2.1/../../../arm-none-eabi/lib/thumb/v7e-m+fp/hard/libc.a(lib_a-locale.o) (strcmp)
/usr/lib/gcc/arm-none-eabi/9.2.1/../../../arm-none-eabi/lib/thumb/v7e-m+fp/hard/libc.a(lib_a-vfiprintf.o)
                              /usr/lib/gcc/arm-none-eabi/9.2.1/../../../arm-none-eabi/lib/thumb/v7e-m+fp/hard/libc.a(lib_a-fiprintf.o) (_vfiprintf_r)
/usr/lib/gcc/arm-none-eabi/9.2.1/../../../arm-none-eabi/lib/thumb/v7e-m+fp/hard/libc.a(lib_a-wctomb_r.o)
                              /usr/lib/gcc/arm-none-eabi/9.2.1/../../../arm-none-eabi/lib/thumb/v7e-m+fp/hard/libc.a(lib_a-locale.o) (__ascii_wctomb)
/usr/lib/gcc/arm-none-eabi/9.2.1/../../../arm-none-eabi/lib/thumb/v7e-m+fp/hard/libc.a(lib_a-wsetup.o)
                              /usr/lib/gcc/arm-none-eabi/9.2.1/../../../arm-none-eabi/lib/thumb/v7e-m+fp/hard/libc.a(lib_a-vfiprintf.o) (__swsetup_r)
/usr/lib/gcc/arm-none-eabi/9.2.1/../../../arm-none-eabi/lib/thumb/v7e-m+fp/hard/libc.a(lib_a-abort.o)
                              /usr/lib/gcc/arm-none-eabi/9.2.1/../../../arm-none-eabi/lib/thumb/v7e-m+fp/hard/libc.a(lib_a-assert.o) (abort)
/usr/lib/gcc/arm-none-eabi/9.2.1/../../../arm-none-eabi/lib/thumb/v7e-m+fp/hard/libc.a(lib_a-fputwc.o)
                              /usr/lib/gcc/arm-none-eabi/9.2.1/../../../arm-none-eabi/lib/thumb/v7e-m+fp/hard/libc.a(lib_a-vfiprintf.o) (_fputwc_r)
/usr/lib/gcc/arm-none-eabi/9.2.1/../../../arm-none-eabi/lib/thumb/v7e-m+fp/hard/libc.a(lib_a-fvwrite.o)
                              /usr/lib/gcc/arm-none-eabi/9.2.1/../../../arm-none-eabi/lib/thumb/v7e-m+fp/hard/libc.a(lib_a-vfiprintf.o) (__sfvwrite_r)
/usr/lib/gcc/arm-none-eabi/9.2.1/../../../arm-none-eabi/lib/thumb/v7e-m+fp/hard/libc.a(lib_a-makebuf.o)
                              /usr/lib/gcc/arm-none-eabi/9.2.1/../../../arm-none-eabi/lib/thumb/v7e-m+fp/hard/libc.a(lib_a-wsetup.o) (__smakebuf_r)
/usr/lib/gcc/arm-none-eabi/9.2.1/../../../arm-none-eabi/lib/thumb/v7e-m+fp/hard/libc.a(lib_a-signal.o)
                              /usr/lib/gcc/arm-none-eabi/9.2.1/../../../arm-none-eabi/lib/thumb/v7e-m+fp/hard/libc.a(lib_a-abort.o) (raise)
/usr/lib/gcc/arm-none-eabi/9.2.1/../../../arm-none-eabi/lib/thumb/v7e-m+fp/hard/libc.a(lib_a-signalr.o)
                              /usr/lib/gcc/arm-none-eabi/9.2.1/../../../arm-none-eabi/lib/thumb/v7e-m+fp/hard/libc.a(lib_a-signal.o) (_kill_r)
/usr/lib/gcc/arm-none-eabi/9.2.1/../../../arm-none-eabi/lib/thumb/v7e-m+fp/hard/libc.a(lib_a-wbuf.o)
                              /usr/lib/gcc/arm-none-eabi/9.2.1/../../../arm-none-eabi/lib/thumb/v7e-m+fp/hard/libc.a(lib_a-fputwc.o) (__swbuf_r)
/usr/lib/gcc/arm-none-eabi/9.2.1/../../../arm-none-eabi/lib/thumb/v7e-m+fp/hard/libc.a(lib_a-wcrtomb.o)
                              /usr/lib/gcc/arm-none-eabi/9.2.1/../../../arm-none-eabi/lib/thumb/v7e-m+fp/hard/libc.a(lib_a-fputwc.o) (_wcrtomb_r)
/usr/lib/gcc/arm-none-eabi/9.2.1/../../../arm-none-eabi/lib/thumb/v7e-m+fp/hard/libc.a(lib_a-fstatr.o)
                              /usr/lib/gcc/arm-none-eabi/9.2.1/../../../arm-none-eabi/lib/thumb/v7e-m+fp/hard/libc.a(lib_a-makebuf.o) (_fstat_r)
/usr/lib/gcc/arm-none-eabi/9.2.1/../../../arm-none-eabi/lib/thumb/v7e-m+fp/hard/libc.a(lib_a-isattyr.o)
                              /usr/lib/gcc/arm-none-eabi/9.2.1/../../../arm-none-eabi/lib/thumb/v7e-m+fp/hard/libc.a(lib_a-makebuf.o) (_isatty_r)
/usr/lib/gcc/arm-none-eabi/9.2.1/thumb/v7e-m+fp/hard/libgcc.a(_arm_muldf3.o)
                              /usr/lib/gcc/arm-none-eabi/9.2.1/../../../arm-none-eabi/lib/thumb/v7e-m+fp/hard/libc.a(lib_a-dtoa.o) (__aeabi_dmul)
/usr/lib/gcc/arm-none-eabi/9.2.1/thumb/v7e-m+fp/hard/libgcc.a(_arm_addsubdf3.o)
                              /usr/lib/gcc/arm-none-eabi/9.2.1/../../../arm-none-eabi/lib/thumb/v7e-m+fp/hard/libc.a(lib_a-dtoa.o) (__aeabi_dsub)
/usr/lib/gcc/arm-none-eabi/9.2.1/thumb/v7e-m+fp/hard/libgcc.a(_arm_muldivdf3.o)
                              /usr/lib/gcc/arm-none-eabi/9.2.1/../../../arm-none-eabi/lib/thumb/v7e-m+fp/hard/libc.a(lib_a-dtoa.o) (__aeabi_ddiv)
/usr/lib/gcc/arm-none-eabi/9.2.1/thumb/v7e-m+fp/hard/libgcc.a(_arm_cmpdf2.o)
                              /usr/lib/gcc/arm-none-eabi/9.2.1/../../../arm-none-eabi/lib/thumb/v7e-m+fp/hard/libc.a(lib_a-svfprintf.o) (__aeabi_dcmpeq)
/usr/lib/gcc/arm-none-eabi/9.2.1/thumb/v7e-m+fp/hard/libgcc.a(_arm_unorddf2.o)
                              /usr/lib/gcc/arm-none-eabi/9.2.1/../../../arm-none-eabi/lib/thumb/v7e-m+fp/hard/libc.a(lib_a-svfprintf.o) (__aeabi_dcmpun)
/usr/lib/gcc/arm-none-eabi/9.2.1/thumb/v7e-m+fp/hard/libgcc.a(_arm_fixdfsi.o)
                              /usr/lib/gcc/arm-none-eabi/9.2.1/../../../arm-none-eabi/lib/thumb/v7e-m+fp/hard/libc.a(lib_a-dtoa.o) (__aeabi_d2iz)
/usr/lib/gcc/arm-none-eabi/9.2.1/../../../arm-none-eabi/lib/thumb/v7e-m+fp/hard/libnosys.a(_exit.o)
                              /usr/lib/gcc/arm-none-eabi/9.2.1/../../../arm-none-eabi/lib/thumb/v7e-m+fp/hard/libc.a(lib_a-exit.o) (_exit)

Allocating common symbols
Common symbol       size              file

GoFast              0x4               build/keys.o
StackBase           0x4               build/xeq.o
LastDisplayedExponent
                    0x5               build/display.o
nd_opcode           0x4               build/keys.o
errno               0x4               /usr/lib/gcc/arm-none-eabi/9.2.1/../../../arm-none-eabi/lib/thumb/v7e-m+fp/hard/libc.a(lib_a-reent.o)
ShowRPN             0x4               build/display.o
forceDispPlot       0x1               build/display.o
XromParams          0x10              build/storage.o
OpCodeDisplayPending
                    0x4               build/keys.o
Pause               0x1               build/xeq.o
ShowRegister        0x4               build/xeq.o
SizeStatRegs        0x4               build/stats.o
IoAnnunciator       0x4               build/display.o
XeqOpCode           0x2               build/xeq.o
RetStkSize          0x4               build/xeq.o
JustDisplayed       0x4               build/display.o
TraceBuffer         0x19              build/xeq.o
XromRunning         0x4               build/xeq.o
XromUserPc          0x4               build/xeq.o
XromA2D             0x40              build/storage.o
library_ram         0x4               build/storage.o
Busy                0x4               build/xeq.o
main_ram            0x4               build/storage.o
DispMsg             0x4               build/display.o
Ctx                 0x18              build/xeq.o
NonProgrammable     0x4               build/keys.o
LastDisplayedText   0x1f              build/display.o
JustStopped         0x4               build/xeq.o
WasDataEntry        0x4               build/keys.o
Error               0x4               build/xeq.o
LastDisplayedNumber
                    0x1a              build/display.o
RetStk              0x4               build/xeq.o
OpCode              0x4               build/keys.o
DispPlot            0x2               build/display.o
print_string        0x16              build/console.o
PcWrapped           0x4               build/xeq.o
Running             0x4               build/xeq.o
ProgFree            0x4               build/xeq.o
StatRegs            0x4               build/stats.o
UserLocalRegs       0x4               build/xeq.o
IntMaxWindow        0x4               build/display.o
RectPolConv         0x4               build/xeq.o
XromLocal           0x1d0             build/storage.o
backup_ram          0x4               build/storage.o
StateWhileOn        0x34              build/storage.o

Discarded input sections

 .text          0x0000000000000000        0x0 /usr/lib/gcc/arm-none-eabi/9.2.1/thumb/v7e-m+fp/hard/crti.o
 .data          0x0000000000000000        0x0 /usr/lib/gcc/arm-none-eabi/9.2.1/thumb/v7e-m+fp/hard/crti.o
 .bss           0x0000000000000000        0x0 /usr/lib/gcc/arm-none-eabi/9.2.1/thumb/v7e-m+fp/hard/crti.o
 .data          0x0000000000000000        0x4 /usr/lib/gcc/arm-none-eabi/9.2.1/thumb/v7e-m+fp/hard/crtbegin.o
 .text          0x0000000000000000       0x70 /usr/lib/gcc/arm-none-eabi/9.2.1/../../../arm-none-eabi/lib/thumb/v7e-m+fp/hard/crt0.o
 .data          0x0000000000000000        0x0 /usr/lib/gcc/arm-none-eabi/9.2.1/../../../arm-none-eabi/lib/thumb/v7e-m+fp/hard/crt0.o
 .bss           0x0000000000000000        0x0 /usr/lib/gcc/arm-none-eabi/9.2.1/../../../arm-none-eabi/lib/thumb/v7e-m+fp/hard/crt0.o
 .ARM.extab     0x0000000000000000        0x0 /usr/lib/gcc/arm-none-eabi/9.2.1/../../../arm-none-eabi/lib/thumb/v7e-m+fp/hard/crt0.o
 .ARM.exidx     0x0000000000000000       0x10 /usr/lib/gcc/arm-none-eabi/9.2.1/../../../arm-none-eabi/lib/thumb/v7e-m+fp/hard/crt0.o
 .debug_line    0x0000000000000000       0x87 /usr/lib/gcc/arm-none-eabi/9.2.1/../../../arm-none-eabi/lib/thumb/v7e-m+fp/hard/crt0.o
 .debug_info    0x0000000000000000       0x26 /usr/lib/gcc/arm-none-eabi/9.2.1/../../../arm-none-eabi/lib/thumb/v7e-m+fp/hard/crt0.o
 .debug_abbrev  0x0000000000000000       0x14 /usr/lib/gcc/arm-none-eabi/9.2.1/../../../arm-none-eabi/lib/thumb/v7e-m+fp/hard/crt0.o
 .debug_aranges
                0x0000000000000000       0x20 /usr/lib/gcc/arm-none-eabi/9.2.1/../../../arm-none-eabi/lib/thumb/v7e-m+fp/hard/crt0.o
 .debug_str     0x0000000000000000       0x98 /usr/lib/gcc/arm-none-eabi/9.2.1/../../../arm-none-eabi/lib/thumb/v7e-m+fp/hard/crt0.o
 .ARM.attributes
                0x0000000000000000       0x1c /usr/lib/gcc/arm-none-eabi/9.2.1/../../../arm-none-eabi/lib/thumb/v7e-m+fp/hard/crt0.o
 .text          0x0000000000000000        0x0 build/pgm_syscalls.o
 .data          0x0000000000000000        0x0 build/pgm_syscalls.o
 .bss           0x0000000000000000        0x0 build/pgm_syscalls.o
 .text.malloc   0x0000000000000000        0x8 build/pgm_syscalls.o
 .text.realloc  0x0000000000000000        0x8 build/pgm_syscalls.o
 .text          0x0000000000000000        0x0 build/keys.o
 .data          0x0000000000000000        0x0 build/keys.o
 .bss           0x0000000000000000        0x0 build/keys.o
 .text.keycode_to_digit_or_register
                0x0000000000000000       0x14 build/keys.o
 .text.current_catalogue_max
                0x0000000000000000       0x14 build/keys.o
 .text.find_pos
                0x0000000000000000       0x88 build/keys.o
 .text          0x0000000000000000        0x0 build/display.o
 .data          0x0000000000000000        0x0 build/display.o
 .bss           0x0000000000000000        0x0 build/display.o
 .text.getdig   0x0000000000000000        0xc build/display.o
 .text.set_IO_annunciator
                0x0000000000000000       0x20 build/display.o
 .text          0x0000000000000000        0x0 build/xeq.o
 .data          0x0000000000000000        0x0 build/xeq.o
 .bss           0x0000000000000000        0x0 build/xeq.o
 .text.is_xrom  0x0000000000000000       0x1c build/xeq.o
 .text.local_levels
                0x0000000000000000       0x28 build/xeq.o
 .text.bad_mode_error
                0x0000000000000000       0x10 build/xeq.o
 .text.is_usrdblmode
                0x0000000000000000       0x34 build/xeq.o
 .text.get_stack
                0x0000000000000000        0x8 build/xeq.o
 .text.lift_if_enabled
                0x0000000000000000       0x14 build/xeq.o
 .text.getYZ    0x0000000000000000       0x18 build/xeq.o
 .text.zero_regs
                0x0000000000000000       0x28 build/xeq.o
 .text.move_regs
                0x0000000000000000       0x28 build/xeq.o
 .text.DM42_Ticker
                0x0000000000000000       0x18 build/xeq.o
 .text.set_dispmode_digs
                0x0000000000000000       0x3c build/xeq.o
 .text.put_user_flag
                0x0000000000000000       0x10 build/xeq.o
 .text.reset_volatile_state
                0x0000000000000000       0x14 build/xeq.o
 .text.set_running_off_sst
                0x0000000000000000        0xc build/xeq.o
 .text.set_running_on_sst
                0x0000000000000000        0xc build/xeq.o
 .rodata.paste_raw_x.str1.4
                0x0000000000000000        0x7 build/xeq.o
 .text.paste_raw_x
                0x0000000000000000      0x108 build/xeq.o
 .rodata.fill_buffer_from_raw_x.str1.4
                0x0000000000000000       0x11 build/xeq.o
 .text.fill_buffer_from_raw_x
                0x0000000000000000       0xd0 build/xeq.o
 .text          0x0000000000000000        0x0 build/prt.o
 .data          0x0000000000000000        0x0 build/prt.o
 .bss           0x0000000000000000        0x0 build/prt.o
 .text          0x0000000000000000        0x0 build/decn.o
 .data          0x0000000000000000        0x0 build/decn.o
 .bss           0x0000000000000000        0x0 build/decn.o
 .text.dn_eq1   0x0000000000000000        0xc build/decn.o
 .text.convergence_threshold
                0x0000000000000000       0x1c build/decn.o
 .text.decNumberPIon2
                0x0000000000000000        0xc build/decn.o
 .text.dn_div2  0x0000000000000000       0x10 build/decn.o
 .text          0x0000000000000000        0x0 build/complex.o
 .data          0x0000000000000000        0x0 build/complex.o
 .bss           0x0000000000000000        0x0 build/complex.o
 .text.cmplxArg
                0x0000000000000000        0xc build/complex.o
 .text          0x0000000000000000        0x0 build/stats.o
 .data          0x0000000000000000        0x0 build/stats.o
 .bss           0x0000000000000000        0x0 build/stats.o
 .text.sigma_plus_x
                0x0000000000000000       0x44 build/stats.o
 .text          0x0000000000000000        0x0 build/lcd.o
 .data          0x0000000000000000        0x0 build/lcd.o
 .bss           0x0000000000000000        0x0 build/lcd.o
 .text.setuptty
                0x0000000000000000        0x4 build/lcd.o
 .text.left_side_top
                0x0000000000000000        0x4 build/lcd.o
 .text.left_side_bottom
                0x0000000000000000        0x8 build/lcd.o
 .text.right_side_top
                0x0000000000000000        0x4 build/lcd.o
 .text.right_side_bottom
                0x0000000000000000        0x8 build/lcd.o
 .text.decimal  0x0000000000000000       0x1c build/lcd.o
 .text.exp_left_side_top
                0x0000000000000000        0x8 build/lcd.o
 .text.exp_left_side_bottom
                0x0000000000000000        0x8 build/lcd.o
 .text.exp_right_side_top
                0x0000000000000000        0x4 build/lcd.o
 .text.exp_right_side_bottom
                0x0000000000000000        0x8 build/lcd.o
 .text.show_progtrace
                0x0000000000000000        0x4 build/lcd.o
 .text          0x0000000000000000        0x0 build/int.o
 .data          0x0000000000000000        0x0 build/int.o
 .bss           0x0000000000000000        0x0 build/int.o
 .text          0x0000000000000000        0x0 build/date.o
 .data          0x0000000000000000        0x0 build/date.o
 .bss           0x0000000000000000        0x0 build/date.o
 .text          0x0000000000000000        0x0 build/consts.o
 .data          0x0000000000000000        0x0 build/consts.o
 .bss           0x0000000000000000        0x0 build/consts.o
 .text          0x0000000000000000        0x0 build/alpha.o
 .data          0x0000000000000000        0x0 build/alpha.o
 .bss           0x0000000000000000        0x0 build/alpha.o
 .text          0x0000000000000000        0x0 build/charmap.o
 .data          0x0000000000000000        0x0 build/charmap.o
 .bss           0x0000000000000000        0x0 build/charmap.o
 .text          0x0000000000000000        0x0 build/commands.o
 .data          0x0000000000000000        0x0 build/commands.o
 .bss           0x0000000000000000        0x0 build/commands.o
 .text          0x0000000000000000        0x0 build/string.o
 .data          0x0000000000000000        0x0 build/string.o
 .bss           0x0000000000000000        0x0 build/string.o
 .text.sncopy_spc
                0x0000000000000000       0x20 build/string.o
 .text          0x0000000000000000        0x0 build/storage.o
 .data          0x0000000000000000        0x0 build/storage.o
 .bss           0x0000000000000000        0x0 build/storage.o
 .text.crc16    0x0000000000000000       0x38 build/storage.o
 .text.checksum_program
                0x0000000000000000       0x5c build/storage.o
 .text.init_library
                0x0000000000000000       0x38 build/storage.o
 .text.store_program_from_buffer
                0x0000000000000000       0x18 build/storage.o
 .text          0x0000000000000000        0x0 build/matrix.o
 .data          0x0000000000000000        0x0 build/matrix.o
 .bss           0x0000000000000000        0x0 build/matrix.o
 .text          0x0000000000000000        0x0 build/font.o
 .data          0x0000000000000000        0x0 build/font.o
 .bss           0x0000000000000000        0x0 build/font.o
 .text          0x0000000000000000        0x0 build/xrom.o
 .data          0x0000000000000000        0x0 build/xrom.o
 .bss           0x0000000000000000        0x0 build/xrom.o
 .text          0x0000000000000000        0x0 build/console.o
 .data          0x0000000000000000        0x0 build/console.o
 .bss           0x0000000000000000        0x0 build/console.o
 .text.toggle_default_menu
                0x0000000000000000       0x20 build/console.o
 .text.get_menu
                0x0000000000000000        0xc build/console.o
 .text.mdot     0x0000000000000000       0x40 build/console.o
 .text.get_key  0x0000000000000000        0x8 build/console.o
 .text.start_key_timer
                0x0000000000000000       0x14 build/console.o
 .text.moveto   0x0000000000000000       0x38 build/console.o
 .rodata.print_debug.str1.4
                0x0000000000000000        0xf build/console.o
 .text.print_debug
                0x0000000000000000       0x80 build/console.o
 .rodata.print_debug2.str1.4
                0x0000000000000000        0xb build/console.o
 .text.print_debug2
                0x0000000000000000       0x80 build/console.o
 .text.do_now   0x0000000000000000       0x14 build/console.o
 .bss.n_p       0x0000000000000000        0x4 build/console.o
 .data.spaces   0x0000000000000000       0x16 build/console.o
 COMMON         0x0000000000000000       0x16 build/console.o
 .text          0x0000000000000000        0x0 build/libconsts.a(const_50.o)
 .data          0x0000000000000000        0x0 build/libconsts.a(const_50.o)
 .bss           0x0000000000000000        0x0 build/libconsts.a(const_50.o)
 .text          0x0000000000000000        0x0 build/libconsts.a(const_randfac.o)
 .data          0x0000000000000000        0x0 build/libconsts.a(const_randfac.o)
 .bss           0x0000000000000000        0x0 build/libconsts.a(const_randfac.o)
 .text          0x0000000000000000        0x0 build/libconsts.a(const_ln10.o)
 .data          0x0000000000000000        0x0 build/libconsts.a(const_ln10.o)
 .bss           0x0000000000000000        0x0 build/libconsts.a(const_ln10.o)
 .text          0x0000000000000000        0x0 build/libconsts.a(const_egamma.o)
 .data          0x0000000000000000        0x0 build/libconsts.a(const_egamma.o)
 .bss           0x0000000000000000        0x0 build/libconsts.a(const_egamma.o)
 .text          0x0000000000000000        0x0 build/libconsts.a(const_256.o)
 .data          0x0000000000000000        0x0 build/libconsts.a(const_256.o)
 .bss           0x0000000000000000        0x0 build/libconsts.a(const_256.o)
 .text          0x0000000000000000        0x0 build/libconsts.a(const_180.o)
 .data          0x0000000000000000        0x0 build/libconsts.a(const_180.o)
 .bss           0x0000000000000000        0x0 build/libconsts.a(const_180.o)
 .text          0x0000000000000000        0x0 build/libconsts.a(const_1e_32.o)
 .data          0x0000000000000000        0x0 build/libconsts.a(const_1e_32.o)
 .bss           0x0000000000000000        0x0 build/libconsts.a(const_1e_32.o)
 .text          0x0000000000000000        0x0 build/libconsts.a(const_gammaC03.o)
 .data          0x0000000000000000        0x0 build/libconsts.a(const_gammaC03.o)
 .bss           0x0000000000000000        0x0 build/libconsts.a(const_gammaC03.o)
 .text          0x0000000000000000        0x0 build/libconsts.a(const_60.o)
 .data          0x0000000000000000        0x0 build/libconsts.a(const_60.o)
 .bss           0x0000000000000000        0x0 build/libconsts.a(const_60.o)
 .text          0x0000000000000000        0x0 build/libconsts.a(const_10.o)
 .data          0x0000000000000000        0x0 build/libconsts.a(const_10.o)
 .bss           0x0000000000000000        0x0 build/libconsts.a(const_10.o)
 .text          0x0000000000000000        0x0 build/libconsts.a(const_360.o)
 .data          0x0000000000000000        0x0 build/libconsts.a(const_360.o)
 .bss           0x0000000000000000        0x0 build/libconsts.a(const_360.o)
 .text          0x0000000000000000        0x0 build/libconsts.a(const_gammaC10.o)
 .data          0x0000000000000000        0x0 build/libconsts.a(const_gammaC10.o)
 .bss           0x0000000000000000        0x0 build/libconsts.a(const_gammaC10.o)
 .text          0x0000000000000000        0x0 build/libconsts.a(const_gammaC11.o)
 .data          0x0000000000000000        0x0 build/libconsts.a(const_gammaC11.o)
 .bss           0x0000000000000000        0x0 build/libconsts.a(const_gammaC11.o)
 .text          0x0000000000000000        0x0 build/libconsts.a(const__inf.o)
 .data          0x0000000000000000        0x0 build/libconsts.a(const__inf.o)
 .bss           0x0000000000000000        0x0 build/libconsts.a(const__inf.o)
 .text          0x0000000000000000        0x0 build/libconsts.a(const_21.o)
 .data          0x0000000000000000        0x0 build/libconsts.a(const_21.o)
 .bss           0x0000000000000000        0x0 build/libconsts.a(const_21.o)
 .text          0x0000000000000000        0x0 build/libconsts.a(const_gammaC16.o)
 .data          0x0000000000000000        0x0 build/libconsts.a(const_gammaC16.o)
 .bss           0x0000000000000000        0x0 build/libconsts.a(const_gammaC16.o)
 .text          0x0000000000000000        0x0 build/libconsts.a(const_200.o)
 .data          0x0000000000000000        0x0 build/libconsts.a(const_200.o)
 .bss           0x0000000000000000        0x0 build/libconsts.a(const_200.o)
 .text          0x0000000000000000        0x0 build/libconsts.a(const_gammaC06.o)
 .data          0x0000000000000000        0x0 build/libconsts.a(const_gammaC06.o)
 .bss           0x0000000000000000        0x0 build/libconsts.a(const_gammaC06.o)
 .text          0x0000000000000000        0x0 build/libconsts.a(const_NaN.o)
 .data          0x0000000000000000        0x0 build/libconsts.a(const_NaN.o)
 .bss           0x0000000000000000        0x0 build/libconsts.a(const_NaN.o)
 .text          0x0000000000000000        0x0 build/libconsts.a(const_gammaC15.o)
 .data          0x0000000000000000        0x0 build/libconsts.a(const_gammaC15.o)
 .bss           0x0000000000000000        0x0 build/libconsts.a(const_gammaC15.o)
 .text          0x0000000000000000        0x0 build/libconsts.a(const_1e_24.o)
 .data          0x0000000000000000        0x0 build/libconsts.a(const_1e_24.o)
 .bss           0x0000000000000000        0x0 build/libconsts.a(const_1e_24.o)
 .text          0x0000000000000000        0x0 build/libconsts.a(const_45.o)
 .data          0x0000000000000000        0x0 build/libconsts.a(const_45.o)
 .bss           0x0000000000000000        0x0 build/libconsts.a(const_45.o)
 .text          0x0000000000000000        0x0 build/libconsts.a(const_0_05.o)
 .data          0x0000000000000000        0x0 build/libconsts.a(const_0_05.o)
 .bss           0x0000000000000000        0x0 build/libconsts.a(const_0_05.o)
 .text          0x0000000000000000        0x0 build/libconsts.a(const_3.o)
 .data          0x0000000000000000        0x0 build/libconsts.a(const_3.o)
 .bss           0x0000000000000000        0x0 build/libconsts.a(const_3.o)
 .text          0x0000000000000000        0x0 build/libconsts.a(const_hms_threshold.o)
 .data          0x0000000000000000        0x0 build/libconsts.a(const_hms_threshold.o)
 .bss           0x0000000000000000        0x0 build/libconsts.a(const_hms_threshold.o)
 .text          0x0000000000000000        0x0 build/libconsts.a(const_gammaC14.o)
 .data          0x0000000000000000        0x0 build/libconsts.a(const_gammaC14.o)
 .bss           0x0000000000000000        0x0 build/libconsts.a(const_gammaC14.o)
 .text          0x0000000000000000        0x0 build/libconsts.a(const_0_6.o)
 .data          0x0000000000000000        0x0 build/libconsts.a(const_0_6.o)
 .bss           0x0000000000000000        0x0 build/libconsts.a(const_0_6.o)
 .text          0x0000000000000000        0x0 build/libconsts.a(const_32.o)
 .data          0x0000000000000000        0x0 build/libconsts.a(const_32.o)
 .bss           0x0000000000000000        0x0 build/libconsts.a(const_32.o)
 .text          0x0000000000000000        0x0 build/libconsts.a(const_0_75.o)
 .data          0x0000000000000000        0x0 build/libconsts.a(const_0_75.o)
 .bss           0x0000000000000000        0x0 build/libconsts.a(const_0_75.o)
 .text          0x0000000000000000        0x0 build/libconsts.a(const__1.o)
 .data          0x0000000000000000        0x0 build/libconsts.a(const__1.o)
 .bss           0x0000000000000000        0x0 build/libconsts.a(const__1.o)
 .text          0x0000000000000000        0x0 build/libconsts.a(const_gammaC00.o)
 .data          0x0000000000000000        0x0 build/libconsts.a(const_gammaC00.o)
 .bss           0x0000000000000000        0x0 build/libconsts.a(const_gammaC00.o)
 .text          0x0000000000000000        0x0 build/libconsts.a(const_ln2.o)
 .data          0x0000000000000000        0x0 build/libconsts.a(const_ln2.o)
 .bss           0x0000000000000000        0x0 build/libconsts.a(const_ln2.o)
 .text          0x0000000000000000        0x0 build/libconsts.a(const_gammaC18.o)
 .data          0x0000000000000000        0x0 build/libconsts.a(const_gammaC18.o)
 .bss           0x0000000000000000        0x0 build/libconsts.a(const_gammaC18.o)
 .text          0x0000000000000000        0x0 build/libconsts.a(const_2PI.o)
 .data          0x0000000000000000        0x0 build/libconsts.a(const_2PI.o)
 .bss           0x0000000000000000        0x0 build/libconsts.a(const_2PI.o)
 .text          0x0000000000000000        0x0 build/libconsts.a(const_1e_14.o)
 .data          0x0000000000000000        0x0 build/libconsts.a(const_1e_14.o)
 .bss           0x0000000000000000        0x0 build/libconsts.a(const_1e_14.o)
 .text          0x0000000000000000        0x0 build/libconsts.a(const_0.o)
 .data          0x0000000000000000        0x0 build/libconsts.a(const_0.o)
 .bss           0x0000000000000000        0x0 build/libconsts.a(const_0.o)
 .text          0x0000000000000000        0x0 build/libconsts.a(const_PIon180.o)
 .data          0x0000000000000000        0x0 build/libconsts.a(const_PIon180.o)
 .bss           0x0000000000000000        0x0 build/libconsts.a(const_PIon180.o)
 .text          0x0000000000000000        0x0 build/libconsts.a(const_9000.o)
 .data          0x0000000000000000        0x0 build/libconsts.a(const_9000.o)
 .bss           0x0000000000000000        0x0 build/libconsts.a(const_9000.o)
 .text          0x0000000000000000        0x0 build/libconsts.a(const_0_9.o)
 .data          0x0000000000000000        0x0 build/libconsts.a(const_0_9.o)
 .bss           0x0000000000000000        0x0 build/libconsts.a(const_0_9.o)
 .text          0x0000000000000000        0x0 build/libconsts.a(const_gammaC08.o)
 .data          0x0000000000000000        0x0 build/libconsts.a(const_gammaC08.o)
 .bss           0x0000000000000000        0x0 build/libconsts.a(const_gammaC08.o)
 .text          0x0000000000000000        0x0 build/libconsts.a(const_gammaC21.o)
 .data          0x0000000000000000        0x0 build/libconsts.a(const_gammaC21.o)
 .bss           0x0000000000000000        0x0 build/libconsts.a(const_gammaC21.o)
 .text          0x0000000000000000        0x0 build/libconsts.a(const_1e_37.o)
 .data          0x0000000000000000        0x0 build/libconsts.a(const_1e_37.o)
 .bss           0x0000000000000000        0x0 build/libconsts.a(const_1e_37.o)
 .text          0x0000000000000000        0x0 build/libconsts.a(const_gammaC05.o)
 .data          0x0000000000000000        0x0 build/libconsts.a(const_gammaC05.o)
 .bss           0x0000000000000000        0x0 build/libconsts.a(const_gammaC05.o)
 .text          0x0000000000000000        0x0 build/libconsts.a(const_2.o)
 .data          0x0000000000000000        0x0 build/libconsts.a(const_2.o)
 .bss           0x0000000000000000        0x0 build/libconsts.a(const_2.o)
 .text          0x0000000000000000        0x0 build/libconsts.a(const_gammaC13.o)
 .data          0x0000000000000000        0x0 build/libconsts.a(const_gammaC13.o)
 .bss           0x0000000000000000        0x0 build/libconsts.a(const_gammaC13.o)
 .text          0x0000000000000000        0x0 build/libconsts.a(const_100000.o)
 .data          0x0000000000000000        0x0 build/libconsts.a(const_100000.o)
 .bss           0x0000000000000000        0x0 build/libconsts.a(const_100000.o)
 .text          0x0000000000000000        0x0 build/libconsts.a(const_gammaR.o)
 .data          0x0000000000000000        0x0 build/libconsts.a(const_gammaR.o)
 .bss           0x0000000000000000        0x0 build/libconsts.a(const_gammaR.o)
 .text          0x0000000000000000        0x0 build/libconsts.a(const_5.o)
 .data          0x0000000000000000        0x0 build/libconsts.a(const_5.o)
 .bss           0x0000000000000000        0x0 build/libconsts.a(const_5.o)
 .text          0x0000000000000000        0x0 build/libconsts.a(const_1.o)
 .data          0x0000000000000000        0x0 build/libconsts.a(const_1.o)
 .bss           0x0000000000000000        0x0 build/libconsts.a(const_1.o)
 .text          0x0000000000000000        0x0 build/libconsts.a(const_gammaC19.o)
 .data          0x0000000000000000        0x0 build/libconsts.a(const_gammaC19.o)
 .bss           0x0000000000000000        0x0 build/libconsts.a(const_gammaC19.o)
 .text          0x0000000000000000        0x0 build/libconsts.a(const_inf.o)
 .data          0x0000000000000000        0x0 build/libconsts.a(const_inf.o)
 .bss           0x0000000000000000        0x0 build/libconsts.a(const_inf.o)
 .text          0x0000000000000000        0x0 build/libconsts.a(const_0_995.o)
 .data          0x0000000000000000        0x0 build/libconsts.a(const_0_995.o)
 .bss           0x0000000000000000        0x0 build/libconsts.a(const_0_995.o)
 .text          0x0000000000000000        0x0 build/libconsts.a(const_0_0001.o)
 .data          0x0000000000000000        0x0 build/libconsts.a(const_0_0001.o)
 .bss           0x0000000000000000        0x0 build/libconsts.a(const_0_0001.o)
 .text          0x0000000000000000        0x0 build/libconsts.a(const_1on60.o)
 .data          0x0000000000000000        0x0 build/libconsts.a(const_1on60.o)
 .bss           0x0000000000000000        0x0 build/libconsts.a(const_1on60.o)
 .text          0x0000000000000000        0x0 build/libconsts.a(const_PIon200.o)
 .data          0x0000000000000000        0x0 build/libconsts.a(const_PIon200.o)
 .bss           0x0000000000000000        0x0 build/libconsts.a(const_PIon200.o)
 .text          0x0000000000000000        0x0 build/libconsts.a(const_gammaC01.o)
 .data          0x0000000000000000        0x0 build/libconsts.a(const_gammaC01.o)
 .bss           0x0000000000000000        0x0 build/libconsts.a(const_gammaC01.o)
 .text          0x0000000000000000        0x0 build/libconsts.a(const_gammaC09.o)
 .data          0x0000000000000000        0x0 build/libconsts.a(const_gammaC09.o)
 .bss           0x0000000000000000        0x0 build/libconsts.a(const_gammaC09.o)
 .text          0x0000000000000000        0x0 build/libconsts.a(const_0_5.o)
 .data          0x0000000000000000        0x0 build/libconsts.a(const_0_5.o)
 .bss           0x0000000000000000        0x0 build/libconsts.a(const_0_5.o)
 .text          0x0000000000000000        0x0 build/libconsts.a(const_9on5.o)
 .data          0x0000000000000000        0x0 build/libconsts.a(const_9on5.o)
 .bss           0x0000000000000000        0x0 build/libconsts.a(const_9on5.o)
 .text          0x0000000000000000        0x0 build/libconsts.a(const_20.o)
 .data          0x0000000000000000        0x0 build/libconsts.a(const_20.o)
 .bss           0x0000000000000000        0x0 build/libconsts.a(const_20.o)
 .text          0x0000000000000000        0x0 build/libconsts.a(const_gammaC20.o)
 .data          0x0000000000000000        0x0 build/libconsts.a(const_gammaC20.o)
 .bss           0x0000000000000000        0x0 build/libconsts.a(const_gammaC20.o)
 .text          0x0000000000000000        0x0 build/libconsts.a(const_400.o)
 .data          0x0000000000000000        0x0 build/libconsts.a(const_400.o)
 .bss           0x0000000000000000        0x0 build/libconsts.a(const_400.o)
 .text          0x0000000000000000        0x0 build/libconsts.a(const_gammaC07.o)
 .data          0x0000000000000000        0x0 build/libconsts.a(const_gammaC07.o)
 .bss           0x0000000000000000        0x0 build/libconsts.a(const_gammaC07.o)
 .text          0x0000000000000000        0x0 build/libconsts.a(const__0.o)
 .data          0x0000000000000000        0x0 build/libconsts.a(const__0.o)
 .bss           0x0000000000000000        0x0 build/libconsts.a(const__0.o)
 .text          0x0000000000000000        0x0 build/libconsts.a(const_0_4.o)
 .data          0x0000000000000000        0x0 build/libconsts.a(const_0_4.o)
 .bss           0x0000000000000000        0x0 build/libconsts.a(const_0_4.o)
 .text          0x0000000000000000        0x0 build/libconsts.a(const_1e_10000.o)
 .data          0x0000000000000000        0x0 build/libconsts.a(const_1e_10000.o)
 .bss           0x0000000000000000        0x0 build/libconsts.a(const_1e_10000.o)
 .text          0x0000000000000000        0x0 build/libconsts.a(const_gammaC12.o)
 .data          0x0000000000000000        0x0 build/libconsts.a(const_gammaC12.o)
 .bss           0x0000000000000000        0x0 build/libconsts.a(const_gammaC12.o)
 .text          0x0000000000000000        0x0 build/libconsts.a(const_2pow64.o)
 .data          0x0000000000000000        0x0 build/libconsts.a(const_2pow64.o)
 .bss           0x0000000000000000        0x0 build/libconsts.a(const_2pow64.o)
 .text          0x0000000000000000        0x0 build/libconsts.a(const_PIon2.o)
 .data          0x0000000000000000        0x0 build/libconsts.a(const_PIon2.o)
 .bss           0x0000000000000000        0x0 build/libconsts.a(const_PIon2.o)
 .text          0x0000000000000000        0x0 build/libconsts.a(const_gammaC04.o)
 .data          0x0000000000000000        0x0 build/libconsts.a(const_gammaC04.o)
 .bss           0x0000000000000000        0x0 build/libconsts.a(const_gammaC04.o)
 .text          0x0000000000000000        0x0 build/libconsts.a(const_90.o)
 .data          0x0000000000000000        0x0 build/libconsts.a(const_90.o)
 .bss           0x0000000000000000        0x0 build/libconsts.a(const_90.o)
 .text          0x0000000000000000        0x0 build/libconsts.a(const_gammaC17.o)
 .data          0x0000000000000000        0x0 build/libconsts.a(const_gammaC17.o)
 .bss           0x0000000000000000        0x0 build/libconsts.a(const_gammaC17.o)
 .text          0x0000000000000000        0x0 build/libconsts.a(const_gammaC02.o)
 .data          0x0000000000000000        0x0 build/libconsts.a(const_gammaC02.o)
 .bss           0x0000000000000000        0x0 build/libconsts.a(const_gammaC02.o)
 .text          0x0000000000000000        0x0 build/libconsts.a(const_PI.o)
 .data          0x0000000000000000        0x0 build/libconsts.a(const_PI.o)
 .bss           0x0000000000000000        0x0 build/libconsts.a(const_PI.o)
 .text          0x0000000000000000        0x0 build/libconsts.a(const_root2on2.o)
 .data          0x0000000000000000        0x0 build/libconsts.a(const_root2on2.o)
 .bss           0x0000000000000000        0x0 build/libconsts.a(const_root2on2.o)
 .text          0x0000000000000000        0x0 build/libconsts.a(const_100.o)
 .data          0x0000000000000000        0x0 build/libconsts.a(const_100.o)
 .bss           0x0000000000000000        0x0 build/libconsts.a(const_100.o)
 .text          0x0000000000000000        0x0 build/libconsts.a(const_0_1.o)
 .data          0x0000000000000000        0x0 build/libconsts.a(const_0_1.o)
 .bss           0x0000000000000000        0x0 build/libconsts.a(const_0_1.o)
 .text          0x0000000000000000        0x0 build/libdecNumber.a(decContext.o)
 .data          0x0000000000000000        0x0 build/libdecNumber.a(decContext.o)
 .bss           0x0000000000000000        0x0 build/libdecNumber.a(decContext.o)
 .text          0x0000000000000000        0x0 build/libdecNumber.a(decNumber.o)
 .data          0x0000000000000000        0x0 build/libdecNumber.a(decNumber.o)
 .bss           0x0000000000000000        0x0 build/libdecNumber.a(decNumber.o)
 .text          0x0000000000000000        0x0 build/libdecNumber.a(decimal128.o)
 .data          0x0000000000000000        0x0 build/libdecNumber.a(decimal128.o)
 .bss           0x0000000000000000        0x0 build/libdecNumber.a(decimal128.o)
 .text          0x0000000000000000        0x0 build/libdecNumber.a(decimal64.o)
 .data          0x0000000000000000        0x0 build/libdecNumber.a(decimal64.o)
 .bss           0x0000000000000000        0x0 build/libdecNumber.a(decimal64.o)
 .text.decimal64ToString
                0x0000000000000000       0x1c build/libdecNumber.a(decimal64.o)
 .text          0x0000000000000000       0x14 build/startup_pgm.o
 .data          0x0000000000000000        0x0 build/startup_pgm.o
 .bss           0x0000000000000000        0x0 build/startup_pgm.o
 .data          0x0000000000000000        0x0 /usr/lib/gcc/arm-none-eabi/9.2.1/thumb/v7e-m+fp/hard/libgcc.a(_aeabi_uldivmod.o)
 .bss           0x0000000000000000        0x0 /usr/lib/gcc/arm-none-eabi/9.2.1/thumb/v7e-m+fp/hard/libgcc.a(_aeabi_uldivmod.o)
 .data          0x0000000000000000        0x0 /usr/lib/gcc/arm-none-eabi/9.2.1/thumb/v7e-m+fp/hard/libgcc.a(_udivmoddi4.o)
 .bss           0x0000000000000000        0x0 /usr/lib/gcc/arm-none-eabi/9.2.1/thumb/v7e-m+fp/hard/libgcc.a(_udivmoddi4.o)
 .ARM.extab     0x0000000000000000        0x0 /usr/lib/gcc/arm-none-eabi/9.2.1/thumb/v7e-m+fp/hard/libgcc.a(_udivmoddi4.o)
 .data          0x0000000000000000        0x0 /usr/lib/gcc/arm-none-eabi/9.2.1/thumb/v7e-m+fp/hard/libgcc.a(_dvmd_tls.o)
 .bss           0x0000000000000000        0x0 /usr/lib/gcc/arm-none-eabi/9.2.1/thumb/v7e-m+fp/hard/libgcc.a(_dvmd_tls.o)
 .data          0x0000000000000000        0x0 /usr/lib/gcc/arm-none-eabi/9.2.1/../../../arm-none-eabi/lib/thumb/v7e-m+fp/hard/libc.a(lib_a-atexit.o)
 .bss           0x0000000000000000        0x0 /usr/lib/gcc/arm-none-eabi/9.2.1/../../../arm-none-eabi/lib/thumb/v7e-m+fp/hard/libc.a(lib_a-atexit.o)
 .data          0x0000000000000000        0x0 /usr/lib/gcc/arm-none-eabi/9.2.1/../../../arm-none-eabi/lib/thumb/v7e-m+fp/hard/libc.a(lib_a-errno.o)
 .bss           0x0000000000000000        0x0 /usr/lib/gcc/arm-none-eabi/9.2.1/../../../arm-none-eabi/lib/thumb/v7e-m+fp/hard/libc.a(lib_a-errno.o)
 .text          0x0000000000000000       0x20 /usr/lib/gcc/arm-none-eabi/9.2.1/../../../arm-none-eabi/lib/thumb/v7e-m+fp/hard/libc.a(lib_a-exit.o)
 .data          0x0000000000000000        0x0 /usr/lib/gcc/arm-none-eabi/9.2.1/../../../arm-none-eabi/lib/thumb/v7e-m+fp/hard/libc.a(lib_a-exit.o)
 .bss           0x0000000000000000        0x0 /usr/lib/gcc/arm-none-eabi/9.2.1/../../../arm-none-eabi/lib/thumb/v7e-m+fp/hard/libc.a(lib_a-exit.o)
 .debug_info    0x0000000000000000      0x9d0 /usr/lib/gcc/arm-none-eabi/9.2.1/../../../arm-none-eabi/lib/thumb/v7e-m+fp/hard/libc.a(lib_a-exit.o)
 .debug_abbrev  0x0000000000000000      0x21f /usr/lib/gcc/arm-none-eabi/9.2.1/../../../arm-none-eabi/lib/thumb/v7e-m+fp/hard/libc.a(lib_a-exit.o)
 .debug_loc     0x0000000000000000       0x22 /usr/lib/gcc/arm-none-eabi/9.2.1/../../../arm-none-eabi/lib/thumb/v7e-m+fp/hard/libc.a(lib_a-exit.o)
 .debug_aranges
                0x0000000000000000       0x20 /usr/lib/gcc/arm-none-eabi/9.2.1/../../../arm-none-eabi/lib/thumb/v7e-m+fp/hard/libc.a(lib_a-exit.o)
 .debug_line    0x0000000000000000      0x178 /usr/lib/gcc/arm-none-eabi/9.2.1/../../../arm-none-eabi/lib/thumb/v7e-m+fp/hard/libc.a(lib_a-exit.o)
 .debug_str     0x0000000000000000      0x5ec /usr/lib/gcc/arm-none-eabi/9.2.1/../../../arm-none-eabi/lib/thumb/v7e-m+fp/hard/libc.a(lib_a-exit.o)
 .comment       0x0000000000000000       0x4f /usr/lib/gcc/arm-none-eabi/9.2.1/../../../arm-none-eabi/lib/thumb/v7e-m+fp/hard/libc.a(lib_a-exit.o)
 .debug_frame   0x0000000000000000       0x28 /usr/lib/gcc/arm-none-eabi/9.2.1/../../../arm-none-eabi/lib/thumb/v7e-m+fp/hard/libc.a(lib_a-exit.o)
 .ARM.attributes
                0x0000000000000000       0x34 /usr/lib/gcc/arm-none-eabi/9.2.1/../../../arm-none-eabi/lib/thumb/v7e-m+fp/hard/libc.a(lib_a-exit.o)
 .data          0x0000000000000000        0x0 /usr/lib/gcc/arm-none-eabi/9.2.1/../../../arm-none-eabi/lib/thumb/v7e-m+fp/hard/libc.a(lib_a-fini.o)
 .bss           0x0000000000000000        0x0 /usr/lib/gcc/arm-none-eabi/9.2.1/../../../arm-none-eabi/lib/thumb/v7e-m+fp/hard/libc.a(lib_a-fini.o)
 .text          0x0000000000000000        0x0 /usr/lib/gcc/arm-none-eabi/9.2.1/../../../arm-none-eabi/lib/thumb/v7e-m+fp/hard/libc.a(lib_a-impure.o)
 .bss           0x0000000000000000        0x0 /usr/lib/gcc/arm-none-eabi/9.2.1/../../../arm-none-eabi/lib/thumb/v7e-m+fp/hard/libc.a(lib_a-impure.o)
 .data          0x0000000000000000        0x0 /usr/lib/gcc/arm-none-eabi/9.2.1/../../../arm-none-eabi/lib/thumb/v7e-m+fp/hard/libc.a(lib_a-init.o)
 .bss           0x0000000000000000        0x0 /usr/lib/gcc/arm-none-eabi/9.2.1/../../../arm-none-eabi/lib/thumb/v7e-m+fp/hard/libc.a(lib_a-init.o)
 .data          0x0000000000000000        0x0 /usr/lib/gcc/arm-none-eabi/9.2.1/../../../arm-none-eabi/lib/thumb/v7e-m+fp/hard/libc.a(lib_a-memset.o)
 .bss           0x0000000000000000        0x0 /usr/lib/gcc/arm-none-eabi/9.2.1/../../../arm-none-eabi/lib/thumb/v7e-m+fp/hard/libc.a(lib_a-memset.o)
 .data          0x0000000000000000        0x0 /usr/lib/gcc/arm-none-eabi/9.2.1/../../../arm-none-eabi/lib/thumb/v7e-m+fp/hard/libc.a(lib_a-perror.o)
 .bss           0x0000000000000000        0x0 /usr/lib/gcc/arm-none-eabi/9.2.1/../../../arm-none-eabi/lib/thumb/v7e-m+fp/hard/libc.a(lib_a-perror.o)
 .data          0x0000000000000000        0x0 /usr/lib/gcc/arm-none-eabi/9.2.1/../../../arm-none-eabi/lib/thumb/v7e-m+fp/hard/libc.a(lib_a-sprintf.o)
 .bss           0x0000000000000000        0x0 /usr/lib/gcc/arm-none-eabi/9.2.1/../../../arm-none-eabi/lib/thumb/v7e-m+fp/hard/libc.a(lib_a-sprintf.o)
 .text          0x0000000000000000       0xc8 /usr/lib/gcc/arm-none-eabi/9.2.1/../../../arm-none-eabi/lib/thumb/v7e-m+fp/hard/libc.a(lib_a-strchr.o)
 .data          0x0000000000000000        0x0 /usr/lib/gcc/arm-none-eabi/9.2.1/../../../arm-none-eabi/lib/thumb/v7e-m+fp/hard/libc.a(lib_a-strchr.o)
 .bss           0x0000000000000000        0x0 /usr/lib/gcc/arm-none-eabi/9.2.1/../../../arm-none-eabi/lib/thumb/v7e-m+fp/hard/libc.a(lib_a-strchr.o)
 .debug_info    0x0000000000000000      0x9b9 /usr/lib/gcc/arm-none-eabi/9.2.1/../../../arm-none-eabi/lib/thumb/v7e-m+fp/hard/libc.a(lib_a-strchr.o)
 .debug_abbrev  0x0000000000000000      0x1fc /usr/lib/gcc/arm-none-eabi/9.2.1/../../../arm-none-eabi/lib/thumb/v7e-m+fp/hard/libc.a(lib_a-strchr.o)
 .debug_loc     0x0000000000000000      0x25b /usr/lib/gcc/arm-none-eabi/9.2.1/../../../arm-none-eabi/lib/thumb/v7e-m+fp/hard/libc.a(lib_a-strchr.o)
 .debug_aranges
                0x0000000000000000       0x20 /usr/lib/gcc/arm-none-eabi/9.2.1/../../../arm-none-eabi/lib/thumb/v7e-m+fp/hard/libc.a(lib_a-strchr.o)
 .debug_line    0x0000000000000000      0x21f /usr/lib/gcc/arm-none-eabi/9.2.1/../../../arm-none-eabi/lib/thumb/v7e-m+fp/hard/libc.a(lib_a-strchr.o)
 .debug_str     0x0000000000000000      0x5af /usr/lib/gcc/arm-none-eabi/9.2.1/../../../arm-none-eabi/lib/thumb/v7e-m+fp/hard/libc.a(lib_a-strchr.o)
 .comment       0x0000000000000000       0x4f /usr/lib/gcc/arm-none-eabi/9.2.1/../../../arm-none-eabi/lib/thumb/v7e-m+fp/hard/libc.a(lib_a-strchr.o)
 .debug_frame   0x0000000000000000       0x30 /usr/lib/gcc/arm-none-eabi/9.2.1/../../../arm-none-eabi/lib/thumb/v7e-m+fp/hard/libc.a(lib_a-strchr.o)
 .ARM.attributes
                0x0000000000000000       0x34 /usr/lib/gcc/arm-none-eabi/9.2.1/../../../arm-none-eabi/lib/thumb/v7e-m+fp/hard/libc.a(lib_a-strchr.o)
 .text          0x0000000000000000       0xbc /usr/lib/gcc/arm-none-eabi/9.2.1/../../../arm-none-eabi/lib/thumb/v7e-m+fp/hard/libc.a(lib_a-strcpy.o)
 .data          0x0000000000000000        0x0 /usr/lib/gcc/arm-none-eabi/9.2.1/../../../arm-none-eabi/lib/thumb/v7e-m+fp/hard/libc.a(lib_a-strcpy.o)
 .bss           0x0000000000000000        0x0 /usr/lib/gcc/arm-none-eabi/9.2.1/../../../arm-none-eabi/lib/thumb/v7e-m+fp/hard/libc.a(lib_a-strcpy.o)
 .debug_info    0x0000000000000000      0x943 /usr/lib/gcc/arm-none-eabi/9.2.1/../../../arm-none-eabi/lib/thumb/v7e-m+fp/hard/libc.a(lib_a-strcpy.o)
 .debug_abbrev  0x0000000000000000      0x1e3 /usr/lib/gcc/arm-none-eabi/9.2.1/../../../arm-none-eabi/lib/thumb/v7e-m+fp/hard/libc.a(lib_a-strcpy.o)
 .debug_loc     0x0000000000000000       0x25 /usr/lib/gcc/arm-none-eabi/9.2.1/../../../arm-none-eabi/lib/thumb/v7e-m+fp/hard/libc.a(lib_a-strcpy.o)
 .debug_aranges
                0x0000000000000000       0x20 /usr/lib/gcc/arm-none-eabi/9.2.1/../../../arm-none-eabi/lib/thumb/v7e-m+fp/hard/libc.a(lib_a-strcpy.o)
 .debug_ranges  0x0000000000000000       0x10 /usr/lib/gcc/arm-none-eabi/9.2.1/../../../arm-none-eabi/lib/thumb/v7e-m+fp/hard/libc.a(lib_a-strcpy.o)
 .debug_line    0x0000000000000000      0x149 /usr/lib/gcc/arm-none-eabi/9.2.1/../../../arm-none-eabi/lib/thumb/v7e-m+fp/hard/libc.a(lib_a-strcpy.o)
 .debug_str     0x0000000000000000      0x5aa /usr/lib/gcc/arm-none-eabi/9.2.1/../../../arm-none-eabi/lib/thumb/v7e-m+fp/hard/libc.a(lib_a-strcpy.o)
 .comment       0x0000000000000000       0x4f /usr/lib/gcc/arm-none-eabi/9.2.1/../../../arm-none-eabi/lib/thumb/v7e-m+fp/hard/libc.a(lib_a-strcpy.o)
 .debug_frame   0x0000000000000000       0x20 /usr/lib/gcc/arm-none-eabi/9.2.1/../../../arm-none-eabi/lib/thumb/v7e-m+fp/hard/libc.a(lib_a-strcpy.o)
 .ARM.attributes
                0x0000000000000000       0x34 /usr/lib/gcc/arm-none-eabi/9.2.1/../../../arm-none-eabi/lib/thumb/v7e-m+fp/hard/libc.a(lib_a-strcpy.o)
 .text          0x0000000000000000       0x10 /usr/lib/gcc/arm-none-eabi/9.2.1/../../../arm-none-eabi/lib/thumb/v7e-m+fp/hard/libc.a(lib_a-strdup.o)
 .data          0x0000000000000000        0x0 /usr/lib/gcc/arm-none-eabi/9.2.1/../../../arm-none-eabi/lib/thumb/v7e-m+fp/hard/libc.a(lib_a-strdup.o)
 .bss           0x0000000000000000        0x0 /usr/lib/gcc/arm-none-eabi/9.2.1/../../../arm-none-eabi/lib/thumb/v7e-m+fp/hard/libc.a(lib_a-strdup.o)
 .debug_info    0x0000000000000000      0x962 /usr/lib/gcc/arm-none-eabi/9.2.1/../../../arm-none-eabi/lib/thumb/v7e-m+fp/hard/libc.a(lib_a-strdup.o)
 .debug_abbrev  0x0000000000000000      0x214 /usr/lib/gcc/arm-none-eabi/9.2.1/../../../arm-none-eabi/lib/thumb/v7e-m+fp/hard/libc.a(lib_a-strdup.o)
 .debug_loc     0x0000000000000000       0x32 /usr/lib/gcc/arm-none-eabi/9.2.1/../../../arm-none-eabi/lib/thumb/v7e-m+fp/hard/libc.a(lib_a-strdup.o)
 .debug_aranges
                0x0000000000000000       0x20 /usr/lib/gcc/arm-none-eabi/9.2.1/../../../arm-none-eabi/lib/thumb/v7e-m+fp/hard/libc.a(lib_a-strdup.o)
 .debug_line    0x0000000000000000      0x14a /usr/lib/gcc/arm-none-eabi/9.2.1/../../../arm-none-eabi/lib/thumb/v7e-m+fp/hard/libc.a(lib_a-strdup.o)
 .debug_str     0x0000000000000000      0x5b1 /usr/lib/gcc/arm-none-eabi/9.2.1/../../../arm-none-eabi/lib/thumb/v7e-m+fp/hard/libc.a(lib_a-strdup.o)
 .comment       0x0000000000000000       0x4f /usr/lib/gcc/arm-none-eabi/9.2.1/../../../arm-none-eabi/lib/thumb/v7e-m+fp/hard/libc.a(lib_a-strdup.o)
 .debug_frame   0x0000000000000000       0x20 /usr/lib/gcc/arm-none-eabi/9.2.1/../../../arm-none-eabi/lib/thumb/v7e-m+fp/hard/libc.a(lib_a-strdup.o)
 .ARM.attributes
                0x0000000000000000       0x34 /usr/lib/gcc/arm-none-eabi/9.2.1/../../../arm-none-eabi/lib/thumb/v7e-m+fp/hard/libc.a(lib_a-strdup.o)
 .text          0x0000000000000000       0x28 /usr/lib/gcc/arm-none-eabi/9.2.1/../../../arm-none-eabi/lib/thumb/v7e-m+fp/hard/libc.a(lib_a-strdup_r.o)
 .data          0x0000000000000000        0x0 /usr/lib/gcc/arm-none-eabi/9.2.1/../../../arm-none-eabi/lib/thumb/v7e-m+fp/hard/libc.a(lib_a-strdup_r.o)
 .bss           0x0000000000000000        0x0 /usr/lib/gcc/arm-none-eabi/9.2.1/../../../arm-none-eabi/lib/thumb/v7e-m+fp/hard/libc.a(lib_a-strdup_r.o)
 .debug_info    0x0000000000000000      0x9fc /usr/lib/gcc/arm-none-eabi/9.2.1/../../../arm-none-eabi/lib/thumb/v7e-m+fp/hard/libc.a(lib_a-strdup_r.o)
 .debug_abbrev  0x0000000000000000      0x26d /usr/lib/gcc/arm-none-eabi/9.2.1/../../../arm-none-eabi/lib/thumb/v7e-m+fp/hard/libc.a(lib_a-strdup_r.o)
 .debug_loc     0x0000000000000000       0x8b /usr/lib/gcc/arm-none-eabi/9.2.1/../../../arm-none-eabi/lib/thumb/v7e-m+fp/hard/libc.a(lib_a-strdup_r.o)
 .debug_aranges
                0x0000000000000000       0x20 /usr/lib/gcc/arm-none-eabi/9.2.1/../../../arm-none-eabi/lib/thumb/v7e-m+fp/hard/libc.a(lib_a-strdup_r.o)
 .debug_line    0x0000000000000000      0x172 /usr/lib/gcc/arm-none-eabi/9.2.1/../../../arm-none-eabi/lib/thumb/v7e-m+fp/hard/libc.a(lib_a-strdup_r.o)
 .debug_str     0x0000000000000000      0x5da /usr/lib/gcc/arm-none-eabi/9.2.1/../../../arm-none-eabi/lib/thumb/v7e-m+fp/hard/libc.a(lib_a-strdup_r.o)
 .comment       0x0000000000000000       0x4f /usr/lib/gcc/arm-none-eabi/9.2.1/../../../arm-none-eabi/lib/thumb/v7e-m+fp/hard/libc.a(lib_a-strdup_r.o)
 .debug_frame   0x0000000000000000       0x2c /usr/lib/gcc/arm-none-eabi/9.2.1/../../../arm-none-eabi/lib/thumb/v7e-m+fp/hard/libc.a(lib_a-strdup_r.o)
 .ARM.attributes
                0x0000000000000000       0x34 /usr/lib/gcc/arm-none-eabi/9.2.1/../../../arm-none-eabi/lib/thumb/v7e-m+fp/hard/libc.a(lib_a-strdup_r.o)
 .data          0x0000000000000000        0x0 /usr/lib/gcc/arm-none-eabi/9.2.1/../../../arm-none-eabi/lib/thumb/v7e-m+fp/hard/libc.a(lib_a-strerror.o)
 .bss           0x0000000000000000        0x0 /usr/lib/gcc/arm-none-eabi/9.2.1/../../../arm-none-eabi/lib/thumb/v7e-m+fp/hard/libc.a(lib_a-strerror.o)
 .data          0x0000000000000000        0x0 /usr/lib/gcc/arm-none-eabi/9.2.1/../../../arm-none-eabi/lib/thumb/v7e-m+fp/hard/libc.a(lib_a-strlen.o)
 .bss           0x0000000000000000        0x0 /usr/lib/gcc/arm-none-eabi/9.2.1/../../../arm-none-eabi/lib/thumb/v7e-m+fp/hard/libc.a(lib_a-strlen.o)
 .data          0x0000000000000000        0x0 /usr/lib/gcc/arm-none-eabi/9.2.1/../../../arm-none-eabi/lib/thumb/v7e-m+fp/hard/libc.a(lib_a-strncpy.o)
 .bss           0x0000000000000000        0x0 /usr/lib/gcc/arm-none-eabi/9.2.1/../../../arm-none-eabi/lib/thumb/v7e-m+fp/hard/libc.a(lib_a-strncpy.o)
 .text          0x0000000000000000       0x10 /usr/lib/gcc/arm-none-eabi/9.2.1/../../../arm-none-eabi/lib/thumb/v7e-m+fp/hard/libc.a(lib_a-strtok.o)
 .data          0x0000000000000000        0x0 /usr/lib/gcc/arm-none-eabi/9.2.1/../../../arm-none-eabi/lib/thumb/v7e-m+fp/hard/libc.a(lib_a-strtok.o)
 .bss           0x0000000000000000        0x0 /usr/lib/gcc/arm-none-eabi/9.2.1/../../../arm-none-eabi/lib/thumb/v7e-m+fp/hard/libc.a(lib_a-strtok.o)
 .debug_info    0x0000000000000000      0x99e /usr/lib/gcc/arm-none-eabi/9.2.1/../../../arm-none-eabi/lib/thumb/v7e-m+fp/hard/libc.a(lib_a-strtok.o)
 .debug_abbrev  0x0000000000000000      0x243 /usr/lib/gcc/arm-none-eabi/9.2.1/../../../arm-none-eabi/lib/thumb/v7e-m+fp/hard/libc.a(lib_a-strtok.o)
 .debug_loc     0x0000000000000000       0x6d /usr/lib/gcc/arm-none-eabi/9.2.1/../../../arm-none-eabi/lib/thumb/v7e-m+fp/hard/libc.a(lib_a-strtok.o)
 .debug_aranges
                0x0000000000000000       0x20 /usr/lib/gcc/arm-none-eabi/9.2.1/../../../arm-none-eabi/lib/thumb/v7e-m+fp/hard/libc.a(lib_a-strtok.o)
 .debug_line    0x0000000000000000      0x157 /usr/lib/gcc/arm-none-eabi/9.2.1/../../../arm-none-eabi/lib/thumb/v7e-m+fp/hard/libc.a(lib_a-strtok.o)
 .debug_str     0x0000000000000000      0x5be /usr/lib/gcc/arm-none-eabi/9.2.1/../../../arm-none-eabi/lib/thumb/v7e-m+fp/hard/libc.a(lib_a-strtok.o)
 .comment       0x0000000000000000       0x4f /usr/lib/gcc/arm-none-eabi/9.2.1/../../../arm-none-eabi/lib/thumb/v7e-m+fp/hard/libc.a(lib_a-strtok.o)
 .debug_frame   0x0000000000000000       0x20 /usr/lib/gcc/arm-none-eabi/9.2.1/../../../arm-none-eabi/lib/thumb/v7e-m+fp/hard/libc.a(lib_a-strtok.o)
 .ARM.attributes
                0x0000000000000000       0x34 /usr/lib/gcc/arm-none-eabi/9.2.1/../../../arm-none-eabi/lib/thumb/v7e-m+fp/hard/libc.a(lib_a-strtok.o)
 .text          0x0000000000000000       0x70 /usr/lib/gcc/arm-none-eabi/9.2.1/../../../arm-none-eabi/lib/thumb/v7e-m+fp/hard/libc.a(lib_a-strtok_r.o)
 .data          0x0000000000000000        0x0 /usr/lib/gcc/arm-none-eabi/9.2.1/../../../arm-none-eabi/lib/thumb/v7e-m+fp/hard/libc.a(lib_a-strtok_r.o)
 .bss           0x0000000000000000        0x0 /usr/lib/gcc/arm-none-eabi/9.2.1/../../../arm-none-eabi/lib/thumb/v7e-m+fp/hard/libc.a(lib_a-strtok_r.o)
 .debug_info    0x0000000000000000      0xa30 /usr/lib/gcc/arm-none-eabi/9.2.1/../../../arm-none-eabi/lib/thumb/v7e-m+fp/hard/libc.a(lib_a-strtok_r.o)
 .debug_abbrev  0x0000000000000000      0x27a /usr/lib/gcc/arm-none-eabi/9.2.1/../../../arm-none-eabi/lib/thumb/v7e-m+fp/hard/libc.a(lib_a-strtok_r.o)
 .debug_loc     0x0000000000000000      0x2a9 /usr/lib/gcc/arm-none-eabi/9.2.1/../../../arm-none-eabi/lib/thumb/v7e-m+fp/hard/libc.a(lib_a-strtok_r.o)
 .debug_aranges
                0x0000000000000000       0x20 /usr/lib/gcc/arm-none-eabi/9.2.1/../../../arm-none-eabi/lib/thumb/v7e-m+fp/hard/libc.a(lib_a-strtok_r.o)
 .debug_line    0x0000000000000000      0x23a /usr/lib/gcc/arm-none-eabi/9.2.1/../../../arm-none-eabi/lib/thumb/v7e-m+fp/hard/libc.a(lib_a-strtok_r.o)
 .debug_str     0x0000000000000000      0x5d6 /usr/lib/gcc/arm-none-eabi/9.2.1/../../../arm-none-eabi/lib/thumb/v7e-m+fp/hard/libc.a(lib_a-strtok_r.o)
 .comment       0x0000000000000000       0x4f /usr/lib/gcc/arm-none-eabi/9.2.1/../../../arm-none-eabi/lib/thumb/v7e-m+fp/hard/libc.a(lib_a-strtok_r.o)
 .debug_frame   0x0000000000000000       0x50 /usr/lib/gcc/arm-none-eabi/9.2.1/../../../arm-none-eabi/lib/thumb/v7e-m+fp/hard/libc.a(lib_a-strtok_r.o)
 .ARM.attributes
                0x0000000000000000       0x34 /usr/lib/gcc/arm-none-eabi/9.2.1/../../../arm-none-eabi/lib/thumb/v7e-m+fp/hard/libc.a(lib_a-strtok_r.o)
 .text          0x0000000000000000      0x1f8 /usr/lib/gcc/arm-none-eabi/9.2.1/../../../arm-none-eabi/lib/thumb/v7e-m+fp/hard/libc.a(lib_a-strtoull.o)
 .data          0x0000000000000000        0x0 /usr/lib/gcc/arm-none-eabi/9.2.1/../../../arm-none-eabi/lib/thumb/v7e-m+fp/hard/libc.a(lib_a-strtoull.o)
 .bss           0x0000000000000000        0x0 /usr/lib/gcc/arm-none-eabi/9.2.1/../../../arm-none-eabi/lib/thumb/v7e-m+fp/hard/libc.a(lib_a-strtoull.o)
 .debug_info    0x0000000000000000     0x11f0 /usr/lib/gcc/arm-none-eabi/9.2.1/../../../arm-none-eabi/lib/thumb/v7e-m+fp/hard/libc.a(lib_a-strtoull.o)
 .debug_abbrev  0x0000000000000000      0x2e8 /usr/lib/gcc/arm-none-eabi/9.2.1/../../../arm-none-eabi/lib/thumb/v7e-m+fp/hard/libc.a(lib_a-strtoull.o)
 .debug_loc     0x0000000000000000      0x5f6 /usr/lib/gcc/arm-none-eabi/9.2.1/../../../arm-none-eabi/lib/thumb/v7e-m+fp/hard/libc.a(lib_a-strtoull.o)
 .debug_aranges
                0x0000000000000000       0x20 /usr/lib/gcc/arm-none-eabi/9.2.1/../../../arm-none-eabi/lib/thumb/v7e-m+fp/hard/libc.a(lib_a-strtoull.o)
 .debug_line    0x0000000000000000      0x393 /usr/lib/gcc/arm-none-eabi/9.2.1/../../../arm-none-eabi/lib/thumb/v7e-m+fp/hard/libc.a(lib_a-strtoull.o)
 .debug_str     0x0000000000000000      0x965 /usr/lib/gcc/arm-none-eabi/9.2.1/../../../arm-none-eabi/lib/thumb/v7e-m+fp/hard/libc.a(lib_a-strtoull.o)
 .comment       0x0000000000000000       0x4f /usr/lib/gcc/arm-none-eabi/9.2.1/../../../arm-none-eabi/lib/thumb/v7e-m+fp/hard/libc.a(lib_a-strtoull.o)
 .debug_frame   0x0000000000000000       0x88 /usr/lib/gcc/arm-none-eabi/9.2.1/../../../arm-none-eabi/lib/thumb/v7e-m+fp/hard/libc.a(lib_a-strtoull.o)
 .ARM.attributes
                0x0000000000000000       0x34 /usr/lib/gcc/arm-none-eabi/9.2.1/../../../arm-none-eabi/lib/thumb/v7e-m+fp/hard/libc.a(lib_a-strtoull.o)
 .data          0x0000000000000000        0x0 /usr/lib/gcc/arm-none-eabi/9.2.1/../../../arm-none-eabi/lib/thumb/v7e-m+fp/hard/libc.a(lib_a-svfprintf.o)
 .bss           0x0000000000000000        0x0 /usr/lib/gcc/arm-none-eabi/9.2.1/../../../arm-none-eabi/lib/thumb/v7e-m+fp/hard/libc.a(lib_a-svfprintf.o)
 .data          0x0000000000000000        0x0 /usr/lib/gcc/arm-none-eabi/9.2.1/../../../arm-none-eabi/lib/thumb/v7e-m+fp/hard/libc.a(lib_a-u_strerr.o)
 .bss           0x0000000000000000        0x0 /usr/lib/gcc/arm-none-eabi/9.2.1/../../../arm-none-eabi/lib/thumb/v7e-m+fp/hard/libc.a(lib_a-u_strerr.o)
 .data          0x0000000000000000        0x0 /usr/lib/gcc/arm-none-eabi/9.2.1/../../../arm-none-eabi/lib/thumb/v7e-m+fp/hard/libc.a(lib_a-writer.o)
 .bss           0x0000000000000000        0x0 /usr/lib/gcc/arm-none-eabi/9.2.1/../../../arm-none-eabi/lib/thumb/v7e-m+fp/hard/libc.a(lib_a-writer.o)
 .data          0x0000000000000000        0x0 /usr/lib/gcc/arm-none-eabi/9.2.1/../../../arm-none-eabi/lib/thumb/v7e-m+fp/hard/libc.a(lib_a-__atexit.o)
 .bss           0x0000000000000000        0x0 /usr/lib/gcc/arm-none-eabi/9.2.1/../../../arm-none-eabi/lib/thumb/v7e-m+fp/hard/libc.a(lib_a-__atexit.o)
 .text          0x0000000000000000       0x9c /usr/lib/gcc/arm-none-eabi/9.2.1/../../../arm-none-eabi/lib/thumb/v7e-m+fp/hard/libc.a(lib_a-__call_atexit.o)
 .data          0x0000000000000000        0x0 /usr/lib/gcc/arm-none-eabi/9.2.1/../../../arm-none-eabi/lib/thumb/v7e-m+fp/hard/libc.a(lib_a-__call_atexit.o)
 .bss           0x0000000000000000        0x0 /usr/lib/gcc/arm-none-eabi/9.2.1/../../../arm-none-eabi/lib/thumb/v7e-m+fp/hard/libc.a(lib_a-__call_atexit.o)
 .text          0x0000000000000000        0x0 /usr/lib/gcc/arm-none-eabi/9.2.1/../../../arm-none-eabi/lib/thumb/v7e-m+fp/hard/libc.a(lib_a-ctype_.o)
 .data          0x0000000000000000        0x0 /usr/lib/gcc/arm-none-eabi/9.2.1/../../../arm-none-eabi/lib/thumb/v7e-m+fp/hard/libc.a(lib_a-ctype_.o)
 .bss           0x0000000000000000        0x0 /usr/lib/gcc/arm-none-eabi/9.2.1/../../../arm-none-eabi/lib/thumb/v7e-m+fp/hard/libc.a(lib_a-ctype_.o)
 .data          0x0000000000000000        0x0 /usr/lib/gcc/arm-none-eabi/9.2.1/../../../arm-none-eabi/lib/thumb/v7e-m+fp/hard/libc.a(lib_a-dtoa.o)
 .bss           0x0000000000000000        0x0 /usr/lib/gcc/arm-none-eabi/9.2.1/../../../arm-none-eabi/lib/thumb/v7e-m+fp/hard/libc.a(lib_a-dtoa.o)
 .data          0x0000000000000000        0x0 /usr/lib/gcc/arm-none-eabi/9.2.1/../../../arm-none-eabi/lib/thumb/v7e-m+fp/hard/libc.a(lib_a-fflush.o)
 .bss           0x0000000000000000        0x0 /usr/lib/gcc/arm-none-eabi/9.2.1/../../../arm-none-eabi/lib/thumb/v7e-m+fp/hard/libc.a(lib_a-fflush.o)
 .data          0x0000000000000000        0x0 /usr/lib/gcc/arm-none-eabi/9.2.1/../../../arm-none-eabi/lib/thumb/v7e-m+fp/hard/libc.a(lib_a-fileno.o)
 .bss           0x0000000000000000        0x0 /usr/lib/gcc/arm-none-eabi/9.2.1/../../../arm-none-eabi/lib/thumb/v7e-m+fp/hard/libc.a(lib_a-fileno.o)
 .data          0x0000000000000000        0x0 /usr/lib/gcc/arm-none-eabi/9.2.1/../../../arm-none-eabi/lib/thumb/v7e-m+fp/hard/libc.a(lib_a-findfp.o)
 .bss           0x0000000000000000        0x0 /usr/lib/gcc/arm-none-eabi/9.2.1/../../../arm-none-eabi/lib/thumb/v7e-m+fp/hard/libc.a(lib_a-findfp.o)
 .data          0x0000000000000000        0x0 /usr/lib/gcc/arm-none-eabi/9.2.1/../../../arm-none-eabi/lib/thumb/v7e-m+fp/hard/libc.a(lib_a-fwalk.o)
 .bss           0x0000000000000000        0x0 /usr/lib/gcc/arm-none-eabi/9.2.1/../../../arm-none-eabi/lib/thumb/v7e-m+fp/hard/libc.a(lib_a-fwalk.o)
 .data          0x0000000000000000        0x0 /usr/lib/gcc/arm-none-eabi/9.2.1/../../../arm-none-eabi/lib/thumb/v7e-m+fp/hard/libc.a(lib_a-localeconv.o)
 .bss           0x0000000000000000        0x0 /usr/lib/gcc/arm-none-eabi/9.2.1/../../../arm-none-eabi/lib/thumb/v7e-m+fp/hard/libc.a(lib_a-localeconv.o)
 .data          0x0000000000000000        0x0 /usr/lib/gcc/arm-none-eabi/9.2.1/../../../arm-none-eabi/lib/thumb/v7e-m+fp/hard/libc.a(lib_a-memchr.o)
 .bss           0x0000000000000000        0x0 /usr/lib/gcc/arm-none-eabi/9.2.1/../../../arm-none-eabi/lib/thumb/v7e-m+fp/hard/libc.a(lib_a-memchr.o)
 .data          0x0000000000000000        0x0 /usr/lib/gcc/arm-none-eabi/9.2.1/../../../arm-none-eabi/lib/thumb/v7e-m+fp/hard/libc.a(lib_a-memcpy.o)
 .bss           0x0000000000000000        0x0 /usr/lib/gcc/arm-none-eabi/9.2.1/../../../arm-none-eabi/lib/thumb/v7e-m+fp/hard/libc.a(lib_a-memcpy.o)
 .data          0x0000000000000000        0x0 /usr/lib/gcc/arm-none-eabi/9.2.1/../../../arm-none-eabi/lib/thumb/v7e-m+fp/hard/libc.a(lib_a-mprec.o)
 .bss           0x0000000000000000        0x0 /usr/lib/gcc/arm-none-eabi/9.2.1/../../../arm-none-eabi/lib/thumb/v7e-m+fp/hard/libc.a(lib_a-mprec.o)
 .text          0x0000000000000000       0xa4 /usr/lib/gcc/arm-none-eabi/9.2.1/../../../arm-none-eabi/lib/thumb/v7e-m+fp/hard/libc.a(lib_a-reent.o)
 .data          0x0000000000000000        0x0 /usr/lib/gcc/arm-none-eabi/9.2.1/../../../arm-none-eabi/lib/thumb/v7e-m+fp/hard/libc.a(lib_a-reent.o)
 .bss           0x0000000000000000        0x0 /usr/lib/gcc/arm-none-eabi/9.2.1/../../../arm-none-eabi/lib/thumb/v7e-m+fp/hard/libc.a(lib_a-reent.o)
 .data          0x0000000000000000        0x0 /usr/lib/gcc/arm-none-eabi/9.2.1/../../../arm-none-eabi/lib/thumb/v7e-m+fp/hard/libc.a(lib_a-stdio.o)
 .bss           0x0000000000000000        0x0 /usr/lib/gcc/arm-none-eabi/9.2.1/../../../arm-none-eabi/lib/thumb/v7e-m+fp/hard/libc.a(lib_a-stdio.o)
 .data          0x0000000000000000        0x0 /usr/lib/gcc/arm-none-eabi/9.2.1/../../../arm-none-eabi/lib/thumb/v7e-m+fp/hard/libc.a(lib_a-svfiprintf.o)
 .bss           0x0000000000000000        0x0 /usr/lib/gcc/arm-none-eabi/9.2.1/../../../arm-none-eabi/lib/thumb/v7e-m+fp/hard/libc.a(lib_a-svfiprintf.o)
 .data          0x0000000000000000        0x0 /usr/lib/gcc/arm-none-eabi/9.2.1/../../../arm-none-eabi/lib/thumb/v7e-m+fp/hard/libc.a(lib_a-assert.o)
 .bss           0x0000000000000000        0x0 /usr/lib/gcc/arm-none-eabi/9.2.1/../../../arm-none-eabi/lib/thumb/v7e-m+fp/hard/libc.a(lib_a-assert.o)
 .data          0x0000000000000000        0x0 /usr/lib/gcc/arm-none-eabi/9.2.1/../../../arm-none-eabi/lib/thumb/v7e-m+fp/hard/libc.a(lib_a-closer.o)
 .bss           0x0000000000000000        0x0 /usr/lib/gcc/arm-none-eabi/9.2.1/../../../arm-none-eabi/lib/thumb/v7e-m+fp/hard/libc.a(lib_a-closer.o)
 .data          0x0000000000000000        0x0 /usr/lib/gcc/arm-none-eabi/9.2.1/../../../arm-none-eabi/lib/thumb/v7e-m+fp/hard/libc.a(lib_a-fclose.o)
 .bss           0x0000000000000000        0x0 /usr/lib/gcc/arm-none-eabi/9.2.1/../../../arm-none-eabi/lib/thumb/v7e-m+fp/hard/libc.a(lib_a-fclose.o)
 .data          0x0000000000000000        0x0 /usr/lib/gcc/arm-none-eabi/9.2.1/../../../arm-none-eabi/lib/thumb/v7e-m+fp/hard/libc.a(lib_a-fiprintf.o)
 .bss           0x0000000000000000        0x0 /usr/lib/gcc/arm-none-eabi/9.2.1/../../../arm-none-eabi/lib/thumb/v7e-m+fp/hard/libc.a(lib_a-fiprintf.o)
 .bss           0x0000000000000000        0x4 /usr/lib/gcc/arm-none-eabi/9.2.1/../../../arm-none-eabi/lib/thumb/v7e-m+fp/hard/libc.a(lib_a-locale.o)
 .data          0x0000000000000000        0x0 /usr/lib/gcc/arm-none-eabi/9.2.1/../../../arm-none-eabi/lib/thumb/v7e-m+fp/hard/libc.a(lib_a-lseekr.o)
 .bss           0x0000000000000000        0x0 /usr/lib/gcc/arm-none-eabi/9.2.1/../../../arm-none-eabi/lib/thumb/v7e-m+fp/hard/libc.a(lib_a-lseekr.o)
 .data          0x0000000000000000        0x0 /usr/lib/gcc/arm-none-eabi/9.2.1/../../../arm-none-eabi/lib/thumb/v7e-m+fp/hard/libc.a(lib_a-mbtowc_r.o)
 .bss           0x0000000000000000        0x0 /usr/lib/gcc/arm-none-eabi/9.2.1/../../../arm-none-eabi/lib/thumb/v7e-m+fp/hard/libc.a(lib_a-mbtowc_r.o)
 .data          0x0000000000000000        0x0 /usr/lib/gcc/arm-none-eabi/9.2.1/../../../arm-none-eabi/lib/thumb/v7e-m+fp/hard/libc.a(lib_a-memmove.o)
 .bss           0x0000000000000000        0x0 /usr/lib/gcc/arm-none-eabi/9.2.1/../../../arm-none-eabi/lib/thumb/v7e-m+fp/hard/libc.a(lib_a-memmove.o)
 .data          0x0000000000000000        0x0 /usr/lib/gcc/arm-none-eabi/9.2.1/../../../arm-none-eabi/lib/thumb/v7e-m+fp/hard/libc.a(lib_a-readr.o)
 .bss           0x0000000000000000        0x0 /usr/lib/gcc/arm-none-eabi/9.2.1/../../../arm-none-eabi/lib/thumb/v7e-m+fp/hard/libc.a(lib_a-readr.o)
 .data          0x0000000000000000        0x0 /usr/lib/gcc/arm-none-eabi/9.2.1/../../../arm-none-eabi/lib/thumb/v7e-m+fp/hard/libc.a(lib_a-strcmp.o)
 .bss           0x0000000000000000        0x0 /usr/lib/gcc/arm-none-eabi/9.2.1/../../../arm-none-eabi/lib/thumb/v7e-m+fp/hard/libc.a(lib_a-strcmp.o)
 .data          0x0000000000000000        0x0 /usr/lib/gcc/arm-none-eabi/9.2.1/../../../arm-none-eabi/lib/thumb/v7e-m+fp/hard/libc.a(lib_a-vfiprintf.o)
 .bss           0x0000000000000000        0x0 /usr/lib/gcc/arm-none-eabi/9.2.1/../../../arm-none-eabi/lib/thumb/v7e-m+fp/hard/libc.a(lib_a-vfiprintf.o)
 .data          0x0000000000000000        0x0 /usr/lib/gcc/arm-none-eabi/9.2.1/../../../arm-none-eabi/lib/thumb/v7e-m+fp/hard/libc.a(lib_a-wctomb_r.o)
 .bss           0x0000000000000000        0x0 /usr/lib/gcc/arm-none-eabi/9.2.1/../../../arm-none-eabi/lib/thumb/v7e-m+fp/hard/libc.a(lib_a-wctomb_r.o)
 .data          0x0000000000000000        0x0 /usr/lib/gcc/arm-none-eabi/9.2.1/../../../arm-none-eabi/lib/thumb/v7e-m+fp/hard/libc.a(lib_a-wsetup.o)
 .bss           0x0000000000000000        0x0 /usr/lib/gcc/arm-none-eabi/9.2.1/../../../arm-none-eabi/lib/thumb/v7e-m+fp/hard/libc.a(lib_a-wsetup.o)
 .data          0x0000000000000000        0x0 /usr/lib/gcc/arm-none-eabi/9.2.1/../../../arm-none-eabi/lib/thumb/v7e-m+fp/hard/libc.a(lib_a-abort.o)
 .bss           0x0000000000000000        0x0 /usr/lib/gcc/arm-none-eabi/9.2.1/../../../arm-none-eabi/lib/thumb/v7e-m+fp/hard/libc.a(lib_a-abort.o)
 .data          0x0000000000000000        0x0 /usr/lib/gcc/arm-none-eabi/9.2.1/../../../arm-none-eabi/lib/thumb/v7e-m+fp/hard/libc.a(lib_a-fputwc.o)
 .bss           0x0000000000000000        0x0 /usr/lib/gcc/arm-none-eabi/9.2.1/../../../arm-none-eabi/lib/thumb/v7e-m+fp/hard/libc.a(lib_a-fputwc.o)
 .data          0x0000000000000000        0x0 /usr/lib/gcc/arm-none-eabi/9.2.1/../../../arm-none-eabi/lib/thumb/v7e-m+fp/hard/libc.a(lib_a-fvwrite.o)
 .bss           0x0000000000000000        0x0 /usr/lib/gcc/arm-none-eabi/9.2.1/../../../arm-none-eabi/lib/thumb/v7e-m+fp/hard/libc.a(lib_a-fvwrite.o)
 .data          0x0000000000000000        0x0 /usr/lib/gcc/arm-none-eabi/9.2.1/../../../arm-none-eabi/lib/thumb/v7e-m+fp/hard/libc.a(lib_a-makebuf.o)
 .bss           0x0000000000000000        0x0 /usr/lib/gcc/arm-none-eabi/9.2.1/../../../arm-none-eabi/lib/thumb/v7e-m+fp/hard/libc.a(lib_a-makebuf.o)
 .data          0x0000000000000000        0x0 /usr/lib/gcc/arm-none-eabi/9.2.1/../../../arm-none-eabi/lib/thumb/v7e-m+fp/hard/libc.a(lib_a-signal.o)
 .bss           0x0000000000000000        0x0 /usr/lib/gcc/arm-none-eabi/9.2.1/../../../arm-none-eabi/lib/thumb/v7e-m+fp/hard/libc.a(lib_a-signal.o)
 .data          0x0000000000000000        0x0 /usr/lib/gcc/arm-none-eabi/9.2.1/../../../arm-none-eabi/lib/thumb/v7e-m+fp/hard/libc.a(lib_a-signalr.o)
 .bss           0x0000000000000000        0x0 /usr/lib/gcc/arm-none-eabi/9.2.1/../../../arm-none-eabi/lib/thumb/v7e-m+fp/hard/libc.a(lib_a-signalr.o)
 .data          0x0000000000000000        0x0 /usr/lib/gcc/arm-none-eabi/9.2.1/../../../arm-none-eabi/lib/thumb/v7e-m+fp/hard/libc.a(lib_a-wbuf.o)
 .bss           0x0000000000000000        0x0 /usr/lib/gcc/arm-none-eabi/9.2.1/../../../arm-none-eabi/lib/thumb/v7e-m+fp/hard/libc.a(lib_a-wbuf.o)
 .data          0x0000000000000000        0x0 /usr/lib/gcc/arm-none-eabi/9.2.1/../../../arm-none-eabi/lib/thumb/v7e-m+fp/hard/libc.a(lib_a-wcrtomb.o)
 .bss           0x0000000000000000        0x0 /usr/lib/gcc/arm-none-eabi/9.2.1/../../../arm-none-eabi/lib/thumb/v7e-m+fp/hard/libc.a(lib_a-wcrtomb.o)
 .data          0x0000000000000000        0x0 /usr/lib/gcc/arm-none-eabi/9.2.1/../../../arm-none-eabi/lib/thumb/v7e-m+fp/hard/libc.a(lib_a-fstatr.o)
 .bss           0x0000000000000000        0x0 /usr/lib/gcc/arm-none-eabi/9.2.1/../../../arm-none-eabi/lib/thumb/v7e-m+fp/hard/libc.a(lib_a-fstatr.o)
 .data          0x0000000000000000        0x0 /usr/lib/gcc/arm-none-eabi/9.2.1/../../../arm-none-eabi/lib/thumb/v7e-m+fp/hard/libc.a(lib_a-isattyr.o)
 .bss           0x0000000000000000        0x0 /usr/lib/gcc/arm-none-eabi/9.2.1/../../../arm-none-eabi/lib/thumb/v7e-m+fp/hard/libc.a(lib_a-isattyr.o)
 .text          0x0000000000000000      0x254 /usr/lib/gcc/arm-none-eabi/9.2.1/thumb/v7e-m+fp/hard/libgcc.a(_arm_muldf3.o)
 .data          0x0000000000000000        0x0 /usr/lib/gcc/arm-none-eabi/9.2.1/thumb/v7e-m+fp/hard/libgcc.a(_arm_muldf3.o)
 .bss           0x0000000000000000        0x0 /usr/lib/gcc/arm-none-eabi/9.2.1/thumb/v7e-m+fp/hard/libgcc.a(_arm_muldf3.o)
 .debug_line    0x0000000000000000      0x10c /usr/lib/gcc/arm-none-eabi/9.2.1/thumb/v7e-m+fp/hard/libgcc.a(_arm_muldf3.o)
 .debug_info    0x0000000000000000       0x26 /usr/lib/gcc/arm-none-eabi/9.2.1/thumb/v7e-m+fp/hard/libgcc.a(_arm_muldf3.o)
 .debug_abbrev  0x0000000000000000       0x14 /usr/lib/gcc/arm-none-eabi/9.2.1/thumb/v7e-m+fp/hard/libgcc.a(_arm_muldf3.o)
 .debug_aranges
                0x0000000000000000       0x20 /usr/lib/gcc/arm-none-eabi/9.2.1/thumb/v7e-m+fp/hard/libgcc.a(_arm_muldf3.o)
 .debug_str     0x0000000000000000       0xa8 /usr/lib/gcc/arm-none-eabi/9.2.1/thumb/v7e-m+fp/hard/libgcc.a(_arm_muldf3.o)
 .debug_frame   0x0000000000000000       0x30 /usr/lib/gcc/arm-none-eabi/9.2.1/thumb/v7e-m+fp/hard/libgcc.a(_arm_muldf3.o)
 .ARM.attributes
                0x0000000000000000       0x1e /usr/lib/gcc/arm-none-eabi/9.2.1/thumb/v7e-m+fp/hard/libgcc.a(_arm_muldf3.o)
 .data          0x0000000000000000        0x0 /usr/lib/gcc/arm-none-eabi/9.2.1/thumb/v7e-m+fp/hard/libgcc.a(_arm_addsubdf3.o)
 .bss           0x0000000000000000        0x0 /usr/lib/gcc/arm-none-eabi/9.2.1/thumb/v7e-m+fp/hard/libgcc.a(_arm_addsubdf3.o)
 .data          0x0000000000000000        0x0 /usr/lib/gcc/arm-none-eabi/9.2.1/thumb/v7e-m+fp/hard/libgcc.a(_arm_muldivdf3.o)
 .bss           0x0000000000000000        0x0 /usr/lib/gcc/arm-none-eabi/9.2.1/thumb/v7e-m+fp/hard/libgcc.a(_arm_muldivdf3.o)
 .data          0x0000000000000000        0x0 /usr/lib/gcc/arm-none-eabi/9.2.1/thumb/v7e-m+fp/hard/libgcc.a(_arm_cmpdf2.o)
 .bss           0x0000000000000000        0x0 /usr/lib/gcc/arm-none-eabi/9.2.1/thumb/v7e-m+fp/hard/libgcc.a(_arm_cmpdf2.o)
 .data          0x0000000000000000        0x0 /usr/lib/gcc/arm-none-eabi/9.2.1/thumb/v7e-m+fp/hard/libgcc.a(_arm_unorddf2.o)
 .bss           0x0000000000000000        0x0 /usr/lib/gcc/arm-none-eabi/9.2.1/thumb/v7e-m+fp/hard/libgcc.a(_arm_unorddf2.o)
 .data          0x0000000000000000        0x0 /usr/lib/gcc/arm-none-eabi/9.2.1/thumb/v7e-m+fp/hard/libgcc.a(_arm_fixdfsi.o)
 .bss           0x0000000000000000        0x0 /usr/lib/gcc/arm-none-eabi/9.2.1/thumb/v7e-m+fp/hard/libgcc.a(_arm_fixdfsi.o)
 .data          0x0000000000000000        0x0 /usr/lib/gcc/arm-none-eabi/9.2.1/../../../arm-none-eabi/lib/thumb/v7e-m+fp/hard/libnosys.a(_exit.o)
 .bss           0x0000000000000000        0x0 /usr/lib/gcc/arm-none-eabi/9.2.1/../../../arm-none-eabi/lib/thumb/v7e-m+fp/hard/libnosys.a(_exit.o)
 .text          0x0000000000000000        0x0 /usr/lib/gcc/arm-none-eabi/9.2.1/thumb/v7e-m+fp/hard/crtend.o
 .data          0x0000000000000000        0x0 /usr/lib/gcc/arm-none-eabi/9.2.1/thumb/v7e-m+fp/hard/crtend.o
 .bss           0x0000000000000000        0x0 /usr/lib/gcc/arm-none-eabi/9.2.1/thumb/v7e-m+fp/hard/crtend.o
 .eh_frame      0x0000000000000000        0x4 /usr/lib/gcc/arm-none-eabi/9.2.1/thumb/v7e-m+fp/hard/crtend.o
 .text          0x0000000000000000        0x0 /usr/lib/gcc/arm-none-eabi/9.2.1/thumb/v7e-m+fp/hard/crtn.o
 .data          0x0000000000000000        0x0 /usr/lib/gcc/arm-none-eabi/9.2.1/thumb/v7e-m+fp/hard/crtn.o
 .bss           0x0000000000000000        0x0 /usr/lib/gcc/arm-none-eabi/9.2.1/thumb/v7e-m+fp/hard/crtn.o

Memory Configuration

Name             Origin             Length             Attributes
FLASH            0x0000000008050000 0x00000000000b0000 xr
RAM              0x0000000010000000 0x0000000000002000 xrw
QSPI             0x0000000090000000 0x0000000000200000 xr
*default*        0x0000000000000000 0xffffffffffffffff

Linker script and memory map

LOAD /usr/lib/gcc/arm-none-eabi/9.2.1/thumb/v7e-m+fp/hard/crti.o
LOAD /usr/lib/gcc/arm-none-eabi/9.2.1/thumb/v7e-m+fp/hard/crtbegin.o
LOAD /usr/lib/gcc/arm-none-eabi/9.2.1/../../../arm-none-eabi/lib/thumb/v7e-m+fp/hard/crt0.o
LOAD build/pgm_syscalls.o
LOAD build/keys.o
LOAD build/display.o
LOAD build/xeq.o
LOAD build/prt.o
LOAD build/decn.o
LOAD build/complex.o
LOAD build/stats.o
LOAD build/lcd.o
LOAD build/int.o
LOAD build/date.o
LOAD build/consts.o
LOAD build/alpha.o
LOAD build/charmap.o
LOAD build/commands.o
LOAD build/string.o
LOAD build/storage.o
LOAD build/matrix.o
LOAD build/font.o
LOAD build/xrom.o
LOAD build/console.o
LOAD build/libconsts.a
LOAD build/libdecNumber.a
LOAD build/startup_pgm.o
START GROUP
LOAD /usr/lib/gcc/arm-none-eabi/9.2.1/thumb/v7e-m+fp/hard/libgcc.a
LOAD /usr/lib/gcc/arm-none-eabi/9.2.1/../../../arm-none-eabi/lib/thumb/v7e-m+fp/hard/libc.a
END GROUP
START GROUP
LOAD /usr/lib/gcc/arm-none-eabi/9.2.1/thumb/v7e-m+fp/hard/libgcc.a
LOAD /usr/lib/gcc/arm-none-eabi/9.2.1/../../../arm-none-eabi/lib/thumb/v7e-m+fp/hard/libc.a
LOAD /usr/lib/gcc/arm-none-eabi/9.2.1/../../../arm-none-eabi/lib/thumb/v7e-m+fp/hard/libnosys.a
END GROUP
LOAD /usr/lib/gcc/arm-none-eabi/9.2.1/thumb/v7e-m+fp/hard/crtend.o
LOAD /usr/lib/gcc/arm-none-eabi/9.2.1/thumb/v7e-m+fp/hard/crtn.o

.qspi           0x0000000090000000        0x0
                0x0000000090000000                . = ALIGN (0x8)
                0x0000000090000000                _qspi_start = .
 *(.qspi)
 *(.qspi*)
 *(.rodata.__bid_mod10_18_tbl)
 *(.rodata.__bid_convert_table)
 *(.rodata.bid_log_table_1)
 *(.rodata.bid_log_table_2)
 *(.rodata.bid_decimal128_moduli)
 *(.rodata.bid_exponents_bid64)
 *(.rodata.bid_exponents_binary128)
 *(.rodata.bid_breakpoints_binary128)
 *(.rodata.bid_breakpoints_bid64)
 *(.rodata.bid_multipliers1_binary128)
 *(.rodata.bid_multipliers2_bid64)
 *(.rodata.bid_multipliers1_bid64)
 *(.rodata.bid_multipliers2_binary128)
                0x0000000090000000                . = ALIGN (0x8)
                0x0000000090000000                _qspi_end = .

.rodata         0x0000000008050000     0xa0c0
 *(.rodata.prog_info)
 .rodata.prog_info
                0x0000000008050000       0x40 build/pgm_syscalls.o
                0x0000000008050000                prog_info
                0x0000000008050040                . = ALIGN (0x40)
 *(.rodata)
 .rodata        0x0000000008050040      0x1ba build/display.o
 *fill*         0x00000000080501fa        0x2 
 .rodata        0x00000000080501fc       0x29 build/xeq.o
 *fill*         0x0000000008050225        0x3 
 .rodata        0x0000000008050228       0x40 build/date.o
 .rodata        0x0000000008050268       0x29 build/console.o
 *fill*         0x0000000008050291        0x3 
 .rodata        0x0000000008050294        0x4 /usr/lib/gcc/arm-none-eabi/9.2.1/../../../arm-none-eabi/lib/thumb/v7e-m+fp/hard/libc.a(lib_a-impure.o)
                0x0000000008050294                _global_impure_ptr
 .rodata        0x0000000008050298       0x20 /usr/lib/gcc/arm-none-eabi/9.2.1/../../../arm-none-eabi/lib/thumb/v7e-m+fp/hard/libc.a(lib_a-svfprintf.o)
 .rodata        0x00000000080502b8      0x101 /usr/lib/gcc/arm-none-eabi/9.2.1/../../../arm-none-eabi/lib/thumb/v7e-m+fp/hard/libc.a(lib_a-ctype_.o)
                0x00000000080502b8                _ctype_
 *fill*         0x00000000080503b9        0x7 
 .rodata        0x00000000080503c0      0x128 /usr/lib/gcc/arm-none-eabi/9.2.1/../../../arm-none-eabi/lib/thumb/v7e-m+fp/hard/libc.a(lib_a-mprec.o)
                0x00000000080503d0                __mprec_tens
                0x0000000008050498                __mprec_tinytens
                0x00000000080504c0                __mprec_bigtens
 .rodata        0x00000000080504e8       0x20 /usr/lib/gcc/arm-none-eabi/9.2.1/../../../arm-none-eabi/lib/thumb/v7e-m+fp/hard/libc.a(lib_a-svfiprintf.o)
 .rodata        0x0000000008050508       0x20 /usr/lib/gcc/arm-none-eabi/9.2.1/../../../arm-none-eabi/lib/thumb/v7e-m+fp/hard/libc.a(lib_a-vfiprintf.o)
 *(.rodata*)
 .rodata.process_keycode.str1.4
                0x0000000008050528       0x14 build/keys.o
 .rodata.alpha_arrows
                0x000000000805053c        0x9 build/keys.o
 *fill*         0x0000000008050545        0x3 
 .rodata.alpha_catalogue
                0x0000000008050548       0x12 build/keys.o
 *fill*         0x000000000805055a        0x2 
 .rodata.alpha_compares
                0x000000000805055c        0xa build/keys.o
 *fill*         0x0000000008050566        0x2 
 .rodata.alpha_letters
                0x0000000008050568       0x28 build/keys.o
 .rodata.alpha_letters_lower
                0x0000000008050590       0x28 build/keys.o
 .rodata.alpha_subscripts
                0x00000000080505b8       0x1a build/keys.o
 *fill*         0x00000000080505d2        0x2 
 .rodata.alpha_symbols
                0x00000000080505d4       0x13 build/keys.o
 *fill*         0x00000000080505e7        0x1 
 .rodata.alphamap.9277
                0x00000000080505e8       0xe4 build/keys.o
 .rodata.amap.9268
                0x00000000080506cc       0x20 build/keys.o
 .rodata.catalogue
                0x00000000080506ec       0x8b build/keys.o
 *fill*         0x0000000008050777        0x1 
 .rodata.catalogue_sizes.9591
                0x0000000008050778       0x15 build/keys.o
 *fill*         0x000000000805078d        0x3 
 .rodata.catalogues.9599
                0x0000000008050790       0x54 build/keys.o
 .rodata.cmap.9267
                0x00000000080507e4       0x30 build/keys.o
 .rodata.conv_catalogue
                0x0000000008050814       0x58 build/keys.o
 .rodata.conv_mapping.9638
                0x000000000805086c       0x18 build/keys.o
 .rodata.cplx_catalogue
                0x0000000008050884       0x26 build/keys.o
 *fill*         0x00000000080508aa        0x2 
 .rodata.disp.9449
                0x00000000080508ac        0x4 build/keys.o
 .rodata.int_catalogue
                0x00000000080508b0       0x4d build/keys.o
 *fill*         0x00000000080508fd        0x3 
 .rodata.linear_key_map.9233
                0x0000000008050900       0x2f build/keys.o
 *fill*         0x000000000805092f        0x1 
 .rodata.linear_key_map.9237
                0x0000000008050930       0x2f build/keys.o
 *fill*         0x000000000805095f        0x1 
 .rodata.map.9249
                0x0000000008050960       0x2b build/keys.o
 *fill*         0x000000000805098b        0x1 
 .rodata.matrix_catalogue
                0x000000000805098c       0x18 build/keys.o
 .rodata.mode_catalogue
                0x00000000080509a4       0x46 build/keys.o
 *fill*         0x00000000080509ea        0x2 
 .rodata.op_map.9321
                0x00000000080509ec       0x46 build/keys.o
 *fill*         0x0000000008050a32        0x2 
 .rodata.op_map.9344
                0x0000000008050a34       0x8c build/keys.o
 .rodata.op_map.9367
                0x0000000008050ac0       0x46 build/keys.o
 *fill*         0x0000000008050b06        0x2 
 .rodata.op_map.9422
                0x0000000008050b08      0x118 build/keys.o
 .rodata.op_map.9434
                0x0000000008050c20        0x6 build/keys.o
 *fill*         0x0000000008050c26        0x2 
 .rodata.op_map.9448
                0x0000000008050c28        0xc build/keys.o
 .rodata.op_map2.9345
                0x0000000008050c34        0x8 build/keys.o
 .rodata.opcode_breaks
                0x0000000008050c3c        0x7 build/keys.o
 *fill*         0x0000000008050c43        0x1 
 .rodata.prob_catalogue
                0x0000000008050c44       0x44 build/keys.o
 .rodata.prog_catalogue
                0x0000000008050c88       0x54 build/keys.o
 .rodata.program_xfcn
                0x0000000008050cdc       0xa7 build/keys.o
 *fill*         0x0000000008050d83        0x1 
 .rodata.smap.9269
                0x0000000008050d84        0x4 build/keys.o
 .rodata.stats_catalogue
                0x0000000008050d88       0x16 build/keys.o
 *fill*         0x0000000008050d9e        0x2 
 .rodata.sums_catalogue
                0x0000000008050da0       0x12 build/keys.o
 *fill*         0x0000000008050db2        0x2 
 .rodata.test_catalogue
                0x0000000008050db4       0x2f build/keys.o
 *fill*         0x0000000008050de3        0x1 
 .rodata.check_special_dn.isra.0.str1.4
                0x0000000008050de4        0x4 build/display.o
 .rodata.carry_overflow.str1.4
                0x0000000008050de8       0x10 build/display.o
 .rodata.annunciators.str1.4
                0x0000000008050df8       0x74 build/display.o
 .rodata.display.str1.4
                0x0000000008050e6c       0xbd build/display.o
                                         0xc9 (size before relaxing)
 *fill*         0x0000000008050f29        0x3 
 .rodata.str1.4
                0x0000000008050f2c      0x10c build/display.o
 .rodata.CSWTCH.349
                0x0000000008051038       0x10 build/display.o
 .rodata.CSWTCH.375
                0x0000000008051048        0xc build/display.o
 .rodata.DIGITS
                0x0000000008051054       0x11 build/display.o
                0x0000000008051054                DIGITS
 *fill*         0x0000000008051065        0x3 
 .rodata.S7_ERROR
                0x0000000008051068        0x6 build/display.o
 *fill*         0x000000000805106e        0x2 
 .rodata.S7_INF
                0x0000000008051070        0x9 build/display.o
 *fill*         0x0000000008051079        0x3 
 .rodata.S7_INF_Text
                0x000000000805107c       0x12 build/display.o
 *fill*         0x000000000805108e        0x2 
 .rodata.S7_NEG_INF_Text
                0x0000000008051090       0x12 build/display.o
 *fill*         0x00000000080510a2        0x2 
 .rodata.S7_NaN
                0x00000000080510a4        0xd build/display.o
 *fill*         0x00000000080510b1        0x3 
 .rodata.S7_NaN_Text
                0x00000000080510b4       0x18 build/display.o
 .rodata.S7_STEP
                0x00000000080510cc        0x6 build/display.o
 *fill*         0x00000000080510d2        0x2 
 .rodata.S7_STEP_ShortText
                0x00000000080510d4        0x5 build/display.o
 *fill*         0x00000000080510d9        0x3 
 .rodata.S7_fract_EQ
                0x00000000080510dc        0x4 build/display.o
 .rodata.S7_fract_GT
                0x00000000080510e0        0x4 build/display.o
 .rodata.S7_fract_LT
                0x00000000080510e4        0x4 build/display.o
 .rodata.S_SURE
                0x00000000080510e8        0x6 build/display.o
 *fill*         0x00000000080510ee        0x2 
 .rodata.SvnRevision
                0x00000000080510f0        0x4 build/display.o
                0x00000000080510f0                SvnRevision
 .rodata.digtbl
                0x00000000080510f4       0x7a build/display.o
 *fill*         0x000000000805116e        0x2 
 .rodata.error_table.8568
                0x0000000008051170       0x6c build/display.o
 .rodata.error_table_text.8569
                0x00000000080511dc       0x6c build/display.o
 .rodata.libname
                0x0000000008051248       0x14 build/display.o
 .rodata.libname_shorttext
                0x000000000805125c       0x14 build/display.o
 .rodata.libname_text
                0x0000000008051270       0x28 build/display.o
 .rodata.shift_chars.8670
                0x0000000008051298        0x4 build/display.o
 .rodata.small_dots.8868
                0x000000000805129c        0xd build/display.o
 *fill*         0x00000000080512a9        0x3 
 .rodata.small_minus.8867
                0x00000000080512ac        0x4 build/display.o
 .rodata.print_step.str1.4
                0x00000000080512b0        0x5 build/xeq.o
 *fill*         0x00000000080512b5        0x3 
 .rodata.op_query_xtal.str1.4
                0x00000000080512b8        0x5 build/xeq.o
 *fill*         0x00000000080512bd        0x3 
 .rodata.op_query_print.str1.4
                0x00000000080512c0        0x6 build/xeq.o
 *fill*         0x00000000080512c6        0x2 
 .rodata.op_2frac.str1.4
                0x00000000080512c8       0x18 build/xeq.o
 .rodata.busy.str1.4
                0x00000000080512e0        0x8 build/xeq.o
 .rodata.xeq.str1.4
                0x00000000080512e8        0x8 build/xeq.o
 .rodata.StackRegMask
                0x00000000080512f0        0x4 build/xeq.o
 .rodata.convergence_tolerances
                0x00000000080512f4        0xc build/xeq.o
 .rodata.modes.11158
                0x0000000008051300        0x7 build/xeq.o
 *fill*         0x0000000008051307        0x1 
 .rodata.modes.11669
                0x0000000008051308        0x4 build/xeq.o
 .rodata.xrom_targets
                0x000000000805130c       0x36 build/xeq.o
                0x000000000805130c                xrom_targets
 *fill*         0x0000000008051342        0x2 
 .rodata.prt_multi.str1.4
                0x0000000008051344        0x4 build/prt.o
 .rodata.prt_specials.part.0.str1.4
                0x0000000008051348       0x1b build/prt.o
                                         0x28 (size before relaxing)
 *fill*         0x0000000008051363        0x1 
 .rodata.prt.str1.4
                0x0000000008051364        0xc build/prt.o
                                         0x19 (size before relaxing)
 .rodata.digits.8265
                0x0000000008051370       0x10 build/prt.o
 .rodata.degrees.9055
                0x0000000008051380       0x10 build/decn.o
 .rodata.gamma_consts
                0x0000000008051390       0x54 build/decn.o
                0x0000000008051390                gamma_consts
 .rodata.gradians.9056
                0x00000000080513e4       0x10 build/decn.o
 .rodata.get_sigmas.str1.4
                0x00000000080513f4       0x16 build/stats.o
 *fill*         0x000000000805140a        0x2 
 .rodata.show_disp.str1.4
                0x000000000805140c       0x20 build/lcd.o
                                         0x30 (size before relaxing)
 .rodata.primes
                0x000000000805142c       0x10 build/int.o
 .rodata.date_alphaday.str1.4
                0x000000000805143c       0x16 build/date.o
 *fill*         0x0000000008051452        0x2 
 .rodata.date_alphatime.str1.4
                0x0000000008051454        0x8 build/date.o
                                          0x9 (size before relaxing)
 .rodata.mons.9084
                0x000000000805145c       0x24 build/date.o
 .rodata.str1.4
                0x0000000008051480      0x241 build/consts.o
                                        0x24d (size before relaxing)
 *fill*         0x00000000080516c1        0x3 
 .rodata.cnsts  0x00000000080516c4      0x4f8 build/consts.o
                0x00000000080516c4                cnsts
 .rodata.cnsts_conv
                0x0000000008051bbc      0x260 build/consts.o
                0x0000000008051bbc                cnsts_conv
 .rodata.cnsts_d128
                0x0000000008051e1c      0x200 build/consts.o
                0x0000000008051e1c                cnsts_d128
 .rodata.cnsts_d64
                0x000000000805201c      0x260 build/consts.o
                0x000000000805201c                cnsts_d64
 .rodata.character_remapping_order
                0x000000000805227c      0x100 build/charmap.o
 .rodata.str1.4
                0x000000000805237c      0x648 build/commands.o
                                        0x688 (size before relaxing)
 .rodata.argcmds
                0x00000000080529c4      0x8f0 build/commands.o
                0x00000000080529c4                argcmds
 .rodata.dyfuncs
                0x00000000080532b4      0x4f8 build/commands.o
                0x00000000080532b4                dyfuncs
 .rodata.monfuncs
                0x00000000080537ac      0xea0 build/commands.o
                0x00000000080537ac                monfuncs
 .rodata.multicmds
                0x000000000805464c       0xb0 build/commands.o
                0x000000000805464c                multicmds
 .rodata.niladics
                0x00000000080546fc      0xcd0 build/commands.o
                0x00000000080546fc                niladics
 .rodata.trifuncs
                0x00000000080553cc       0xf0 build/commands.o
                0x00000000080553cc                trifuncs
 .rodata.program_flash.str1.4
                0x00000000080554bc       0x33 build/storage.o
 *fill*         0x00000000080554ef        0x1 
 .rodata.open_selected_file.str1.4
                0x00000000080554f0       0x11 build/storage.o
 *fill*         0x0000000008055501        0x3 
 .rodata.init_mem.str1.4
                0x0000000008055504        0xe build/storage.o
 *fill*         0x0000000008055512        0x2 
 .rodata.reset.str1.4
                0x0000000008055514        0x7 build/storage.o
 *fill*         0x000000000805551b        0x1 
 .rodata.store_program_from_buffer.part.0.str1.4
                0x000000000805551c        0x9 build/storage.o
 *fill*         0x0000000008055525        0x3 
 .rodata.flash_backup.str1.4
                0x0000000008055528        0xe build/storage.o
 *fill*         0x0000000008055536        0x2 
 .rodata.flash_restore.str1.4
                0x0000000008055538        0x9 build/storage.o
 *fill*         0x0000000008055541        0x3 
 .rodata.save_lib_file.str1.4
                0x0000000008055544       0x31 build/storage.o
 *fill*         0x0000000008055575        0x3 
 .rodata.load_lib_file.str1.4
                0x0000000008055578       0x21 build/storage.o
 *fill*         0x0000000008055599        0x3 
 .rodata.save_ram_file.str1.4
                0x000000000805559c       0x3d build/storage.o
 *fill*         0x00000000080555d9        0x3 
 .rodata.load_ram_file.str1.4
                0x00000000080555dc       0x19 build/storage.o
 *fill*         0x00000000080555f5        0x3 
 .rodata.load_backup_file.str1.4
                0x00000000080555f8       0x21 build/storage.o
 *fill*         0x0000000008055619        0x3 
 .rodata.save_prog_file.str1.4
                0x000000000805561c       0x36 build/storage.o
 *fill*         0x0000000008055652        0x2 
 .rodata.load_prog_file.str1.4
                0x0000000008055654       0x29 build/storage.o
 *fill*         0x000000000805567d        0x3 
 .rodata.bm_large.5521
                0x0000000008055680      0x2fa build/font.o
 *fill*         0x000000000805597a        0x2 
 .rodata.bm_small.5522
                0x000000000805597c      0x25e build/font.o
 *fill*         0x0000000008055bda        0x2 
 .rodata.divs.5505
                0x0000000008055bdc        0x3 build/font.o
 *fill*         0x0000000008055bdf        0x1 
 .rodata.widths.5504
                0x0000000008055be0       0xab build/font.o
 *fill*         0x0000000008055c8b        0x1 
 .rodata.xrom   0x0000000008055c8c     0x1b9a build/xrom.o
                0x0000000008055c8c                xrom
 .rodata.xrom_size
                0x0000000008057826        0x2 build/xrom.o
                0x0000000008057826                xrom_size
 .rodata.menu_line_str.str1.4
                0x0000000008057828        0x8 build/console.o
 .rodata.disp_about.str1.4
                0x0000000008057830       0xe6 build/console.o
 *fill*         0x0000000008057916        0x2 
 .rodata.do_multi.str1.4
                0x0000000008057918       0x16 build/console.o
 *fill*         0x000000000805792e        0x2 
 .rodata.str1.4
                0x0000000008057930       0x10 build/console.o
 .rodata.MID_MENU
                0x0000000008057940       0x10 build/console.o
                0x0000000008057940                MID_MENU
 .rodata.Menus  0x0000000008057950      0xea0 build/console.o
 .rodata.mapping_alpha.11014
                0x00000000080587f0      0x178 build/console.o
 .rodata.mapping_fshift.11012
                0x0000000008058968      0x178 build/console.o
 .rodata.mapping_gshift.11013
                0x0000000008058ae0      0x178 build/console.o
 .rodata.mapping_none.11011
                0x0000000008058c58      0x178 build/console.o
 .rodata.mapping_running.11015
                0x0000000008058dd0      0x178 build/console.o
 .rodata.mid_menu
                0x0000000008058f48        0x4 build/console.o
                0x0000000008058f48                mid_menu
 .rodata.const_50
                0x0000000008058f4c        0xc build/libconsts.a(const_50.o)
                0x0000000008058f4c                const_50
 .rodata.const_randfac
                0x0000000008058f58       0x1c build/libconsts.a(const_randfac.o)
                0x0000000008058f58                const_randfac
 .rodata.const_ln10
                0x0000000008058f74       0x24 build/libconsts.a(const_ln10.o)
                0x0000000008058f74                const_ln10
 .rodata.const_egamma
                0x0000000008058f98       0x24 build/libconsts.a(const_egamma.o)
                0x0000000008058f98                const_egamma
 .rodata.const_256
                0x0000000008058fbc        0xc build/libconsts.a(const_256.o)
                0x0000000008058fbc                const_256
 .rodata.const_180
                0x0000000008058fc8        0xc build/libconsts.a(const_180.o)
                0x0000000008058fc8                const_180
 .rodata.const_1e_32
                0x0000000008058fd4        0xc build/libconsts.a(const_1e_32.o)
                0x0000000008058fd4                const_1e_32
 .rodata.const_gammaC03
                0x0000000008058fe0       0x24 build/libconsts.a(const_gammaC03.o)
                0x0000000008058fe0                const_gammaC03
 .rodata.const_60
                0x0000000008059004        0xc build/libconsts.a(const_60.o)
                0x0000000008059004                const_60
 .rodata.const_10
                0x0000000008059010        0xc build/libconsts.a(const_10.o)
                0x0000000008059010                const_10
 .rodata.const_360
                0x000000000805901c        0xc build/libconsts.a(const_360.o)
                0x000000000805901c                const_360
 .rodata.const_gammaC10
                0x0000000008059028       0x24 build/libconsts.a(const_gammaC10.o)
                0x0000000008059028                const_gammaC10
 .rodata.const_gammaC11
                0x000000000805904c       0x24 build/libconsts.a(const_gammaC11.o)
                0x000000000805904c                const_gammaC11
 .rodata.const__inf
                0x0000000008059070        0xc build/libconsts.a(const__inf.o)
                0x0000000008059070                const__inf
 .rodata.const_21
                0x000000000805907c        0xc build/libconsts.a(const_21.o)
                0x000000000805907c                const_21
 .rodata.const_gammaC16
                0x0000000008059088       0x24 build/libconsts.a(const_gammaC16.o)
                0x0000000008059088                const_gammaC16
 .rodata.const_200
                0x00000000080590ac        0xc build/libconsts.a(const_200.o)
                0x00000000080590ac                const_200
 .rodata.const_gammaC06
                0x00000000080590b8       0x24 build/libconsts.a(const_gammaC06.o)
                0x00000000080590b8                const_gammaC06
 .rodata.const_NaN
                0x00000000080590dc        0xc build/libconsts.a(const_NaN.o)
                0x00000000080590dc                const_NaN
 .rodata.const_gammaC15
                0x00000000080590e8       0x24 build/libconsts.a(const_gammaC15.o)
                0x00000000080590e8                const_gammaC15
 .rodata.const_1e_24
                0x000000000805910c        0xc build/libconsts.a(const_1e_24.o)
                0x000000000805910c                const_1e_24
 .rodata.const_45
                0x0000000008059118        0xc build/libconsts.a(const_45.o)
                0x0000000008059118                const_45
 .rodata.const_0_05
                0x0000000008059124        0xc build/libconsts.a(const_0_05.o)
                0x0000000008059124                const_0_05
 .rodata.const_3
                0x0000000008059130        0xc build/libconsts.a(const_3.o)
                0x0000000008059130                const_3
 .rodata.const_hms_threshold
                0x000000000805913c       0x24 build/libconsts.a(const_hms_threshold.o)
                0x000000000805913c                const_hms_threshold
 .rodata.const_gammaC14
                0x0000000008059160       0x24 build/libconsts.a(const_gammaC14.o)
                0x0000000008059160                const_gammaC14
 .rodata.const_0_6
                0x0000000008059184        0xc build/libconsts.a(const_0_6.o)
                0x0000000008059184                const_0_6
 .rodata.const_32
                0x0000000008059190        0xc build/libconsts.a(const_32.o)
                0x0000000008059190                const_32
 .rodata.const_0_75
                0x000000000805919c        0xc build/libconsts.a(const_0_75.o)
                0x000000000805919c                const_0_75
 .rodata.const__1
                0x00000000080591a8        0xc build/libconsts.a(const__1.o)
                0x00000000080591a8                const__1
 .rodata.const_gammaC00
                0x00000000080591b4       0x24 build/libconsts.a(const_gammaC00.o)
                0x00000000080591b4                const_gammaC00
 .rodata.const_ln2
                0x00000000080591d8       0x24 build/libconsts.a(const_ln2.o)
                0x00000000080591d8                const_ln2
 .rodata.const_gammaC18
                0x00000000080591fc       0x24 build/libconsts.a(const_gammaC18.o)
                0x00000000080591fc                const_gammaC18
 .rodata.const_2PI
                0x0000000008059220      0x138 build/libconsts.a(const_2PI.o)
                0x0000000008059220                const_2PI
 .rodata.const_1e_14
                0x0000000008059358        0xc build/libconsts.a(const_1e_14.o)
                0x0000000008059358                const_1e_14
 .rodata.const_0
                0x0000000008059364        0xc build/libconsts.a(const_0.o)
                0x0000000008059364                const_0
 .rodata.const_PIon180
                0x0000000008059370       0x24 build/libconsts.a(const_PIon180.o)
                0x0000000008059370                const_PIon180
 .rodata.const_9000
                0x0000000008059394        0xc build/libconsts.a(const_9000.o)
                0x0000000008059394                const_9000
 .rodata.const_0_9
                0x00000000080593a0        0xc build/libconsts.a(const_0_9.o)
                0x00000000080593a0                const_0_9
 .rodata.const_gammaC08
                0x00000000080593ac       0x24 build/libconsts.a(const_gammaC08.o)
                0x00000000080593ac                const_gammaC08
 .rodata.const_gammaC21
                0x00000000080593d0       0x24 build/libconsts.a(const_gammaC21.o)
                0x00000000080593d0                const_gammaC21
 .rodata.const_1e_37
                0x00000000080593f4        0xc build/libconsts.a(const_1e_37.o)
                0x00000000080593f4                const_1e_37
 .rodata.const_gammaC05
                0x0000000008059400       0x24 build/libconsts.a(const_gammaC05.o)
                0x0000000008059400                const_gammaC05
 .rodata.const_2
                0x0000000008059424        0xc build/libconsts.a(const_2.o)
                0x0000000008059424                const_2
 .rodata.const_gammaC13
                0x0000000008059430       0x24 build/libconsts.a(const_gammaC13.o)
                0x0000000008059430                const_gammaC13
 .rodata.const_100000
                0x0000000008059454        0xc build/libconsts.a(const_100000.o)
                0x0000000008059454                const_100000
 .rodata.const_gammaR
                0x0000000008059460       0x10 build/libconsts.a(const_gammaR.o)
                0x0000000008059460                const_gammaR
 .rodata.const_5
                0x0000000008059470        0xc build/libconsts.a(const_5.o)
                0x0000000008059470                const_5
 .rodata.const_1
                0x000000000805947c        0xc build/libconsts.a(const_1.o)
                0x000000000805947c                const_1
 .rodata.const_gammaC19
                0x0000000008059488       0x24 build/libconsts.a(const_gammaC19.o)
                0x0000000008059488                const_gammaC19
 .rodata.const_inf
                0x00000000080594ac        0xc build/libconsts.a(const_inf.o)
                0x00000000080594ac                const_inf
 .rodata.const_0_995
                0x00000000080594b8        0xc build/libconsts.a(const_0_995.o)
                0x00000000080594b8                const_0_995
 .rodata.const_0_0001
                0x00000000080594c4        0xc build/libconsts.a(const_0_0001.o)
                0x00000000080594c4                const_0_0001
 .rodata.const_1on60
                0x00000000080594d0       0x24 build/libconsts.a(const_1on60.o)
                0x00000000080594d0                const_1on60
 .rodata.const_PIon200
                0x00000000080594f4       0x24 build/libconsts.a(const_PIon200.o)
                0x00000000080594f4                const_PIon200
 .rodata.const_gammaC01
                0x0000000008059518       0x24 build/libconsts.a(const_gammaC01.o)
                0x0000000008059518                const_gammaC01
 .rodata.const_gammaC09
                0x000000000805953c       0x24 build/libconsts.a(const_gammaC09.o)
                0x000000000805953c                const_gammaC09
 .rodata.const_0_5
                0x0000000008059560        0xc build/libconsts.a(const_0_5.o)
                0x0000000008059560                const_0_5
 .rodata.const_9on5
                0x000000000805956c        0xc build/libconsts.a(const_9on5.o)
                0x000000000805956c                const_9on5
 .rodata.const_20
                0x0000000008059578        0xc build/libconsts.a(const_20.o)
                0x0000000008059578                const_20
 .rodata.const_gammaC20
                0x0000000008059584       0x24 build/libconsts.a(const_gammaC20.o)
                0x0000000008059584                const_gammaC20
 .rodata.const_400
                0x00000000080595a8        0xc build/libconsts.a(const_400.o)
                0x00000000080595a8                const_400
 .rodata.const_gammaC07
                0x00000000080595b4       0x24 build/libconsts.a(const_gammaC07.o)
                0x00000000080595b4                const_gammaC07
 .rodata.const__0
                0x00000000080595d8        0xc build/libconsts.a(const__0.o)
                0x00000000080595d8                const__0
 .rodata.const_0_4
                0x00000000080595e4        0xc build/libconsts.a(const_0_4.o)
                0x00000000080595e4                const_0_4
 .rodata.const_1e_10000
                0x00000000080595f0        0xc build/libconsts.a(const_1e_10000.o)
                0x00000000080595f0                const_1e_10000
 .rodata.const_gammaC12
                0x00000000080595fc       0x24 build/libconsts.a(const_gammaC12.o)
                0x00000000080595fc                const_gammaC12
 .rodata.const_2pow64
                0x0000000008059620       0x18 build/libconsts.a(const_2pow64.o)
                0x0000000008059620                const_2pow64
 .rodata.const_PIon2
                0x0000000008059638       0x24 build/libconsts.a(const_PIon2.o)
                0x0000000008059638                const_PIon2
 .rodata.const_gammaC04
                0x000000000805965c       0x24 build/libconsts.a(const_gammaC04.o)
                0x000000000805965c                const_gammaC04
 .rodata.const_90
                0x0000000008059680        0xc build/libconsts.a(const_90.o)
                0x0000000008059680                const_90
 .rodata.const_gammaC17
                0x000000000805968c       0x24 build/libconsts.a(const_gammaC17.o)
                0x000000000805968c                const_gammaC17
 .rodata.const_gammaC02
                0x00000000080596b0       0x24 build/libconsts.a(const_gammaC02.o)
                0x00000000080596b0                const_gammaC02
 .rodata.const_PI
                0x00000000080596d4       0x24 build/libconsts.a(const_PI.o)
                0x00000000080596d4                const_PI
 .rodata.const_root2on2
                0x00000000080596f8       0x24 build/libconsts.a(const_root2on2.o)
                0x00000000080596f8                const_root2on2
 .rodata.const_100
                0x000000000805971c        0xc build/libconsts.a(const_100.o)
                0x000000000805971c                const_100
 .rodata.const_0_1
                0x0000000008059728        0xc build/libconsts.a(const_0_1.o)
                0x0000000008059728                const_0_1
 .rodata.decNumberToString.str1.4
                0x0000000008059734        0x9 build/libdecNumber.a(decNumber.o)
                                         0x10 (size before relaxing)
 *fill*         0x000000000805973d        0x3 
 .rodata.decNumberFromString.str1.4
                0x0000000008059740       0x1c build/libdecNumber.a(decNumber.o)
                                         0x20 (size before relaxing)
 .rodata.multies
                0x000000000805975c       0x14 build/libdecNumber.a(decNumber.o)
 .rodata.powers
                0x0000000008059770       0x28 build/libdecNumber.a(decNumber.o)
                0x0000000008059770                powers
 .rodata.resmap
                0x0000000008059798        0xa build/libdecNumber.a(decNumber.o)
 *fill*         0x00000000080597a2        0x2 
 .rodata.uarrone
                0x00000000080597a4        0x2 build/libdecNumber.a(decNumber.o)
 *fill*         0x00000000080597a6        0x2 
 .rodata.COMBEXP
                0x00000000080597a8       0x80 build/libdecNumber.a(decimal64.o)
                0x00000000080597a8                COMBEXP
 .rodata.COMBMSD
                0x0000000008059828       0x80 build/libdecNumber.a(decimal64.o)
                0x0000000008059828                COMBMSD
 .rodata.multies
                0x00000000080598a8       0x14 build/libdecNumber.a(decimal64.o)
 .rodata.str1.4
                0x00000000080598bc        0x6 /usr/lib/gcc/arm-none-eabi/9.2.1/../../../arm-none-eabi/lib/thumb/v7e-m+fp/hard/libc.a(lib_a-perror.o)
 *fill*         0x00000000080598c2        0x2 
 .rodata.str1.4
                0x00000000080598c4      0x700 /usr/lib/gcc/arm-none-eabi/9.2.1/../../../arm-none-eabi/lib/thumb/v7e-m+fp/hard/libc.a(lib_a-strerror.o)
                                        0x701 (size before relaxing)
 .rodata.str1.4
                0x0000000008059fc4       0x33 /usr/lib/gcc/arm-none-eabi/9.2.1/../../../arm-none-eabi/lib/thumb/v7e-m+fp/hard/libc.a(lib_a-svfprintf.o)
                                         0x42 (size before relaxing)
 *fill*         0x0000000008059ff7        0x1 
 .rodata.str1.4
                0x0000000008059ff8       0x46 /usr/lib/gcc/arm-none-eabi/9.2.1/../../../arm-none-eabi/lib/thumb/v7e-m+fp/hard/libc.a(lib_a-dtoa.o)
                                         0x5a (size before relaxing)
 *fill*         0x000000000805a03e        0x2 
 .rodata.str1.4
                0x000000000805a040       0x33 /usr/lib/gcc/arm-none-eabi/9.2.1/../../../arm-none-eabi/lib/thumb/v7e-m+fp/hard/libc.a(lib_a-mprec.o)
                                         0x47 (size before relaxing)
 .rodata.str1.4
                0x000000000805a073       0x2f /usr/lib/gcc/arm-none-eabi/9.2.1/../../../arm-none-eabi/lib/thumb/v7e-m+fp/hard/libc.a(lib_a-svfiprintf.o)
 *fill*         0x000000000805a073        0x1 
 .rodata.str1.4
                0x000000000805a074       0x3f /usr/lib/gcc/arm-none-eabi/9.2.1/../../../arm-none-eabi/lib/thumb/v7e-m+fp/hard/libc.a(lib_a-assert.o)
                                         0x43 (size before relaxing)
 *fill*         0x000000000805a0b3        0x1 
 .rodata.str1.4
                0x000000000805a0b4        0x6 /usr/lib/gcc/arm-none-eabi/9.2.1/../../../arm-none-eabi/lib/thumb/v7e-m+fp/hard/libc.a(lib_a-locale.o)
                                         0x12 (size before relaxing)
 .rodata.str1.4
                0x000000000805a0ba       0x2f /usr/lib/gcc/arm-none-eabi/9.2.1/../../../arm-none-eabi/lib/thumb/v7e-m+fp/hard/libc.a(lib_a-vfiprintf.o)
                0x000000000805a0f0                . = ALIGN (0x8)
 *fill*         0x000000000805a0ba        0x6 
                0x0000000090000000                _qspi_init_base = LOADADDR (.qspi)
                0x0000000000000000                _qspi_init_length = SIZEOF (.qspi)

.text           0x000000000805a0c0    0x247c8
                0x000000000805a0c0                . = ALIGN (0x8)
 *(.text)
 .text          0x000000000805a0c0       0x88 /usr/lib/gcc/arm-none-eabi/9.2.1/thumb/v7e-m+fp/hard/crtbegin.o
 .text          0x000000000805a148       0x30 /usr/lib/gcc/arm-none-eabi/9.2.1/thumb/v7e-m+fp/hard/libgcc.a(_aeabi_uldivmod.o)
                0x000000000805a148                __aeabi_uldivmod
 .text          0x000000000805a178      0x2c4 /usr/lib/gcc/arm-none-eabi/9.2.1/thumb/v7e-m+fp/hard/libgcc.a(_udivmoddi4.o)
                0x000000000805a178                __udivmoddi4
 .text          0x000000000805a43c        0x4 /usr/lib/gcc/arm-none-eabi/9.2.1/thumb/v7e-m+fp/hard/libgcc.a(_dvmd_tls.o)
                0x000000000805a43c                __aeabi_ldiv0
                0x000000000805a43c                __aeabi_idiv0
 .text          0x000000000805a440        0xc /usr/lib/gcc/arm-none-eabi/9.2.1/../../../arm-none-eabi/lib/thumb/v7e-m+fp/hard/libc.a(lib_a-atexit.o)
                0x000000000805a440                atexit
 .text          0x000000000805a44c        0xc /usr/lib/gcc/arm-none-eabi/9.2.1/../../../arm-none-eabi/lib/thumb/v7e-m+fp/hard/libc.a(lib_a-errno.o)
                0x000000000805a44c                __errno
 .text          0x000000000805a458       0x34 /usr/lib/gcc/arm-none-eabi/9.2.1/../../../arm-none-eabi/lib/thumb/v7e-m+fp/hard/libc.a(lib_a-fini.o)
                0x000000000805a458                __libc_fini_array
 .text          0x000000000805a48c       0x48 /usr/lib/gcc/arm-none-eabi/9.2.1/../../../arm-none-eabi/lib/thumb/v7e-m+fp/hard/libc.a(lib_a-init.o)
                0x000000000805a48c                __libc_init_array
 .text          0x000000000805a4d4       0xa0 /usr/lib/gcc/arm-none-eabi/9.2.1/../../../arm-none-eabi/lib/thumb/v7e-m+fp/hard/libc.a(lib_a-memset.o)
                0x000000000805a4d4                memset
 .text          0x000000000805a574      0x100 /usr/lib/gcc/arm-none-eabi/9.2.1/../../../arm-none-eabi/lib/thumb/v7e-m+fp/hard/libc.a(lib_a-perror.o)
                0x000000000805a574                _perror_r
                0x000000000805a664                perror
 .text          0x000000000805a674       0x80 /usr/lib/gcc/arm-none-eabi/9.2.1/../../../arm-none-eabi/lib/thumb/v7e-m+fp/hard/libc.a(lib_a-sprintf.o)
                0x000000000805a674                _sprintf_r
                0x000000000805a6b0                sprintf
 .text          0x000000000805a6f4      0x3fc /usr/lib/gcc/arm-none-eabi/9.2.1/../../../arm-none-eabi/lib/thumb/v7e-m+fp/hard/libc.a(lib_a-strerror.o)
                0x000000000805a6f4                _strerror_r
                0x000000000805aac0                strerror
                0x000000000805aad8                strerror_l
 *fill*         0x000000000805aaf0       0x10 
 .text          0x000000000805ab00       0xdc /usr/lib/gcc/arm-none-eabi/9.2.1/../../../arm-none-eabi/lib/thumb/v7e-m+fp/hard/libc.a(lib_a-strlen.o)
                0x000000000805ab00                strlen
 .text          0x000000000805abdc       0x74 /usr/lib/gcc/arm-none-eabi/9.2.1/../../../arm-none-eabi/lib/thumb/v7e-m+fp/hard/libc.a(lib_a-strncpy.o)
                0x000000000805abdc                strncpy
 .text          0x000000000805ac50     0x1498 /usr/lib/gcc/arm-none-eabi/9.2.1/../../../arm-none-eabi/lib/thumb/v7e-m+fp/hard/libc.a(lib_a-svfprintf.o)
                0x000000000805ac50                _svfprintf_r
 .text          0x000000000805c0e8        0x4 /usr/lib/gcc/arm-none-eabi/9.2.1/../../../arm-none-eabi/lib/thumb/v7e-m+fp/hard/libc.a(lib_a-u_strerr.o)
                0x000000000805c0e8                _user_strerror
 .text          0x000000000805c0ec       0x2c /usr/lib/gcc/arm-none-eabi/9.2.1/../../../arm-none-eabi/lib/thumb/v7e-m+fp/hard/libc.a(lib_a-writer.o)
                0x000000000805c0ec                _write_r
 .text          0x000000000805c118       0x68 /usr/lib/gcc/arm-none-eabi/9.2.1/../../../arm-none-eabi/lib/thumb/v7e-m+fp/hard/libc.a(lib_a-__atexit.o)
                0x000000000805c118                __register_exitproc
 .text          0x000000000805c180      0xfc0 /usr/lib/gcc/arm-none-eabi/9.2.1/../../../arm-none-eabi/lib/thumb/v7e-m+fp/hard/libc.a(lib_a-dtoa.o)
                0x000000000805c2a4                _dtoa_r
 .text          0x000000000805d140      0x1a4 /usr/lib/gcc/arm-none-eabi/9.2.1/../../../arm-none-eabi/lib/thumb/v7e-m+fp/hard/libc.a(lib_a-fflush.o)
                0x000000000805d140                __sflush_r
                0x000000000805d28c                _fflush_r
                0x000000000805d2c0                fflush
 .text          0x000000000805d2e4       0x34 /usr/lib/gcc/arm-none-eabi/9.2.1/../../../arm-none-eabi/lib/thumb/v7e-m+fp/hard/libc.a(lib_a-fileno.o)
                0x000000000805d2e4                fileno
 .text          0x000000000805d318      0x1f4 /usr/lib/gcc/arm-none-eabi/9.2.1/../../../arm-none-eabi/lib/thumb/v7e-m+fp/hard/libc.a(lib_a-findfp.o)
                0x000000000805d31c                _cleanup_r
                0x000000000805d400                __sfmoreglue
                0x000000000805d430                __sfp
                0x000000000805d4b8                _cleanup
                0x000000000805d4cc                __sinit
                0x000000000805d4d4                __sfp_lock_acquire
                0x000000000805d4d8                __sfp_lock_release
                0x000000000805d4dc                __sinit_lock_acquire
                0x000000000805d4e0                __sinit_lock_release
                0x000000000805d4e4                __fp_lock_all
                0x000000000805d4f8                __fp_unlock_all
 .text          0x000000000805d50c       0xa0 /usr/lib/gcc/arm-none-eabi/9.2.1/../../../arm-none-eabi/lib/thumb/v7e-m+fp/hard/libc.a(lib_a-fwalk.o)
                0x000000000805d50c                _fwalk
                0x000000000805d558                _fwalk_reent
 .text          0x000000000805d5ac       0x14 /usr/lib/gcc/arm-none-eabi/9.2.1/../../../arm-none-eabi/lib/thumb/v7e-m+fp/hard/libc.a(lib_a-localeconv.o)
                0x000000000805d5ac                __localeconv_l
                0x000000000805d5b0                _localeconv_r
                0x000000000805d5b8                localeconv
 .text          0x000000000805d5c0       0xa0 /usr/lib/gcc/arm-none-eabi/9.2.1/../../../arm-none-eabi/lib/thumb/v7e-m+fp/hard/libc.a(lib_a-memchr.o)
                0x000000000805d5c0                memchr
 .text          0x000000000805d660      0x134 /usr/lib/gcc/arm-none-eabi/9.2.1/../../../arm-none-eabi/lib/thumb/v7e-m+fp/hard/libc.a(lib_a-memcpy.o)
                0x000000000805d660                memcpy
 .text          0x000000000805d794      0x9a8 /usr/lib/gcc/arm-none-eabi/9.2.1/../../../arm-none-eabi/lib/thumb/v7e-m+fp/hard/libc.a(lib_a-mprec.o)
                0x000000000805d794                _Balloc
                0x000000000805d7e0                _Bfree
                0x000000000805d7f4                __multadd
                0x000000000805d898                __s2b
                0x000000000805d944                __hi0bits
                0x000000000805d984                __lo0bits
                0x000000000805d9e4                __i2b
                0x000000000805da10                __multiply
                0x000000000805db5c                __pow5mult
                0x000000000805dbf4                __lshift
                0x000000000805dcc0                __mcmp
                0x000000000805dcf8                __mdiff
                0x000000000805de20                __ulp
                0x000000000805de70                __b2d
                0x000000000805df28                __d2b
                0x000000000805dffc                __ratio
                0x000000000805e05c                _mprec_log10
                0x000000000805e09c                __copybits
                0x000000000805e0e4                __any_on
 .text          0x000000000805e13c       0x90 /usr/lib/gcc/arm-none-eabi/9.2.1/../../../arm-none-eabi/lib/thumb/v7e-m+fp/hard/libc.a(lib_a-stdio.o)
                0x000000000805e13c                __sread
                0x000000000805e160                __seofread
                0x000000000805e164                __swrite
                0x000000000805e1a4                __sseek
                0x000000000805e1c4                __sclose
 .text          0x000000000805e1cc      0xb64 /usr/lib/gcc/arm-none-eabi/9.2.1/../../../arm-none-eabi/lib/thumb/v7e-m+fp/hard/libc.a(lib_a-svfiprintf.o)
                0x000000000805e1cc                __ssprint_r
                0x000000000805e2c4                _svfiprintf_r
 .text          0x000000000805ed30       0x48 /usr/lib/gcc/arm-none-eabi/9.2.1/../../../arm-none-eabi/lib/thumb/v7e-m+fp/hard/libc.a(lib_a-assert.o)
                0x000000000805ed30                __assert_func
                0x000000000805ed6c                __assert
 .text          0x000000000805ed78       0x24 /usr/lib/gcc/arm-none-eabi/9.2.1/../../../arm-none-eabi/lib/thumb/v7e-m+fp/hard/libc.a(lib_a-closer.o)
                0x000000000805ed78                _close_r
 .text          0x000000000805ed9c       0x98 /usr/lib/gcc/arm-none-eabi/9.2.1/../../../arm-none-eabi/lib/thumb/v7e-m+fp/hard/libc.a(lib_a-fclose.o)
                0x000000000805ed9c                _fclose_r
                0x000000000805ee24                fclose
 .text          0x000000000805ee34       0x44 /usr/lib/gcc/arm-none-eabi/9.2.1/../../../arm-none-eabi/lib/thumb/v7e-m+fp/hard/libc.a(lib_a-fiprintf.o)
                0x000000000805ee34                _fiprintf_r
                0x000000000805ee50                fiprintf
 .text          0x000000000805ee78       0x5c /usr/lib/gcc/arm-none-eabi/9.2.1/../../../arm-none-eabi/lib/thumb/v7e-m+fp/hard/libc.a(lib_a-locale.o)
                0x000000000805ee78                _setlocale_r
                0x000000000805eeb8                __locale_mb_cur_max
                0x000000000805eec4                setlocale
 .text          0x000000000805eed4       0x2c /usr/lib/gcc/arm-none-eabi/9.2.1/../../../arm-none-eabi/lib/thumb/v7e-m+fp/hard/libc.a(lib_a-lseekr.o)
                0x000000000805eed4                _lseek_r
 .text          0x000000000805ef00       0x40 /usr/lib/gcc/arm-none-eabi/9.2.1/../../../arm-none-eabi/lib/thumb/v7e-m+fp/hard/libc.a(lib_a-mbtowc_r.o)
                0x000000000805ef00                _mbtowc_r
                0x000000000805ef14                __ascii_mbtowc
 .text          0x000000000805ef40       0xd0 /usr/lib/gcc/arm-none-eabi/9.2.1/../../../arm-none-eabi/lib/thumb/v7e-m+fp/hard/libc.a(lib_a-memmove.o)
                0x000000000805ef40                memmove
 .text          0x000000000805f010       0x2c /usr/lib/gcc/arm-none-eabi/9.2.1/../../../arm-none-eabi/lib/thumb/v7e-m+fp/hard/libc.a(lib_a-readr.o)
                0x000000000805f010                _read_r
 *fill*         0x000000000805f03c        0x4 
 .text          0x000000000805f040      0x2dc /usr/lib/gcc/arm-none-eabi/9.2.1/../../../arm-none-eabi/lib/thumb/v7e-m+fp/hard/libc.a(lib_a-strcmp.o)
                0x000000000805f048                strcmp
 .text          0x000000000805f31c      0xd00 /usr/lib/gcc/arm-none-eabi/9.2.1/../../../arm-none-eabi/lib/thumb/v7e-m+fp/hard/libc.a(lib_a-vfiprintf.o)
                0x000000000805f394                __sprint_r
                0x000000000805f3a8                _vfiprintf_r
                0x000000000805ff98                vfiprintf
 .text          0x000000000806001c       0x30 /usr/lib/gcc/arm-none-eabi/9.2.1/../../../arm-none-eabi/lib/thumb/v7e-m+fp/hard/libc.a(lib_a-wctomb_r.o)
                0x000000000806001c                _wctomb_r
                0x0000000008060030                __ascii_wctomb
 .text          0x000000000806004c       0xd0 /usr/lib/gcc/arm-none-eabi/9.2.1/../../../arm-none-eabi/lib/thumb/v7e-m+fp/hard/libc.a(lib_a-wsetup.o)
                0x000000000806004c                __swsetup_r
 .text          0x000000000806011c       0x10 /usr/lib/gcc/arm-none-eabi/9.2.1/../../../arm-none-eabi/lib/thumb/v7e-m+fp/hard/libc.a(lib_a-abort.o)
                0x000000000806011c                abort
 .text          0x000000000806012c      0x110 /usr/lib/gcc/arm-none-eabi/9.2.1/../../../arm-none-eabi/lib/thumb/v7e-m+fp/hard/libc.a(lib_a-fputwc.o)
                0x000000000806012c                __fputwc
                0x00000000080601d4                _fputwc_r
                0x00000000080601fc                fputwc
 .text          0x000000000806023c      0x308 /usr/lib/gcc/arm-none-eabi/9.2.1/../../../arm-none-eabi/lib/thumb/v7e-m+fp/hard/libc.a(lib_a-fvwrite.o)
                0x000000000806023c                __sfvwrite_r
 .text          0x0000000008060544       0xf0 /usr/lib/gcc/arm-none-eabi/9.2.1/../../../arm-none-eabi/lib/thumb/v7e-m+fp/hard/libc.a(lib_a-makebuf.o)
                0x0000000008060544                __swhatbuf_r
                0x00000000080605a0                __smakebuf_r
 .text          0x0000000008060634      0x15c /usr/lib/gcc/arm-none-eabi/9.2.1/../../../arm-none-eabi/lib/thumb/v7e-m+fp/hard/libc.a(lib_a-signal.o)
                0x000000000806065c                _init_signal_r
                0x0000000008060668                _signal_r
                0x00000000080606a0                _raise_r
                0x00000000080606f8                __sigtramp_r
                0x000000000806074c                raise
                0x000000000806075c                signal
                0x000000000806076c                _init_signal
                0x0000000008060780                __sigtramp
 .text          0x0000000008060790       0x2c /usr/lib/gcc/arm-none-eabi/9.2.1/../../../arm-none-eabi/lib/thumb/v7e-m+fp/hard/libc.a(lib_a-signalr.o)
                0x0000000008060790                _kill_r
                0x00000000080607b8                _getpid_r
 .text          0x00000000080607bc       0xc0 /usr/lib/gcc/arm-none-eabi/9.2.1/../../../arm-none-eabi/lib/thumb/v7e-m+fp/hard/libc.a(lib_a-wbuf.o)
                0x00000000080607bc                __swbuf_r
                0x000000000806086c                __swbuf
 .text          0x000000000806087c       0x7c /usr/lib/gcc/arm-none-eabi/9.2.1/../../../arm-none-eabi/lib/thumb/v7e-m+fp/hard/libc.a(lib_a-wcrtomb.o)
                0x000000000806087c                _wcrtomb_r
                0x00000000080608b0                wcrtomb
 .text          0x00000000080608f8       0x28 /usr/lib/gcc/arm-none-eabi/9.2.1/../../../arm-none-eabi/lib/thumb/v7e-m+fp/hard/libc.a(lib_a-fstatr.o)
                0x00000000080608f8                _fstat_r
 .text          0x0000000008060920       0x24 /usr/lib/gcc/arm-none-eabi/9.2.1/../../../arm-none-eabi/lib/thumb/v7e-m+fp/hard/libc.a(lib_a-isattyr.o)
                0x0000000008060920                _isatty_r
 .text          0x0000000008060944      0x378 /usr/lib/gcc/arm-none-eabi/9.2.1/thumb/v7e-m+fp/hard/libgcc.a(_arm_addsubdf3.o)
                0x0000000008060944                __aeabi_drsub
                0x000000000806094c                __aeabi_dsub
                0x000000000806094c                __subdf3
                0x0000000008060950                __adddf3
                0x0000000008060950                __aeabi_dadd
                0x0000000008060bc8                __aeabi_ui2d
                0x0000000008060bc8                __floatunsidf
                0x0000000008060be8                __floatsidf
                0x0000000008060be8                __aeabi_i2d
                0x0000000008060c0c                __extendsfdf2
                0x0000000008060c0c                __aeabi_f2d
                0x0000000008060c50                __aeabi_ul2d
                0x0000000008060c50                __floatundidf
                0x0000000008060c60                __floatdidf
                0x0000000008060c60                __aeabi_l2d
 .text          0x0000000008060cbc      0x424 /usr/lib/gcc/arm-none-eabi/9.2.1/thumb/v7e-m+fp/hard/libgcc.a(_arm_muldivdf3.o)
                0x0000000008060cbc                __aeabi_dmul
                0x0000000008060cbc                __muldf3
                0x0000000008060f10                __aeabi_ddiv
                0x0000000008060f10                __divdf3
 .text          0x00000000080610e0      0x110 /usr/lib/gcc/arm-none-eabi/9.2.1/thumb/v7e-m+fp/hard/libgcc.a(_arm_cmpdf2.o)
                0x00000000080610e0                __gtdf2
                0x00000000080610e0                __gedf2
                0x00000000080610e8                __ltdf2
                0x00000000080610e8                __ledf2
                0x00000000080610f0                __cmpdf2
                0x00000000080610f0                __eqdf2
                0x00000000080610f0                __nedf2
                0x000000000806116c                __aeabi_cdrcmple
                0x000000000806117c                __aeabi_cdcmple
                0x000000000806117c                __aeabi_cdcmpeq
                0x000000000806118c                __aeabi_dcmpeq
                0x00000000080611a0                __aeabi_dcmplt
                0x00000000080611b4                __aeabi_dcmple
                0x00000000080611c8                __aeabi_dcmpge
                0x00000000080611dc                __aeabi_dcmpgt
 .text          0x00000000080611f0       0x2c /usr/lib/gcc/arm-none-eabi/9.2.1/thumb/v7e-m+fp/hard/libgcc.a(_arm_unorddf2.o)
                0x00000000080611f0                __aeabi_dcmpun
                0x00000000080611f0                __unorddf2
 .text          0x000000000806121c       0x50 /usr/lib/gcc/arm-none-eabi/9.2.1/thumb/v7e-m+fp/hard/libgcc.a(_arm_fixdfsi.o)
                0x000000000806121c                __fixdfsi
                0x000000000806121c                __aeabi_d2iz
 .text          0x000000000806126c        0x4 /usr/lib/gcc/arm-none-eabi/9.2.1/../../../arm-none-eabi/lib/thumb/v7e-m+fp/hard/libnosys.a(_exit.o)
                0x000000000806126c                _exit
 *(.text*)
 .text._read    0x0000000008061270        0x4 build/pgm_syscalls.o
                0x0000000008061270                _read
 .text._write   0x0000000008061274        0x8 build/pgm_syscalls.o
                0x0000000008061274                _write
 .text._close   0x000000000806127c        0x8 build/pgm_syscalls.o
                0x000000000806127c                _close
 .text._fstat   0x0000000008061284        0xc build/pgm_syscalls.o
                0x0000000008061284                _fstat
 .text._isatty  0x0000000008061290        0x4 build/pgm_syscalls.o
                0x0000000008061290                _isatty
 .text._lseek   0x0000000008061294        0x4 build/pgm_syscalls.o
                0x0000000008061294                _lseek
 .text._kill    0x0000000008061298       0x10 build/pgm_syscalls.o
                0x0000000008061298                _kill
 .text._getpid  0x00000000080612a8        0x4 build/pgm_syscalls.o
                0x00000000080612a8                _getpid
 .text.free     0x00000000080612ac        0x8 build/pgm_syscalls.o
                0x00000000080612ac                free
 .text.calloc   0x00000000080612b4        0x8 build/pgm_syscalls.o
                0x00000000080612b4                calloc
 .text.__wrap__malloc_r
                0x00000000080612bc        0xc build/pgm_syscalls.o
                0x00000000080612bc                __wrap__malloc_r
 .text._calloc_r
                0x00000000080612c8        0xc build/pgm_syscalls.o
                0x00000000080612c8                _calloc_r
 .text._realloc_r
                0x00000000080612d4        0xc build/pgm_syscalls.o
                0x00000000080612d4                _realloc_r
 .text._free_r  0x00000000080612e0        0xc build/pgm_syscalls.o
                0x00000000080612e0                _free_r
 .text.post_main
                0x00000000080612ec       0x1c build/pgm_syscalls.o
                0x00000000080612ec                post_main
 .text.gtodot_digit
                0x0000000008061308       0x60 build/keys.o
 .text.check_f_key
                0x0000000008061368       0x40 build/keys.o
 .text.is_label_or_end_at
                0x00000000080613a8       0x30 build/keys.o
 .text.advance_to_next_label
                0x00000000080613d8       0x4c build/keys.o
 .text.init_cat
                0x0000000008061424       0xec build/keys.o
 .text.advance_to_previous_label
                0x0000000008061510       0x50 build/keys.o
 .text.check_confirm.part.0
                0x0000000008061560       0x30 build/keys.o
 .text.init_arg.part.0
                0x0000000008061590       0x28 build/keys.o
 .text.reset_arg
                0x00000000080615b8       0x1c build/keys.o
 .text.arg_eval
                0x00000000080615d4       0x9c build/keys.o
 .text.arg_digit
                0x0000000008061670      0x10c build/keys.o
 .text.process_arg_shuffle
                0x000000000806177c       0x30 build/keys.o
 .text.process_h_shifted
                0x00000000080617ac       0xd8 build/keys.o
 .text.intltr   0x0000000008061884       0x38 build/keys.o
 .text.process_normal
                0x00000000080618bc      0x278 build/keys.o
 .text.process_fg_shifted
                0x0000000008061b34      0x2a8 build/keys.o
 .text.set_window
                0x0000000008061ddc       0x98 build/keys.o
 .text.arg_storcl
                0x0000000008061e74       0x44 build/keys.o
 .text.process_arg
                0x0000000008061eb8      0x550 build/keys.o
 .text.cur_shift
                0x0000000008062408       0x14 build/keys.o
                0x0000000008062408                cur_shift
 .text.reset_shift
                0x000000000806241c       0x18 build/keys.o
                0x000000000806241c                reset_shift
 .text.keycode_to_row_column
                0x0000000008062434       0x24 build/keys.o
                0x0000000008062434                keycode_to_row_column
 .text.row_column_to_keycode
                0x0000000008062458       0x40 build/keys.o
                0x0000000008062458                row_column_to_keycode
 .text.init_state
                0x0000000008062498       0x84 build/keys.o
                0x0000000008062498                init_state
 .text.process_cmplx
                0x000000000806251c       0xbc build/keys.o
 .text.soft_init_state
                0x00000000080625d8       0x50 build/keys.o
                0x00000000080625d8                soft_init_state
 .text.finish_cpx_entry
                0x0000000008062628       0xc8 build/keys.o
                0x0000000008062628                finish_cpx_entry
 .text.stack_begin
                0x00000000080626f0       0xbc build/keys.o
                0x00000000080626f0                stack_begin
 .text.current_catalogue
                0x00000000080627ac       0xe0 build/keys.o
                0x00000000080627ac                current_catalogue
 .text.process_catalogue
                0x000000000806288c      0x31c build/keys.o
 .text.get_alpha_state
                0x0000000008062ba8       0x28 build/keys.o
                0x0000000008062ba8                get_alpha_state
 .text.process_keycode
                0x0000000008062bd0     0x1dd8 build/keys.o
                0x0000000008062bd0                process_keycode
 .text.process_keycode_with_shift
                0x00000000080649a8       0xa8 build/keys.o
                0x00000000080649a8                process_keycode_with_shift
 .text.set_separator_decimal_modes
                0x0000000008064a50       0x54 build/display.o
 .text.set_dig  0x0000000008064aa4       0x78 build/display.o
 .text.hms_render
                0x0000000008064b1c       0xa8 build/display.o
 .text.set_exp_digits_string
                0x0000000008064bc4       0x40 build/display.o
 .text.hms_step
                0x0000000008064c04       0x38 build/display.o
 .text.set_exp  0x0000000008064c3c      0x124 build/display.o
 .text.set_separator.part.0
                0x0000000008064d60       0x40 build/display.o
 .text.set_decimal
                0x0000000008064da0       0x54 build/display.o
 .text.set_digits_string
                0x0000000008064df4       0x44 build/display.o
 .text.check_special_dn.isra.0
                0x0000000008064e38       0x9c build/display.o
 .text.set_x_hms
                0x0000000008064ed4      0x1c8 build/display.o
 .text.set_x_fract
                0x000000000806509c      0x1b4 build/display.o
 .text.carry_overflow
                0x0000000008065250       0x84 build/display.o
 .text.set_int_x
                0x00000000080652d4      0x3d4 build/display.o
 .text.set_annunciators
                0x00000000080656a8      0x108 build/display.o
 .text.s_s_sized.constprop.0
                0x00000000080657b0      0x19c build/display.o
 .text.dot      0x000000000806594c        0xc build/display.o
                0x000000000806594c                dot
 .text.std_round_fix
                0x0000000008065958       0x7c build/display.o
                0x0000000008065958                std_round_fix
 .text.pixel_length
                0x00000000080659d4       0x40 build/display.o
                0x00000000080659d4                pixel_length
 .text.set_status
                0x0000000008065a14       0x38 build/display.o
 .text.set_x_dn
                0x0000000008065a4c      0x9ec build/display.o
                0x0000000008065a4c                set_x_dn
 .text.set_x    0x0000000008066438       0x34 build/display.o
 .text.format_reg
                0x000000000806646c       0x6c build/display.o
                0x000000000806646c                format_reg
 .text.set_status_right
                0x00000000080664d8       0x64 build/display.o
 .text.annunciators
                0x000000000806653c      0x528 build/display.o
 .text.display  0x0000000008066a64      0xe90 build/display.o
                0x0000000008066a64                display
 .text.frozen_display
                0x00000000080678f4       0x20 build/display.o
                0x00000000080678f4                frozen_display
 .text.message  0x0000000008067914       0x70 build/display.o
                0x0000000008067914                message
 .text.error_message
                0x0000000008067984       0x88 build/display.o
                0x0000000008067984                error_message
 .text.find_section_bounds
                0x0000000008067a0c       0x78 build/xeq.o
 .text.reg_address
                0x0000000008067a84       0x64 build/xeq.o
 .text.retstk_up
                0x0000000008067ae8       0x74 build/xeq.o
 .text.flag_word
                0x0000000008067b5c       0x78 build/xeq.o
 .text.set_zero
                0x0000000008067bd4       0x24 build/xeq.o
 .text.intResult
                0x0000000008067bf8       0xac build/xeq.o
 .text.check_stack_overlap
                0x0000000008067ca4       0x74 build/xeq.o
 .text.move_retstk
                0x0000000008067d18       0x80 build/xeq.o
                0x0000000008067d18                move_retstk
 .text.local_regs_rarg
                0x0000000008067d98       0x60 build/xeq.o
                0x0000000008067d98                local_regs_rarg
 .text.get_reg_limit
                0x0000000008067df8       0xbc build/xeq.o
 .text.local_regs
                0x0000000008067eb4       0x40 build/xeq.o
                0x0000000008067eb4                local_regs
 .text.global_regs_rarg
                0x0000000008067ef4       0x40 build/xeq.o
                0x0000000008067ef4                global_regs_rarg
 .text.global_regs
                0x0000000008067f34       0x24 build/xeq.o
                0x0000000008067f34                global_regs
 .text.version  0x0000000008067f58       0x1c build/xeq.o
                0x0000000008067f58                version
 .text.cmd_off  0x0000000008067f74        0x4 build/xeq.o
                0x0000000008067f74                cmd_off
 .text.init_RegionTab
                0x0000000008067f78       0x2c build/xeq.o
                0x0000000008067f78                init_RegionTab
 .text.sizeLIB  0x0000000008067fa4       0x20 build/xeq.o
                0x0000000008067fa4                sizeLIB
 .text.getprog  0x0000000008067fc4       0x50 build/xeq.o
                0x0000000008067fc4                getprog
 .text.get_current_prog
                0x0000000008068014       0x28 build/xeq.o
                0x0000000008068014                get_current_prog
 .text.do_inc   0x000000000806803c       0x48 build/xeq.o
                0x000000000806803c                do_inc
 .text.user_pc.part.0
                0x0000000008068084       0x38 build/xeq.o
 .text.print_step
                0x00000000080680bc       0xac build/xeq.o
 .text.do_dec   0x0000000008068168       0x4c build/xeq.o
                0x0000000008068168                do_dec
 .text.update_program_bounds
                0x00000000080681b4       0x98 build/xeq.o
                0x00000000080681b4                update_program_bounds
 .text.set_pc   0x000000000806824c       0xb0 build/xeq.o
                0x000000000806824c                set_pc
 .text.incpc    0x00000000080682fc       0x2c build/xeq.o
                0x00000000080682fc                incpc
 .text.decpc    0x0000000008068328       0x28 build/xeq.o
                0x0000000008068328                decpc
 .text.fin_tst.part.0
                0x0000000008068350       0x14 build/xeq.o
 .text.do_rtn   0x0000000008068364       0x98 build/xeq.o
 .text.user_pc  0x00000000080683fc       0x14 build/xeq.o
                0x00000000080683fc                user_pc
 .text.find_user_pc
                0x0000000008068410       0x54 build/xeq.o
                0x0000000008068410                find_user_pc
 .text.report_err
                0x0000000008068464       0x20 build/xeq.o
                0x0000000008068464                report_err
 .text.report_warn
                0x0000000008068484       0x5c build/xeq.o
                0x0000000008068484                report_warn
 .text.cmderr   0x00000000080684e0       0x14 build/xeq.o
                0x00000000080684e0                cmderr
 .text.cmdmsg   0x00000000080684f4        0x4 build/xeq.o
                0x00000000080684f4                cmdmsg
 .text.rarg_roundingmode
                0x00000000080684f8       0x18 build/xeq.o
                0x00000000080684f8                rarg_roundingmode
 .text.packed_from_number
                0x0000000008068510       0x3c build/xeq.o
                0x0000000008068510                packed_from_number
 .text.packed128_from_number
                0x000000000806854c       0x3c build/xeq.o
                0x000000000806854c                packed128_from_number
 .text.check_special
                0x0000000008068588       0xa8 build/xeq.o
 .text.packed_from_packed128
                0x0000000008068630       0x1c build/xeq.o
                0x0000000008068630                packed_from_packed128
 .text.packed128_from_packed
                0x000000000806864c       0x1c build/xeq.o
                0x000000000806864c                packed128_from_packed
 .text.stack_size
                0x0000000008068668       0x38 build/xeq.o
                0x0000000008068668                stack_size
 .text.copyreg  0x00000000080686a0       0x20 build/xeq.o
                0x00000000080686a0                copyreg
 .text.set_lift
                0x00000000080686c0       0x10 build/xeq.o
                0x00000000080686c0                set_lift
 .text.is_dblmode
                0x00000000080686d0       0x20 build/xeq.o
                0x00000000080686d0                is_dblmode
 .text.s_to_i   0x00000000080686f0       0x6c build/xeq.o
                0x00000000080686f0                s_to_i
 .text.digit    0x000000000806875c      0x190 build/xeq.o
 .text.s_to_ull
                0x00000000080688ec       0x3c build/xeq.o
                0x00000000080688ec                s_to_ull
 .text.get_cmdline
                0x0000000008068928       0x18 build/xeq.o
                0x0000000008068928                get_cmdline
 .text.is_bad_cmdline
                0x0000000008068940        0x4 build/xeq.o
                0x0000000008068940                is_bad_cmdline
 .text.get_flash_reg_n
                0x0000000008068944       0x20 build/xeq.o
                0x0000000008068944                get_flash_reg_n
 .text.get_const
                0x0000000008068964       0x84 build/xeq.o
                0x0000000008068964                get_const
 .text.get_reg_n
                0x00000000080689e8       0xb4 build/xeq.o
                0x00000000080689e8                get_reg_n
 .text.lift     0x0000000008068a9c       0x6c build/xeq.o
                0x0000000008068a9c                lift
 .text.lift2_if_enabled
                0x0000000008068b08       0x48 build/xeq.o
 .text.lower    0x0000000008068b50       0x74 build/xeq.o
 .text.get_stack_top
                0x0000000008068bc4       0x3c build/xeq.o
 .text.roll_down
                0x0000000008068c00       0x54 build/xeq.o
                0x0000000008068c00                roll_down
 .text.cpx_roll_down
                0x0000000008068c54       0x34 build/xeq.o
                0x0000000008068c54                cpx_roll_down
 .text.roll_up  0x0000000008068c88       0x54 build/xeq.o
                0x0000000008068c88                roll_up
 .text.cpx_roll_up
                0x0000000008068cdc       0x34 build/xeq.o
                0x0000000008068cdc                cpx_roll_up
 .text.fill     0x0000000008068d10       0x70 build/xeq.o
                0x0000000008068d10                fill
 .text.lower2   0x0000000008068d80       0x74 build/xeq.o
 .text.drop     0x0000000008068df4       0x20 build/xeq.o
                0x0000000008068df4                drop
 .text.copyreg_n
                0x0000000008068e14       0x3c build/xeq.o
                0x0000000008068e14                copyreg_n
 .text.setlastX
                0x0000000008068e50        0x8 build/xeq.o
                0x0000000008068e50                setlastX
 .text.setlastXY
                0x0000000008068e58       0x18 build/xeq.o
 .text.getRegister
                0x0000000008068e70       0x34 build/xeq.o
                0x0000000008068e70                getRegister
 .text.getX     0x0000000008068ea4        0x8 build/xeq.o
                0x0000000008068ea4                getX
 .text.getY     0x0000000008068eac        0x8 build/xeq.o
                0x0000000008068eac                getY
 .text.getXY    0x0000000008068eb4       0x18 build/xeq.o
                0x0000000008068eb4                getXY
 .text.getXYZ   0x0000000008068ecc       0x20 build/xeq.o
                0x0000000008068ecc                getXYZ
 .text.getXYZT  0x0000000008068eec       0x14 build/xeq.o
                0x0000000008068eec                getXYZT
 .text.storcl_op
                0x0000000008068f00       0x84 build/xeq.o
 .text.storcl_cop
                0x0000000008068f84       0xc0 build/xeq.o
 .text.cpx_enter
                0x0000000008069044       0x50 build/xeq.o
                0x0000000008069044                cpx_enter
 .text.cpx_fill
                0x0000000008069094       0x94 build/xeq.o
                0x0000000008069094                cpx_fill
 .text.setRegister
                0x0000000008069128       0x54 build/xeq.o
                0x0000000008069128                setRegister
 .text.setX     0x000000000806917c        0x8 build/xeq.o
                0x000000000806917c                setX
 .text.rarg_round
                0x0000000008069184       0x70 build/xeq.o
                0x0000000008069184                rarg_round
 .text.setY     0x00000000080691f4        0x8 build/xeq.o
                0x00000000080691f4                setY
 .text.setXY    0x00000000080691fc       0x2c build/xeq.o
                0x00000000080691fc                setXY
 .text.convert_regK
                0x0000000008069228       0xc4 build/xeq.o
                0x0000000008069228                convert_regK
 .text.cpx_nop  0x00000000080692ec      0x15c build/xeq.o
                0x00000000080692ec                cpx_nop
 .text.get_reg_n_int
                0x0000000008069448       0x1c build/xeq.o
                0x0000000008069448                get_reg_n_int
 .text.storcl_intop
                0x0000000008069464       0xb0 build/xeq.o
 .text.incdec   0x0000000008069514       0x98 build/xeq.o
 .text.set_reg_n_int
                0x00000000080695ac       0x1c build/xeq.o
                0x00000000080695ac                set_reg_n_int
 .text.get_reg_n_int_sgn
                0x00000000080695c8       0x38 build/xeq.o
                0x00000000080695c8                get_reg_n_int_sgn
 .text.get_keycode_from_reg
                0x0000000008069600       0x30 build/xeq.o
 .text.getX_int
                0x0000000008069630        0x8 build/xeq.o
                0x0000000008069630                getX_int
 .text.getX_int_sgn
                0x0000000008069638        0x8 build/xeq.o
                0x0000000008069638                getX_int_sgn
 .text.set_reg_n_int_sgn
                0x0000000008069640       0x64 build/xeq.o
                0x0000000008069640                set_reg_n_int_sgn
 .text.op_roundingmode
                0x00000000080696a4       0x28 build/xeq.o
                0x00000000080696a4                op_roundingmode
 .text.register_from_int
                0x00000000080696cc       0x64 build/xeq.o
 .text.int_from_register
                0x0000000008069730       0x48 build/xeq.o
 .text.switch_to_int
                0x0000000008069778       0x80 build/xeq.o
 .text.process_cmdline.part.0
                0x00000000080697f8      0x250 build/xeq.o
 .text.process_cmdline
                0x0000000008069a48       0x10 build/xeq.o
                0x0000000008069a48                process_cmdline
 .text.cpx_pi   0x0000000008069a58       0xcc build/xeq.o
                0x0000000008069a58                cpx_pi
 .text.process_cmdline_set_lift
                0x0000000008069b24       0x24 build/xeq.o
                0x0000000008069b24                process_cmdline_set_lift
 .text.setX_int
                0x0000000008069b48       0x20 build/xeq.o
                0x0000000008069b48                setX_int
 .text.do_rcl   0x0000000008069b68       0xdc build/xeq.o
 .text.setX_int_sgn
                0x0000000008069c44       0x18 build/xeq.o
                0x0000000008069c44                setX_int_sgn
 .text.zero_X   0x0000000008069c5c        0xc build/xeq.o
                0x0000000008069c5c                zero_X
 .text.zero_Y   0x0000000008069c68       0x10 build/xeq.o
                0x0000000008069c68                zero_Y
 .text.clrx     0x0000000008069c78       0x78 build/xeq.o
                0x0000000008069c78                clrx
 .text.clrstk   0x0000000008069cf0       0x6c build/xeq.o
                0x0000000008069cf0                clrstk
 .text.clrreg   0x0000000008069d5c      0x12c build/xeq.o
                0x0000000008069d5c                clrreg
 .text.clrretstk
                0x0000000008069e88       0x14 build/xeq.o
                0x0000000008069e88                clrretstk
 .text.clrretstk_pc
                0x0000000008069e9c       0x24 build/xeq.o
                0x0000000008069e9c                clrretstk_pc
 .text.cmdconst
                0x0000000008069ec0       0xd4 build/xeq.o
                0x0000000008069ec0                cmdconst
 .text.cmdsto   0x0000000008069f94       0x80 build/xeq.o
                0x0000000008069f94                cmdsto
 .text.cmdrcl   0x000000000806a014        0x4 build/xeq.o
                0x000000000806a014                cmdrcl
 .text.cmdcsto  0x000000000806a018       0xd0 build/xeq.o
                0x000000000806a018                cmdcsto
 .text.cmdcrcl  0x000000000806a0e8      0x108 build/xeq.o
                0x000000000806a0e8                cmdcrcl
 .text.cmdircl  0x000000000806a1f0       0x20 build/xeq.o
                0x000000000806a1f0                cmdircl
 .text.cmdrrcl  0x000000000806a210       0x88 build/xeq.o
                0x000000000806a210                cmdrrcl
 .text.swap_reg
                0x000000000806a298       0x64 build/xeq.o
                0x000000000806a298                swap_reg
 .text.cmdswap  0x000000000806a2fc       0x9c build/xeq.o
                0x000000000806a2fc                cmdswap
 .text.cmdview  0x000000000806a398       0x5c build/xeq.o
                0x000000000806a398                cmdview
 .text.get_stack_size
                0x000000000806a3f4       0x48 build/xeq.o
                0x000000000806a3f4                get_stack_size
 .text.get_word_size
                0x000000000806a43c       0x1c build/xeq.o
                0x000000000806a43c                get_word_size
 .text.get_sign_mode
                0x000000000806a458       0x28 build/xeq.o
                0x000000000806a458                get_sign_mode
 .text.get_base
                0x000000000806a480       0x1c build/xeq.o
                0x000000000806a480                get_base
 .text.op_ticks
                0x000000000806a49c       0x28 build/xeq.o
                0x000000000806a49c                op_ticks
 .text.op_voltage
                0x000000000806a4c4       0x64 build/xeq.o
                0x000000000806a4c4                op_voltage
 .text.free_mem
                0x000000000806a528       0x18 build/xeq.o
                0x000000000806a528                free_mem
 .text.free_flash
                0x000000000806a540       0x14 build/xeq.o
                0x000000000806a540                free_flash
 .text.get_mem  0x000000000806a554       0xac build/xeq.o
                0x000000000806a554                get_mem
 .text.cmdputkey
                0x000000000806a600       0x3c build/xeq.o
                0x000000000806a600                cmdputkey
 .text.cmdkeytype
                0x000000000806a63c       0x50 build/xeq.o
                0x000000000806a63c                cmdkeytype
 .text.op_query_xtal
                0x000000000806a68c       0x24 build/xeq.o
                0x000000000806a68c                op_query_xtal
 .text.op_query_print
                0x000000000806a6b0       0x28 build/xeq.o
                0x000000000806a6b0                op_query_print
 .text.cmdstostk
                0x000000000806a6d8       0x24 build/xeq.o
                0x000000000806a6d8                cmdstostk
 .text.cmdrclstk
                0x000000000806a6fc       0x24 build/xeq.o
                0x000000000806a6fc                cmdrclstk
 .text.find_opcode_from
                0x000000000806a720       0x70 build/xeq.o
                0x000000000806a720                find_opcode_from
 .text.find_label_from
                0x000000000806a790        0x8 build/xeq.o
                0x000000000806a790                find_label_from
 .text.op_rtn   0x000000000806a798       0x28 build/xeq.o
                0x000000000806a798                op_rtn
 .text.op_popusr
                0x000000000806a7c0       0x60 build/xeq.o
                0x000000000806a7c0                op_popusr
 .text.findmultilbl
                0x000000000806a820       0x4c build/xeq.o
                0x000000000806a820                findmultilbl
 .text.get_dispmode_digs
                0x000000000806a86c       0x30 build/xeq.o
                0x000000000806a86c                get_dispmode_digs
 .text.convC2F  0x000000000806a89c       0x24 build/xeq.o
                0x000000000806a89c                convC2F
 .text.convF2C  0x000000000806a8c0       0x24 build/xeq.o
                0x000000000806a8c0                convF2C
 .text.convDB2AR
                0x000000000806a8e4       0x20 build/xeq.o
                0x000000000806a8e4                convDB2AR
 .text.convAR2DB
                0x000000000806a904       0x20 build/xeq.o
                0x000000000806a904                convAR2DB
 .text.convDB2PR
                0x000000000806a924       0x1c build/xeq.o
                0x000000000806a924                convDB2PR
 .text.convPR2DB
                0x000000000806a940       0x1c build/xeq.o
                0x000000000806a940                convPR2DB
 .text.do_conv  0x000000000806a95c       0x44 build/xeq.o
                0x000000000806a95c                do_conv
 .text.cmdconv  0x000000000806a9a0       0x40 build/xeq.o
                0x000000000806a9a0                cmdconv
 .text.fin_tst  0x000000000806a9e0       0x40 build/xeq.o
                0x000000000806a9e0                fin_tst
 .text.check_mode
                0x000000000806aa20       0x28 build/xeq.o
                0x000000000806aa20                check_mode
 .text.check_dblmode
                0x000000000806aa48       0x20 build/xeq.o
                0x000000000806aa48                check_dblmode
 .text.isTop    0x000000000806aa68       0x44 build/xeq.o
                0x000000000806aa68                isTop
 .text.cmdlblp  0x000000000806aaac       0x28 build/xeq.o
                0x000000000806aaac                cmdlblp
 .text.cmdmultilblp
                0x000000000806aad4       0x18 build/xeq.o
                0x000000000806aad4                cmdmultilblp
 .text.cmdkeyp  0x000000000806aaec       0x48 build/xeq.o
                0x000000000806aaec                cmdkeyp
 .text.do_tst   0x000000000806ab34      0x170 build/xeq.o
 .text.do_ztst  0x000000000806aca4       0xd0 build/xeq.o
 .text.check_zero
                0x000000000806ad74       0x70 build/xeq.o
                0x000000000806ad74                check_zero
 .text.cmdtest  0x000000000806ade4        0x8 build/xeq.o
                0x000000000806ade4                cmdtest
 .text.cmdztest
                0x000000000806adec       0x2c build/xeq.o
                0x000000000806adec                cmdztest
 .text.cmdlincdec
                0x000000000806ae18       0x10 build/xeq.o
                0x000000000806ae18                cmdlincdec
 .text.cmdloopz
                0x000000000806ae28       0x18 build/xeq.o
                0x000000000806ae28                cmdloopz
 .text.cmdloop  0x000000000806ae40      0x1f8 build/xeq.o
                0x000000000806ae40                cmdloop
 .text.op_shift_digit
                0x000000000806b038       0x68 build/xeq.o
                0x000000000806b038                op_shift_digit
 .text.get_user_flag
                0x000000000806b0a0       0x20 build/xeq.o
                0x000000000806b0a0                get_user_flag
 .text.cmdflag  0x000000000806b0c0       0xc0 build/xeq.o
                0x000000000806b0c0                cmdflag
 .text.clrflags
                0x000000000806b180       0x30 build/xeq.o
                0x000000000806b180                clrflags
 .text.intws    0x000000000806b1b0       0xec build/xeq.o
                0x000000000806b1b0                intws
 .text.get_maxdenom
                0x000000000806b29c       0x20 build/xeq.o
                0x000000000806b29c                get_maxdenom
 .text.op_2frac
                0x000000000806b2bc       0xa0 build/xeq.o
                0x000000000806b2bc                op_2frac
 .text.op_fracdenom
                0x000000000806b35c       0x84 build/xeq.o
                0x000000000806b35c                op_fracdenom
 .text.op_float
                0x000000000806b3e0       0xd4 build/xeq.o
                0x000000000806b3e0                op_float
 .text.cmddisp  0x000000000806b4b4       0xc4 build/xeq.o
                0x000000000806b4b4                cmddisp
 .text.set_int_base
                0x000000000806b578       0x50 build/xeq.o
                0x000000000806b578                set_int_base
 .text.op_fract
                0x000000000806b5c8       0x44 build/xeq.o
                0x000000000806b5c8                op_fract
 .text.cmdsavem
                0x000000000806b60c       0x1c build/xeq.o
                0x000000000806b60c                cmdsavem
 .text.set_entry
                0x000000000806b628       0x2c build/xeq.o
                0x000000000806b628                set_entry
 .text.get_trig_mode
                0x000000000806b654       0x30 build/xeq.o
                0x000000000806b654                get_trig_mode
 .text.cmdpause
                0x000000000806b684       0x24 build/xeq.o
                0x000000000806b684                cmdpause
 .text.op_setspeed
                0x000000000806b6a8       0x20 build/xeq.o
                0x000000000806b6a8                op_setspeed
 .text.op_prompt
                0x000000000806b6c8       0x30 build/xeq.o
                0x000000000806b6c8                op_prompt
 .text.XisInt   0x000000000806b6f8       0x60 build/xeq.o
                0x000000000806b6f8                XisInt
 .text.XisEvenOrOdd
                0x000000000806b758       0x64 build/xeq.o
                0x000000000806b758                XisEvenOrOdd
 .text.XisPrime
                0x000000000806b7bc       0x84 build/xeq.o
                0x000000000806b7bc                XisPrime
 .text.isInfinite
                0x000000000806b840       0x30 build/xeq.o
                0x000000000806b840                isInfinite
 .text.isNan    0x000000000806b870       0x40 build/xeq.o
                0x000000000806b870                isNan
 .text.isSpecial
                0x000000000806b8b0       0x40 build/xeq.o
                0x000000000806b8b0                isSpecial
 .text.op_entryp
                0x000000000806b8f0       0x14 build/xeq.o
                0x000000000806b8f0                op_entryp
 .text.reg_decode
                0x000000000806b904      0x238 build/xeq.o
                0x000000000806b904                reg_decode
 .text.op_regcopy
                0x000000000806bb3c       0x4c build/xeq.o
                0x000000000806bb3c                op_regcopy
 .text.op_regswap
                0x000000000806bb88       0x70 build/xeq.o
                0x000000000806bb88                op_regswap
 .text.op_regclr
                0x000000000806bbf8       0x48 build/xeq.o
                0x000000000806bbf8                op_regclr
 .text.op_regsort
                0x000000000806bc40      0x114 build/xeq.o
                0x000000000806bc40                op_regsort
 .text.busy     0x000000000806bd54       0x24 build/xeq.o
                0x000000000806bd54                busy
 .text.intMonadic
                0x000000000806bd78       0x98 build/xeq.o
                0x000000000806bd78                intMonadic
 .text.intDyadic
                0x000000000806be10       0xd4 build/xeq.o
                0x000000000806be10                intDyadic
 .text.xeq_init_contexts
                0x000000000806bee4       0x9c build/xeq.o
                0x000000000806bee4                xeq_init_contexts
 .text.not_running
                0x000000000806bf80       0x24 build/xeq.o
                0x000000000806bf80                not_running
 .text.set_running_off
                0x000000000806bfa4       0x24 build/xeq.o
                0x000000000806bfa4                set_running_off
 .text.set_running_on
                0x000000000806bfc8       0x44 build/xeq.o
                0x000000000806bfc8                set_running_on
 .text.gsbgto   0x000000000806c00c       0xa8 build/xeq.o
 .text.cmdgtocommon
                0x000000000806c0b4       0x34 build/xeq.o
                0x000000000806c0b4                cmdgtocommon
 .text.cmdgto   0x000000000806c0e8       0x44 build/xeq.o
                0x000000000806c0e8                cmdgto
 .text.branchtoalpha
                0x000000000806c12c       0x28 build/xeq.o
 .text.cmdalphagto
                0x000000000806c154       0x2c build/xeq.o
                0x000000000806c154                cmdalphagto
 .text.op_gtoalpha
                0x000000000806c180       0x34 build/xeq.o
                0x000000000806c180                op_gtoalpha
 .text.cmdskip  0x000000000806c1b4       0x84 build/xeq.o
                0x000000000806c1b4                cmdskip
 .text.cmdback  0x000000000806c238       0x74 build/xeq.o
                0x000000000806c238                cmdback
 .text.usergsb_common
                0x000000000806c2ac       0x8c build/xeq.o
 .text.do_usergsb
                0x000000000806c338       0x18 build/xeq.o
                0x000000000806c338                do_usergsb
 .text.cmdmultigto
                0x000000000806c350       0x50 build/xeq.o
                0x000000000806c350                cmdmultigto
 .text.store_a_to_d
                0x000000000806c3a0       0x24 build/xeq.o
                0x000000000806c3a0                store_a_to_d
 .text.cmdlocr  0x000000000806c3c4      0x16c build/xeq.o
                0x000000000806c3c4                cmdlocr
 .text.cmdxout  0x000000000806c530      0x208 build/xeq.o
                0x000000000806c530                cmdxout
 .text.cmdconverged
                0x000000000806c738       0xf8 build/xeq.o
                0x000000000806c738                cmdconverged
 .text.cmdshuffle
                0x000000000806c830       0x8c build/xeq.o
                0x000000000806c830                cmdshuffle
 .text.cmdmode  0x000000000806c8bc       0x54 build/xeq.o
                0x000000000806c8bc                cmdmode
 .text.cmdlpop  0x000000000806c910       0x3c build/xeq.o
                0x000000000806c910                cmdlpop
 .text.cmdregs  0x000000000806c94c       0xb8 build/xeq.o
                0x000000000806c94c                cmdregs
 .text.op_double
                0x000000000806ca04      0x128 build/xeq.o
                0x000000000806ca04                op_double
 .text.cmdrestm
                0x000000000806cb2c       0xac build/xeq.o
                0x000000000806cb2c                cmdrestm
 .text.cmdxin   0x000000000806cbd8      0x1d0 build/xeq.o
                0x000000000806cbd8                cmdxin
 .text.xeq      0x000000000806cda8      0xd0c build/xeq.o
                0x000000000806cda8                xeq
 .text.xeq_single
                0x000000000806dab4       0x24 build/xeq.o
 .text.xeq_xrom2
                0x000000000806dad8       0x88 build/xeq.o
 .text.xeq_xrom
                0x000000000806db60       0x14 build/xeq.o
                0x000000000806db60                xeq_xrom
 .text.dispatch_xrom
                0x000000000806db74       0x74 build/xeq.o
 .text.op_rs    0x000000000806dbe8       0x8c build/xeq.o
                0x000000000806dbe8                op_rs
 .text.xeqprog  0x000000000806dc74       0x74 build/xeq.o
                0x000000000806dc74                xeqprog
 .text.xeq_sst_bst
                0x000000000806dce8       0xac build/xeq.o
                0x000000000806dce8                xeq_sst_bst
 .text.init_34s
                0x000000000806dd94       0x2c build/xeq.o
                0x000000000806dd94                init_34s
 .text.prt_multi
                0x000000000806ddc0       0x58 build/prt.o
 .text.prt_conv
                0x000000000806de18       0x64 build/prt.o
 .text.prt_specials.part.0
                0x000000000806de7c      0x10c build/prt.o
 .text.num_arg_digits.part.0
                0x000000000806df88       0x34 build/prt.o
 .text.num_arg_digits
                0x000000000806dfbc       0x20 build/prt.o
                0x000000000806dfbc                num_arg_digits
 .text.prt      0x000000000806dfdc      0x2cc build/prt.o
                0x000000000806dfdc                prt
 .text.catcmd   0x000000000806e2a8      0x120 build/prt.o
                0x000000000806e2a8                catcmd
 .text.decNumberDRG_internal
                0x000000000806e3c8       0x9c build/decn.o
 .text.realULP  0x000000000806e464       0x98 build/decn.o
 .text.dn_lt0   0x000000000806e4fc       0x28 build/decn.o
                0x000000000806e4fc                dn_lt0
 .text.dn_le0   0x000000000806e524       0x28 build/decn.o
                0x000000000806e524                dn_le0
 .text.dn_eq0   0x000000000806e54c       0x1c build/decn.o
                0x000000000806e54c                dn_eq0
 .text.dn_eq    0x000000000806e568       0x50 build/decn.o
                0x000000000806e568                dn_eq
 .text.dn_lt    0x000000000806e5b8       0x44 build/decn.o
                0x000000000806e5b8                dn_lt
 .text.dn_abs_lt
                0x000000000806e5fc       0x20 build/decn.o
                0x000000000806e5fc                dn_abs_lt
 .text.gcheckSmall
                0x000000000806e61c       0x20 build/decn.o
 .text.relative_error
                0x000000000806e63c       0x4c build/decn.o
                0x000000000806e63c                relative_error
 .text.absolute_error
                0x000000000806e688       0x24 build/decn.o
                0x000000000806e688                absolute_error
 .text.dn_add   0x000000000806e6ac        0xc build/decn.o
                0x000000000806e6ac                dn_add
 .text.dn_subtract
                0x000000000806e6b8        0xc build/decn.o
                0x000000000806e6b8                dn_subtract
 .text.dn_multiply
                0x000000000806e6c4        0xc build/decn.o
                0x000000000806e6c4                dn_multiply
 .text.dn_divide
                0x000000000806e6d0        0xc build/decn.o
                0x000000000806e6d0                dn_divide
 .text.dn_compare
                0x000000000806e6dc        0xc build/decn.o
                0x000000000806e6dc                dn_compare
 .text.dn_min   0x000000000806e6e8        0xc build/decn.o
                0x000000000806e6e8                dn_min
 .text.dn_max   0x000000000806e6f4        0xc build/decn.o
                0x000000000806e6f4                dn_max
 .text.dn_abs   0x000000000806e700        0xc build/decn.o
                0x000000000806e700                dn_abs
 .text.dn_minus
                0x000000000806e70c        0xc build/decn.o
                0x000000000806e70c                dn_minus
 .text.dn_plus  0x000000000806e718        0xc build/decn.o
                0x000000000806e718                dn_plus
 .text.dn_sqrt  0x000000000806e724        0xc build/decn.o
                0x000000000806e724                dn_sqrt
 .text.dn_exp   0x000000000806e730        0xc build/decn.o
                0x000000000806e730                dn_exp
 .text.dn_average
                0x000000000806e73c       0x28 build/decn.o
                0x000000000806e73c                dn_average
 .text.int_to_dn
                0x000000000806e764       0x2c build/decn.o
                0x000000000806e764                int_to_dn
 .text.dn_to_int
                0x000000000806e790       0x28 build/decn.o
                0x000000000806e790                dn_to_int
 .text.dn_to_ull
                0x000000000806e7b8       0x60 build/decn.o
                0x000000000806e7b8                dn_to_ull
 .text.set_NaN  0x000000000806e818       0x14 build/decn.o
                0x000000000806e818                set_NaN
 .text.set_inf  0x000000000806e82c        0xc build/decn.o
                0x000000000806e82c                set_inf
 .text.set_neginf
                0x000000000806e838        0xc build/decn.o
                0x000000000806e838                set_neginf
 .text.decNumberPI
                0x000000000806e844        0xc build/decn.o
                0x000000000806e844                decNumberPI
 .text.is_int   0x000000000806e850       0x60 build/decn.o
                0x000000000806e850                is_int
 .text.dn_check_gcd
                0x000000000806e8b0       0x88 build/decn.o
 .text.dn_inc   0x000000000806e938       0x14 build/decn.o
                0x000000000806e938                dn_inc
 .text.dn_dec   0x000000000806e94c       0x14 build/decn.o
                0x000000000806e94c                dn_dec
 .text.dn_p1    0x000000000806e960       0x10 build/decn.o
                0x000000000806e960                dn_p1
 .text.dn_m1    0x000000000806e970       0x10 build/decn.o
                0x000000000806e970                dn_m1
 .text.dn_1m    0x000000000806e980       0x14 build/decn.o
                0x000000000806e980                dn_1m
 .text.dn_1     0x000000000806e994        0xc build/decn.o
                0x000000000806e994                dn_1
 .text.dn__1    0x000000000806e9a0        0xc build/decn.o
                0x000000000806e9a0                dn__1
 .text.dn_p2    0x000000000806e9ac       0x10 build/decn.o
                0x000000000806e9ac                dn_p2
 .text.dn_mul2  0x000000000806e9bc       0x10 build/decn.o
                0x000000000806e9bc                dn_mul2
 .text.dn_mul100
                0x000000000806e9cc       0x14 build/decn.o
                0x000000000806e9cc                dn_mul100
 .text.dn_mulPI
                0x000000000806e9e0       0x10 build/decn.o
                0x000000000806e9e0                dn_mulPI
 .text.dn_mulpow10
                0x000000000806e9f0       0x14 build/decn.o
                0x000000000806e9f0                dn_mulpow10
 .text.decNumberMantissa
                0x000000000806ea04       0x48 build/decn.o
                0x000000000806ea04                decNumberMantissa
 .text.decNumberExponent
                0x000000000806ea4c       0x44 build/decn.o
                0x000000000806ea4c                decNumberExponent
 .text.decNumberULP
                0x000000000806ea90        0xc build/decn.o
                0x000000000806ea90                decNumberULP
 .text.decNumberNeighbour
                0x000000000806ea9c       0xb4 build/decn.o
                0x000000000806ea9c                decNumberNeighbour
 .text.decNumberRecip
                0x000000000806eb50       0x14 build/decn.o
                0x000000000806eb50                decNumberRecip
 .text.decNumberFloor
                0x000000000806eb64       0x1c build/decn.o
                0x000000000806eb64                decNumberFloor
 .text.decNumberCeil
                0x000000000806eb80       0x1c build/decn.o
                0x000000000806eb80                decNumberCeil
 .text.decNumberTrunc
                0x000000000806eb9c       0x1c build/decn.o
                0x000000000806eb9c                decNumberTrunc
 .text.decNumberRound
                0x000000000806ebb8       0x1c build/decn.o
                0x000000000806ebb8                decNumberRound
 .text.decNumberFrac
                0x000000000806ebd4       0x30 build/decn.o
                0x000000000806ebd4                decNumberFrac
 .text.dn_ln    0x000000000806ec04      0x1d4 build/decn.o
                0x000000000806ec04                dn_ln
 .text.decNumberLn1p
                0x000000000806edd8       0x80 build/decn.o
                0x000000000806edd8                decNumberLn1p
 .text.decNumberExpm1
                0x000000000806ee58       0x8c build/decn.o
                0x000000000806ee58                decNumberExpm1
 .text.do_log   0x000000000806eee4       0x5c build/decn.o
                0x000000000806eee4                do_log
 .text.dn_log2  0x000000000806ef40        0xc build/decn.o
                0x000000000806ef40                dn_log2
 .text.dn_log10
                0x000000000806ef4c        0xc build/decn.o
                0x000000000806ef4c                dn_log10
 .text.decNumberLogxy
                0x000000000806ef58       0x20 build/decn.o
                0x000000000806ef58                decNumberLogxy
 .text.decNumberSquare
                0x000000000806ef78        0xc build/decn.o
                0x000000000806ef78                decNumberSquare
 .text.decNumberCube
                0x000000000806ef84       0x28 build/decn.o
                0x000000000806ef84                decNumberCube
 .text.decNumberMod
                0x000000000806efac       0x2c build/decn.o
                0x000000000806efac                decNumberMod
 .text.is_even  0x000000000806efd8       0x64 build/decn.o
                0x000000000806efd8                is_even
 .text.dn_power_internal
                0x000000000806f03c      0x200 build/decn.o
                0x000000000806f03c                dn_power_internal
 .text.dn_power
                0x000000000806f23c        0x8 build/decn.o
                0x000000000806f23c                dn_power
 .text.decNumberCubeRoot
                0x000000000806f244       0x5c build/decn.o
                0x000000000806f244                decNumberCubeRoot
 .text.decNumberPow2
                0x000000000806f2a0       0x14 build/decn.o
                0x000000000806f2a0                decNumberPow2
 .text.decNumberPow10
                0x000000000806f2b4       0x14 build/decn.o
                0x000000000806f2b4                decNumberPow10
 .text.decNumberXRoot
                0x000000000806f2c8       0x7c build/decn.o
                0x000000000806f2c8                decNumberXRoot
 .text.decNumberBigMod
                0x000000000806f344       0x84 build/decn.o
                0x000000000806f344                decNumberBigMod
 .text.dn_gcd   0x000000000806f3c8       0x60 build/decn.o
 .text.decNumberGCD
                0x000000000806f428       0x60 build/decn.o
                0x000000000806f428                decNumberGCD
 .text.decNumberLCM
                0x000000000806f488       0x78 build/decn.o
                0x000000000806f488                decNumberLCM
 .text.sincosTaylor
                0x000000000806f500      0x15c build/decn.o
                0x000000000806f500                sincosTaylor
 .text.decNumberPow_1
                0x000000000806f65c       0x68 build/decn.o
                0x000000000806f65c                decNumberPow_1
 .text.Gamma_LnGamma
                0x000000000806f6c4      0x2e0 build/decn.o
 .text.perm_helper
                0x000000000806f9a4       0xe4 build/decn.o
 .text.cvt_2rad_sincos
                0x000000000806fa88      0x154 build/decn.o
 .text.dn_sincos
                0x000000000806fbdc       0x38 build/decn.o
                0x000000000806fbdc                dn_sincos
 .text.decNumberSin
                0x000000000806fc14       0x30 build/decn.o
                0x000000000806fc14                decNumberSin
 .text.decNumberCos
                0x000000000806fc44       0x30 build/decn.o
                0x000000000806fc44                decNumberCos
 .text.decNumberTan
                0x000000000806fc74       0x70 build/decn.o
                0x000000000806fc74                decNumberTan
 .text.decNumberSinc
                0x000000000806fce4       0x64 build/decn.o
                0x000000000806fce4                decNumberSinc
 .text.do_atan  0x000000000806fd48      0x1d8 build/decn.o
                0x000000000806fd48                do_atan
 .text.do_asin  0x000000000806ff20       0x94 build/decn.o
                0x000000000806ff20                do_asin
 .text.do_acos  0x000000000806ffb4       0xa8 build/decn.o
                0x000000000806ffb4                do_acos
 .text.decNumberArcSin
                0x000000000807005c       0x1c build/decn.o
                0x000000000807005c                decNumberArcSin
 .text.decNumberArcCos
                0x0000000008070078       0x1c build/decn.o
                0x0000000008070078                decNumberArcCos
 .text.decNumberArcTan
                0x0000000008070094       0x68 build/decn.o
                0x0000000008070094                decNumberArcTan
 .text.do_atan2
                0x00000000080700fc      0x164 build/decn.o
                0x00000000080700fc                do_atan2
 .text.decNumberArcTan2
                0x0000000008070260       0x1c build/decn.o
                0x0000000008070260                decNumberArcTan2
 .text.op_r2p   0x000000000807027c       0x54 build/decn.o
                0x000000000807027c                op_r2p
 .text.op_p2r   0x00000000080702d0       0x54 build/decn.o
                0x00000000080702d0                op_p2r
 .text.dn_sinhcosh
                0x0000000008070324       0xbc build/decn.o
                0x0000000008070324                dn_sinhcosh
 .text.decNumberSinh
                0x00000000080703e0       0x38 build/decn.o
                0x00000000080703e0                decNumberSinh
 .text.decNumberCosh
                0x0000000008070418       0x40 build/decn.o
                0x0000000008070418                decNumberCosh
 .text.decNumberTanh
                0x0000000008070458       0x88 build/decn.o
                0x0000000008070458                decNumberTanh
 .text.decNumberArcSinh
                0x00000000080704e0       0x70 build/decn.o
                0x00000000080704e0                decNumberArcSinh
 .text.decNumberArcCosh
                0x0000000008070550       0x48 build/decn.o
                0x0000000008070550                decNumberArcCosh
 .text.decNumberArcTanh
                0x0000000008070598       0xa0 build/decn.o
                0x0000000008070598                decNumberArcTanh
 .text.decNumberD2R
                0x0000000008070638       0x10 build/decn.o
                0x0000000008070638                decNumberD2R
 .text.decNumberR2D
                0x0000000008070648       0x10 build/decn.o
                0x0000000008070648                decNumberR2D
 .text.decNumberG2R
                0x0000000008070658       0x10 build/decn.o
                0x0000000008070658                decNumberG2R
 .text.decNumberR2G
                0x0000000008070668       0x10 build/decn.o
                0x0000000008070668                decNumberR2G
 .text.decNumberG2D
                0x0000000008070678       0x10 build/decn.o
                0x0000000008070678                decNumberG2D
 .text.decNumberD2G
                0x0000000008070688       0x10 build/decn.o
                0x0000000008070688                decNumberD2G
 .text.decNumberDRG
                0x0000000008070698        0xc build/decn.o
                0x0000000008070698                decNumberDRG
 .text.decNumberComb
                0x00000000080706a4       0x78 build/decn.o
                0x00000000080706a4                decNumberComb
 .text.decNumberPerm
                0x000000000807071c       0x50 build/decn.o
                0x000000000807071c                decNumberPerm
 .text.decNumberFactorial
                0x000000000807076c       0x28 build/decn.o
                0x000000000807076c                decNumberFactorial
 .text.decNumberGamma
                0x0000000008070794        0x8 build/decn.o
                0x0000000008070794                decNumberGamma
 .text.decNumberLnGamma
                0x000000000807079c        0x8 build/decn.o
                0x000000000807079c                decNumberLnGamma
 .text.decNumberLnBeta
                0x00000000080707a4       0x5c build/decn.o
                0x00000000080707a4                decNumberLnBeta
 .text.decNumberHMS2HR
                0x0000000008070800       0xbc build/decn.o
                0x0000000008070800                decNumberHMS2HR
 .text.decNumberHR2HMS
                0x00000000080708bc      0x148 build/decn.o
                0x00000000080708bc                decNumberHR2HMS
 .text.decNumberHMSAdd
                0x0000000008070a04       0x34 build/decn.o
                0x0000000008070a04                decNumberHMSAdd
 .text.decNumberHMSSub
                0x0000000008070a38       0x34 build/decn.o
                0x0000000008070a38                decNumberHMSSub
 .text.decNumberNot
                0x0000000008070a6c       0x30 build/decn.o
                0x0000000008070a6c                decNumberNot
 .text.decNumberBooleanOp
                0x0000000008070a9c       0x64 build/decn.o
                0x0000000008070a9c                decNumberBooleanOp
 .text.decNumberRoundDigits
                0x0000000008070b00       0x24 build/decn.o
                0x0000000008070b00                decNumberRoundDigits
 .text.decNumberRoundDecimals
                0x0000000008070b24       0x54 build/decn.o
                0x0000000008070b24                decNumberRoundDecimals
 .text.decNumber2Fraction
                0x0000000008070b78      0x1ec build/decn.o
                0x0000000008070b78                decNumber2Fraction
 .text.decNumberRnd
                0x0000000008070d64       0xa0 build/decn.o
                0x0000000008070d64                decNumberRnd
 .text.decNumberGammap
                0x0000000008070e04      0x384 build/decn.o
                0x0000000008070e04                decNumberGammap
 .text.decFactor
                0x0000000008071188       0x5c build/decn.o
                0x0000000008071188                decFactor
 .text.cmplxDivideRealBy
                0x00000000080711e4       0x64 build/complex.o
 .text.cmplx_sincos
                0x0000000008071248       0x80 build/complex.o
 .text.cmplx_sinhcosh
                0x00000000080712c8       0x48 build/complex.o
 .text.cmplx_NaN
                0x0000000008071310       0x14 build/complex.o
                0x0000000008071310                cmplx_NaN
 .text.cmplxAdd
                0x0000000008071324       0x20 build/complex.o
                0x0000000008071324                cmplxAdd
 .text.cmplxSubtract
                0x0000000008071344       0x20 build/complex.o
                0x0000000008071344                cmplxSubtract
 .text.cmplxMultiply
                0x0000000008071364       0x84 build/complex.o
                0x0000000008071364                cmplxMultiply
 .text.cpx_dot  0x00000000080713e8       0x50 build/complex.o
                0x00000000080713e8                cpx_dot
 .text.cpx_dotdiv
                0x0000000008071438       0x9c build/complex.o
                0x0000000008071438                cpx_dotdiv
 .text.cmplxDivide
                0x00000000080714d4       0xb4 build/complex.o
                0x00000000080714d4                cmplxDivide
 .text.cmplxR   0x0000000008071588       0x30 build/complex.o
                0x0000000008071588                cmplxR
 .text.cmplxToPolar
                0x00000000080715b8       0x20 build/complex.o
                0x00000000080715b8                cmplxToPolar
 .text.cmplxAbs
                0x00000000080715d8       0x18 build/complex.o
                0x00000000080715d8                cmplxAbs
 .text.cmplxMinus
                0x00000000080715f0       0x18 build/complex.o
                0x00000000080715f0                cmplxMinus
 .text.cmplxRecip
                0x0000000008071608       0x7c build/complex.o
                0x0000000008071608                cmplxRecip
 .text.cmplxSqrt
                0x0000000008071684       0xe8 build/complex.o
                0x0000000008071684                cmplxSqrt
 .text.cmplxSin
                0x000000000807176c       0x20 build/complex.o
                0x000000000807176c                cmplxSin
 .text.cmplxCos
                0x000000000807178c       0x1c build/complex.o
                0x000000000807178c                cmplxCos
 .text.cmplxTan
                0x00000000080717a8       0x68 build/complex.o
                0x00000000080717a8                cmplxTan
 .text.cmplxSinc
                0x0000000008071810       0x4c build/complex.o
                0x0000000008071810                cmplxSinc
 .text.cmplxSinh
                0x000000000807185c       0x20 build/complex.o
                0x000000000807185c                cmplxSinh
 .text.cmplxCosh
                0x000000000807187c       0x1c build/complex.o
                0x000000000807187c                cmplxCosh
 .text.cmplxTanh
                0x0000000008071898       0x74 build/complex.o
                0x0000000008071898                cmplxTanh
 .text.cmplx_1x
                0x000000000807190c       0x5c build/complex.o
                0x000000000807190c                cmplx_1x
 .text.cmplxLn  0x0000000008071968       0xb4 build/complex.o
                0x0000000008071968                cmplxLn
 .text.cmplxExp
                0x0000000008071a1c       0x70 build/complex.o
                0x0000000008071a1c                cmplxExp
 .text.cmplxPower
                0x0000000008071a8c       0x7c build/complex.o
                0x0000000008071a8c                cmplxPower
 .text.cmplxXRoot
                0x0000000008071b08       0x38 build/complex.o
                0x0000000008071b08                cmplxXRoot
 .text.cmplxCubeRoot
                0x0000000008071b40       0x34 build/complex.o
                0x0000000008071b40                cmplxCubeRoot
 .text.cmplxGamma_LnGamma
                0x0000000008071b74      0x260 build/complex.o
 .text.cmplxGamma
                0x0000000008071dd4       0x10 build/complex.o
                0x0000000008071dd4                cmplxGamma
 .text.cmplxLnGamma
                0x0000000008071de4       0x10 build/complex.o
                0x0000000008071de4                cmplxLnGamma
 .text.taus_get
                0x0000000008071df4       0x60 build/stats.o
 .text.taus_seed
                0x0000000008071e54       0x78 build/stats.o
 .text.sigop128
                0x0000000008071ecc       0x24 build/stats.o
 .text.sigop    0x0000000008071ef0       0x24 build/stats.o
 .text.sigma_helper
                0x0000000008071f14      0x148 build/stats.o
 .text.correlation
                0x000000000807205c       0xc0 build/stats.o
 .text.get_sigmas
                0x000000000807211c      0x1a8 build/stats.o
 .text.do_LR    0x00000000080722c4       0xa4 build/stats.o
 .text.do_s     0x0000000008072368       0x90 build/stats.o
 .text.check_low
                0x00000000080723f8       0x20 build/stats.o
 .text.ib_step  0x0000000008072418       0x48 build/stats.o
 .text.betacf   0x0000000008072460      0x178 build/stats.o
 .text.sigmaCheck
                0x00000000080725d8       0x40 build/stats.o
                0x00000000080725d8                sigmaCheck
 .text.sigmaAllocate
                0x0000000008072618       0x60 build/stats.o
 .text.check_data
                0x0000000008072678       0x28 build/stats.o
 .text.sigmaDeallocate
                0x00000000080726a0       0x28 build/stats.o
                0x00000000080726a0                sigmaDeallocate
 .text.sigmaCopy
                0x00000000080726c8       0x28 build/stats.o
                0x00000000080726c8                sigmaCopy
 .text.stats_mode
                0x00000000080726f0       0x18 build/stats.o
                0x00000000080726f0                stats_mode
 .text.sigma_clear
                0x0000000008072708       0x28 build/stats.o
                0x0000000008072708                sigma_clear
 .text.sigma_plus
                0x0000000008072730       0x38 build/stats.o
                0x0000000008072730                sigma_plus
 .text.sigma_minus
                0x0000000008072768       0x38 build/stats.o
                0x0000000008072768                sigma_minus
 .text.sigma_val
                0x00000000080727a0       0x98 build/stats.o
                0x00000000080727a0                sigma_val
 .text.sigma_sum
                0x0000000008072838       0x6c build/stats.o
                0x0000000008072838                sigma_sum
 .text.stats_mean
                0x00000000080728a4       0x48 build/stats.o
                0x00000000080728a4                stats_mean
 .text.stats_wmean
                0x00000000080728ec       0x38 build/stats.o
                0x00000000080728ec                stats_wmean
 .text.stats_gmean
                0x0000000008072924       0x58 build/stats.o
                0x0000000008072924                stats_gmean
 .text.stats_deviations
                0x000000000807297c       0xd0 build/stats.o
                0x000000000807297c                stats_deviations
 .text.stats_wdeviations
                0x0000000008072a4c       0xcc build/stats.o
                0x0000000008072a4c                stats_wdeviations
 .text.stats_sigper
                0x0000000008072b18       0x3c build/stats.o
                0x0000000008072b18                stats_sigper
 .text.stats_correlation
                0x0000000008072b54       0x30 build/stats.o
                0x0000000008072b54                stats_correlation
 .text.stats_COV
                0x0000000008072b84       0x80 build/stats.o
                0x0000000008072b84                stats_COV
 .text.stats_LR
                0x0000000008072c04       0x44 build/stats.o
                0x0000000008072c04                stats_LR
 .text.stats_xhat
                0x0000000008072c48       0xb4 build/stats.o
                0x0000000008072c48                stats_xhat
 .text.stats_yhat
                0x0000000008072cfc       0xa0 build/stats.o
                0x0000000008072cfc                stats_yhat
 .text.stats_random
                0x0000000008072d9c       0x6c build/stats.o
                0x0000000008072d9c                stats_random
 .text.stats_sto_random
                0x0000000008072e08       0x3c build/stats.o
                0x0000000008072e08                stats_sto_random
 .text.betai    0x0000000008072e44      0x188 build/stats.o
                0x0000000008072e44                betai
 .text.set_dot  0x0000000008072fcc        0xc build/lcd.o
                0x0000000008072fcc                set_dot
 .text.clr_dot  0x0000000008072fd8        0xc build/lcd.o
                0x0000000008072fd8                clr_dot
 .text.is_dot   0x0000000008072fe4        0xc build/lcd.o
                0x0000000008072fe4                is_dot
 .text.reset_disp
                0x0000000008072ff0       0x6c build/lcd.o
                0x0000000008072ff0                reset_disp
 .text.left_side
                0x000000000807305c       0x58 build/lcd.o
                0x000000000807305c                left_side
 .text.right_side
                0x00000000080730b4       0x60 build/lcd.o
                0x00000000080730b4                right_side
 .text.top      0x0000000008073114       0x44 build/lcd.o
                0x0000000008073114                top
 .text.middle   0x0000000008073158       0x48 build/lcd.o
                0x0000000008073158                middle
 .text.bottom   0x00000000080731a0       0x4c build/lcd.o
                0x00000000080731a0                bottom
 .text.comma    0x00000000080731ec       0x30 build/lcd.o
                0x00000000080731ec                comma
 .text.exp_left_side
                0x000000000807321c       0x44 build/lcd.o
                0x000000000807321c                exp_left_side
 .text.exp_right_side
                0x0000000008073260       0x48 build/lcd.o
                0x0000000008073260                exp_right_side
 .text.exp_top  0x00000000080732a8       0x38 build/lcd.o
                0x00000000080732a8                exp_top
 .text.exp_bottom
                0x00000000080732e0       0x3c build/lcd.o
                0x00000000080732e0                exp_bottom
 .text.exp_middle
                0x000000000807331c       0x44 build/lcd.o
                0x000000000807331c                exp_middle
 .text.show_disp
                0x0000000008073360      0x3c4 build/lcd.o
                0x0000000008073360                show_disp
 .text.show_stack
                0x0000000008073724        0x4 build/lcd.o
                0x0000000008073724                show_stack
 .text.show_flags
                0x0000000008073728        0x4 build/lcd.o
                0x0000000008073728                show_flags
 .text.wait_for_display
                0x000000000807372c        0x4 build/lcd.o
                0x000000000807372c                wait_for_display
 .text.finish_display
                0x0000000008073730       0x2c build/lcd.o
                0x0000000008073730                finish_display
 .text.finish_RPN
                0x000000000807375c       0x68 build/lcd.o
                0x000000000807375c                finish_RPN
 .text.do_all_dots
                0x00000000080737c4       0x30 build/lcd.o
                0x00000000080737c4                do_all_dots
 .text.multiply_with_overflow
                0x00000000080737f4       0xd0 build/int.o
 .text.expmod   0x00000000080738c4      0x1d4 build/int.o
 .text.set_carry.part.0
                0x0000000008073a98        0x8 build/int.o
 .text.intASR   0x0000000008073aa0       0xa0 build/int.o
 .text.intLSR   0x0000000008073b40       0x8c build/int.o
 .text.intLSL   0x0000000008073bcc       0x98 build/int.o
 .text.intRRC   0x0000000008073c64       0x8c build/int.o
 .text.intRLC   0x0000000008073cf0       0xa4 build/int.o
 .text.intRR    0x0000000008073d94       0xa0 build/int.o
 .text.intRL    0x0000000008073e34       0xac build/int.o
 .text.set_overflow.part.0
                0x0000000008073ee0        0x8 build/int.o
 .text.calc_overflow
                0x0000000008073ee8      0x158 build/int.o
 .text.int_base
                0x0000000008074040       0x1c build/int.o
                0x0000000008074040                int_base
 .text.int_mode
                0x000000000807405c       0x14 build/int.o
                0x000000000807405c                int_mode
 .text.word_size
                0x0000000008074070       0x1c build/int.o
                0x0000000008074070                word_size
 .text.get_carry
                0x000000000807408c        0x8 build/int.o
                0x000000000807408c                get_carry
 .text.set_carry
                0x0000000008074094       0x10 build/int.o
                0x0000000008074094                set_carry
 .text.get_overflow
                0x00000000080740a4        0x8 build/int.o
                0x00000000080740a4                get_overflow
 .text.set_overflow
                0x00000000080740ac       0x10 build/int.o
                0x00000000080740ac                set_overflow
 .text.mask_value
                0x00000000080740bc       0x40 build/int.o
                0x00000000080740bc                mask_value
 .text.extract_value
                0x00000000080740fc       0xf8 build/int.o
                0x00000000080740fc                extract_value
 .text.divmod   0x00000000080741f4      0x4f8 build/int.o
 .text.build_value
                0x00000000080746ec      0x100 build/int.o
                0x00000000080746ec                build_value
 .text.check_overflow
                0x00000000080747ec       0xa4 build/int.o
                0x00000000080747ec                check_overflow
 .text.intAdd   0x0000000008074890      0x1d8 build/int.o
                0x0000000008074890                intAdd
 .text.intSubtract
                0x0000000008074a68      0x1c0 build/int.o
                0x0000000008074a68                intSubtract
 .text.intMultiply
                0x0000000008074c28       0xa8 build/int.o
                0x0000000008074c28                intMultiply
 .text.intDivide
                0x0000000008074cd0      0x17c build/int.o
                0x0000000008074cd0                intDivide
 .text.intMod   0x0000000008074e4c       0x9c build/int.o
                0x0000000008074e4c                intMod
 .text.intMin   0x0000000008074ee8       0x74 build/int.o
                0x0000000008074ee8                intMin
 .text.intMax   0x0000000008074f5c       0x74 build/int.o
                0x0000000008074f5c                intMax
 .text.intGCD   0x0000000008074fd0       0x9c build/int.o
                0x0000000008074fd0                intGCD
 .text.intLCM   0x000000000807506c       0xcc build/int.o
                0x000000000807506c                intLCM
 .text.intSqr   0x0000000008075138        0x8 build/int.o
                0x0000000008075138                intSqr
 .text.intCube  0x0000000008075140       0x40 build/int.o
                0x0000000008075140                intCube
 .text.intChs   0x0000000008075180       0xd8 build/int.o
                0x0000000008075180                intChs
 .text.intAbs   0x0000000008075258       0xb8 build/int.o
                0x0000000008075258                intAbs
 .text.intDblMul
                0x0000000008075310      0x2d0 build/int.o
                0x0000000008075310                intDblMul
 .text.intDblDiv
                0x00000000080755e0       0x54 build/int.o
                0x00000000080755e0                intDblDiv
 .text.intDblRmdr
                0x0000000008075634       0x2c build/int.o
                0x0000000008075634                intDblRmdr
 .text.intNot   0x0000000008075660       0x48 build/int.o
                0x0000000008075660                intNot
 .text.intBooleanOp
                0x00000000080756a8       0x80 build/int.o
                0x00000000080756a8                intBooleanOp
 .text.intFP    0x0000000008075728        0x8 build/int.o
                0x0000000008075728                intFP
 .text.intSign  0x0000000008075730       0x38 build/int.o
                0x0000000008075730                intSign
 .text.introt   0x0000000008075768      0x118 build/int.o
                0x0000000008075768                introt
 .text.intNumBits
                0x0000000008075880       0x78 build/int.o
                0x0000000008075880                intNumBits
 .text.intSqrt  0x00000000080758f8       0xd0 build/int.o
                0x00000000080758f8                intSqrt
 .text.int_power_helper
                0x00000000080759c8       0xb8 build/int.o
                0x00000000080759c8                int_power_helper
 .text.intPower
                0x0000000008075a80       0xbc build/int.o
                0x0000000008075a80                intPower
 .text.intLog2  0x0000000008075b3c       0x7c build/int.o
                0x0000000008075b3c                intLog2
 .text.int2pow  0x0000000008075bb8       0xb4 build/int.o
                0x0000000008075bb8                int2pow
 .text.intLog10
                0x0000000008075c6c       0xa0 build/int.o
                0x0000000008075c6c                intLog10
 .text.int10pow
                0x0000000008075d0c       0xd4 build/int.o
                0x0000000008075d0c                int10pow
 .text.int_1pow
                0x0000000008075de0       0x40 build/int.o
                0x0000000008075de0                int_1pow
 .text.intMirror
                0x0000000008075e20       0x9c build/int.o
                0x0000000008075e20                intMirror
 .text.int_justify
                0x0000000008075ebc      0x10c build/int.o
                0x0000000008075ebc                int_justify
 .text.intmsks  0x0000000008075fc8       0xe8 build/int.o
                0x0000000008075fc8                intmsks
 .text.intbits  0x00000000080760b0       0xec build/int.o
                0x00000000080760b0                intbits
 .text.intFib   0x000000000807619c      0x13c build/int.o
                0x000000000807619c                intFib
 .text.isPrime  0x00000000080762d8      0x218 build/int.o
                0x00000000080762d8                isPrime
 .text.intmodop
                0x00000000080764f0      0x148 build/int.o
                0x00000000080764f0                intmodop
 .text.doFactor
                0x0000000008076638      0x194 build/int.o
                0x0000000008076638                doFactor
 .text.intFactor
                0x00000000080767cc       0x1c build/int.o
                0x00000000080767cc                intFactor
 .text.JDN      0x00000000080767e8       0xc4 build/date.o
 .text.JDN2     0x00000000080768ac       0xfc build/date.o
 .text.check_date
                0x00000000080769a8       0x48 build/date.o
 .text.extract_time
                0x00000000080769f0       0x80 build/date.o
 .text.extract_date.part.0
                0x0000000008076a70       0xe4 build/date.o
 .text.find_year
                0x0000000008076b54       0x60 build/date.o
 .text.dateExtract
                0x0000000008076bb4       0x3c build/date.o
 .text.day_of_week.constprop.0
                0x0000000008076bf0       0x48 build/date.o
 .text.build_date
                0x0000000008076c38       0xb4 build/date.o
 .text.dateFromYMD
                0x0000000008076cec       0x58 build/date.o
                0x0000000008076cec                dateFromYMD
 .text.dateEaster
                0x0000000008076d44      0x1b8 build/date.o
                0x0000000008076d44                dateEaster
 .text.date_isleap
                0x0000000008076efc       0x7c build/date.o
                0x0000000008076efc                date_isleap
 .text.dateDayOfWeek
                0x0000000008076f78       0x34 build/date.o
                0x0000000008076f78                dateDayOfWeek
 .text.dateExtraction
                0x0000000008076fac       0x3c build/date.o
                0x0000000008076fac                dateExtraction
 .text.date_alphaday
                0x0000000008076fe8       0xa0 build/date.o
                0x0000000008076fe8                date_alphaday
 .text.date_alphamonth
                0x0000000008077088       0x70 build/date.o
                0x0000000008077088                date_alphamonth
 .text.dateToJ  0x00000000080770f8       0x50 build/date.o
                0x00000000080770f8                dateToJ
 .text.dateFromJ
                0x0000000008077148       0x44 build/date.o
                0x0000000008077148                dateFromJ
 .text.date_alphadate
                0x000000000807718c       0xc4 build/date.o
                0x000000000807718c                date_alphadate
 .text.date_alphatime
                0x0000000008077250       0x88 build/date.o
                0x0000000008077250                date_alphatime
 .text.date_date
                0x00000000080772d8       0x30 build/date.o
                0x00000000080772d8                date_date
 .text.date_time
                0x0000000008077308       0x44 build/date.o
                0x0000000008077308                date_time
 .text.date_setdate
                0x000000000807734c       0x40 build/date.o
                0x000000000807734c                date_setdate
 .text.date_settime
                0x000000000807738c       0x20 build/date.o
                0x000000000807738c                date_settime
 .text.add_char
                0x00000000080773ac       0x38 build/alpha.o
 .text.add_string
                0x00000000080773e4       0x5c build/alpha.o
                0x00000000080773e4                add_string
 .text.clralpha
                0x0000000008077440       0x1c build/alpha.o
                0x0000000008077440                clralpha
 .text.alpha_view_common
                0x000000000807745c       0x34 build/alpha.o
                0x000000000807745c                alpha_view_common
 .text.alpha_view
                0x0000000008077490       0x38 build/alpha.o
                0x0000000008077490                alpha_view
 .text.alpha_view_reg
                0x00000000080774c8       0x34 build/alpha.o
                0x00000000080774c8                alpha_view_reg
 .text.cmdalpha
                0x00000000080774fc       0x10 build/alpha.o
                0x00000000080774fc                cmdalpha
 .text.multialpha
                0x000000000807750c       0x28 build/alpha.o
                0x000000000807750c                multialpha
 .text.alpha_ip
                0x0000000008077534       0xf4 build/alpha.o
                0x0000000008077534                alpha_ip
 .text.alen     0x0000000008077628       0x20 build/alpha.o
                0x0000000008077628                alen
 .text.alpha_length
                0x0000000008077648       0x28 build/alpha.o
                0x0000000008077648                alpha_length
 .text.alpha_shift_l
                0x0000000008077670       0x40 build/alpha.o
                0x0000000008077670                alpha_shift_l
 .text.alpha_shift_r
                0x00000000080776b0       0x30 build/alpha.o
                0x00000000080776b0                alpha_shift_r
 .text.alpha_rot_r
                0x00000000080776e0       0x50 build/alpha.o
                0x00000000080776e0                alpha_rot_r
 .text.alpha_tox
                0x0000000008077730       0x2c build/alpha.o
                0x0000000008077730                alpha_tox
 .text.alpha_fromx
                0x000000000807775c       0x18 build/alpha.o
                0x000000000807775c                alpha_fromx
 .text.alpha_reg
                0x0000000008077774       0x24 build/alpha.o
                0x0000000008077774                alpha_reg
 .text.alpha_sto
                0x0000000008077798       0x6c build/alpha.o
                0x0000000008077798                alpha_sto
 .text.alpha_rcl_s
                0x0000000008077804       0x78 build/alpha.o
                0x0000000008077804                alpha_rcl_s
 .text.alpha_rcl
                0x000000000807787c       0x14 build/alpha.o
                0x000000000807787c                alpha_rcl
 .text.alpha_onoff
                0x0000000008077890       0x1c build/alpha.o
                0x0000000008077890                alpha_onoff
 .text.remap_chars
                0x00000000080778ac        0xc build/charmap.o
                0x00000000080778ac                remap_chars
 .text.xcopy    0x00000000080778b8       0x3c build/string.o
                0x00000000080778b8                xcopy
 .text.xset     0x00000000080778f4       0x10 build/string.o
                0x00000000080778f4                xset
 .text.slen     0x0000000008077904       0x18 build/string.o
                0x0000000008077904                slen
 .text.find_char
                0x000000000807791c       0x18 build/string.o
                0x000000000807791c                find_char
 .text.replace_char
                0x0000000008077934       0x14 build/string.o
                0x0000000008077934                replace_char
 .text.scopy    0x0000000008077948       0x18 build/string.o
                0x0000000008077948                scopy
 .text.sncopy   0x0000000008077960       0x2c build/string.o
                0x0000000008077960                sncopy
 .text.scopy_char
                0x000000000807798c       0x18 build/string.o
                0x000000000807798c                scopy_char
 .text.scopy_spc
                0x00000000080779a4       0x18 build/string.o
                0x00000000080779a4                scopy_spc
 .text.sncopy_char
                0x00000000080779bc       0x2c build/string.o
                0x00000000080779bc                sncopy_char
 .text.num_arg_0
                0x00000000080779e8       0x34 build/string.o
                0x00000000080779e8                num_arg_0
 .text.num_arg  0x0000000008077a1c       0x50 build/string.o
                0x0000000008077a1c                num_arg
 .text.test_checksum
                0x0000000008077a6c       0x64 build/storage.o
 .text.checksum_region
                0x0000000008077ad0       0x28 build/storage.o
 .text.check_delete_prog
                0x0000000008077af8       0x30 build/storage.o
 .text.program_flash
                0x0000000008077b28      0x104 build/storage.o
 .text.flash_append
                0x0000000008077c2c       0xa0 build/storage.o
 .text.open_selected_file
                0x0000000008077ccc       0x6c build/storage.o
                0x0000000008077ccc                open_selected_file
 .text.init_mem
                0x0000000008077d38       0x40 build/storage.o
                0x0000000008077d38                init_mem
 .text.checksum_ram
                0x0000000008077d78       0x18 build/storage.o
                0x0000000008077d78                checksum_ram
 .text.checksum_backup
                0x0000000008077d90       0x58 build/storage.o
                0x0000000008077d90                checksum_backup
 .text.clpall   0x0000000008077de8       0x1c build/storage.o
                0x0000000008077de8                clpall
 .text.clrall   0x0000000008077e04       0x58 build/storage.o
                0x0000000008077e04                clrall
 .text.reset    0x0000000008077e5c       0x3c build/storage.o
                0x0000000008077e5c                reset
 .text.stoprog  0x0000000008077e98       0xec build/storage.o
                0x0000000008077e98                stoprog
 .text.delprog  0x0000000008077f84       0x6c build/storage.o
                0x0000000008077f84                delprog
 .text.append_program
                0x0000000008077ff0       0xd0 build/storage.o
                0x0000000008077ff0                append_program
 .text.check_create_wp34sdir
                0x00000000080780c0       0x24 build/storage.o
                0x00000000080780c0                check_create_wp34sdir
 .text.flash_remove
                0x00000000080780e4       0x28 build/storage.o
                0x00000000080780e4                flash_remove
 .text.clrprog  0x000000000807810c       0x94 build/storage.o
                0x000000000807810c                clrprog
 .text.store_program_from_buffer.part.0
                0x00000000080781a0       0xb8 build/storage.o
 .text.flash_backup
                0x0000000008078258       0x5c build/storage.o
                0x0000000008078258                flash_backup
 .text.flash_restore
                0x00000000080782b4       0x44 build/storage.o
                0x00000000080782b4                flash_restore
 .text.load_program
                0x00000000080782f8       0x44 build/storage.o
                0x00000000080782f8                load_program
 .text.load_registers
                0x000000000807833c       0x54 build/storage.o
                0x000000000807833c                load_registers
 .text.load_sigma
                0x0000000008078390       0x44 build/storage.o
                0x0000000008078390                load_sigma
 .text.load_state
                0x00000000080783d4       0x44 build/storage.o
                0x00000000080783d4                load_state
 .text.store_program
                0x0000000008078418       0xdc build/storage.o
                0x0000000008078418                store_program
 .text.recall_program
                0x00000000080784f4       0x40 build/storage.o
                0x00000000080784f4                recall_program
 .text.save_lib_file
                0x0000000008078534       0xc0 build/storage.o
                0x0000000008078534                save_lib_file
 .text.load_lib_file
                0x00000000080785f4       0xb0 build/storage.o
                0x00000000080785f4                load_lib_file
 .text.save_ram_file
                0x00000000080786a4       0xd8 build/storage.o
                0x00000000080786a4                save_ram_file
 .text.load_ram_file
                0x000000000807877c       0xcc build/storage.o
                0x000000000807877c                load_ram_file
 .text.load_backup_file
                0x0000000008078848       0xb0 build/storage.o
                0x0000000008078848                load_backup_file
 .text.save_prog_file
                0x00000000080788f8      0x168 build/storage.o
                0x00000000080788f8                save_prog_file
 .text.load_prog_file
                0x0000000008078a60       0xec build/storage.o
                0x0000000008078a60                load_prog_file
 .text.matrix_range_check
                0x0000000008078b4c       0x78 build/matrix.o
 .text.matrix_decompose
                0x0000000008078bc4       0xa4 build/matrix.o
 .text.matrix_decomp
                0x0000000008078c68       0x18 build/matrix.o
 .text.matrix_do_loop
                0x0000000008078c80       0x3c build/matrix.o
 .text.matrix_lu_check
                0x0000000008078cbc       0x6c build/matrix.o
 .text.LU_decomposition
                0x0000000008078d28      0x1f8 build/matrix.o
 .text.matrix_pivoting_solve
                0x0000000008078f20      0x140 build/matrix.o
 .text.matrix_descriptor
                0x0000000008079060       0x3c build/matrix.o
 .text.matrix_is_square
                0x000000000807909c       0x30 build/matrix.o
                0x000000000807909c                matrix_is_square
 .text.matrix_copy
                0x00000000080790cc       0x50 build/matrix.o
                0x00000000080790cc                matrix_copy
 .text.matrix_all
                0x000000000807911c       0x38 build/matrix.o
                0x000000000807911c                matrix_all
 .text.matrix_diag
                0x0000000008079154       0x40 build/matrix.o
                0x0000000008079154                matrix_diag
 .text.matrix_row
                0x0000000008079194       0x54 build/matrix.o
                0x0000000008079194                matrix_row
 .text.matrix_col
                0x00000000080791e8       0x54 build/matrix.o
                0x00000000080791e8                matrix_col
 .text.matrix_rowq
                0x000000000807923c       0x2c build/matrix.o
                0x000000000807923c                matrix_rowq
 .text.matrix_colq
                0x0000000008079268       0x2c build/matrix.o
                0x0000000008079268                matrix_colq
 .text.matrix_getreg
                0x0000000008079294       0x70 build/matrix.o
                0x0000000008079294                matrix_getreg
 .text.matrix_getrc
                0x0000000008079304       0x68 build/matrix.o
                0x0000000008079304                matrix_getrc
 .text.matrix_genadd
                0x000000000807936c       0xb8 build/matrix.o
                0x000000000807936c                matrix_genadd
 .text.matrix_multiply
                0x0000000008079424      0x104 build/matrix.o
                0x0000000008079424                matrix_multiply
 .text.matrix_transpose
                0x0000000008079528       0xbc build/matrix.o
                0x0000000008079528                matrix_transpose
 .text.matrix_rowops
                0x00000000080795e4       0xfc build/matrix.o
                0x00000000080795e4                matrix_rowops
 .text.matrix_determinant
                0x00000000080796e0       0x60 build/matrix.o
                0x00000000080796e0                matrix_determinant
 .text.matrix_inverse
                0x0000000008079740       0xa0 build/matrix.o
                0x0000000008079740                matrix_inverse
 .text.matrix_linear_eqn
                0x00000000080797e0       0xe8 build/matrix.o
                0x00000000080797e0                matrix_linear_eqn
 .text.matrix_lu_decomp
                0x00000000080798c8       0x94 build/matrix.o
                0x00000000080798c8                matrix_lu_decomp
 .text.charlengths
                0x000000000807995c       0x44 build/font.o
                0x000000000807995c                charlengths
 .text.findlengths
                0x00000000080799a0       0x78 build/font.o
                0x00000000080799a0                findlengths
 .text.unpackchar
                0x0000000008079a18       0x8c build/font.o
                0x0000000008079a18                unpackchar
 .text.menu_line_str
                0x0000000008079aa4       0x10 build/console.o
                0x0000000008079aa4                menu_line_str
 .text.set_menu_label.constprop.0
                0x0000000008079ab4      0x144 build/console.o
 .text.disp_about
                0x0000000008079bf8       0xc0 build/console.o
                0x0000000008079bf8                disp_about
 .text.run_menu_item
                0x0000000008079cb8       0x14 build/console.o
                0x0000000008079cb8                run_menu_item
 .text.set_menu
                0x0000000008079ccc       0x38 build/console.o
                0x0000000008079ccc                set_menu
 .text.set_default_menu
                0x0000000008079d04       0x30 build/console.o
                0x0000000008079d04                set_default_menu
 .text.get_last_menu
                0x0000000008079d34        0xc build/console.o
                0x0000000008079d34                get_last_menu
 .text.set_last_menu
                0x0000000008079d40       0x2c build/console.o
                0x0000000008079d40                set_last_menu
 .text.display_menu
                0x0000000008079d6c      0x164 build/console.o
                0x0000000008079d6c                display_menu
 .text.display_current_menu
                0x0000000008079ed0        0xc build/console.o
                0x0000000008079ed0                display_current_menu
 .text.all_menu_dots
                0x0000000008079edc       0x3c build/console.o
                0x0000000008079edc                all_menu_dots
 .text.build_user_menu
                0x0000000008079f18      0x13c build/console.o
                0x0000000008079f18                build_user_menu
 .text.shutdown
                0x000000000807a054       0x10 build/console.o
                0x000000000807a054                shutdown
 .text.is_key_pressed
                0x000000000807a064       0x14 build/console.o
                0x000000000807a064                is_key_pressed
 .text.put_key  0x000000000807a078       0x44 build/console.o
                0x000000000807a078                put_key
 .text.shift_down
                0x000000000807a0bc        0x4 build/console.o
                0x000000000807a0bc                shift_down
 .text.keyticks
                0x000000000807a0c0       0x20 build/console.o
                0x000000000807a0c0                keyticks
 .text.do_multi
                0x000000000807a0e0      0x224 build/console.o
                0x000000000807a0e0                do_multi
 .text.program_main
                0x000000000807a304      0x770 build/console.o
                0x000000000807a304                program_main
 .text.decContextDefault
                0x000000000807aa74       0x6c build/libdecNumber.a(decContext.o)
                0x000000000807aa74                decContextDefault
 .text.decContextSetStatus
                0x000000000807aae0        0x8 build/libdecNumber.a(decContext.o)
                0x000000000807aae0                decContextSetStatus
 .text.decUnitAddSub
                0x000000000807aae8      0x288 build/libdecNumber.a(decNumber.o)
 .text.decSetOverflow
                0x000000000807ad70       0xac build/libdecNumber.a(decNumber.o)
 .text.decGetDigits
                0x000000000807ae1c       0x3c build/libdecNumber.a(decNumber.o)
 .text.decUnitCompare
                0x000000000807ae58       0xe8 build/libdecNumber.a(decNumber.o)
 .text.decCompare
                0x000000000807af40      0x11c build/libdecNumber.a(decNumber.o)
 .text.decStatus
                0x000000000807b05c       0x2c build/libdecNumber.a(decNumber.o)
 .text.decShiftToMost.part.0
                0x000000000807b088       0xf4 build/libdecNumber.a(decNumber.o)
 .text.decShiftToLeast.part.0
                0x000000000807b17c      0x100 build/libdecNumber.a(decNumber.o)
 .text.decSetCoeff.isra.0
                0x000000000807b27c      0x1e8 build/libdecNumber.a(decNumber.o)
 .text.decApplyRound.part.0
                0x000000000807b464      0x198 build/libdecNumber.a(decNumber.o)
 .text.decSetSubnormal
                0x000000000807b5fc       0xf0 build/libdecNumber.a(decNumber.o)
 .text.decFinalize
                0x000000000807b6ec       0xd8 build/libdecNumber.a(decNumber.o)
 .text.decTrim.constprop.0
                0x000000000807b7c4       0xbc build/libdecNumber.a(decNumber.o)
 .text.decNumberToString
                0x000000000807b880      0x434 build/libdecNumber.a(decNumber.o)
                0x000000000807b880                decNumberToString
 .text.decNumberFromString
                0x000000000807bcb4      0x3c4 build/libdecNumber.a(decNumber.o)
                0x000000000807bcb4                decNumberFromString
 .text.decNumberCopy
                0x000000000807c078       0x50 build/libdecNumber.a(decNumber.o)
                0x000000000807c078                decNumberCopy
 .text.decNaNs  0x000000000807c0c8       0x54 build/libdecNumber.a(decNumber.o)
 .text.decCompareOp
                0x000000000807c11c      0x184 build/libdecNumber.a(decNumber.o)
 .text.decNumberCompare
                0x000000000807c2a0       0x30 build/libdecNumber.a(decNumber.o)
                0x000000000807c2a0                decNumberCompare
 .text.decNumberMax
                0x000000000807c2d0       0x30 build/libdecNumber.a(decNumber.o)
                0x000000000807c2d0                decNumberMax
 .text.decNumberMin
                0x000000000807c300       0x30 build/libdecNumber.a(decNumber.o)
                0x000000000807c300                decNumberMin
 .text.decMultiplyOp
                0x000000000807c330      0x1cc build/libdecNumber.a(decNumber.o)
 .text.decNumberMultiply
                0x000000000807c4fc       0x2c build/libdecNumber.a(decNumber.o)
                0x000000000807c4fc                decNumberMultiply
 .text.decNumberNormalize
                0x000000000807c528       0x84 build/libdecNumber.a(decNumber.o)
                0x000000000807c528                decNumberNormalize
 .text.decAddOp
                0x000000000807c5ac      0x4dc build/libdecNumber.a(decNumber.o)
 .text.decNumberAdd
                0x000000000807ca88       0x30 build/libdecNumber.a(decNumber.o)
                0x000000000807ca88                decNumberAdd
 .text.decNumberSubtract
                0x000000000807cab8       0x30 build/libdecNumber.a(decNumber.o)
                0x000000000807cab8                decNumberSubtract
 .text.decNumberAbs
                0x000000000807cae8       0x4c build/libdecNumber.a(decNumber.o)
                0x000000000807cae8                decNumberAbs
 .text.decNumberMinus
                0x000000000807cb34       0x48 build/libdecNumber.a(decNumber.o)
                0x000000000807cb34                decNumberMinus
 .text.decNumberPlus
                0x000000000807cb7c       0x44 build/libdecNumber.a(decNumber.o)
                0x000000000807cb7c                decNumberPlus
 .text.decDivideOp
                0x000000000807cbc0      0x828 build/libdecNumber.a(decNumber.o)
 .text.decNumberDivide
                0x000000000807d3e8       0x30 build/libdecNumber.a(decNumber.o)
                0x000000000807d3e8                decNumberDivide
 .text.decNumberRemainder
                0x000000000807d418       0x30 build/libdecNumber.a(decNumber.o)
                0x000000000807d418                decNumberRemainder
 .text.decExpOp
                0x000000000807d448      0x474 build/libdecNumber.a(decNumber.o)
 .text.decNumberExp
                0x000000000807d8bc       0x88 build/libdecNumber.a(decNumber.o)
                0x000000000807d8bc                decNumberExp
 .text.decNumberSquareRoot
                0x000000000807d944      0x434 build/libdecNumber.a(decNumber.o)
                0x000000000807d944                decNumberSquareRoot
 .text.decNumberZero
                0x000000000807dd78       0x10 build/libdecNumber.a(decNumber.o)
                0x000000000807dd78                decNumberZero
 .text.decGetInt
                0x000000000807dd88      0x100 build/libdecNumber.a(decNumber.o)
                0x000000000807dd88                decGetInt
 .text.decQuantizeOp.constprop.0
                0x000000000807de88      0x1a4 build/libdecNumber.a(decNumber.o)
 .text.decNumberRescale
                0x000000000807e02c       0x30 build/libdecNumber.a(decNumber.o)
                0x000000000807e02c                decNumberRescale
 .text.decNumberQuantize
                0x000000000807e05c       0x30 build/libdecNumber.a(decNumber.o)
                0x000000000807e05c                decNumberQuantize
 .text.decNumberToIntegralValue
                0x000000000807e08c       0xa8 build/libdecNumber.a(decNumber.o)
                0x000000000807e08c                decNumberToIntegralValue
 .text.ullint_to_dn
                0x000000000807e134       0x6c build/libdecNumber.a(decNumber.o)
                0x000000000807e134                ullint_to_dn
 .text.decimal128FromNumber
                0x000000000807e1a0      0x164 build/libdecNumber.a(decimal128.o)
                0x000000000807e1a0                decimal128FromNumber
 .text.decimal128ToNumber
                0x000000000807e304       0xd0 build/libdecNumber.a(decimal128.o)
                0x000000000807e304                decimal128ToNumber
 .text.decDigitsToDPD
                0x000000000807e3d4      0x184 build/libdecNumber.a(decimal64.o)
                0x000000000807e3d4                decDigitsToDPD
 .text.decimal64FromNumber
                0x000000000807e558      0x158 build/libdecNumber.a(decimal64.o)
                0x000000000807e558                decimal64FromNumber
 .text.decDigitsFromDPD
                0x000000000807e6b0       0xa4 build/libdecNumber.a(decimal64.o)
                0x000000000807e6b0                decDigitsFromDPD
 .text.decimal64ToNumber
                0x000000000807e754       0xbc build/libdecNumber.a(decimal64.o)
                0x000000000807e754                decimal64ToNumber
 .text.Program_Entry
                0x000000000807e810       0x48 build/startup_pgm.o
                0x000000000807e810                Program_Entry
 .text.startup  0x000000000807e858       0x14 /usr/lib/gcc/arm-none-eabi/9.2.1/../../../arm-none-eabi/lib/thumb/v7e-m+fp/hard/libc.a(lib_a-__call_atexit.o)
 *(.glue_7)
 .glue_7        0x000000000807e86c        0x0 linker stubs
 *(.glue_7t)
 .glue_7t       0x000000000807e86c        0x0 linker stubs
 *(.eh_frame)
 .eh_frame      0x000000000807e86c        0x0 /usr/lib/gcc/arm-none-eabi/9.2.1/thumb/v7e-m+fp/hard/crtbegin.o
 *(.init)
 .init          0x000000000807e86c        0x4 /usr/lib/gcc/arm-none-eabi/9.2.1/thumb/v7e-m+fp/hard/crti.o
                0x000000000807e86c                _init
 .init          0x000000000807e870        0x8 /usr/lib/gcc/arm-none-eabi/9.2.1/thumb/v7e-m+fp/hard/crtn.o
 *(.fini)
 .fini          0x000000000807e878        0x4 /usr/lib/gcc/arm-none-eabi/9.2.1/thumb/v7e-m+fp/hard/crti.o
                0x000000000807e878                _fini
 .fini          0x000000000807e87c        0x8 /usr/lib/gcc/arm-none-eabi/9.2.1/thumb/v7e-m+fp/hard/crtn.o
                0x000000000807e888                . = ALIGN (0x8)
 *fill*         0x000000000807e884        0x4 
                0x000000000807e888                _etext = .

.vfp11_veneer   0x000000000807e888        0x0
 .vfp11_veneer  0x000000000807e888        0x0 linker stubs

.v4_bx          0x000000000807e888        0x0
 .v4_bx         0x000000000807e888        0x0 linker stubs

.iplt           0x000000000807e888        0x0
 .iplt          0x000000000807e888        0x0 /usr/lib/gcc/arm-none-eabi/9.2.1/thumb/v7e-m+fp/hard/crtbegin.o

.ARM.extab      0x000000000807e888        0x0
                0x000000000807e888                . = ALIGN (0x8)
 *(.ARM.extab* .gnu.linkonce.armextab.*)
                0x000000000807e888                . = ALIGN (0x8)

.ARM            0x000000000807e888        0x8
                0x000000000807e888                . = ALIGN (0x8)
                0x000000000807e888                __exidx_start = .
 *(.ARM.exidx*)
 .ARM.exidx     0x000000000807e888        0x8 /usr/lib/gcc/arm-none-eabi/9.2.1/thumb/v7e-m+fp/hard/libgcc.a(_udivmoddi4.o)
                0x000000000807e890                __exidx_end = .
                0x000000000807e890                . = ALIGN (0x8)

.rel.dyn        0x000000000807e890        0x0
 .rel.iplt      0x000000000807e890        0x0 /usr/lib/gcc/arm-none-eabi/9.2.1/thumb/v7e-m+fp/hard/crtbegin.o

.preinit_array  0x000000000807e890        0x0
                0x000000000807e890                . = ALIGN (0x8)
                0x000000000807e890                PROVIDE (__preinit_array_start = .)
 *(.preinit_array*)
                0x000000000807e890                PROVIDE (__preinit_array_end = .)
                0x000000000807e890                . = ALIGN (0x8)

.init_array     0x000000000807e890        0x8
                0x000000000807e890                . = ALIGN (0x8)
                0x000000000807e890                PROVIDE (__init_array_start = .)
 *(SORT_BY_NAME(.init_array.*))
 .init_array.00000
                0x000000000807e890        0x4 /usr/lib/gcc/arm-none-eabi/9.2.1/../../../arm-none-eabi/lib/thumb/v7e-m+fp/hard/libc.a(lib_a-__call_atexit.o)
 *(.init_array*)
 .init_array    0x000000000807e894        0x4 /usr/lib/gcc/arm-none-eabi/9.2.1/thumb/v7e-m+fp/hard/crtbegin.o
                0x000000000807e898                PROVIDE (__init_array_end = .)
                0x000000000807e898                . = ALIGN (0x8)

.fini_array     0x000000000807e898        0x8
                0x000000000807e898                . = ALIGN (0x8)
                0x000000000807e898                PROVIDE (__fini_array_start = .)
 *(SORT_BY_NAME(.fini_array.*))
 *(.fini_array*)
 .fini_array    0x000000000807e898        0x4 /usr/lib/gcc/arm-none-eabi/9.2.1/thumb/v7e-m+fp/hard/crtbegin.o
                0x000000000807e89c                PROVIDE (__fini_array_end = .)
                0x000000000807e8a0                . = ALIGN (0x8)
 *fill*         0x000000000807e89c        0x4 
                0x000000000807e8a0                _sidata = LOADADDR (.data)

.data           0x0000000010000000      0x6b8 load address 0x000000000807e8a0
                0x0000000010000000                . = ALIGN (0x8)
                0x0000000010000000                _sdata = .
 *(.data.sdb)
 *(.data)
 .data          0x0000000010000000      0x430 /usr/lib/gcc/arm-none-eabi/9.2.1/../../../arm-none-eabi/lib/thumb/v7e-m+fp/hard/libc.a(lib_a-impure.o)
                0x0000000010000000                _impure_ptr
 .data          0x0000000010000430      0x16c /usr/lib/gcc/arm-none-eabi/9.2.1/../../../arm-none-eabi/lib/thumb/v7e-m+fp/hard/libc.a(lib_a-locale.o)
                0x0000000010000430                __global_locale
 *(.data*)
 .data.RegionTab
                0x000000001000059c       0x10 build/xeq.o
 .data.UserMenu
                0x00000000100005ac       0xd0 build/console.o
                0x00000000100005ac                UserMenu
 .data.arrow_key_string
                0x000000001000067c        0x4 build/console.o
                0x000000001000067c                arrow_key_string
 .data.cmplx_key_string
                0x0000000010000680        0x4 build/console.o
                0x0000000010000680                cmplx_key_string
 .data.f_shift  0x0000000010000684        0x8 build/console.o
                0x0000000010000684                f_shift
 .data.g_shift  0x000000001000068c        0x8 build/console.o
                0x000000001000068c                g_shift
 .data.h_shift  0x0000000010000694        0x8 build/console.o
                0x0000000010000694                h_shift
 .data.heartbeat
                0x000000001000069c        0x8 build/console.o
                0x000000001000069c                heartbeat
 .data.no_key   0x00000000100006a4        0x8 build/console.o
                0x00000000100006a4                no_key
 .data.release  0x00000000100006ac        0x8 build/console.o
                0x00000000100006ac                release
                0x00000000100006b8                . = ALIGN (0x8)
 *fill*         0x00000000100006b4        0x4 
                0x00000000100006b8                _edata = .

.tm_clone_table
                0x00000000100006b8        0x0 load address 0x000000000807ef58
 .tm_clone_table
                0x00000000100006b8        0x0 /usr/lib/gcc/arm-none-eabi/9.2.1/thumb/v7e-m+fp/hard/crtbegin.o
 .tm_clone_table
                0x00000000100006b8        0x0 /usr/lib/gcc/arm-none-eabi/9.2.1/thumb/v7e-m+fp/hard/crtend.o

.igot.plt       0x00000000100006b8        0x0 load address 0x000000000807ef58
 .igot.plt      0x00000000100006b8        0x0 /usr/lib/gcc/arm-none-eabi/9.2.1/thumb/v7e-m+fp/hard/crtbegin.o
                0x00000000100006b8                . = ALIGN (0x4)

.bss            0x00000000100006b8      0x6b8
                0x00000000100006b8                _sbss = .
                0x00000000100006b8                __bss_start__ = _sbss
 *(.bss)
 .bss           0x00000000100006b8       0x1c /usr/lib/gcc/arm-none-eabi/9.2.1/thumb/v7e-m+fp/hard/crtbegin.o
 *(.bss*)
 .bss.was_paused.9793
                0x00000000100006d4        0x4 build/keys.o
 .bss.DecimalMode
                0x00000000100006d8        0x1 build/display.o
 .bss.SeparatorMode
                0x00000000100006d9        0x1 build/display.o
 .bss.no_status_top
                0x00000000100006da        0x2 build/display.o
                0x00000000100006da                no_status_top
 .bss.result.11459
                0x00000000100006dc       0x10 build/xeq.o
 .bss.dots      0x00000000100006ec      0x190 build/lcd.o
 .bss.current_menu
                0x000000001000087c        0x4 build/console.o
 .bss.default_menu
                0x0000000010000880        0x4 build/console.o
 .bss.last_menu
                0x0000000010000884        0x4 build/console.o
 .bss.mdots     0x0000000010000888      0x190 build/console.o
 .bss.start_ticks
                0x0000000010000a18        0x4 build/console.o
 *(COMMON)
 COMMON         0x0000000010000a1c       0x18 build/keys.o
                0x0000000010000a1c                GoFast
                0x0000000010000a20                nd_opcode
                0x0000000010000a24                OpCodeDisplayPending
                0x0000000010000a28                NonProgrammable
                0x0000000010000a2c                WasDataEntry
                0x0000000010000a30                OpCode
 COMMON         0x0000000010000a34       0x5c build/display.o
                0x0000000010000a34                LastDisplayedExponent
                0x0000000010000a3c                ShowRPN
                0x0000000010000a40                forceDispPlot
                0x0000000010000a44                IoAnnunciator
                0x0000000010000a48                JustDisplayed
                0x0000000010000a4c                DispMsg
                0x0000000010000a50                LastDisplayedText
                0x0000000010000a70                LastDisplayedNumber
                0x0000000010000a8a                DispPlot
                0x0000000010000a8c                IntMaxWindow
 COMMON         0x0000000010000a90       0x74 build/xeq.o
                0x0000000010000a90                StackBase
                0x0000000010000a94                Pause
                0x0000000010000a98                ShowRegister
                0x0000000010000a9c                XeqOpCode
                0x0000000010000aa0                RetStkSize
                0x0000000010000aa4                TraceBuffer
                0x0000000010000ac0                XromRunning
                0x0000000010000ac4                XromUserPc
                0x0000000010000ac8                Busy
                0x0000000010000acc                Ctx
                0x0000000010000ae4                JustStopped
                0x0000000010000ae8                Error
                0x0000000010000aec                RetStk
                0x0000000010000af0                PcWrapped
                0x0000000010000af4                Running
                0x0000000010000af8                ProgFree
                0x0000000010000afc                UserLocalRegs
                0x0000000010000b00                RectPolConv
 COMMON         0x0000000010000b04        0x8 build/stats.o
                0x0000000010000b04                SizeStatRegs
                0x0000000010000b08                StatRegs
 COMMON         0x0000000010000b0c      0x260 build/storage.o
                0x0000000010000b0c                XromParams
                0x0000000010000b1c                XromA2D
                0x0000000010000b5c                library_ram
                0x0000000010000b60                main_ram
                0x0000000010000b64                XromLocal
                0x0000000010000d34                backup_ram
                0x0000000010000d38                StateWhileOn
 COMMON         0x0000000010000d6c        0x4 /usr/lib/gcc/arm-none-eabi/9.2.1/../../../arm-none-eabi/lib/thumb/v7e-m+fp/hard/libc.a(lib_a-reent.o)
                0x0000000010000d6c                errno
                0x0000000010000d70                . = ALIGN (0x4)
                0x0000000010000d70                _ebss = .
                0x0000000010000d70                __bss_end__ = _ebss

/DISCARD/
 libc.a(*)
 libm.a(*)
 libgcc.a(*)

.ARM.attributes
                0x0000000000000000       0x30
 *(.ARM.attributes)
 .ARM.attributes
                0x0000000000000000       0x1e /usr/lib/gcc/arm-none-eabi/9.2.1/thumb/v7e-m+fp/hard/crti.o
 .ARM.attributes
                0x000000000000001e       0x34 /usr/lib/gcc/arm-none-eabi/9.2.1/thumb/v7e-m+fp/hard/crtbegin.o
 .ARM.attributes
                0x0000000000000052       0x34 build/pgm_syscalls.o
 .ARM.attributes
                0x0000000000000086       0x34 build/keys.o
 .ARM.attributes
                0x00000000000000ba       0x34 build/display.o
 .ARM.attributes
                0x00000000000000ee       0x34 build/xeq.o
 .ARM.attributes
                0x0000000000000122       0x34 build/prt.o
 .ARM.attributes
                0x0000000000000156       0x34 build/decn.o
 .ARM.attributes
                0x000000000000018a       0x34 build/complex.o
 .ARM.attributes
                0x00000000000001be       0x34 build/stats.o
 .ARM.attributes
                0x00000000000001f2       0x34 build/lcd.o
 .ARM.attributes
                0x0000000000000226       0x34 build/int.o
 .ARM.attributes
                0x000000000000025a       0x34 build/date.o
 .ARM.attributes
                0x000000000000028e       0x34 build/consts.o
 .ARM.attributes
                0x00000000000002c2       0x34 build/alpha.o
 .ARM.attributes
                0x00000000000002f6       0x34 build/charmap.o
 .ARM.attributes
                0x000000000000032a       0x34 build/commands.o
 .ARM.attributes
                0x000000000000035e       0x34 build/string.o
 .ARM.attributes
                0x0000000000000392       0x34 build/storage.o
 .ARM.attributes
                0x00000000000003c6       0x34 build/matrix.o
 .ARM.attributes
                0x00000000000003fa       0x34 build/font.o
 .ARM.attributes
                0x000000000000042e       0x34 build/xrom.o
 .ARM.attributes
                0x0000000000000462       0x34 build/console.o
 .ARM.attributes
                0x0000000000000496       0x34 build/libconsts.a(const_50.o)
 .ARM.attributes
                0x00000000000004ca       0x34 build/libconsts.a(const_randfac.o)
 .ARM.attributes
                0x00000000000004fe       0x34 build/libconsts.a(const_ln10.o)
 .ARM.attributes
                0x0000000000000532       0x34 build/libconsts.a(const_egamma.o)
 .ARM.attributes
                0x0000000000000566       0x34 build/libconsts.a(const_256.o)
 .ARM.attributes
                0x000000000000059a       0x34 build/libconsts.a(const_180.o)
 .ARM.attributes
                0x00000000000005ce       0x34 build/libconsts.a(const_1e_32.o)
 .ARM.attributes
                0x0000000000000602       0x34 build/libconsts.a(const_gammaC03.o)
 .ARM.attributes
                0x0000000000000636       0x34 build/libconsts.a(const_60.o)
 .ARM.attributes
                0x000000000000066a       0x34 build/libconsts.a(const_10.o)
 .ARM.attributes
                0x000000000000069e       0x34 build/libconsts.a(const_360.o)
 .ARM.attributes
                0x00000000000006d2       0x34 build/libconsts.a(const_gammaC10.o)
 .ARM.attributes
                0x0000000000000706       0x34 build/libconsts.a(const_gammaC11.o)
 .ARM.attributes
                0x000000000000073a       0x34 build/libconsts.a(const__inf.o)
 .ARM.attributes
                0x000000000000076e       0x34 build/libconsts.a(const_21.o)
 .ARM.attributes
                0x00000000000007a2       0x34 build/libconsts.a(const_gammaC16.o)
 .ARM.attributes
                0x00000000000007d6       0x34 build/libconsts.a(const_200.o)
 .ARM.attributes
                0x000000000000080a       0x34 build/libconsts.a(const_gammaC06.o)
 .ARM.attributes
                0x000000000000083e       0x34 build/libconsts.a(const_NaN.o)
 .ARM.attributes
                0x0000000000000872       0x34 build/libconsts.a(const_gammaC15.o)
 .ARM.attributes
                0x00000000000008a6       0x34 build/libconsts.a(const_1e_24.o)
 .ARM.attributes
                0x00000000000008da       0x34 build/libconsts.a(const_45.o)
 .ARM.attributes
                0x000000000000090e       0x34 build/libconsts.a(const_0_05.o)
 .ARM.attributes
                0x0000000000000942       0x34 build/libconsts.a(const_3.o)
 .ARM.attributes
                0x0000000000000976       0x34 build/libconsts.a(const_hms_threshold.o)
 .ARM.attributes
                0x00000000000009aa       0x34 build/libconsts.a(const_gammaC14.o)
 .ARM.attributes
                0x00000000000009de       0x34 build/libconsts.a(const_0_6.o)
 .ARM.attributes
                0x0000000000000a12       0x34 build/libconsts.a(const_32.o)
 .ARM.attributes
                0x0000000000000a46       0x34 build/libconsts.a(const_0_75.o)
 .ARM.attributes
                0x0000000000000a7a       0x34 build/libconsts.a(const__1.o)
 .ARM.attributes
                0x0000000000000aae       0x34 build/libconsts.a(const_gammaC00.o)
 .ARM.attributes
                0x0000000000000ae2       0x34 build/libconsts.a(const_ln2.o)
 .ARM.attributes
                0x0000000000000b16       0x34 build/libconsts.a(const_gammaC18.o)
 .ARM.attributes
                0x0000000000000b4a       0x34 build/libconsts.a(const_2PI.o)
 .ARM.attributes
                0x0000000000000b7e       0x34 build/libconsts.a(const_1e_14.o)
 .ARM.attributes
                0x0000000000000bb2       0x34 build/libconsts.a(const_0.o)
 .ARM.attributes
                0x0000000000000be6       0x34 build/libconsts.a(const_PIon180.o)
 .ARM.attributes
                0x0000000000000c1a       0x34 build/libconsts.a(const_9000.o)
 .ARM.attributes
                0x0000000000000c4e       0x34 build/libconsts.a(const_0_9.o)
 .ARM.attributes
                0x0000000000000c82       0x34 build/libconsts.a(const_gammaC08.o)
 .ARM.attributes
                0x0000000000000cb6       0x34 build/libconsts.a(const_gammaC21.o)
 .ARM.attributes
                0x0000000000000cea       0x34 build/libconsts.a(const_1e_37.o)
 .ARM.attributes
                0x0000000000000d1e       0x34 build/libconsts.a(const_gammaC05.o)
 .ARM.attributes
                0x0000000000000d52       0x34 build/libconsts.a(const_2.o)
 .ARM.attributes
                0x0000000000000d86       0x34 build/libconsts.a(const_gammaC13.o)
 .ARM.attributes
                0x0000000000000dba       0x34 build/libconsts.a(const_100000.o)
 .ARM.attributes
                0x0000000000000dee       0x34 build/libconsts.a(const_gammaR.o)
 .ARM.attributes
                0x0000000000000e22       0x34 build/libconsts.a(const_5.o)
 .ARM.attributes
                0x0000000000000e56       0x34 build/libconsts.a(const_1.o)
 .ARM.attributes
                0x0000000000000e8a       0x34 build/libconsts.a(const_gammaC19.o)
 .ARM.attributes
                0x0000000000000ebe       0x34 build/libconsts.a(const_inf.o)
 .ARM.attributes
                0x0000000000000ef2       0x34 build/libconsts.a(const_0_995.o)
 .ARM.attributes
                0x0000000000000f26       0x34 build/libconsts.a(const_0_0001.o)
 .ARM.attributes
                0x0000000000000f5a       0x34 build/libconsts.a(const_1on60.o)
 .ARM.attributes
                0x0000000000000f8e       0x34 build/libconsts.a(const_PIon200.o)
 .ARM.attributes
                0x0000000000000fc2       0x34 build/libconsts.a(const_gammaC01.o)
 .ARM.attributes
                0x0000000000000ff6       0x34 build/libconsts.a(const_gammaC09.o)
 .ARM.attributes
                0x000000000000102a       0x34 build/libconsts.a(const_0_5.o)
 .ARM.attributes
                0x000000000000105e       0x34 build/libconsts.a(const_9on5.o)
 .ARM.attributes
                0x0000000000001092       0x34 build/libconsts.a(const_20.o)
 .ARM.attributes
                0x00000000000010c6       0x34 build/libconsts.a(const_gammaC20.o)
 .ARM.attributes
                0x00000000000010fa       0x34 build/libconsts.a(const_400.o)
 .ARM.attributes
                0x000000000000112e       0x34 build/libconsts.a(const_gammaC07.o)
 .ARM.attributes
                0x0000000000001162       0x34 build/libconsts.a(const__0.o)
 .ARM.attributes
                0x0000000000001196       0x34 build/libconsts.a(const_0_4.o)
 .ARM.attributes
                0x00000000000011ca       0x34 build/libconsts.a(const_1e_10000.o)
 .ARM.attributes
                0x00000000000011fe       0x34 build/libconsts.a(const_gammaC12.o)
 .ARM.attributes
                0x0000000000001232       0x34 build/libconsts.a(const_2pow64.o)
 .ARM.attributes
                0x0000000000001266       0x34 build/libconsts.a(const_PIon2.o)
 .ARM.attributes
                0x000000000000129a       0x34 build/libconsts.a(const_gammaC04.o)
 .ARM.attributes
                0x00000000000012ce       0x34 build/libconsts.a(const_90.o)
 .ARM.attributes
                0x0000000000001302       0x34 build/libconsts.a(const_gammaC17.o)
 .ARM.attributes
                0x0000000000001336       0x34 build/libconsts.a(const_gammaC02.o)
 .ARM.attributes
                0x000000000000136a       0x34 build/libconsts.a(const_PI.o)
 .ARM.attributes
                0x000000000000139e       0x34 build/libconsts.a(const_root2on2.o)
 .ARM.attributes
                0x00000000000013d2       0x34 build/libconsts.a(const_100.o)
 .ARM.attributes
                0x0000000000001406       0x34 build/libconsts.a(const_0_1.o)
 .ARM.attributes
                0x000000000000143a       0x34 build/libdecNumber.a(decContext.o)
 .ARM.attributes
                0x000000000000146e       0x34 build/libdecNumber.a(decNumber.o)
 .ARM.attributes
                0x00000000000014a2       0x34 build/libdecNumber.a(decimal128.o)
 .ARM.attributes
                0x00000000000014d6       0x34 build/libdecNumber.a(decimal64.o)
 .ARM.attributes
                0x000000000000150a       0x21 build/startup_pgm.o
 .ARM.attributes
                0x000000000000152b       0x1e /usr/lib/gcc/arm-none-eabi/9.2.1/thumb/v7e-m+fp/hard/libgcc.a(_aeabi_uldivmod.o)
 .ARM.attributes
                0x0000000000001549       0x34 /usr/lib/gcc/arm-none-eabi/9.2.1/thumb/v7e-m+fp/hard/libgcc.a(_udivmoddi4.o)
 .ARM.attributes
                0x000000000000157d       0x1e /usr/lib/gcc/arm-none-eabi/9.2.1/thumb/v7e-m+fp/hard/libgcc.a(_dvmd_tls.o)
 .ARM.attributes
                0x000000000000159b       0x34 /usr/lib/gcc/arm-none-eabi/9.2.1/../../../arm-none-eabi/lib/thumb/v7e-m+fp/hard/libc.a(lib_a-atexit.o)
 .ARM.attributes
                0x00000000000015cf       0x34 /usr/lib/gcc/arm-none-eabi/9.2.1/../../../arm-none-eabi/lib/thumb/v7e-m+fp/hard/libc.a(lib_a-errno.o)
 .ARM.attributes
                0x0000000000001603       0x34 /usr/lib/gcc/arm-none-eabi/9.2.1/../../../arm-none-eabi/lib/thumb/v7e-m+fp/hard/libc.a(lib_a-fini.o)
 .ARM.attributes
                0x0000000000001637       0x32 /usr/lib/gcc/arm-none-eabi/9.2.1/../../../arm-none-eabi/lib/thumb/v7e-m+fp/hard/libc.a(lib_a-impure.o)
 .ARM.attributes
                0x0000000000001669       0x34 /usr/lib/gcc/arm-none-eabi/9.2.1/../../../arm-none-eabi/lib/thumb/v7e-m+fp/hard/libc.a(lib_a-init.o)
 .ARM.attributes
                0x000000000000169d       0x34 /usr/lib/gcc/arm-none-eabi/9.2.1/../../../arm-none-eabi/lib/thumb/v7e-m+fp/hard/libc.a(lib_a-memset.o)
 .ARM.attributes
                0x00000000000016d1       0x34 /usr/lib/gcc/arm-none-eabi/9.2.1/../../../arm-none-eabi/lib/thumb/v7e-m+fp/hard/libc.a(lib_a-perror.o)
 .ARM.attributes
                0x0000000000001705       0x34 /usr/lib/gcc/arm-none-eabi/9.2.1/../../../arm-none-eabi/lib/thumb/v7e-m+fp/hard/libc.a(lib_a-sprintf.o)
 .ARM.attributes
                0x0000000000001739       0x34 /usr/lib/gcc/arm-none-eabi/9.2.1/../../../arm-none-eabi/lib/thumb/v7e-m+fp/hard/libc.a(lib_a-strerror.o)
 .ARM.attributes
                0x000000000000176d       0x1c /usr/lib/gcc/arm-none-eabi/9.2.1/../../../arm-none-eabi/lib/thumb/v7e-m+fp/hard/libc.a(lib_a-strlen.o)
 .ARM.attributes
                0x0000000000001789       0x34 /usr/lib/gcc/arm-none-eabi/9.2.1/../../../arm-none-eabi/lib/thumb/v7e-m+fp/hard/libc.a(lib_a-strncpy.o)
 .ARM.attributes
                0x00000000000017bd       0x34 /usr/lib/gcc/arm-none-eabi/9.2.1/../../../arm-none-eabi/lib/thumb/v7e-m+fp/hard/libc.a(lib_a-svfprintf.o)
 .ARM.attributes
                0x00000000000017f1       0x34 /usr/lib/gcc/arm-none-eabi/9.2.1/../../../arm-none-eabi/lib/thumb/v7e-m+fp/hard/libc.a(lib_a-u_strerr.o)
 .ARM.attributes
                0x0000000000001825       0x34 /usr/lib/gcc/arm-none-eabi/9.2.1/../../../arm-none-eabi/lib/thumb/v7e-m+fp/hard/libc.a(lib_a-writer.o)
 .ARM.attributes
                0x0000000000001859       0x34 /usr/lib/gcc/arm-none-eabi/9.2.1/../../../arm-none-eabi/lib/thumb/v7e-m+fp/hard/libc.a(lib_a-__atexit.o)
 .ARM.attributes
                0x000000000000188d       0x34 /usr/lib/gcc/arm-none-eabi/9.2.1/../../../arm-none-eabi/lib/thumb/v7e-m+fp/hard/libc.a(lib_a-__call_atexit.o)
 .ARM.attributes
                0x00000000000018c1       0x32 /usr/lib/gcc/arm-none-eabi/9.2.1/../../../arm-none-eabi/lib/thumb/v7e-m+fp/hard/libc.a(lib_a-ctype_.o)
 .ARM.attributes
                0x00000000000018f3       0x34 /usr/lib/gcc/arm-none-eabi/9.2.1/../../../arm-none-eabi/lib/thumb/v7e-m+fp/hard/libc.a(lib_a-dtoa.o)
 .ARM.attributes
                0x0000000000001927       0x34 /usr/lib/gcc/arm-none-eabi/9.2.1/../../../arm-none-eabi/lib/thumb/v7e-m+fp/hard/libc.a(lib_a-fflush.o)
 .ARM.attributes
                0x000000000000195b       0x34 /usr/lib/gcc/arm-none-eabi/9.2.1/../../../arm-none-eabi/lib/thumb/v7e-m+fp/hard/libc.a(lib_a-fileno.o)
 .ARM.attributes
                0x000000000000198f       0x34 /usr/lib/gcc/arm-none-eabi/9.2.1/../../../arm-none-eabi/lib/thumb/v7e-m+fp/hard/libc.a(lib_a-findfp.o)
 .ARM.attributes
                0x00000000000019c3       0x34 /usr/lib/gcc/arm-none-eabi/9.2.1/../../../arm-none-eabi/lib/thumb/v7e-m+fp/hard/libc.a(lib_a-fwalk.o)
 .ARM.attributes
                0x00000000000019f7       0x34 /usr/lib/gcc/arm-none-eabi/9.2.1/../../../arm-none-eabi/lib/thumb/v7e-m+fp/hard/libc.a(lib_a-localeconv.o)
 .ARM.attributes
                0x0000000000001a2b       0x1c /usr/lib/gcc/arm-none-eabi/9.2.1/../../../arm-none-eabi/lib/thumb/v7e-m+fp/hard/libc.a(lib_a-memchr.o)
 .ARM.attributes
                0x0000000000001a47       0x1c /usr/lib/gcc/arm-none-eabi/9.2.1/../../../arm-none-eabi/lib/thumb/v7e-m+fp/hard/libc.a(lib_a-memcpy.o)
 .ARM.attributes
                0x0000000000001a63       0x34 /usr/lib/gcc/arm-none-eabi/9.2.1/../../../arm-none-eabi/lib/thumb/v7e-m+fp/hard/libc.a(lib_a-mprec.o)
 .ARM.attributes
                0x0000000000001a97       0x34 /usr/lib/gcc/arm-none-eabi/9.2.1/../../../arm-none-eabi/lib/thumb/v7e-m+fp/hard/libc.a(lib_a-reent.o)
 .ARM.attributes
                0x0000000000001acb       0x34 /usr/lib/gcc/arm-none-eabi/9.2.1/../../../arm-none-eabi/lib/thumb/v7e-m+fp/hard/libc.a(lib_a-stdio.o)
 .ARM.attributes
                0x0000000000001aff       0x34 /usr/lib/gcc/arm-none-eabi/9.2.1/../../../arm-none-eabi/lib/thumb/v7e-m+fp/hard/libc.a(lib_a-svfiprintf.o)
 .ARM.attributes
                0x0000000000001b33       0x34 /usr/lib/gcc/arm-none-eabi/9.2.1/../../../arm-none-eabi/lib/thumb/v7e-m+fp/hard/libc.a(lib_a-assert.o)
 .ARM.attributes
                0x0000000000001b67       0x34 /usr/lib/gcc/arm-none-eabi/9.2.1/../../../arm-none-eabi/lib/thumb/v7e-m+fp/hard/libc.a(lib_a-closer.o)
 .ARM.attributes
                0x0000000000001b9b       0x34 /usr/lib/gcc/arm-none-eabi/9.2.1/../../../arm-none-eabi/lib/thumb/v7e-m+fp/hard/libc.a(lib_a-fclose.o)
 .ARM.attributes
                0x0000000000001bcf       0x34 /usr/lib/gcc/arm-none-eabi/9.2.1/../../../arm-none-eabi/lib/thumb/v7e-m+fp/hard/libc.a(lib_a-fiprintf.o)
 .ARM.attributes
                0x0000000000001c03       0x34 /usr/lib/gcc/arm-none-eabi/9.2.1/../../../arm-none-eabi/lib/thumb/v7e-m+fp/hard/libc.a(lib_a-locale.o)
 .ARM.attributes
                0x0000000000001c37       0x34 /usr/lib/gcc/arm-none-eabi/9.2.1/../../../arm-none-eabi/lib/thumb/v7e-m+fp/hard/libc.a(lib_a-lseekr.o)
 .ARM.attributes
                0x0000000000001c6b       0x34 /usr/lib/gcc/arm-none-eabi/9.2.1/../../../arm-none-eabi/lib/thumb/v7e-m+fp/hard/libc.a(lib_a-mbtowc_r.o)
 .ARM.attributes
                0x0000000000001c9f       0x34 /usr/lib/gcc/arm-none-eabi/9.2.1/../../../arm-none-eabi/lib/thumb/v7e-m+fp/hard/libc.a(lib_a-memmove.o)
 .ARM.attributes
                0x0000000000001cd3       0x34 /usr/lib/gcc/arm-none-eabi/9.2.1/../../../arm-none-eabi/lib/thumb/v7e-m+fp/hard/libc.a(lib_a-readr.o)
 .ARM.attributes
                0x0000000000001d07       0x1c /usr/lib/gcc/arm-none-eabi/9.2.1/../../../arm-none-eabi/lib/thumb/v7e-m+fp/hard/libc.a(lib_a-strcmp.o)
 .ARM.attributes
                0x0000000000001d23       0x34 /usr/lib/gcc/arm-none-eabi/9.2.1/../../../arm-none-eabi/lib/thumb/v7e-m+fp/hard/libc.a(lib_a-vfiprintf.o)
 .ARM.attributes
                0x0000000000001d57       0x34 /usr/lib/gcc/arm-none-eabi/9.2.1/../../../arm-none-eabi/lib/thumb/v7e-m+fp/hard/libc.a(lib_a-wctomb_r.o)
 .ARM.attributes
                0x0000000000001d8b       0x34 /usr/lib/gcc/arm-none-eabi/9.2.1/../../../arm-none-eabi/lib/thumb/v7e-m+fp/hard/libc.a(lib_a-wsetup.o)
 .ARM.attributes
                0x0000000000001dbf       0x34 /usr/lib/gcc/arm-none-eabi/9.2.1/../../../arm-none-eabi/lib/thumb/v7e-m+fp/hard/libc.a(lib_a-abort.o)
 .ARM.attributes
                0x0000000000001df3       0x34 /usr/lib/gcc/arm-none-eabi/9.2.1/../../../arm-none-eabi/lib/thumb/v7e-m+fp/hard/libc.a(lib_a-fputwc.o)
 .ARM.attributes
                0x0000000000001e27       0x34 /usr/lib/gcc/arm-none-eabi/9.2.1/../../../arm-none-eabi/lib/thumb/v7e-m+fp/hard/libc.a(lib_a-fvwrite.o)
 .ARM.attributes
                0x0000000000001e5b       0x34 /usr/lib/gcc/arm-none-eabi/9.2.1/../../../arm-none-eabi/lib/thumb/v7e-m+fp/hard/libc.a(lib_a-makebuf.o)
 .ARM.attributes
                0x0000000000001e8f       0x34 /usr/lib/gcc/arm-none-eabi/9.2.1/../../../arm-none-eabi/lib/thumb/v7e-m+fp/hard/libc.a(lib_a-signal.o)
 .ARM.attributes
                0x0000000000001ec3       0x34 /usr/lib/gcc/arm-none-eabi/9.2.1/../../../arm-none-eabi/lib/thumb/v7e-m+fp/hard/libc.a(lib_a-signalr.o)
 .ARM.attributes
                0x0000000000001ef7       0x34 /usr/lib/gcc/arm-none-eabi/9.2.1/../../../arm-none-eabi/lib/thumb/v7e-m+fp/hard/libc.a(lib_a-wbuf.o)
 .ARM.attributes
                0x0000000000001f2b       0x34 /usr/lib/gcc/arm-none-eabi/9.2.1/../../../arm-none-eabi/lib/thumb/v7e-m+fp/hard/libc.a(lib_a-wcrtomb.o)
 .ARM.attributes
                0x0000000000001f5f       0x34 /usr/lib/gcc/arm-none-eabi/9.2.1/../../../arm-none-eabi/lib/thumb/v7e-m+fp/hard/libc.a(lib_a-fstatr.o)
 .ARM.attributes
                0x0000000000001f93       0x34 /usr/lib/gcc/arm-none-eabi/9.2.1/../../../arm-none-eabi/lib/thumb/v7e-m+fp/hard/libc.a(lib_a-isattyr.o)
 .ARM.attributes
                0x0000000000001fc7       0x1e /usr/lib/gcc/arm-none-eabi/9.2.1/thumb/v7e-m+fp/hard/libgcc.a(_arm_addsubdf3.o)
 .ARM.attributes
                0x0000000000001fe5       0x1e /usr/lib/gcc/arm-none-eabi/9.2.1/thumb/v7e-m+fp/hard/libgcc.a(_arm_muldivdf3.o)
 .ARM.attributes
                0x0000000000002003       0x1e /usr/lib/gcc/arm-none-eabi/9.2.1/thumb/v7e-m+fp/hard/libgcc.a(_arm_cmpdf2.o)
 .ARM.attributes
                0x0000000000002021       0x1e /usr/lib/gcc/arm-none-eabi/9.2.1/thumb/v7e-m+fp/hard/libgcc.a(_arm_unorddf2.o)
 .ARM.attributes
                0x000000000000203f       0x1e /usr/lib/gcc/arm-none-eabi/9.2.1/thumb/v7e-m+fp/hard/libgcc.a(_arm_fixdfsi.o)
 .ARM.attributes
                0x000000000000205d       0x34 /usr/lib/gcc/arm-none-eabi/9.2.1/../../../arm-none-eabi/lib/thumb/v7e-m+fp/hard/libnosys.a(_exit.o)
 .ARM.attributes
                0x0000000000002091       0x32 /usr/lib/gcc/arm-none-eabi/9.2.1/thumb/v7e-m+fp/hard/crtend.o
 .ARM.attributes
                0x00000000000020c3       0x1e /usr/lib/gcc/arm-none-eabi/9.2.1/thumb/v7e-m+fp/hard/crtn.o
OUTPUT(build/wp34s.elf elf32-littlearm)
LOAD linker stubs
LOAD /usr/lib/gcc/arm-none-eabi/9.2.1/../../../arm-none-eabi/lib/thumb/v7e-m+fp/hard/libc.a
LOAD /usr/lib/gcc/arm-none-eabi/9.2.1/../../../arm-none-eabi/lib/thumb/v7e-m+fp/hard/libm.a
LOAD /usr/lib/gcc/arm-none-eabi/9.2.1/thumb/v7e-m+fp/hard/libgcc.a

.comment        0x0000000000000000       0xa7
 .comment       0x0000000000000000       0x59 /usr/lib/gcc/arm-none-eabi/9.2.1/thumb/v7e-m+fp/hard/crtbegin.o
                                         0x5a (size before relaxing)
 .comment       0x0000000000000059       0x5a build/pgm_syscalls.o
 .comment       0x0000000000000059       0x5a build/keys.o
 .comment       0x0000000000000059       0x5a build/display.o
 .comment       0x0000000000000059       0x5a build/xeq.o
 .comment       0x0000000000000059       0x5a build/prt.o
 .comment       0x0000000000000059       0x5a build/decn.o
 .comment       0x0000000000000059       0x5a build/complex.o
 .comment       0x0000000000000059       0x5a build/stats.o
 .comment       0x0000000000000059       0x5a build/lcd.o
 .comment       0x0000000000000059       0x5a build/int.o
 .comment       0x0000000000000059       0x5a build/date.o
 .comment       0x0000000000000059       0x5a build/consts.o
 .comment       0x0000000000000059       0x5a build/alpha.o
 .comment       0x0000000000000059       0x5a build/charmap.o
 .comment       0x0000000000000059       0x5a build/commands.o
 .comment       0x0000000000000059       0x5a build/string.o
 .comment       0x0000000000000059       0x5a build/storage.o
 .comment       0x0000000000000059       0x5a build/matrix.o
 .comment       0x0000000000000059       0x5a build/font.o
 .comment       0x0000000000000059       0x5a build/xrom.o
 .comment       0x0000000000000059       0x5a build/console.o
 .comment       0x0000000000000059       0x5a build/libconsts.a(const_50.o)
 .comment       0x0000000000000059       0x5a build/libconsts.a(const_randfac.o)
 .comment       0x0000000000000059       0x5a build/libconsts.a(const_ln10.o)
 .comment       0x0000000000000059       0x5a build/libconsts.a(const_egamma.o)
 .comment       0x0000000000000059       0x5a build/libconsts.a(const_256.o)
 .comment       0x0000000000000059       0x5a build/libconsts.a(const_180.o)
 .comment       0x0000000000000059       0x5a build/libconsts.a(const_1e_32.o)
 .comment       0x0000000000000059       0x5a build/libconsts.a(const_gammaC03.o)
 .comment       0x0000000000000059       0x5a build/libconsts.a(const_60.o)
 .comment       0x0000000000000059       0x5a build/libconsts.a(const_10.o)
 .comment       0x0000000000000059       0x5a build/libconsts.a(const_360.o)
 .comment       0x0000000000000059       0x5a build/libconsts.a(const_gammaC10.o)
 .comment       0x0000000000000059       0x5a build/libconsts.a(const_gammaC11.o)
 .comment       0x0000000000000059       0x5a build/libconsts.a(const__inf.o)
 .comment       0x0000000000000059       0x5a build/libconsts.a(const_21.o)
 .comment       0x0000000000000059       0x5a build/libconsts.a(const_gammaC16.o)
 .comment       0x0000000000000059       0x5a build/libconsts.a(const_200.o)
 .comment       0x0000000000000059       0x5a build/libconsts.a(const_gammaC06.o)
 .comment       0x0000000000000059       0x5a build/libconsts.a(const_NaN.o)
 .comment       0x0000000000000059       0x5a build/libconsts.a(const_gammaC15.o)
 .comment       0x0000000000000059       0x5a build/libconsts.a(const_1e_24.o)
 .comment       0x0000000000000059       0x5a build/libconsts.a(const_45.o)
 .comment       0x0000000000000059       0x5a build/libconsts.a(const_0_05.o)
 .comment       0x0000000000000059       0x5a build/libconsts.a(const_3.o)
 .comment       0x0000000000000059       0x5a build/libconsts.a(const_hms_threshold.o)
 .comment       0x0000000000000059       0x5a build/libconsts.a(const_gammaC14.o)
 .comment       0x0000000000000059       0x5a build/libconsts.a(const_0_6.o)
 .comment       0x0000000000000059       0x5a build/libconsts.a(const_32.o)
 .comment       0x0000000000000059       0x5a build/libconsts.a(const_0_75.o)
 .comment       0x0000000000000059       0x5a build/libconsts.a(const__1.o)
 .comment       0x0000000000000059       0x5a build/libconsts.a(const_gammaC00.o)
 .comment       0x0000000000000059       0x5a build/libconsts.a(const_ln2.o)
 .comment       0x0000000000000059       0x5a build/libconsts.a(const_gammaC18.o)
 .comment       0x0000000000000059       0x5a build/libconsts.a(const_2PI.o)
 .comment       0x0000000000000059       0x5a build/libconsts.a(const_1e_14.o)
 .comment       0x0000000000000059       0x5a build/libconsts.a(const_0.o)
 .comment       0x0000000000000059       0x5a build/libconsts.a(const_PIon180.o)
 .comment       0x0000000000000059       0x5a build/libconsts.a(const_9000.o)
 .comment       0x0000000000000059       0x5a build/libconsts.a(const_0_9.o)
 .comment       0x0000000000000059       0x5a build/libconsts.a(const_gammaC08.o)
 .comment       0x0000000000000059       0x5a build/libconsts.a(const_gammaC21.o)
 .comment       0x0000000000000059       0x5a build/libconsts.a(const_1e_37.o)
 .comment       0x0000000000000059       0x5a build/libconsts.a(const_gammaC05.o)
 .comment       0x0000000000000059       0x5a build/libconsts.a(const_2.o)
 .comment       0x0000000000000059       0x5a build/libconsts.a(const_gammaC13.o)
 .comment       0x0000000000000059       0x5a build/libconsts.a(const_100000.o)
 .comment       0x0000000000000059       0x5a build/libconsts.a(const_gammaR.o)
 .comment       0x0000000000000059       0x5a build/libconsts.a(const_5.o)
 .comment       0x0000000000000059       0x5a build/libconsts.a(const_1.o)
 .comment       0x0000000000000059       0x5a build/libconsts.a(const_gammaC19.o)
 .comment       0x0000000000000059       0x5a build/libconsts.a(const_inf.o)
 .comment       0x0000000000000059       0x5a build/libconsts.a(const_0_995.o)
 .comment       0x0000000000000059       0x5a build/libconsts.a(const_0_0001.o)
 .comment       0x0000000000000059       0x5a build/libconsts.a(const_1on60.o)
 .comment       0x0000000000000059       0x5a build/libconsts.a(const_PIon200.o)
 .comment       0x0000000000000059       0x5a build/libconsts.a(const_gammaC01.o)
 .comment       0x0000000000000059       0x5a build/libconsts.a(const_gammaC09.o)
 .comment       0x0000000000000059       0x5a build/libconsts.a(const_0_5.o)
 .comment       0x0000000000000059       0x5a build/libconsts.a(const_9on5.o)
 .comment       0x0000000000000059       0x5a build/libconsts.a(const_20.o)
 .comment       0x0000000000000059       0x5a build/libconsts.a(const_gammaC20.o)
 .comment       0x0000000000000059       0x5a build/libconsts.a(const_400.o)
 .comment       0x0000000000000059       0x5a build/libconsts.a(const_gammaC07.o)
 .comment       0x0000000000000059       0x5a build/libconsts.a(const__0.o)
 .comment       0x0000000000000059       0x5a build/libconsts.a(const_0_4.o)
 .comment       0x0000000000000059       0x5a build/libconsts.a(const_1e_10000.o)
 .comment       0x0000000000000059       0x5a build/libconsts.a(const_gammaC12.o)
 .comment       0x0000000000000059       0x5a build/libconsts.a(const_2pow64.o)
 .comment       0x0000000000000059       0x5a build/libconsts.a(const_PIon2.o)
 .comment       0x0000000000000059       0x5a build/libconsts.a(const_gammaC04.o)
 .comment       0x0000000000000059       0x5a build/libconsts.a(const_90.o)
 .comment       0x0000000000000059       0x5a build/libconsts.a(const_gammaC17.o)
 .comment       0x0000000000000059       0x5a build/libconsts.a(const_gammaC02.o)
 .comment       0x0000000000000059       0x5a build/libconsts.a(const_PI.o)
 .comment       0x0000000000000059       0x5a build/libconsts.a(const_root2on2.o)
 .comment       0x0000000000000059       0x5a build/libconsts.a(const_100.o)
 .comment       0x0000000000000059       0x5a build/libconsts.a(const_0_1.o)
 .comment       0x0000000000000059       0x5a build/libdecNumber.a(decContext.o)
 .comment       0x0000000000000059       0x5a build/libdecNumber.a(decNumber.o)
 .comment       0x0000000000000059       0x5a build/libdecNumber.a(decimal128.o)
 .comment       0x0000000000000059       0x5a build/libdecNumber.a(decimal64.o)
 .comment       0x0000000000000059       0x5a /usr/lib/gcc/arm-none-eabi/9.2.1/thumb/v7e-m+fp/hard/libgcc.a(_udivmoddi4.o)
 .comment       0x0000000000000059       0x4e /usr/lib/gcc/arm-none-eabi/9.2.1/../../../arm-none-eabi/lib/thumb/v7e-m+fp/hard/libc.a(lib_a-atexit.o)
                                         0x4f (size before relaxing)
 .comment       0x00000000000000a7       0x4f /usr/lib/gcc/arm-none-eabi/9.2.1/../../../arm-none-eabi/lib/thumb/v7e-m+fp/hard/libc.a(lib_a-errno.o)
 .comment       0x00000000000000a7       0x4f /usr/lib/gcc/arm-none-eabi/9.2.1/../../../arm-none-eabi/lib/thumb/v7e-m+fp/hard/libc.a(lib_a-fini.o)
 .comment       0x00000000000000a7       0x4f /usr/lib/gcc/arm-none-eabi/9.2.1/../../../arm-none-eabi/lib/thumb/v7e-m+fp/hard/libc.a(lib_a-impure.o)
 .comment       0x00000000000000a7       0x4f /usr/lib/gcc/arm-none-eabi/9.2.1/../../../arm-none-eabi/lib/thumb/v7e-m+fp/hard/libc.a(lib_a-init.o)
 .comment       0x00000000000000a7       0x4f /usr/lib/gcc/arm-none-eabi/9.2.1/../../../arm-none-eabi/lib/thumb/v7e-m+fp/hard/libc.a(lib_a-memset.o)
 .comment       0x00000000000000a7       0x4f /usr/lib/gcc/arm-none-eabi/9.2.1/../../../arm-none-eabi/lib/thumb/v7e-m+fp/hard/libc.a(lib_a-perror.o)
 .comment       0x00000000000000a7       0x4f /usr/lib/gcc/arm-none-eabi/9.2.1/../../../arm-none-eabi/lib/thumb/v7e-m+fp/hard/libc.a(lib_a-sprintf.o)
 .comment       0x00000000000000a7       0x4f /usr/lib/gcc/arm-none-eabi/9.2.1/../../../arm-none-eabi/lib/thumb/v7e-m+fp/hard/libc.a(lib_a-strerror.o)
 .comment       0x00000000000000a7       0x4f /usr/lib/gcc/arm-none-eabi/9.2.1/../../../arm-none-eabi/lib/thumb/v7e-m+fp/hard/libc.a(lib_a-strncpy.o)
 .comment       0x00000000000000a7       0x4f /usr/lib/gcc/arm-none-eabi/9.2.1/../../../arm-none-eabi/lib/thumb/v7e-m+fp/hard/libc.a(lib_a-svfprintf.o)
 .comment       0x00000000000000a7       0x4f /usr/lib/gcc/arm-none-eabi/9.2.1/../../../arm-none-eabi/lib/thumb/v7e-m+fp/hard/libc.a(lib_a-u_strerr.o)
 .comment       0x00000000000000a7       0x4f /usr/lib/gcc/arm-none-eabi/9.2.1/../../../arm-none-eabi/lib/thumb/v7e-m+fp/hard/libc.a(lib_a-writer.o)
 .comment       0x00000000000000a7       0x4f /usr/lib/gcc/arm-none-eabi/9.2.1/../../../arm-none-eabi/lib/thumb/v7e-m+fp/hard/libc.a(lib_a-__atexit.o)
 .comment       0x00000000000000a7       0x4f /usr/lib/gcc/arm-none-eabi/9.2.1/../../../arm-none-eabi/lib/thumb/v7e-m+fp/hard/libc.a(lib_a-__call_atexit.o)
 .comment       0x00000000000000a7       0x4f /usr/lib/gcc/arm-none-eabi/9.2.1/../../../arm-none-eabi/lib/thumb/v7e-m+fp/hard/libc.a(lib_a-ctype_.o)
 .comment       0x00000000000000a7       0x4f /usr/lib/gcc/arm-none-eabi/9.2.1/../../../arm-none-eabi/lib/thumb/v7e-m+fp/hard/libc.a(lib_a-dtoa.o)
 .comment       0x00000000000000a7       0x4f /usr/lib/gcc/arm-none-eabi/9.2.1/../../../arm-none-eabi/lib/thumb/v7e-m+fp/hard/libc.a(lib_a-fflush.o)
 .comment       0x00000000000000a7       0x4f /usr/lib/gcc/arm-none-eabi/9.2.1/../../../arm-none-eabi/lib/thumb/v7e-m+fp/hard/libc.a(lib_a-fileno.o)
 .comment       0x00000000000000a7       0x4f /usr/lib/gcc/arm-none-eabi/9.2.1/../../../arm-none-eabi/lib/thumb/v7e-m+fp/hard/libc.a(lib_a-findfp.o)
 .comment       0x00000000000000a7       0x4f /usr/lib/gcc/arm-none-eabi/9.2.1/../../../arm-none-eabi/lib/thumb/v7e-m+fp/hard/libc.a(lib_a-fwalk.o)
 .comment       0x00000000000000a7       0x4f /usr/lib/gcc/arm-none-eabi/9.2.1/../../../arm-none-eabi/lib/thumb/v7e-m+fp/hard/libc.a(lib_a-localeconv.o)
 .comment       0x00000000000000a7       0x4f /usr/lib/gcc/arm-none-eabi/9.2.1/../../../arm-none-eabi/lib/thumb/v7e-m+fp/hard/libc.a(lib_a-mprec.o)
 .comment       0x00000000000000a7       0x4f /usr/lib/gcc/arm-none-eabi/9.2.1/../../../arm-none-eabi/lib/thumb/v7e-m+fp/hard/libc.a(lib_a-reent.o)
 .comment       0x00000000000000a7       0x4f /usr/lib/gcc/arm-none-eabi/9.2.1/../../../arm-none-eabi/lib/thumb/v7e-m+fp/hard/libc.a(lib_a-stdio.o)
 .comment       0x00000000000000a7       0x4f /usr/lib/gcc/arm-none-eabi/9.2.1/../../../arm-none-eabi/lib/thumb/v7e-m+fp/hard/libc.a(lib_a-svfiprintf.o)
 .comment       0x00000000000000a7       0x4f /usr/lib/gcc/arm-none-eabi/9.2.1/../../../arm-none-eabi/lib/thumb/v7e-m+fp/hard/libc.a(lib_a-assert.o)
 .comment       0x00000000000000a7       0x4f /usr/lib/gcc/arm-none-eabi/9.2.1/../../../arm-none-eabi/lib/thumb/v7e-m+fp/hard/libc.a(lib_a-closer.o)
 .comment       0x00000000000000a7       0x4f /usr/lib/gcc/arm-none-eabi/9.2.1/../../../arm-none-eabi/lib/thumb/v7e-m+fp/hard/libc.a(lib_a-fclose.o)
 .comment       0x00000000000000a7       0x4f /usr/lib/gcc/arm-none-eabi/9.2.1/../../../arm-none-eabi/lib/thumb/v7e-m+fp/hard/libc.a(lib_a-fiprintf.o)
 .comment       0x00000000000000a7       0x4f /usr/lib/gcc/arm-none-eabi/9.2.1/../../../arm-none-eabi/lib/thumb/v7e-m+fp/hard/libc.a(lib_a-locale.o)
 .comment       0x00000000000000a7       0x4f /usr/lib/gcc/arm-none-eabi/9.2.1/../../../arm-none-eabi/lib/thumb/v7e-m+fp/hard/libc.a(lib_a-lseekr.o)
 .comment       0x00000000000000a7       0x4f /usr/lib/gcc/arm-none-eabi/9.2.1/../../../arm-none-eabi/lib/thumb/v7e-m+fp/hard/libc.a(lib_a-mbtowc_r.o)
 .comment       0x00000000000000a7       0x4f /usr/lib/gcc/arm-none-eabi/9.2.1/../../../arm-none-eabi/lib/thumb/v7e-m+fp/hard/libc.a(lib_a-memmove.o)
 .comment       0x00000000000000a7       0x4f /usr/lib/gcc/arm-none-eabi/9.2.1/../../../arm-none-eabi/lib/thumb/v7e-m+fp/hard/libc.a(lib_a-readr.o)
 .comment       0x00000000000000a7       0x4f /usr/lib/gcc/arm-none-eabi/9.2.1/../../../arm-none-eabi/lib/thumb/v7e-m+fp/hard/libc.a(lib_a-vfiprintf.o)
 .comment       0x00000000000000a7       0x4f /usr/lib/gcc/arm-none-eabi/9.2.1/../../../arm-none-eabi/lib/thumb/v7e-m+fp/hard/libc.a(lib_a-wctomb_r.o)
 .comment       0x00000000000000a7       0x4f /usr/lib/gcc/arm-none-eabi/9.2.1/../../../arm-none-eabi/lib/thumb/v7e-m+fp/hard/libc.a(lib_a-wsetup.o)
 .comment       0x00000000000000a7       0x4f /usr/lib/gcc/arm-none-eabi/9.2.1/../../../arm-none-eabi/lib/thumb/v7e-m+fp/hard/libc.a(lib_a-abort.o)
 .comment       0x00000000000000a7       0x4f /usr/lib/gcc/arm-none-eabi/9.2.1/../../../arm-none-eabi/lib/thumb/v7e-m+fp/hard/libc.a(lib_a-fputwc.o)
 .comment       0x00000000000000a7       0x4f /usr/lib/gcc/arm-none-eabi/9.2.1/../../../arm-none-eabi/lib/thumb/v7e-m+fp/hard/libc.a(lib_a-fvwrite.o)
 .comment       0x00000000000000a7       0x4f /usr/lib/gcc/arm-none-eabi/9.2.1/../../../arm-none-eabi/lib/thumb/v7e-m+fp/hard/libc.a(lib_a-makebuf.o)
 .comment       0x00000000000000a7       0x4f /usr/lib/gcc/arm-none-eabi/9.2.1/../../../arm-none-eabi/lib/thumb/v7e-m+fp/hard/libc.a(lib_a-signal.o)
 .comment       0x00000000000000a7       0x4f /usr/lib/gcc/arm-none-eabi/9.2.1/../../../arm-none-eabi/lib/thumb/v7e-m+fp/hard/libc.a(lib_a-signalr.o)
 .comment       0x00000000000000a7       0x4f /usr/lib/gcc/arm-none-eabi/9.2.1/../../../arm-none-eabi/lib/thumb/v7e-m+fp/hard/libc.a(lib_a-wbuf.o)
 .comment       0x00000000000000a7       0x4f /usr/lib/gcc/arm-none-eabi/9.2.1/../../../arm-none-eabi/lib/thumb/v7e-m+fp/hard/libc.a(lib_a-wcrtomb.o)
 .comment       0x00000000000000a7       0x4f /usr/lib/gcc/arm-none-eabi/9.2.1/../../../arm-none-eabi/lib/thumb/v7e-m+fp/hard/libc.a(lib_a-fstatr.o)
 .comment       0x00000000000000a7       0x4f /usr/lib/gcc/arm-none-eabi/9.2.1/../../../arm-none-eabi/lib/thumb/v7e-m+fp/hard/libc.a(lib_a-isattyr.o)
 .comment       0x00000000000000a7       0x4f /usr/lib/gcc/arm-none-eabi/9.2.1/../../../arm-none-eabi/lib/thumb/v7e-m+fp/hard/libnosys.a(_exit.o)
 .comment       0x00000000000000a7       0x5a /usr/lib/gcc/arm-none-eabi/9.2.1/thumb/v7e-m+fp/hard/crtend.o

.debug_info     0x0000000000000000    0xa3e9f
 .debug_info    0x0000000000000000     0x1369 build/pgm_syscalls.o
 .debug_info    0x0000000000001369     0x7a57 build/keys.o
 .debug_info    0x0000000000008dc0     0x7c96 build/display.o
 .debug_info    0x0000000000010a56    0x13214 build/xeq.o
 .debug_info    0x0000000000023c6a     0x36b0 build/prt.o
 .debug_info    0x000000000002731a    0x1148f build/decn.o
 .debug_info    0x00000000000387a9     0x5d41 build/complex.o
 .debug_info    0x000000000003e4ea     0x60c7 build/stats.o
 .debug_info    0x00000000000445b1     0x3b80 build/lcd.o
 .debug_info    0x0000000000048131     0x76c0 build/int.o
 .debug_info    0x000000000004f7f1     0x494b build/date.o
 .debug_info    0x000000000005413c     0x2294 build/consts.o
 .debug_info    0x00000000000563d0     0x2f96 build/alpha.o
 .debug_info    0x0000000000059366       0x8a build/charmap.o
 .debug_info    0x00000000000593f0     0x29ec build/commands.o
 .debug_info    0x000000000005bddc     0x2149 build/string.o
 .debug_info    0x000000000005df25     0x4ed7 build/storage.o
 .debug_info    0x0000000000062dfc     0x5089 build/matrix.o
 .debug_info    0x0000000000067e85      0x28b build/font.o
 .debug_info    0x0000000000068110     0x1c18 build/xrom.o
 .debug_info    0x0000000000069d28     0x586d build/console.o
 .debug_info    0x000000000006f595       0xdf build/libconsts.a(const_50.o)
 .debug_info    0x000000000006f674       0xdf build/libconsts.a(const_randfac.o)
 .debug_info    0x000000000006f753       0xdf build/libconsts.a(const_ln10.o)
 .debug_info    0x000000000006f832       0xdf build/libconsts.a(const_egamma.o)
 .debug_info    0x000000000006f911       0xdf build/libconsts.a(const_256.o)
 .debug_info    0x000000000006f9f0       0xdf build/libconsts.a(const_180.o)
 .debug_info    0x000000000006facf       0xdf build/libconsts.a(const_1e_32.o)
 .debug_info    0x000000000006fbae       0xdf build/libconsts.a(const_gammaC03.o)
 .debug_info    0x000000000006fc8d       0xdf build/libconsts.a(const_60.o)
 .debug_info    0x000000000006fd6c       0xdf build/libconsts.a(const_10.o)
 .debug_info    0x000000000006fe4b       0xdf build/libconsts.a(const_360.o)
 .debug_info    0x000000000006ff2a       0xdf build/libconsts.a(const_gammaC10.o)
 .debug_info    0x0000000000070009       0xdf build/libconsts.a(const_gammaC11.o)
 .debug_info    0x00000000000700e8       0xdf build/libconsts.a(const__inf.o)
 .debug_info    0x00000000000701c7       0xdf build/libconsts.a(const_21.o)
 .debug_info    0x00000000000702a6       0xdf build/libconsts.a(const_gammaC16.o)
 .debug_info    0x0000000000070385       0xdf build/libconsts.a(const_200.o)
 .debug_info    0x0000000000070464       0xdf build/libconsts.a(const_gammaC06.o)
 .debug_info    0x0000000000070543       0xdf build/libconsts.a(const_NaN.o)
 .debug_info    0x0000000000070622       0xdf build/libconsts.a(const_gammaC15.o)
 .debug_info    0x0000000000070701       0xdf build/libconsts.a(const_1e_24.o)
 .debug_info    0x00000000000707e0       0xdf build/libconsts.a(const_45.o)
 .debug_info    0x00000000000708bf       0xdf build/libconsts.a(const_0_05.o)
 .debug_info    0x000000000007099e       0xdf build/libconsts.a(const_3.o)
 .debug_info    0x0000000000070a7d       0xdf build/libconsts.a(const_hms_threshold.o)
 .debug_info    0x0000000000070b5c       0xdf build/libconsts.a(const_gammaC14.o)
 .debug_info    0x0000000000070c3b       0xdf build/libconsts.a(const_0_6.o)
 .debug_info    0x0000000000070d1a       0xdf build/libconsts.a(const_32.o)
 .debug_info    0x0000000000070df9       0xdf build/libconsts.a(const_0_75.o)
 .debug_info    0x0000000000070ed8       0xdf build/libconsts.a(const__1.o)
 .debug_info    0x0000000000070fb7       0xdf build/libconsts.a(const_gammaC00.o)
 .debug_info    0x0000000000071096       0xdf build/libconsts.a(const_ln2.o)
 .debug_info    0x0000000000071175       0xdf build/libconsts.a(const_gammaC18.o)
 .debug_info    0x0000000000071254       0xe0 build/libconsts.a(const_2PI.o)
 .debug_info    0x0000000000071334       0xdf build/libconsts.a(const_1e_14.o)
 .debug_info    0x0000000000071413       0xdf build/libconsts.a(const_0.o)
 .debug_info    0x00000000000714f2       0xdf build/libconsts.a(const_PIon180.o)
 .debug_info    0x00000000000715d1       0xdf build/libconsts.a(const_9000.o)
 .debug_info    0x00000000000716b0       0xdf build/libconsts.a(const_0_9.o)
 .debug_info    0x000000000007178f       0xdf build/libconsts.a(const_gammaC08.o)
 .debug_info    0x000000000007186e       0xdf build/libconsts.a(const_gammaC21.o)
 .debug_info    0x000000000007194d       0xdf build/libconsts.a(const_1e_37.o)
 .debug_info    0x0000000000071a2c       0xdf build/libconsts.a(const_gammaC05.o)
 .debug_info    0x0000000000071b0b       0xdf build/libconsts.a(const_2.o)
 .debug_info    0x0000000000071bea       0xdf build/libconsts.a(const_gammaC13.o)
 .debug_info    0x0000000000071cc9       0xdf build/libconsts.a(const_100000.o)
 .debug_info    0x0000000000071da8       0xdf build/libconsts.a(const_gammaR.o)
 .debug_info    0x0000000000071e87       0xdf build/libconsts.a(const_5.o)
 .debug_info    0x0000000000071f66       0xdf build/libconsts.a(const_1.o)
 .debug_info    0x0000000000072045       0xdf build/libconsts.a(const_gammaC19.o)
 .debug_info    0x0000000000072124       0xdf build/libconsts.a(const_inf.o)
 .debug_info    0x0000000000072203       0xdf build/libconsts.a(const_0_995.o)
 .debug_info    0x00000000000722e2       0xdf build/libconsts.a(const_0_0001.o)
 .debug_info    0x00000000000723c1       0xdf build/libconsts.a(const_1on60.o)
 .debug_info    0x00000000000724a0       0xdf build/libconsts.a(const_PIon200.o)
 .debug_info    0x000000000007257f       0xdf build/libconsts.a(const_gammaC01.o)
 .debug_info    0x000000000007265e       0xdf build/libconsts.a(const_gammaC09.o)
 .debug_info    0x000000000007273d       0xdf build/libconsts.a(const_0_5.o)
 .debug_info    0x000000000007281c       0xdf build/libconsts.a(const_9on5.o)
 .debug_info    0x00000000000728fb       0xdf build/libconsts.a(const_20.o)
 .debug_info    0x00000000000729da       0xdf build/libconsts.a(const_gammaC20.o)
 .debug_info    0x0000000000072ab9       0xdf build/libconsts.a(const_400.o)
 .debug_info    0x0000000000072b98       0xdf build/libconsts.a(const_gammaC07.o)
 .debug_info    0x0000000000072c77       0xdf build/libconsts.a(const__0.o)
 .debug_info    0x0000000000072d56       0xdf build/libconsts.a(const_0_4.o)
 .debug_info    0x0000000000072e35       0xdf build/libconsts.a(const_1e_10000.o)
 .debug_info    0x0000000000072f14       0xdf build/libconsts.a(const_gammaC12.o)
 .debug_info    0x0000000000072ff3       0xdf build/libconsts.a(const_2pow64.o)
 .debug_info    0x00000000000730d2       0xdf build/libconsts.a(const_PIon2.o)
 .debug_info    0x00000000000731b1       0xdf build/libconsts.a(const_gammaC04.o)
 .debug_info    0x0000000000073290       0xdf build/libconsts.a(const_90.o)
 .debug_info    0x000000000007336f       0xdf build/libconsts.a(const_gammaC17.o)
 .debug_info    0x000000000007344e       0xdf build/libconsts.a(const_gammaC02.o)
 .debug_info    0x000000000007352d       0xdf build/libconsts.a(const_PI.o)
 .debug_info    0x000000000007360c       0xdf build/libconsts.a(const_root2on2.o)
 .debug_info    0x00000000000736eb       0xdf build/libconsts.a(const_100.o)
 .debug_info    0x00000000000737ca       0xdf build/libconsts.a(const_0_1.o)
 .debug_info    0x00000000000738a9      0x210 build/libdecNumber.a(decContext.o)
 .debug_info    0x0000000000073ab9     0x5b09 build/libdecNumber.a(decNumber.o)
 .debug_info    0x00000000000795c2      0x554 build/libdecNumber.a(decimal128.o)
 .debug_info    0x0000000000079b16      0x893 build/libdecNumber.a(decimal64.o)
 .debug_info    0x000000000007a3a9       0x26 build/startup_pgm.o
 .debug_info    0x000000000007a3cf       0x26 /usr/lib/gcc/arm-none-eabi/9.2.1/thumb/v7e-m+fp/hard/libgcc.a(_aeabi_uldivmod.o)
 .debug_info    0x000000000007a3f5      0xd7c /usr/lib/gcc/arm-none-eabi/9.2.1/thumb/v7e-m+fp/hard/libgcc.a(_udivmoddi4.o)
 .debug_info    0x000000000007b171       0x26 /usr/lib/gcc/arm-none-eabi/9.2.1/thumb/v7e-m+fp/hard/libgcc.a(_dvmd_tls.o)
 .debug_info    0x000000000007b197      0x995 /usr/lib/gcc/arm-none-eabi/9.2.1/../../../arm-none-eabi/lib/thumb/v7e-m+fp/hard/libc.a(lib_a-atexit.o)
 .debug_info    0x000000000007bb2c      0x953 /usr/lib/gcc/arm-none-eabi/9.2.1/../../../arm-none-eabi/lib/thumb/v7e-m+fp/hard/libc.a(lib_a-errno.o)
 .debug_info    0x000000000007c47f      0x102 /usr/lib/gcc/arm-none-eabi/9.2.1/../../../arm-none-eabi/lib/thumb/v7e-m+fp/hard/libc.a(lib_a-fini.o)
 .debug_info    0x000000000007c581      0x92a /usr/lib/gcc/arm-none-eabi/9.2.1/../../../arm-none-eabi/lib/thumb/v7e-m+fp/hard/libc.a(lib_a-impure.o)
 .debug_info    0x000000000007ceab      0x11a /usr/lib/gcc/arm-none-eabi/9.2.1/../../../arm-none-eabi/lib/thumb/v7e-m+fp/hard/libc.a(lib_a-init.o)
 .debug_info    0x000000000007cfc5      0xf21 /usr/lib/gcc/arm-none-eabi/9.2.1/../../../arm-none-eabi/lib/thumb/v7e-m+fp/hard/libc.a(lib_a-memset.o)
 .debug_info    0x000000000007dee6      0xee4 /usr/lib/gcc/arm-none-eabi/9.2.1/../../../arm-none-eabi/lib/thumb/v7e-m+fp/hard/libc.a(lib_a-perror.o)
 .debug_info    0x000000000007edca      0xc90 /usr/lib/gcc/arm-none-eabi/9.2.1/../../../arm-none-eabi/lib/thumb/v7e-m+fp/hard/libc.a(lib_a-sprintf.o)
 .debug_info    0x000000000007fa5a      0xad1 /usr/lib/gcc/arm-none-eabi/9.2.1/../../../arm-none-eabi/lib/thumb/v7e-m+fp/hard/libc.a(lib_a-strerror.o)
 .debug_info    0x000000000008052b       0x26 /usr/lib/gcc/arm-none-eabi/9.2.1/../../../arm-none-eabi/lib/thumb/v7e-m+fp/hard/libc.a(lib_a-strlen.o)
 .debug_info    0x0000000000080551      0x9d2 /usr/lib/gcc/arm-none-eabi/9.2.1/../../../arm-none-eabi/lib/thumb/v7e-m+fp/hard/libc.a(lib_a-strncpy.o)
 .debug_info    0x0000000000080f23     0x1ebd /usr/lib/gcc/arm-none-eabi/9.2.1/../../../arm-none-eabi/lib/thumb/v7e-m+fp/hard/libc.a(lib_a-svfprintf.o)
 .debug_info    0x0000000000082de0       0x8b /usr/lib/gcc/arm-none-eabi/9.2.1/../../../arm-none-eabi/lib/thumb/v7e-m+fp/hard/libc.a(lib_a-u_strerr.o)
 .debug_info    0x0000000000082e6b      0xa2c /usr/lib/gcc/arm-none-eabi/9.2.1/../../../arm-none-eabi/lib/thumb/v7e-m+fp/hard/libc.a(lib_a-writer.o)
 .debug_info    0x0000000000083897      0x9d5 /usr/lib/gcc/arm-none-eabi/9.2.1/../../../arm-none-eabi/lib/thumb/v7e-m+fp/hard/libc.a(lib_a-__atexit.o)
 .debug_info    0x000000000008426c      0xa56 /usr/lib/gcc/arm-none-eabi/9.2.1/../../../arm-none-eabi/lib/thumb/v7e-m+fp/hard/libc.a(lib_a-__call_atexit.o)
 .debug_info    0x0000000000084cc2      0xe91 /usr/lib/gcc/arm-none-eabi/9.2.1/../../../arm-none-eabi/lib/thumb/v7e-m+fp/hard/libc.a(lib_a-ctype_.o)
 .debug_info    0x0000000000085b53     0x1acf /usr/lib/gcc/arm-none-eabi/9.2.1/../../../arm-none-eabi/lib/thumb/v7e-m+fp/hard/libc.a(lib_a-dtoa.o)
 .debug_info    0x0000000000087622      0xd73 /usr/lib/gcc/arm-none-eabi/9.2.1/../../../arm-none-eabi/lib/thumb/v7e-m+fp/hard/libc.a(lib_a-fflush.o)
 .debug_info    0x0000000000088395      0xbac /usr/lib/gcc/arm-none-eabi/9.2.1/../../../arm-none-eabi/lib/thumb/v7e-m+fp/hard/libc.a(lib_a-fileno.o)
 .debug_info    0x0000000000088f41     0x1143 /usr/lib/gcc/arm-none-eabi/9.2.1/../../../arm-none-eabi/lib/thumb/v7e-m+fp/hard/libc.a(lib_a-findfp.o)
 .debug_info    0x000000000008a084      0xca4 /usr/lib/gcc/arm-none-eabi/9.2.1/../../../arm-none-eabi/lib/thumb/v7e-m+fp/hard/libc.a(lib_a-fwalk.o)
 .debug_info    0x000000000008ad28      0xf49 /usr/lib/gcc/arm-none-eabi/9.2.1/../../../arm-none-eabi/lib/thumb/v7e-m+fp/hard/libc.a(lib_a-localeconv.o)
 .debug_info    0x000000000008bc71       0x26 /usr/lib/gcc/arm-none-eabi/9.2.1/../../../arm-none-eabi/lib/thumb/v7e-m+fp/hard/libc.a(lib_a-memchr.o)
 .debug_info    0x000000000008bc97       0x26 /usr/lib/gcc/arm-none-eabi/9.2.1/../../../arm-none-eabi/lib/thumb/v7e-m+fp/hard/libc.a(lib_a-memcpy.o)
 .debug_info    0x000000000008bcbd     0x228d /usr/lib/gcc/arm-none-eabi/9.2.1/../../../arm-none-eabi/lib/thumb/v7e-m+fp/hard/libc.a(lib_a-mprec.o)
 .debug_info    0x000000000008df4a      0xac5 /usr/lib/gcc/arm-none-eabi/9.2.1/../../../arm-none-eabi/lib/thumb/v7e-m+fp/hard/libc.a(lib_a-reent.o)
 .debug_info    0x000000000008ea0f      0xe67 /usr/lib/gcc/arm-none-eabi/9.2.1/../../../arm-none-eabi/lib/thumb/v7e-m+fp/hard/libc.a(lib_a-stdio.o)
 .debug_info    0x000000000008f876     0x18fe /usr/lib/gcc/arm-none-eabi/9.2.1/../../../arm-none-eabi/lib/thumb/v7e-m+fp/hard/libc.a(lib_a-svfiprintf.o)
 .debug_info    0x0000000000091174      0xa41 /usr/lib/gcc/arm-none-eabi/9.2.1/../../../arm-none-eabi/lib/thumb/v7e-m+fp/hard/libc.a(lib_a-assert.o)
 .debug_info    0x0000000000091bb5      0x9d8 /usr/lib/gcc/arm-none-eabi/9.2.1/../../../arm-none-eabi/lib/thumb/v7e-m+fp/hard/libc.a(lib_a-closer.o)
 .debug_info    0x000000000009258d      0xcd5 /usr/lib/gcc/arm-none-eabi/9.2.1/../../../arm-none-eabi/lib/thumb/v7e-m+fp/hard/libc.a(lib_a-fclose.o)
 .debug_info    0x0000000000093262      0xa71 /usr/lib/gcc/arm-none-eabi/9.2.1/../../../arm-none-eabi/lib/thumb/v7e-m+fp/hard/libc.a(lib_a-fiprintf.o)
 .debug_info    0x0000000000093cd3     0x10ca /usr/lib/gcc/arm-none-eabi/9.2.1/../../../arm-none-eabi/lib/thumb/v7e-m+fp/hard/libc.a(lib_a-locale.o)
 .debug_info    0x0000000000094d9d      0xa0d /usr/lib/gcc/arm-none-eabi/9.2.1/../../../arm-none-eabi/lib/thumb/v7e-m+fp/hard/libc.a(lib_a-lseekr.o)
 .debug_info    0x00000000000957aa     0x1044 /usr/lib/gcc/arm-none-eabi/9.2.1/../../../arm-none-eabi/lib/thumb/v7e-m+fp/hard/libc.a(lib_a-mbtowc_r.o)
 .debug_info    0x00000000000967ee      0xf2b /usr/lib/gcc/arm-none-eabi/9.2.1/../../../arm-none-eabi/lib/thumb/v7e-m+fp/hard/libc.a(lib_a-memmove.o)
 .debug_info    0x0000000000097719      0xa25 /usr/lib/gcc/arm-none-eabi/9.2.1/../../../arm-none-eabi/lib/thumb/v7e-m+fp/hard/libc.a(lib_a-readr.o)
 .debug_info    0x000000000009813e       0x26 /usr/lib/gcc/arm-none-eabi/9.2.1/../../../arm-none-eabi/lib/thumb/v7e-m+fp/hard/libc.a(lib_a-strcmp.o)
 .debug_info    0x0000000000098164     0x1eb6 /usr/lib/gcc/arm-none-eabi/9.2.1/../../../arm-none-eabi/lib/thumb/v7e-m+fp/hard/libc.a(lib_a-vfiprintf.o)
 .debug_info    0x000000000009a01a      0xffd /usr/lib/gcc/arm-none-eabi/9.2.1/../../../arm-none-eabi/lib/thumb/v7e-m+fp/hard/libc.a(lib_a-wctomb_r.o)
 .debug_info    0x000000000009b017      0xbf3 /usr/lib/gcc/arm-none-eabi/9.2.1/../../../arm-none-eabi/lib/thumb/v7e-m+fp/hard/libc.a(lib_a-wsetup.o)
 .debug_info    0x000000000009bc0a      0x9b5 /usr/lib/gcc/arm-none-eabi/9.2.1/../../../arm-none-eabi/lib/thumb/v7e-m+fp/hard/libc.a(lib_a-abort.o)
 .debug_info    0x000000000009c5bf      0xe4a /usr/lib/gcc/arm-none-eabi/9.2.1/../../../arm-none-eabi/lib/thumb/v7e-m+fp/hard/libc.a(lib_a-fputwc.o)
 .debug_info    0x000000000009d409      0xeed /usr/lib/gcc/arm-none-eabi/9.2.1/../../../arm-none-eabi/lib/thumb/v7e-m+fp/hard/libc.a(lib_a-fvwrite.o)
 .debug_info    0x000000000009e2f6      0xf69 /usr/lib/gcc/arm-none-eabi/9.2.1/../../../arm-none-eabi/lib/thumb/v7e-m+fp/hard/libc.a(lib_a-makebuf.o)
 .debug_info    0x000000000009f25f      0xd5c /usr/lib/gcc/arm-none-eabi/9.2.1/../../../arm-none-eabi/lib/thumb/v7e-m+fp/hard/libc.a(lib_a-signal.o)
 .debug_info    0x000000000009ffbb      0xa44 /usr/lib/gcc/arm-none-eabi/9.2.1/../../../arm-none-eabi/lib/thumb/v7e-m+fp/hard/libc.a(lib_a-signalr.o)
 .debug_info    0x00000000000a09ff      0xc90 /usr/lib/gcc/arm-none-eabi/9.2.1/../../../arm-none-eabi/lib/thumb/v7e-m+fp/hard/libc.a(lib_a-wbuf.o)
 .debug_info    0x00000000000a168f     0x10b3 /usr/lib/gcc/arm-none-eabi/9.2.1/../../../arm-none-eabi/lib/thumb/v7e-m+fp/hard/libc.a(lib_a-wcrtomb.o)
 .debug_info    0x00000000000a2742      0xc24 /usr/lib/gcc/arm-none-eabi/9.2.1/../../../arm-none-eabi/lib/thumb/v7e-m+fp/hard/libc.a(lib_a-fstatr.o)
 .debug_info    0x00000000000a3366      0x9d8 /usr/lib/gcc/arm-none-eabi/9.2.1/../../../arm-none-eabi/lib/thumb/v7e-m+fp/hard/libc.a(lib_a-isattyr.o)
 .debug_info    0x00000000000a3d3e       0x26 /usr/lib/gcc/arm-none-eabi/9.2.1/thumb/v7e-m+fp/hard/libgcc.a(_arm_addsubdf3.o)
 .debug_info    0x00000000000a3d64       0x26 /usr/lib/gcc/arm-none-eabi/9.2.1/thumb/v7e-m+fp/hard/libgcc.a(_arm_muldivdf3.o)
 .debug_info    0x00000000000a3d8a       0x26 /usr/lib/gcc/arm-none-eabi/9.2.1/thumb/v7e-m+fp/hard/libgcc.a(_arm_cmpdf2.o)
 .debug_info    0x00000000000a3db0       0x26 /usr/lib/gcc/arm-none-eabi/9.2.1/thumb/v7e-m+fp/hard/libgcc.a(_arm_unorddf2.o)
 .debug_info    0x00000000000a3dd6       0x26 /usr/lib/gcc/arm-none-eabi/9.2.1/thumb/v7e-m+fp/hard/libgcc.a(_arm_fixdfsi.o)
 .debug_info    0x00000000000a3dfc       0xa3 /usr/lib/gcc/arm-none-eabi/9.2.1/../../../arm-none-eabi/lib/thumb/v7e-m+fp/hard/libnosys.a(_exit.o)

.debug_abbrev   0x0000000000000000    0x11efc
 .debug_abbrev  0x0000000000000000      0x385 build/pgm_syscalls.o
 .debug_abbrev  0x0000000000000385      0x7c9 build/keys.o
 .debug_abbrev  0x0000000000000b4e      0x6da build/display.o
 .debug_abbrev  0x0000000000001228      0x8c0 build/xeq.o
 .debug_abbrev  0x0000000000001ae8      0x517 build/prt.o
 .debug_abbrev  0x0000000000001fff      0x663 build/decn.o
 .debug_abbrev  0x0000000000002662      0x53f build/complex.o
 .debug_abbrev  0x0000000000002ba1      0x62e build/stats.o
 .debug_abbrev  0x00000000000031cf      0x578 build/lcd.o
 .debug_abbrev  0x0000000000003747      0x7c9 build/int.o
 .debug_abbrev  0x0000000000003f10      0x654 build/date.o
 .debug_abbrev  0x0000000000004564      0x27e build/consts.o
 .debug_abbrev  0x00000000000047e2      0x4f7 build/alpha.o
 .debug_abbrev  0x0000000000004cd9       0x79 build/charmap.o
 .debug_abbrev  0x0000000000004d52      0x291 build/commands.o
 .debug_abbrev  0x0000000000004fe3      0x38c build/string.o
 .debug_abbrev  0x000000000000536f      0x70e build/storage.o
 .debug_abbrev  0x0000000000005a7d      0x5a9 build/matrix.o
 .debug_abbrev  0x0000000000006026      0x14f build/font.o
 .debug_abbrev  0x0000000000006175      0x27e build/xrom.o
 .debug_abbrev  0x00000000000063f3      0x7f2 build/console.o
 .debug_abbrev  0x0000000000006be5       0x92 build/libconsts.a(const_50.o)
 .debug_abbrev  0x0000000000006c77       0x92 build/libconsts.a(const_randfac.o)
 .debug_abbrev  0x0000000000006d09       0x92 build/libconsts.a(const_ln10.o)
 .debug_abbrev  0x0000000000006d9b       0x92 build/libconsts.a(const_egamma.o)
 .debug_abbrev  0x0000000000006e2d       0x92 build/libconsts.a(const_256.o)
 .debug_abbrev  0x0000000000006ebf       0x92 build/libconsts.a(const_180.o)
 .debug_abbrev  0x0000000000006f51       0x92 build/libconsts.a(const_1e_32.o)
 .debug_abbrev  0x0000000000006fe3       0x92 build/libconsts.a(const_gammaC03.o)
 .debug_abbrev  0x0000000000007075       0x92 build/libconsts.a(const_60.o)
 .debug_abbrev  0x0000000000007107       0x92 build/libconsts.a(const_10.o)
 .debug_abbrev  0x0000000000007199       0x92 build/libconsts.a(const_360.o)
 .debug_abbrev  0x000000000000722b       0x92 build/libconsts.a(const_gammaC10.o)
 .debug_abbrev  0x00000000000072bd       0x92 build/libconsts.a(const_gammaC11.o)
 .debug_abbrev  0x000000000000734f       0x92 build/libconsts.a(const__inf.o)
 .debug_abbrev  0x00000000000073e1       0x92 build/libconsts.a(const_21.o)
 .debug_abbrev  0x0000000000007473       0x92 build/libconsts.a(const_gammaC16.o)
 .debug_abbrev  0x0000000000007505       0x92 build/libconsts.a(const_200.o)
 .debug_abbrev  0x0000000000007597       0x92 build/libconsts.a(const_gammaC06.o)
 .debug_abbrev  0x0000000000007629       0x92 build/libconsts.a(const_NaN.o)
 .debug_abbrev  0x00000000000076bb       0x92 build/libconsts.a(const_gammaC15.o)
 .debug_abbrev  0x000000000000774d       0x92 build/libconsts.a(const_1e_24.o)
 .debug_abbrev  0x00000000000077df       0x92 build/libconsts.a(const_45.o)
 .debug_abbrev  0x0000000000007871       0x92 build/libconsts.a(const_0_05.o)
 .debug_abbrev  0x0000000000007903       0x92 build/libconsts.a(const_3.o)
 .debug_abbrev  0x0000000000007995       0x92 build/libconsts.a(const_hms_threshold.o)
 .debug_abbrev  0x0000000000007a27       0x92 build/libconsts.a(const_gammaC14.o)
 .debug_abbrev  0x0000000000007ab9       0x92 build/libconsts.a(const_0_6.o)
 .debug_abbrev  0x0000000000007b4b       0x92 build/libconsts.a(const_32.o)
 .debug_abbrev  0x0000000000007bdd       0x92 build/libconsts.a(const_0_75.o)
 .debug_abbrev  0x0000000000007c6f       0x92 build/libconsts.a(const__1.o)
 .debug_abbrev  0x0000000000007d01       0x92 build/libconsts.a(const_gammaC00.o)
 .debug_abbrev  0x0000000000007d93       0x92 build/libconsts.a(const_ln2.o)
 .debug_abbrev  0x0000000000007e25       0x92 build/libconsts.a(const_gammaC18.o)
 .debug_abbrev  0x0000000000007eb7       0x92 build/libconsts.a(const_2PI.o)
 .debug_abbrev  0x0000000000007f49       0x92 build/libconsts.a(const_1e_14.o)
 .debug_abbrev  0x0000000000007fdb       0x92 build/libconsts.a(const_0.o)
 .debug_abbrev  0x000000000000806d       0x92 build/libconsts.a(const_PIon180.o)
 .debug_abbrev  0x00000000000080ff       0x92 build/libconsts.a(const_9000.o)
 .debug_abbrev  0x0000000000008191       0x92 build/libconsts.a(const_0_9.o)
 .debug_abbrev  0x0000000000008223       0x92 build/libconsts.a(const_gammaC08.o)
 .debug_abbrev  0x00000000000082b5       0x92 build/libconsts.a(const_gammaC21.o)
 .debug_abbrev  0x0000000000008347       0x92 build/libconsts.a(const_1e_37.o)
 .debug_abbrev  0x00000000000083d9       0x92 build/libconsts.a(const_gammaC05.o)
 .debug_abbrev  0x000000000000846b       0x92 build/libconsts.a(const_2.o)
 .debug_abbrev  0x00000000000084fd       0x92 build/libconsts.a(const_gammaC13.o)
 .debug_abbrev  0x000000000000858f       0x92 build/libconsts.a(const_100000.o)
 .debug_abbrev  0x0000000000008621       0x92 build/libconsts.a(const_gammaR.o)
 .debug_abbrev  0x00000000000086b3       0x92 build/libconsts.a(const_5.o)
 .debug_abbrev  0x0000000000008745       0x92 build/libconsts.a(const_1.o)
 .debug_abbrev  0x00000000000087d7       0x92 build/libconsts.a(const_gammaC19.o)
 .debug_abbrev  0x0000000000008869       0x92 build/libconsts.a(const_inf.o)
 .debug_abbrev  0x00000000000088fb       0x92 build/libconsts.a(const_0_995.o)
 .debug_abbrev  0x000000000000898d       0x92 build/libconsts.a(const_0_0001.o)
 .debug_abbrev  0x0000000000008a1f       0x92 build/libconsts.a(const_1on60.o)
 .debug_abbrev  0x0000000000008ab1       0x92 build/libconsts.a(const_PIon200.o)
 .debug_abbrev  0x0000000000008b43       0x92 build/libconsts.a(const_gammaC01.o)
 .debug_abbrev  0x0000000000008bd5       0x92 build/libconsts.a(const_gammaC09.o)
 .debug_abbrev  0x0000000000008c67       0x92 build/libconsts.a(const_0_5.o)
 .debug_abbrev  0x0000000000008cf9       0x92 build/libconsts.a(const_9on5.o)
 .debug_abbrev  0x0000000000008d8b       0x92 build/libconsts.a(const_20.o)
 .debug_abbrev  0x0000000000008e1d       0x92 build/libconsts.a(const_gammaC20.o)
 .debug_abbrev  0x0000000000008eaf       0x92 build/libconsts.a(const_400.o)
 .debug_abbrev  0x0000000000008f41       0x92 build/libconsts.a(const_gammaC07.o)
 .debug_abbrev  0x0000000000008fd3       0x92 build/libconsts.a(const__0.o)
 .debug_abbrev  0x0000000000009065       0x92 build/libconsts.a(const_0_4.o)
 .debug_abbrev  0x00000000000090f7       0x92 build/libconsts.a(const_1e_10000.o)
 .debug_abbrev  0x0000000000009189       0x92 build/libconsts.a(const_gammaC12.o)
 .debug_abbrev  0x000000000000921b       0x92 build/libconsts.a(const_2pow64.o)
 .debug_abbrev  0x00000000000092ad       0x92 build/libconsts.a(const_PIon2.o)
 .debug_abbrev  0x000000000000933f       0x92 build/libconsts.a(const_gammaC04.o)
 .debug_abbrev  0x00000000000093d1       0x92 build/libconsts.a(const_90.o)
 .debug_abbrev  0x0000000000009463       0x92 build/libconsts.a(const_gammaC17.o)
 .debug_abbrev  0x00000000000094f5       0x92 build/libconsts.a(const_gammaC02.o)
 .debug_abbrev  0x0000000000009587       0x92 build/libconsts.a(const_PI.o)
 .debug_abbrev  0x0000000000009619       0x92 build/libconsts.a(const_root2on2.o)
 .debug_abbrev  0x00000000000096ab       0x92 build/libconsts.a(const_100.o)
 .debug_abbrev  0x000000000000973d       0x92 build/libconsts.a(const_0_1.o)
 .debug_abbrev  0x00000000000097cf      0x150 build/libdecNumber.a(decContext.o)
 .debug_abbrev  0x000000000000991f      0x4ef build/libdecNumber.a(decNumber.o)
 .debug_abbrev  0x0000000000009e0e      0x1ba build/libdecNumber.a(decimal128.o)
 .debug_abbrev  0x0000000000009fc8      0x286 build/libdecNumber.a(decimal64.o)
 .debug_abbrev  0x000000000000a24e       0x14 build/startup_pgm.o
 .debug_abbrev  0x000000000000a262       0x14 /usr/lib/gcc/arm-none-eabi/9.2.1/thumb/v7e-m+fp/hard/libgcc.a(_aeabi_uldivmod.o)
 .debug_abbrev  0x000000000000a276      0x1c2 /usr/lib/gcc/arm-none-eabi/9.2.1/thumb/v7e-m+fp/hard/libgcc.a(_udivmoddi4.o)
 .debug_abbrev  0x000000000000a438       0x14 /usr/lib/gcc/arm-none-eabi/9.2.1/thumb/v7e-m+fp/hard/libgcc.a(_dvmd_tls.o)
 .debug_abbrev  0x000000000000a44c      0x232 /usr/lib/gcc/arm-none-eabi/9.2.1/../../../arm-none-eabi/lib/thumb/v7e-m+fp/hard/libc.a(lib_a-atexit.o)
 .debug_abbrev  0x000000000000a67e      0x1d6 /usr/lib/gcc/arm-none-eabi/9.2.1/../../../arm-none-eabi/lib/thumb/v7e-m+fp/hard/libc.a(lib_a-errno.o)
 .debug_abbrev  0x000000000000a854       0xcf /usr/lib/gcc/arm-none-eabi/9.2.1/../../../arm-none-eabi/lib/thumb/v7e-m+fp/hard/libc.a(lib_a-fini.o)
 .debug_abbrev  0x000000000000a923      0x1b8 /usr/lib/gcc/arm-none-eabi/9.2.1/../../../arm-none-eabi/lib/thumb/v7e-m+fp/hard/libc.a(lib_a-impure.o)
 .debug_abbrev  0x000000000000aadb       0xcc /usr/lib/gcc/arm-none-eabi/9.2.1/../../../arm-none-eabi/lib/thumb/v7e-m+fp/hard/libc.a(lib_a-init.o)
 .debug_abbrev  0x000000000000aba7      0x217 /usr/lib/gcc/arm-none-eabi/9.2.1/../../../arm-none-eabi/lib/thumb/v7e-m+fp/hard/libc.a(lib_a-memset.o)
 .debug_abbrev  0x000000000000adbe      0x2d6 /usr/lib/gcc/arm-none-eabi/9.2.1/../../../arm-none-eabi/lib/thumb/v7e-m+fp/hard/libc.a(lib_a-perror.o)
 .debug_abbrev  0x000000000000b094      0x2b2 /usr/lib/gcc/arm-none-eabi/9.2.1/../../../arm-none-eabi/lib/thumb/v7e-m+fp/hard/libc.a(lib_a-sprintf.o)
 .debug_abbrev  0x000000000000b346      0x263 /usr/lib/gcc/arm-none-eabi/9.2.1/../../../arm-none-eabi/lib/thumb/v7e-m+fp/hard/libc.a(lib_a-strerror.o)
 .debug_abbrev  0x000000000000b5a9       0x14 /usr/lib/gcc/arm-none-eabi/9.2.1/../../../arm-none-eabi/lib/thumb/v7e-m+fp/hard/libc.a(lib_a-strlen.o)
 .debug_abbrev  0x000000000000b5bd      0x214 /usr/lib/gcc/arm-none-eabi/9.2.1/../../../arm-none-eabi/lib/thumb/v7e-m+fp/hard/libc.a(lib_a-strncpy.o)
 .debug_abbrev  0x000000000000b7d1      0x415 /usr/lib/gcc/arm-none-eabi/9.2.1/../../../arm-none-eabi/lib/thumb/v7e-m+fp/hard/libc.a(lib_a-svfprintf.o)
 .debug_abbrev  0x000000000000bbe6       0x76 /usr/lib/gcc/arm-none-eabi/9.2.1/../../../arm-none-eabi/lib/thumb/v7e-m+fp/hard/libc.a(lib_a-u_strerr.o)
 .debug_abbrev  0x000000000000bc5c      0x22a /usr/lib/gcc/arm-none-eabi/9.2.1/../../../arm-none-eabi/lib/thumb/v7e-m+fp/hard/libc.a(lib_a-writer.o)
 .debug_abbrev  0x000000000000be86      0x252 /usr/lib/gcc/arm-none-eabi/9.2.1/../../../arm-none-eabi/lib/thumb/v7e-m+fp/hard/libc.a(lib_a-__atexit.o)
 .debug_abbrev  0x000000000000c0d8      0x2b2 /usr/lib/gcc/arm-none-eabi/9.2.1/../../../arm-none-eabi/lib/thumb/v7e-m+fp/hard/libc.a(lib_a-__call_atexit.o)
 .debug_abbrev  0x000000000000c38a      0x1b6 /usr/lib/gcc/arm-none-eabi/9.2.1/../../../arm-none-eabi/lib/thumb/v7e-m+fp/hard/libc.a(lib_a-ctype_.o)
 .debug_abbrev  0x000000000000c540      0x343 /usr/lib/gcc/arm-none-eabi/9.2.1/../../../arm-none-eabi/lib/thumb/v7e-m+fp/hard/libc.a(lib_a-dtoa.o)
 .debug_abbrev  0x000000000000c883      0x322 /usr/lib/gcc/arm-none-eabi/9.2.1/../../../arm-none-eabi/lib/thumb/v7e-m+fp/hard/libc.a(lib_a-fflush.o)
 .debug_abbrev  0x000000000000cba5      0x24a /usr/lib/gcc/arm-none-eabi/9.2.1/../../../arm-none-eabi/lib/thumb/v7e-m+fp/hard/libc.a(lib_a-fileno.o)
 .debug_abbrev  0x000000000000cdef      0x425 /usr/lib/gcc/arm-none-eabi/9.2.1/../../../arm-none-eabi/lib/thumb/v7e-m+fp/hard/libc.a(lib_a-findfp.o)
 .debug_abbrev  0x000000000000d214      0x24e /usr/lib/gcc/arm-none-eabi/9.2.1/../../../arm-none-eabi/lib/thumb/v7e-m+fp/hard/libc.a(lib_a-fwalk.o)
 .debug_abbrev  0x000000000000d462      0x27d /usr/lib/gcc/arm-none-eabi/9.2.1/../../../arm-none-eabi/lib/thumb/v7e-m+fp/hard/libc.a(lib_a-localeconv.o)
 .debug_abbrev  0x000000000000d6df       0x14 /usr/lib/gcc/arm-none-eabi/9.2.1/../../../arm-none-eabi/lib/thumb/v7e-m+fp/hard/libc.a(lib_a-memchr.o)
 .debug_abbrev  0x000000000000d6f3       0x14 /usr/lib/gcc/arm-none-eabi/9.2.1/../../../arm-none-eabi/lib/thumb/v7e-m+fp/hard/libc.a(lib_a-memcpy.o)
 .debug_abbrev  0x000000000000d707      0x4b7 /usr/lib/gcc/arm-none-eabi/9.2.1/../../../arm-none-eabi/lib/thumb/v7e-m+fp/hard/libc.a(lib_a-mprec.o)
 .debug_abbrev  0x000000000000dbbe      0x2ba /usr/lib/gcc/arm-none-eabi/9.2.1/../../../arm-none-eabi/lib/thumb/v7e-m+fp/hard/libc.a(lib_a-reent.o)
 .debug_abbrev  0x000000000000de78      0x2ad /usr/lib/gcc/arm-none-eabi/9.2.1/../../../arm-none-eabi/lib/thumb/v7e-m+fp/hard/libc.a(lib_a-stdio.o)
 .debug_abbrev  0x000000000000e125      0x352 /usr/lib/gcc/arm-none-eabi/9.2.1/../../../arm-none-eabi/lib/thumb/v7e-m+fp/hard/libc.a(lib_a-svfiprintf.o)
 .debug_abbrev  0x000000000000e477      0x23d /usr/lib/gcc/arm-none-eabi/9.2.1/../../../arm-none-eabi/lib/thumb/v7e-m+fp/hard/libc.a(lib_a-assert.o)
 .debug_abbrev  0x000000000000e6b4      0x225 /usr/lib/gcc/arm-none-eabi/9.2.1/../../../arm-none-eabi/lib/thumb/v7e-m+fp/hard/libc.a(lib_a-closer.o)
 .debug_abbrev  0x000000000000e8d9      0x327 /usr/lib/gcc/arm-none-eabi/9.2.1/../../../arm-none-eabi/lib/thumb/v7e-m+fp/hard/libc.a(lib_a-fclose.o)
 .debug_abbrev  0x000000000000ec00      0x255 /usr/lib/gcc/arm-none-eabi/9.2.1/../../../arm-none-eabi/lib/thumb/v7e-m+fp/hard/libc.a(lib_a-fiprintf.o)
 .debug_abbrev  0x000000000000ee55      0x2e8 /usr/lib/gcc/arm-none-eabi/9.2.1/../../../arm-none-eabi/lib/thumb/v7e-m+fp/hard/libc.a(lib_a-locale.o)
 .debug_abbrev  0x000000000000f13d      0x239 /usr/lib/gcc/arm-none-eabi/9.2.1/../../../arm-none-eabi/lib/thumb/v7e-m+fp/hard/libc.a(lib_a-lseekr.o)
 .debug_abbrev  0x000000000000f376      0x25f /usr/lib/gcc/arm-none-eabi/9.2.1/../../../arm-none-eabi/lib/thumb/v7e-m+fp/hard/libc.a(lib_a-mbtowc_r.o)
 .debug_abbrev  0x000000000000f5d5      0x21c /usr/lib/gcc/arm-none-eabi/9.2.1/../../../arm-none-eabi/lib/thumb/v7e-m+fp/hard/libc.a(lib_a-memmove.o)
 .debug_abbrev  0x000000000000f7f1      0x225 /usr/lib/gcc/arm-none-eabi/9.2.1/../../../arm-none-eabi/lib/thumb/v7e-m+fp/hard/libc.a(lib_a-readr.o)
 .debug_abbrev  0x000000000000fa16       0x14 /usr/lib/gcc/arm-none-eabi/9.2.1/../../../arm-none-eabi/lib/thumb/v7e-m+fp/hard/libc.a(lib_a-strcmp.o)
 .debug_abbrev  0x000000000000fa2a      0x468 /usr/lib/gcc/arm-none-eabi/9.2.1/../../../arm-none-eabi/lib/thumb/v7e-m+fp/hard/libc.a(lib_a-vfiprintf.o)
 .debug_abbrev  0x000000000000fe92      0x269 /usr/lib/gcc/arm-none-eabi/9.2.1/../../../arm-none-eabi/lib/thumb/v7e-m+fp/hard/libc.a(lib_a-wctomb_r.o)
 .debug_abbrev  0x00000000000100fb      0x283 /usr/lib/gcc/arm-none-eabi/9.2.1/../../../arm-none-eabi/lib/thumb/v7e-m+fp/hard/libc.a(lib_a-wsetup.o)
 .debug_abbrev  0x000000000001037e      0x20b /usr/lib/gcc/arm-none-eabi/9.2.1/../../../arm-none-eabi/lib/thumb/v7e-m+fp/hard/libc.a(lib_a-abort.o)
 .debug_abbrev  0x0000000000010589      0x38c /usr/lib/gcc/arm-none-eabi/9.2.1/../../../arm-none-eabi/lib/thumb/v7e-m+fp/hard/libc.a(lib_a-fputwc.o)
 .debug_abbrev  0x0000000000010915      0x2ae /usr/lib/gcc/arm-none-eabi/9.2.1/../../../arm-none-eabi/lib/thumb/v7e-m+fp/hard/libc.a(lib_a-fvwrite.o)
 .debug_abbrev  0x0000000000010bc3      0x334 /usr/lib/gcc/arm-none-eabi/9.2.1/../../../arm-none-eabi/lib/thumb/v7e-m+fp/hard/libc.a(lib_a-makebuf.o)
 .debug_abbrev  0x0000000000010ef7      0x36b /usr/lib/gcc/arm-none-eabi/9.2.1/../../../arm-none-eabi/lib/thumb/v7e-m+fp/hard/libc.a(lib_a-signal.o)
 .debug_abbrev  0x0000000000011262      0x255 /usr/lib/gcc/arm-none-eabi/9.2.1/../../../arm-none-eabi/lib/thumb/v7e-m+fp/hard/libc.a(lib_a-signalr.o)
 .debug_abbrev  0x00000000000114b7      0x2c3 /usr/lib/gcc/arm-none-eabi/9.2.1/../../../arm-none-eabi/lib/thumb/v7e-m+fp/hard/libc.a(lib_a-wbuf.o)
 .debug_abbrev  0x000000000001177a      0x256 /usr/lib/gcc/arm-none-eabi/9.2.1/../../../arm-none-eabi/lib/thumb/v7e-m+fp/hard/libc.a(lib_a-wcrtomb.o)
 .debug_abbrev  0x00000000000119d0      0x239 /usr/lib/gcc/arm-none-eabi/9.2.1/../../../arm-none-eabi/lib/thumb/v7e-m+fp/hard/libc.a(lib_a-fstatr.o)
 .debug_abbrev  0x0000000000011c09      0x225 /usr/lib/gcc/arm-none-eabi/9.2.1/../../../arm-none-eabi/lib/thumb/v7e-m+fp/hard/libc.a(lib_a-isattyr.o)
 .debug_abbrev  0x0000000000011e2e       0x14 /usr/lib/gcc/arm-none-eabi/9.2.1/thumb/v7e-m+fp/hard/libgcc.a(_arm_addsubdf3.o)
 .debug_abbrev  0x0000000000011e42       0x14 /usr/lib/gcc/arm-none-eabi/9.2.1/thumb/v7e-m+fp/hard/libgcc.a(_arm_muldivdf3.o)
 .debug_abbrev  0x0000000000011e56       0x14 /usr/lib/gcc/arm-none-eabi/9.2.1/thumb/v7e-m+fp/hard/libgcc.a(_arm_cmpdf2.o)
 .debug_abbrev  0x0000000000011e6a       0x14 /usr/lib/gcc/arm-none-eabi/9.2.1/thumb/v7e-m+fp/hard/libgcc.a(_arm_unorddf2.o)
 .debug_abbrev  0x0000000000011e7e       0x14 /usr/lib/gcc/arm-none-eabi/9.2.1/thumb/v7e-m+fp/hard/libgcc.a(_arm_fixdfsi.o)
 .debug_abbrev  0x0000000000011e92       0x6a /usr/lib/gcc/arm-none-eabi/9.2.1/../../../arm-none-eabi/lib/thumb/v7e-m+fp/hard/libnosys.a(_exit.o)

.debug_loc      0x0000000000000000    0x59dff
 .debug_loc     0x0000000000000000      0x4d4 build/pgm_syscalls.o
 .debug_loc     0x00000000000004d4     0x56c1 build/keys.o
 .debug_loc     0x0000000000005b95     0x6ea8 build/display.o
 .debug_loc     0x000000000000ca3d     0xbf12 build/xeq.o
 .debug_loc     0x000000000001894f     0x1488 build/prt.o
 .debug_loc     0x0000000000019dd7     0xdd6e build/decn.o
 .debug_loc     0x0000000000027b45     0x2763 build/complex.o
 .debug_loc     0x000000000002a2a8     0x1bd7 build/stats.o
 .debug_loc     0x000000000002be7f      0xcfd build/lcd.o
 .debug_loc     0x000000000002cb7c     0x66cb build/int.o
 .debug_loc     0x0000000000033247     0x228c build/date.o
 .debug_loc     0x00000000000354d3      0xb69 build/alpha.o
 .debug_loc     0x000000000003603c       0x25 build/charmap.o
 .debug_loc     0x0000000000036061      0x9e4 build/string.o
 .debug_loc     0x0000000000036a45     0x1b32 build/storage.o
 .debug_loc     0x0000000000038577     0x25aa build/matrix.o
 .debug_loc     0x000000000003ab21      0x1e2 build/font.o
 .debug_loc     0x000000000003ad03     0x14f9 build/console.o
 .debug_loc     0x000000000003c1fc       0x93 build/libdecNumber.a(decContext.o)
 .debug_loc     0x000000000003c28f     0xa4a2 build/libdecNumber.a(decNumber.o)
 .debug_loc     0x0000000000046731      0x3c2 build/libdecNumber.a(decimal128.o)
 .debug_loc     0x0000000000046af3      0xb94 build/libdecNumber.a(decimal64.o)
 .debug_loc     0x0000000000047687      0xfa2 /usr/lib/gcc/arm-none-eabi/9.2.1/thumb/v7e-m+fp/hard/libgcc.a(_udivmoddi4.o)
 .debug_loc     0x0000000000048629       0x32 /usr/lib/gcc/arm-none-eabi/9.2.1/../../../arm-none-eabi/lib/thumb/v7e-m+fp/hard/libc.a(lib_a-atexit.o)
 .debug_loc     0x000000000004865b       0x68 /usr/lib/gcc/arm-none-eabi/9.2.1/../../../arm-none-eabi/lib/thumb/v7e-m+fp/hard/libc.a(lib_a-fini.o)
 .debug_loc     0x00000000000486c3       0xba /usr/lib/gcc/arm-none-eabi/9.2.1/../../../arm-none-eabi/lib/thumb/v7e-m+fp/hard/libc.a(lib_a-init.o)
 .debug_loc     0x000000000004877d      0x231 /usr/lib/gcc/arm-none-eabi/9.2.1/../../../arm-none-eabi/lib/thumb/v7e-m+fp/hard/libc.a(lib_a-memset.o)
 .debug_loc     0x00000000000489ae      0x36f /usr/lib/gcc/arm-none-eabi/9.2.1/../../../arm-none-eabi/lib/thumb/v7e-m+fp/hard/libc.a(lib_a-perror.o)
 .debug_loc     0x0000000000048d1d       0xc2 /usr/lib/gcc/arm-none-eabi/9.2.1/../../../arm-none-eabi/lib/thumb/v7e-m+fp/hard/libc.a(lib_a-sprintf.o)
 .debug_loc     0x0000000000048ddf     0x101e /usr/lib/gcc/arm-none-eabi/9.2.1/../../../arm-none-eabi/lib/thumb/v7e-m+fp/hard/libc.a(lib_a-strerror.o)
 .debug_loc     0x0000000000049dfd      0x1b6 /usr/lib/gcc/arm-none-eabi/9.2.1/../../../arm-none-eabi/lib/thumb/v7e-m+fp/hard/libc.a(lib_a-strncpy.o)
 .debug_loc     0x0000000000049fb3     0x33c5 /usr/lib/gcc/arm-none-eabi/9.2.1/../../../arm-none-eabi/lib/thumb/v7e-m+fp/hard/libc.a(lib_a-svfprintf.o)
 .debug_loc     0x000000000004d378       0x25 /usr/lib/gcc/arm-none-eabi/9.2.1/../../../arm-none-eabi/lib/thumb/v7e-m+fp/hard/libc.a(lib_a-u_strerr.o)
 .debug_loc     0x000000000004d39d       0xdd /usr/lib/gcc/arm-none-eabi/9.2.1/../../../arm-none-eabi/lib/thumb/v7e-m+fp/hard/libc.a(lib_a-writer.o)
 .debug_loc     0x000000000004d47a      0x138 /usr/lib/gcc/arm-none-eabi/9.2.1/../../../arm-none-eabi/lib/thumb/v7e-m+fp/hard/libc.a(lib_a-__atexit.o)
 .debug_loc     0x000000000004d5b2      0x14a /usr/lib/gcc/arm-none-eabi/9.2.1/../../../arm-none-eabi/lib/thumb/v7e-m+fp/hard/libc.a(lib_a-__call_atexit.o)
 .debug_loc     0x000000000004d6fc     0x305a /usr/lib/gcc/arm-none-eabi/9.2.1/../../../arm-none-eabi/lib/thumb/v7e-m+fp/hard/libc.a(lib_a-dtoa.o)
 .debug_loc     0x0000000000050756      0x334 /usr/lib/gcc/arm-none-eabi/9.2.1/../../../arm-none-eabi/lib/thumb/v7e-m+fp/hard/libc.a(lib_a-fflush.o)
 .debug_loc     0x0000000000050a8a       0x92 /usr/lib/gcc/arm-none-eabi/9.2.1/../../../arm-none-eabi/lib/thumb/v7e-m+fp/hard/libc.a(lib_a-fileno.o)
 .debug_loc     0x0000000000050b1c      0x32c /usr/lib/gcc/arm-none-eabi/9.2.1/../../../arm-none-eabi/lib/thumb/v7e-m+fp/hard/libc.a(lib_a-findfp.o)
 .debug_loc     0x0000000000050e48      0x24f /usr/lib/gcc/arm-none-eabi/9.2.1/../../../arm-none-eabi/lib/thumb/v7e-m+fp/hard/libc.a(lib_a-fwalk.o)
 .debug_loc     0x0000000000051097       0x6f /usr/lib/gcc/arm-none-eabi/9.2.1/../../../arm-none-eabi/lib/thumb/v7e-m+fp/hard/libc.a(lib_a-localeconv.o)
 .debug_loc     0x0000000000051106     0x234e /usr/lib/gcc/arm-none-eabi/9.2.1/../../../arm-none-eabi/lib/thumb/v7e-m+fp/hard/libc.a(lib_a-mprec.o)
 .debug_loc     0x0000000000053454      0x152 /usr/lib/gcc/arm-none-eabi/9.2.1/../../../arm-none-eabi/lib/thumb/v7e-m+fp/hard/libc.a(lib_a-reent.o)
 .debug_loc     0x00000000000535a6      0x393 /usr/lib/gcc/arm-none-eabi/9.2.1/../../../arm-none-eabi/lib/thumb/v7e-m+fp/hard/libc.a(lib_a-stdio.o)
 .debug_loc     0x0000000000053939     0x1923 /usr/lib/gcc/arm-none-eabi/9.2.1/../../../arm-none-eabi/lib/thumb/v7e-m+fp/hard/libc.a(lib_a-svfiprintf.o)
 .debug_loc     0x000000000005525c      0x15c /usr/lib/gcc/arm-none-eabi/9.2.1/../../../arm-none-eabi/lib/thumb/v7e-m+fp/hard/libc.a(lib_a-assert.o)
 .debug_loc     0x00000000000553b8       0x6c /usr/lib/gcc/arm-none-eabi/9.2.1/../../../arm-none-eabi/lib/thumb/v7e-m+fp/hard/libc.a(lib_a-closer.o)
 .debug_loc     0x0000000000055424      0x179 /usr/lib/gcc/arm-none-eabi/9.2.1/../../../arm-none-eabi/lib/thumb/v7e-m+fp/hard/libc.a(lib_a-fclose.o)
 .debug_loc     0x000000000005559d       0xa6 /usr/lib/gcc/arm-none-eabi/9.2.1/../../../arm-none-eabi/lib/thumb/v7e-m+fp/hard/libc.a(lib_a-fiprintf.o)
 .debug_loc     0x0000000000055643      0x189 /usr/lib/gcc/arm-none-eabi/9.2.1/../../../arm-none-eabi/lib/thumb/v7e-m+fp/hard/libc.a(lib_a-locale.o)
 .debug_loc     0x00000000000557cc       0xdd /usr/lib/gcc/arm-none-eabi/9.2.1/../../../arm-none-eabi/lib/thumb/v7e-m+fp/hard/libc.a(lib_a-lseekr.o)
 .debug_loc     0x00000000000558a9      0x21d /usr/lib/gcc/arm-none-eabi/9.2.1/../../../arm-none-eabi/lib/thumb/v7e-m+fp/hard/libc.a(lib_a-mbtowc_r.o)
 .debug_loc     0x0000000000055ac6      0x2f1 /usr/lib/gcc/arm-none-eabi/9.2.1/../../../arm-none-eabi/lib/thumb/v7e-m+fp/hard/libc.a(lib_a-memmove.o)
 .debug_loc     0x0000000000055db7       0xdd /usr/lib/gcc/arm-none-eabi/9.2.1/../../../arm-none-eabi/lib/thumb/v7e-m+fp/hard/libc.a(lib_a-readr.o)
 .debug_loc     0x0000000000055e94     0x25f3 /usr/lib/gcc/arm-none-eabi/9.2.1/../../../arm-none-eabi/lib/thumb/v7e-m+fp/hard/libc.a(lib_a-vfiprintf.o)
 .debug_loc     0x0000000000058487      0x13a /usr/lib/gcc/arm-none-eabi/9.2.1/../../../arm-none-eabi/lib/thumb/v7e-m+fp/hard/libc.a(lib_a-wctomb_r.o)
 .debug_loc     0x00000000000585c1       0xba /usr/lib/gcc/arm-none-eabi/9.2.1/../../../arm-none-eabi/lib/thumb/v7e-m+fp/hard/libc.a(lib_a-wsetup.o)
 .debug_loc     0x000000000005867b      0x3cc /usr/lib/gcc/arm-none-eabi/9.2.1/../../../arm-none-eabi/lib/thumb/v7e-m+fp/hard/libc.a(lib_a-fputwc.o)
 .debug_loc     0x0000000000058a47      0x669 /usr/lib/gcc/arm-none-eabi/9.2.1/../../../arm-none-eabi/lib/thumb/v7e-m+fp/hard/libc.a(lib_a-fvwrite.o)
 .debug_loc     0x00000000000590b0      0x192 /usr/lib/gcc/arm-none-eabi/9.2.1/../../../arm-none-eabi/lib/thumb/v7e-m+fp/hard/libc.a(lib_a-makebuf.o)
 .debug_loc     0x0000000000059242      0x560 /usr/lib/gcc/arm-none-eabi/9.2.1/../../../arm-none-eabi/lib/thumb/v7e-m+fp/hard/libc.a(lib_a-signal.o)
 .debug_loc     0x00000000000597a2       0xd0 /usr/lib/gcc/arm-none-eabi/9.2.1/../../../arm-none-eabi/lib/thumb/v7e-m+fp/hard/libc.a(lib_a-signalr.o)
 .debug_loc     0x0000000000059872      0x1b0 /usr/lib/gcc/arm-none-eabi/9.2.1/../../../arm-none-eabi/lib/thumb/v7e-m+fp/hard/libc.a(lib_a-wbuf.o)
 .debug_loc     0x0000000000059a22      0x2b1 /usr/lib/gcc/arm-none-eabi/9.2.1/../../../arm-none-eabi/lib/thumb/v7e-m+fp/hard/libc.a(lib_a-wcrtomb.o)
 .debug_loc     0x0000000000059cd3       0xab /usr/lib/gcc/arm-none-eabi/9.2.1/../../../arm-none-eabi/lib/thumb/v7e-m+fp/hard/libc.a(lib_a-fstatr.o)
 .debug_loc     0x0000000000059d7e       0x6c /usr/lib/gcc/arm-none-eabi/9.2.1/../../../arm-none-eabi/lib/thumb/v7e-m+fp/hard/libc.a(lib_a-isattyr.o)
 .debug_loc     0x0000000000059dea       0x15 /usr/lib/gcc/arm-none-eabi/9.2.1/../../../arm-none-eabi/lib/thumb/v7e-m+fp/hard/libnosys.a(_exit.o)

.debug_aranges  0x0000000000000000     0x2ba8
 .debug_aranges
                0x0000000000000000       0xa0 build/pgm_syscalls.o
 .debug_aranges
                0x00000000000000a0      0x138 build/keys.o
 .debug_aranges
                0x00000000000001d8      0x110 build/display.o
 .debug_aranges
                0x00000000000002e8      0x7e8 build/xeq.o
 .debug_aranges
                0x0000000000000ad0       0x50 build/prt.o
 .debug_aranges
                0x0000000000000b20      0x438 build/decn.o
 .debug_aranges
                0x0000000000000f58      0x120 build/complex.o
 .debug_aranges
                0x0000000000001078      0x148 build/stats.o
 .debug_aranges
                0x00000000000011c0      0x110 build/lcd.o
 .debug_aranges
                0x00000000000012d0      0x210 build/int.o
 .debug_aranges
                0x00000000000014e0       0xd8 build/date.o
 .debug_aranges
                0x00000000000015b8       0x18 build/consts.o
 .debug_aranges
                0x00000000000015d0       0xc0 build/alpha.o
 .debug_aranges
                0x0000000000001690       0x20 build/charmap.o
 .debug_aranges
                0x00000000000016b0       0x18 build/commands.o
 .debug_aranges
                0x00000000000016c8       0x80 build/string.o
 .debug_aranges
                0x0000000000001748      0x148 build/storage.o
 .debug_aranges
                0x0000000000001890       0xe8 build/matrix.o
 .debug_aranges
                0x0000000000001978       0x30 build/font.o
 .debug_aranges
                0x00000000000019a8       0x18 build/xrom.o
 .debug_aranges
                0x00000000000019c0       0xf8 build/console.o
 .debug_aranges
                0x0000000000001ab8       0x18 build/libconsts.a(const_50.o)
 .debug_aranges
                0x0000000000001ad0       0x18 build/libconsts.a(const_randfac.o)
 .debug_aranges
                0x0000000000001ae8       0x18 build/libconsts.a(const_ln10.o)
 .debug_aranges
                0x0000000000001b00       0x18 build/libconsts.a(const_egamma.o)
 .debug_aranges
                0x0000000000001b18       0x18 build/libconsts.a(const_256.o)
 .debug_aranges
                0x0000000000001b30       0x18 build/libconsts.a(const_180.o)
 .debug_aranges
                0x0000000000001b48       0x18 build/libconsts.a(const_1e_32.o)
 .debug_aranges
                0x0000000000001b60       0x18 build/libconsts.a(const_gammaC03.o)
 .debug_aranges
                0x0000000000001b78       0x18 build/libconsts.a(const_60.o)
 .debug_aranges
                0x0000000000001b90       0x18 build/libconsts.a(const_10.o)
 .debug_aranges
                0x0000000000001ba8       0x18 build/libconsts.a(const_360.o)
 .debug_aranges
                0x0000000000001bc0       0x18 build/libconsts.a(const_gammaC10.o)
 .debug_aranges
                0x0000000000001bd8       0x18 build/libconsts.a(const_gammaC11.o)
 .debug_aranges
                0x0000000000001bf0       0x18 build/libconsts.a(const__inf.o)
 .debug_aranges
                0x0000000000001c08       0x18 build/libconsts.a(const_21.o)
 .debug_aranges
                0x0000000000001c20       0x18 build/libconsts.a(const_gammaC16.o)
 .debug_aranges
                0x0000000000001c38       0x18 build/libconsts.a(const_200.o)
 .debug_aranges
                0x0000000000001c50       0x18 build/libconsts.a(const_gammaC06.o)
 .debug_aranges
                0x0000000000001c68       0x18 build/libconsts.a(const_NaN.o)
 .debug_aranges
                0x0000000000001c80       0x18 build/libconsts.a(const_gammaC15.o)
 .debug_aranges
                0x0000000000001c98       0x18 build/libconsts.a(const_1e_24.o)
 .debug_aranges
                0x0000000000001cb0       0x18 build/libconsts.a(const_45.o)
 .debug_aranges
                0x0000000000001cc8       0x18 build/libconsts.a(const_0_05.o)
 .debug_aranges
                0x0000000000001ce0       0x18 build/libconsts.a(const_3.o)
 .debug_aranges
                0x0000000000001cf8       0x18 build/libconsts.a(const_hms_threshold.o)
 .debug_aranges
                0x0000000000001d10       0x18 build/libconsts.a(const_gammaC14.o)
 .debug_aranges
                0x0000000000001d28       0x18 build/libconsts.a(const_0_6.o)
 .debug_aranges
                0x0000000000001d40       0x18 build/libconsts.a(const_32.o)
 .debug_aranges
                0x0000000000001d58       0x18 build/libconsts.a(const_0_75.o)
 .debug_aranges
                0x0000000000001d70       0x18 build/libconsts.a(const__1.o)
 .debug_aranges
                0x0000000000001d88       0x18 build/libconsts.a(const_gammaC00.o)
 .debug_aranges
                0x0000000000001da0       0x18 build/libconsts.a(const_ln2.o)
 .debug_aranges
                0x0000000000001db8       0x18 build/libconsts.a(const_gammaC18.o)
 .debug_aranges
                0x0000000000001dd0       0x18 build/libconsts.a(const_2PI.o)
 .debug_aranges
                0x0000000000001de8       0x18 build/libconsts.a(const_1e_14.o)
 .debug_aranges
                0x0000000000001e00       0x18 build/libconsts.a(const_0.o)
 .debug_aranges
                0x0000000000001e18       0x18 build/libconsts.a(const_PIon180.o)
 .debug_aranges
                0x0000000000001e30       0x18 build/libconsts.a(const_9000.o)
 .debug_aranges
                0x0000000000001e48       0x18 build/libconsts.a(const_0_9.o)
 .debug_aranges
                0x0000000000001e60       0x18 build/libconsts.a(const_gammaC08.o)
 .debug_aranges
                0x0000000000001e78       0x18 build/libconsts.a(const_gammaC21.o)
 .debug_aranges
                0x0000000000001e90       0x18 build/libconsts.a(const_1e_37.o)
 .debug_aranges
                0x0000000000001ea8       0x18 build/libconsts.a(const_gammaC05.o)
 .debug_aranges
                0x0000000000001ec0       0x18 build/libconsts.a(const_2.o)
 .debug_aranges
                0x0000000000001ed8       0x18 build/libconsts.a(const_gammaC13.o)
 .debug_aranges
                0x0000000000001ef0       0x18 build/libconsts.a(const_100000.o)
 .debug_aranges
                0x0000000000001f08       0x18 build/libconsts.a(const_gammaR.o)
 .debug_aranges
                0x0000000000001f20       0x18 build/libconsts.a(const_5.o)
 .debug_aranges
                0x0000000000001f38       0x18 build/libconsts.a(const_1.o)
 .debug_aranges
                0x0000000000001f50       0x18 build/libconsts.a(const_gammaC19.o)
 .debug_aranges
                0x0000000000001f68       0x18 build/libconsts.a(const_inf.o)
 .debug_aranges
                0x0000000000001f80       0x18 build/libconsts.a(const_0_995.o)
 .debug_aranges
                0x0000000000001f98       0x18 build/libconsts.a(const_0_0001.o)
 .debug_aranges
                0x0000000000001fb0       0x18 build/libconsts.a(const_1on60.o)
 .debug_aranges
                0x0000000000001fc8       0x18 build/libconsts.a(const_PIon200.o)
 .debug_aranges
                0x0000000000001fe0       0x18 build/libconsts.a(const_gammaC01.o)
 .debug_aranges
                0x0000000000001ff8       0x18 build/libconsts.a(const_gammaC09.o)
 .debug_aranges
                0x0000000000002010       0x18 build/libconsts.a(const_0_5.o)
 .debug_aranges
                0x0000000000002028       0x18 build/libconsts.a(const_9on5.o)
 .debug_aranges
                0x0000000000002040       0x18 build/libconsts.a(const_20.o)
 .debug_aranges
                0x0000000000002058       0x18 build/libconsts.a(const_gammaC20.o)
 .debug_aranges
                0x0000000000002070       0x18 build/libconsts.a(const_400.o)
 .debug_aranges
                0x0000000000002088       0x18 build/libconsts.a(const_gammaC07.o)
 .debug_aranges
                0x00000000000020a0       0x18 build/libconsts.a(const__0.o)
 .debug_aranges
                0x00000000000020b8       0x18 build/libconsts.a(const_0_4.o)
 .debug_aranges
                0x00000000000020d0       0x18 build/libconsts.a(const_1e_10000.o)
 .debug_aranges
                0x00000000000020e8       0x18 build/libconsts.a(const_gammaC12.o)
 .debug_aranges
                0x0000000000002100       0x18 build/libconsts.a(const_2pow64.o)
 .debug_aranges
                0x0000000000002118       0x18 build/libconsts.a(const_PIon2.o)
 .debug_aranges
                0x0000000000002130       0x18 build/libconsts.a(const_gammaC04.o)
 .debug_aranges
                0x0000000000002148       0x18 build/libconsts.a(const_90.o)
 .debug_aranges
                0x0000000000002160       0x18 build/libconsts.a(const_gammaC17.o)
 .debug_aranges
                0x0000000000002178       0x18 build/libconsts.a(const_gammaC02.o)
 .debug_aranges
                0x0000000000002190       0x18 build/libconsts.a(const_PI.o)
 .debug_aranges
                0x00000000000021a8       0x18 build/libconsts.a(const_root2on2.o)
 .debug_aranges
                0x00000000000021c0       0x18 build/libconsts.a(const_100.o)
 .debug_aranges
                0x00000000000021d8       0x18 build/libconsts.a(const_0_1.o)
 .debug_aranges
                0x00000000000021f0       0x28 build/libdecNumber.a(decContext.o)
 .debug_aranges
                0x0000000000002218      0x170 build/libdecNumber.a(decNumber.o)
 .debug_aranges
                0x0000000000002388       0x28 build/libdecNumber.a(decimal128.o)
 .debug_aranges
                0x00000000000023b0       0x40 build/libdecNumber.a(decimal64.o)
 .debug_aranges
                0x00000000000023f0       0x20 build/startup_pgm.o
 .debug_aranges
                0x0000000000002410       0x20 /usr/lib/gcc/arm-none-eabi/9.2.1/thumb/v7e-m+fp/hard/libgcc.a(_aeabi_uldivmod.o)
 .debug_aranges
                0x0000000000002430       0x20 /usr/lib/gcc/arm-none-eabi/9.2.1/thumb/v7e-m+fp/hard/libgcc.a(_udivmoddi4.o)
 .debug_aranges
                0x0000000000002450       0x20 /usr/lib/gcc/arm-none-eabi/9.2.1/thumb/v7e-m+fp/hard/libgcc.a(_dvmd_tls.o)
 .debug_aranges
                0x0000000000002470       0x20 /usr/lib/gcc/arm-none-eabi/9.2.1/../../../arm-none-eabi/lib/thumb/v7e-m+fp/hard/libc.a(lib_a-atexit.o)
 .debug_aranges
                0x0000000000002490       0x20 /usr/lib/gcc/arm-none-eabi/9.2.1/../../../arm-none-eabi/lib/thumb/v7e-m+fp/hard/libc.a(lib_a-errno.o)
 .debug_aranges
                0x00000000000024b0       0x20 /usr/lib/gcc/arm-none-eabi/9.2.1/../../../arm-none-eabi/lib/thumb/v7e-m+fp/hard/libc.a(lib_a-fini.o)
 .debug_aranges
                0x00000000000024d0       0x18 /usr/lib/gcc/arm-none-eabi/9.2.1/../../../arm-none-eabi/lib/thumb/v7e-m+fp/hard/libc.a(lib_a-impure.o)
 .debug_aranges
                0x00000000000024e8       0x20 /usr/lib/gcc/arm-none-eabi/9.2.1/../../../arm-none-eabi/lib/thumb/v7e-m+fp/hard/libc.a(lib_a-init.o)
 .debug_aranges
                0x0000000000002508       0x20 /usr/lib/gcc/arm-none-eabi/9.2.1/../../../arm-none-eabi/lib/thumb/v7e-m+fp/hard/libc.a(lib_a-memset.o)
 .debug_aranges
                0x0000000000002528       0x20 /usr/lib/gcc/arm-none-eabi/9.2.1/../../../arm-none-eabi/lib/thumb/v7e-m+fp/hard/libc.a(lib_a-perror.o)
 .debug_aranges
                0x0000000000002548       0x20 /usr/lib/gcc/arm-none-eabi/9.2.1/../../../arm-none-eabi/lib/thumb/v7e-m+fp/hard/libc.a(lib_a-sprintf.o)
 .debug_aranges
                0x0000000000002568       0x20 /usr/lib/gcc/arm-none-eabi/9.2.1/../../../arm-none-eabi/lib/thumb/v7e-m+fp/hard/libc.a(lib_a-strerror.o)
 .debug_aranges
                0x0000000000002588       0x20 /usr/lib/gcc/arm-none-eabi/9.2.1/../../../arm-none-eabi/lib/thumb/v7e-m+fp/hard/libc.a(lib_a-strlen.o)
 .debug_aranges
                0x00000000000025a8       0x20 /usr/lib/gcc/arm-none-eabi/9.2.1/../../../arm-none-eabi/lib/thumb/v7e-m+fp/hard/libc.a(lib_a-strncpy.o)
 .debug_aranges
                0x00000000000025c8       0x20 /usr/lib/gcc/arm-none-eabi/9.2.1/../../../arm-none-eabi/lib/thumb/v7e-m+fp/hard/libc.a(lib_a-svfprintf.o)
 .debug_aranges
                0x00000000000025e8       0x20 /usr/lib/gcc/arm-none-eabi/9.2.1/../../../arm-none-eabi/lib/thumb/v7e-m+fp/hard/libc.a(lib_a-u_strerr.o)
 .debug_aranges
                0x0000000000002608       0x20 /usr/lib/gcc/arm-none-eabi/9.2.1/../../../arm-none-eabi/lib/thumb/v7e-m+fp/hard/libc.a(lib_a-writer.o)
 .debug_aranges
                0x0000000000002628       0x20 /usr/lib/gcc/arm-none-eabi/9.2.1/../../../arm-none-eabi/lib/thumb/v7e-m+fp/hard/libc.a(lib_a-__atexit.o)
 .debug_aranges
                0x0000000000002648       0x28 /usr/lib/gcc/arm-none-eabi/9.2.1/../../../arm-none-eabi/lib/thumb/v7e-m+fp/hard/libc.a(lib_a-__call_atexit.o)
 .debug_aranges
                0x0000000000002670       0x18 /usr/lib/gcc/arm-none-eabi/9.2.1/../../../arm-none-eabi/lib/thumb/v7e-m+fp/hard/libc.a(lib_a-ctype_.o)
 .debug_aranges
                0x0000000000002688       0x20 /usr/lib/gcc/arm-none-eabi/9.2.1/../../../arm-none-eabi/lib/thumb/v7e-m+fp/hard/libc.a(lib_a-dtoa.o)
 .debug_aranges
                0x00000000000026a8       0x20 /usr/lib/gcc/arm-none-eabi/9.2.1/../../../arm-none-eabi/lib/thumb/v7e-m+fp/hard/libc.a(lib_a-fflush.o)
 .debug_aranges
                0x00000000000026c8       0x20 /usr/lib/gcc/arm-none-eabi/9.2.1/../../../arm-none-eabi/lib/thumb/v7e-m+fp/hard/libc.a(lib_a-fileno.o)
 .debug_aranges
                0x00000000000026e8       0x20 /usr/lib/gcc/arm-none-eabi/9.2.1/../../../arm-none-eabi/lib/thumb/v7e-m+fp/hard/libc.a(lib_a-findfp.o)
 .debug_aranges
                0x0000000000002708       0x20 /usr/lib/gcc/arm-none-eabi/9.2.1/../../../arm-none-eabi/lib/thumb/v7e-m+fp/hard/libc.a(lib_a-fwalk.o)
 .debug_aranges
                0x0000000000002728       0x20 /usr/lib/gcc/arm-none-eabi/9.2.1/../../../arm-none-eabi/lib/thumb/v7e-m+fp/hard/libc.a(lib_a-localeconv.o)
 .debug_aranges
                0x0000000000002748       0x20 /usr/lib/gcc/arm-none-eabi/9.2.1/../../../arm-none-eabi/lib/thumb/v7e-m+fp/hard/libc.a(lib_a-memchr.o)
 .debug_aranges
                0x0000000000002768       0x20 /usr/lib/gcc/arm-none-eabi/9.2.1/../../../arm-none-eabi/lib/thumb/v7e-m+fp/hard/libc.a(lib_a-memcpy.o)
 .debug_aranges
                0x0000000000002788       0x20 /usr/lib/gcc/arm-none-eabi/9.2.1/../../../arm-none-eabi/lib/thumb/v7e-m+fp/hard/libc.a(lib_a-mprec.o)
 .debug_aranges
                0x00000000000027a8       0x20 /usr/lib/gcc/arm-none-eabi/9.2.1/../../../arm-none-eabi/lib/thumb/v7e-m+fp/hard/libc.a(lib_a-reent.o)
 .debug_aranges
                0x00000000000027c8       0x20 /usr/lib/gcc/arm-none-eabi/9.2.1/../../../arm-none-eabi/lib/thumb/v7e-m+fp/hard/libc.a(lib_a-stdio.o)
 .debug_aranges
                0x00000000000027e8       0x20 /usr/lib/gcc/arm-none-eabi/9.2.1/../../../arm-none-eabi/lib/thumb/v7e-m+fp/hard/libc.a(lib_a-svfiprintf.o)
 .debug_aranges
                0x0000000000002808       0x20 /usr/lib/gcc/arm-none-eabi/9.2.1/../../../arm-none-eabi/lib/thumb/v7e-m+fp/hard/libc.a(lib_a-assert.o)
 .debug_aranges
                0x0000000000002828       0x20 /usr/lib/gcc/arm-none-eabi/9.2.1/../../../arm-none-eabi/lib/thumb/v7e-m+fp/hard/libc.a(lib_a-closer.o)
 .debug_aranges
                0x0000000000002848       0x20 /usr/lib/gcc/arm-none-eabi/9.2.1/../../../arm-none-eabi/lib/thumb/v7e-m+fp/hard/libc.a(lib_a-fclose.o)
 .debug_aranges
                0x0000000000002868       0x20 /usr/lib/gcc/arm-none-eabi/9.2.1/../../../arm-none-eabi/lib/thumb/v7e-m+fp/hard/libc.a(lib_a-fiprintf.o)
 .debug_aranges
                0x0000000000002888       0x20 /usr/lib/gcc/arm-none-eabi/9.2.1/../../../arm-none-eabi/lib/thumb/v7e-m+fp/hard/libc.a(lib_a-locale.o)
 .debug_aranges
                0x00000000000028a8       0x20 /usr/lib/gcc/arm-none-eabi/9.2.1/../../../arm-none-eabi/lib/thumb/v7e-m+fp/hard/libc.a(lib_a-lseekr.o)
 .debug_aranges
                0x00000000000028c8       0x20 /usr/lib/gcc/arm-none-eabi/9.2.1/../../../arm-none-eabi/lib/thumb/v7e-m+fp/hard/libc.a(lib_a-mbtowc_r.o)
 .debug_aranges
                0x00000000000028e8       0x20 /usr/lib/gcc/arm-none-eabi/9.2.1/../../../arm-none-eabi/lib/thumb/v7e-m+fp/hard/libc.a(lib_a-memmove.o)
 .debug_aranges
                0x0000000000002908       0x20 /usr/lib/gcc/arm-none-eabi/9.2.1/../../../arm-none-eabi/lib/thumb/v7e-m+fp/hard/libc.a(lib_a-readr.o)
 .debug_aranges
                0x0000000000002928       0x20 /usr/lib/gcc/arm-none-eabi/9.2.1/../../../arm-none-eabi/lib/thumb/v7e-m+fp/hard/libc.a(lib_a-strcmp.o)
 .debug_aranges
                0x0000000000002948       0x20 /usr/lib/gcc/arm-none-eabi/9.2.1/../../../arm-none-eabi/lib/thumb/v7e-m+fp/hard/libc.a(lib_a-vfiprintf.o)
 .debug_aranges
                0x0000000000002968       0x20 /usr/lib/gcc/arm-none-eabi/9.2.1/../../../arm-none-eabi/lib/thumb/v7e-m+fp/hard/libc.a(lib_a-wctomb_r.o)
 .debug_aranges
                0x0000000000002988       0x20 /usr/lib/gcc/arm-none-eabi/9.2.1/../../../arm-none-eabi/lib/thumb/v7e-m+fp/hard/libc.a(lib_a-wsetup.o)
 .debug_aranges
                0x00000000000029a8       0x20 /usr/lib/gcc/arm-none-eabi/9.2.1/../../../arm-none-eabi/lib/thumb/v7e-m+fp/hard/libc.a(lib_a-abort.o)
 .debug_aranges
                0x00000000000029c8       0x20 /usr/lib/gcc/arm-none-eabi/9.2.1/../../../arm-none-eabi/lib/thumb/v7e-m+fp/hard/libc.a(lib_a-fputwc.o)
 .debug_aranges
                0x00000000000029e8       0x20 /usr/lib/gcc/arm-none-eabi/9.2.1/../../../arm-none-eabi/lib/thumb/v7e-m+fp/hard/libc.a(lib_a-fvwrite.o)
 .debug_aranges
                0x0000000000002a08       0x20 /usr/lib/gcc/arm-none-eabi/9.2.1/../../../arm-none-eabi/lib/thumb/v7e-m+fp/hard/libc.a(lib_a-makebuf.o)
 .debug_aranges
                0x0000000000002a28       0x20 /usr/lib/gcc/arm-none-eabi/9.2.1/../../../arm-none-eabi/lib/thumb/v7e-m+fp/hard/libc.a(lib_a-signal.o)
 .debug_aranges
                0x0000000000002a48       0x20 /usr/lib/gcc/arm-none-eabi/9.2.1/../../../arm-none-eabi/lib/thumb/v7e-m+fp/hard/libc.a(lib_a-signalr.o)
 .debug_aranges
                0x0000000000002a68       0x20 /usr/lib/gcc/arm-none-eabi/9.2.1/../../../arm-none-eabi/lib/thumb/v7e-m+fp/hard/libc.a(lib_a-wbuf.o)
 .debug_aranges
                0x0000000000002a88       0x20 /usr/lib/gcc/arm-none-eabi/9.2.1/../../../arm-none-eabi/lib/thumb/v7e-m+fp/hard/libc.a(lib_a-wcrtomb.o)
 .debug_aranges
                0x0000000000002aa8       0x20 /usr/lib/gcc/arm-none-eabi/9.2.1/../../../arm-none-eabi/lib/thumb/v7e-m+fp/hard/libc.a(lib_a-fstatr.o)
 .debug_aranges
                0x0000000000002ac8       0x20 /usr/lib/gcc/arm-none-eabi/9.2.1/../../../arm-none-eabi/lib/thumb/v7e-m+fp/hard/libc.a(lib_a-isattyr.o)
 .debug_aranges
                0x0000000000002ae8       0x20 /usr/lib/gcc/arm-none-eabi/9.2.1/thumb/v7e-m+fp/hard/libgcc.a(_arm_addsubdf3.o)
 .debug_aranges
                0x0000000000002b08       0x20 /usr/lib/gcc/arm-none-eabi/9.2.1/thumb/v7e-m+fp/hard/libgcc.a(_arm_muldivdf3.o)
 .debug_aranges
                0x0000000000002b28       0x20 /usr/lib/gcc/arm-none-eabi/9.2.1/thumb/v7e-m+fp/hard/libgcc.a(_arm_cmpdf2.o)
 .debug_aranges
                0x0000000000002b48       0x20 /usr/lib/gcc/arm-none-eabi/9.2.1/thumb/v7e-m+fp/hard/libgcc.a(_arm_unorddf2.o)
 .debug_aranges
                0x0000000000002b68       0x20 /usr/lib/gcc/arm-none-eabi/9.2.1/thumb/v7e-m+fp/hard/libgcc.a(_arm_fixdfsi.o)
 .debug_aranges
                0x0000000000002b88       0x20 /usr/lib/gcc/arm-none-eabi/9.2.1/../../../arm-none-eabi/lib/thumb/v7e-m+fp/hard/libnosys.a(_exit.o)

.debug_ranges   0x0000000000000000     0xb4d8
 .debug_ranges  0x0000000000000000       0x90 build/pgm_syscalls.o
 .debug_ranges  0x0000000000000090     0x1300 build/keys.o
 .debug_ranges  0x0000000000001390      0x9e8 build/display.o
 .debug_ranges  0x0000000000001d78     0x3678 build/xeq.o
 .debug_ranges  0x00000000000053f0      0x1d8 build/prt.o
 .debug_ranges  0x00000000000055c8     0x1b00 build/decn.o
 .debug_ranges  0x00000000000070c8      0x2e0 build/complex.o
 .debug_ranges  0x00000000000073a8      0x270 build/stats.o
 .debug_ranges  0x0000000000007618      0x1c0 build/lcd.o
 .debug_ranges  0x00000000000077d8     0x18d8 build/int.o
 .debug_ranges  0x00000000000090b0      0x240 build/date.o
 .debug_ranges  0x00000000000092f0      0x280 build/alpha.o
 .debug_ranges  0x0000000000009570       0x10 build/charmap.o
 .debug_ranges  0x0000000000009580       0xb8 build/string.o
 .debug_ranges  0x0000000000009638      0x2e8 build/storage.o
 .debug_ranges  0x0000000000009920      0x260 build/matrix.o
 .debug_ranges  0x0000000000009b80       0x60 build/font.o
 .debug_ranges  0x0000000000009be0      0x410 build/console.o
 .debug_ranges  0x0000000000009ff0       0x18 build/libdecNumber.a(decContext.o)
 .debug_ranges  0x000000000000a008      0xae8 build/libdecNumber.a(decNumber.o)
 .debug_ranges  0x000000000000aaf0       0x50 build/libdecNumber.a(decimal128.o)
 .debug_ranges  0x000000000000ab40       0xa0 build/libdecNumber.a(decimal64.o)
 .debug_ranges  0x000000000000abe0       0xc8 /usr/lib/gcc/arm-none-eabi/9.2.1/thumb/v7e-m+fp/hard/libgcc.a(_udivmoddi4.o)
 .debug_ranges  0x000000000000aca8       0x28 /usr/lib/gcc/arm-none-eabi/9.2.1/../../../arm-none-eabi/lib/thumb/v7e-m+fp/hard/libc.a(lib_a-perror.o)
 .debug_ranges  0x000000000000acd0      0x178 /usr/lib/gcc/arm-none-eabi/9.2.1/../../../arm-none-eabi/lib/thumb/v7e-m+fp/hard/libc.a(lib_a-svfprintf.o)
 .debug_ranges  0x000000000000ae48       0x38 /usr/lib/gcc/arm-none-eabi/9.2.1/../../../arm-none-eabi/lib/thumb/v7e-m+fp/hard/libc.a(lib_a-__call_atexit.o)
 .debug_ranges  0x000000000000ae80       0x38 /usr/lib/gcc/arm-none-eabi/9.2.1/../../../arm-none-eabi/lib/thumb/v7e-m+fp/hard/libc.a(lib_a-dtoa.o)
 .debug_ranges  0x000000000000aeb8       0x70 /usr/lib/gcc/arm-none-eabi/9.2.1/../../../arm-none-eabi/lib/thumb/v7e-m+fp/hard/libc.a(lib_a-fflush.o)
 .debug_ranges  0x000000000000af28       0x28 /usr/lib/gcc/arm-none-eabi/9.2.1/../../../arm-none-eabi/lib/thumb/v7e-m+fp/hard/libc.a(lib_a-fileno.o)
 .debug_ranges  0x000000000000af50      0x118 /usr/lib/gcc/arm-none-eabi/9.2.1/../../../arm-none-eabi/lib/thumb/v7e-m+fp/hard/libc.a(lib_a-findfp.o)
 .debug_ranges  0x000000000000b068      0x138 /usr/lib/gcc/arm-none-eabi/9.2.1/../../../arm-none-eabi/lib/thumb/v7e-m+fp/hard/libc.a(lib_a-mprec.o)
 .debug_ranges  0x000000000000b1a0       0x40 /usr/lib/gcc/arm-none-eabi/9.2.1/../../../arm-none-eabi/lib/thumb/v7e-m+fp/hard/libc.a(lib_a-svfiprintf.o)
 .debug_ranges  0x000000000000b1e0       0x30 /usr/lib/gcc/arm-none-eabi/9.2.1/../../../arm-none-eabi/lib/thumb/v7e-m+fp/hard/libc.a(lib_a-fclose.o)
 .debug_ranges  0x000000000000b210      0x1c0 /usr/lib/gcc/arm-none-eabi/9.2.1/../../../arm-none-eabi/lib/thumb/v7e-m+fp/hard/libc.a(lib_a-vfiprintf.o)
 .debug_ranges  0x000000000000b3d0       0x28 /usr/lib/gcc/arm-none-eabi/9.2.1/../../../arm-none-eabi/lib/thumb/v7e-m+fp/hard/libc.a(lib_a-wsetup.o)
 .debug_ranges  0x000000000000b3f8       0x50 /usr/lib/gcc/arm-none-eabi/9.2.1/../../../arm-none-eabi/lib/thumb/v7e-m+fp/hard/libc.a(lib_a-fputwc.o)
 .debug_ranges  0x000000000000b448       0x18 /usr/lib/gcc/arm-none-eabi/9.2.1/../../../arm-none-eabi/lib/thumb/v7e-m+fp/hard/libc.a(lib_a-fvwrite.o)
 .debug_ranges  0x000000000000b460       0x18 /usr/lib/gcc/arm-none-eabi/9.2.1/../../../arm-none-eabi/lib/thumb/v7e-m+fp/hard/libc.a(lib_a-makebuf.o)
 .debug_ranges  0x000000000000b478       0x30 /usr/lib/gcc/arm-none-eabi/9.2.1/../../../arm-none-eabi/lib/thumb/v7e-m+fp/hard/libc.a(lib_a-signal.o)
 .debug_ranges  0x000000000000b4a8       0x20 /usr/lib/gcc/arm-none-eabi/9.2.1/../../../arm-none-eabi/lib/thumb/v7e-m+fp/hard/libc.a(lib_a-wbuf.o)
 .debug_ranges  0x000000000000b4c8       0x10 /usr/lib/gcc/arm-none-eabi/9.2.1/../../../arm-none-eabi/lib/thumb/v7e-m+fp/hard/libc.a(lib_a-wcrtomb.o)

.debug_line     0x0000000000000000    0x39598
 .debug_line    0x0000000000000000      0x36a build/pgm_syscalls.o
 .debug_line    0x000000000000036a     0x469e build/keys.o
 .debug_line    0x0000000000004a08     0x3faf build/display.o
 .debug_line    0x00000000000089b7     0x9a4d build/xeq.o
 .debug_line    0x0000000000012404      0x8bd build/prt.o
 .debug_line    0x0000000000012cc1     0x51e4 build/decn.o
 .debug_line    0x0000000000017ea5      0xc2f build/complex.o
 .debug_line    0x0000000000018ad4     0x1244 build/stats.o
 .debug_line    0x0000000000019d18      0x971 build/lcd.o
 .debug_line    0x000000000001a689     0x40af build/int.o
 .debug_line    0x000000000001e738      0xe69 build/date.o
 .debug_line    0x000000000001f5a1       0x98 build/consts.o
 .debug_line    0x000000000001f639      0x8ca build/alpha.o
 .debug_line    0x000000000001ff03       0x4b build/charmap.o
 .debug_line    0x000000000001ff4e       0xc9 build/commands.o
 .debug_line    0x0000000000020017      0x4db build/string.o
 .debug_line    0x00000000000204f2     0x17f9 build/storage.o
 .debug_line    0x0000000000021ceb     0x14c3 build/matrix.o
 .debug_line    0x00000000000231ae      0x206 build/font.o
 .debug_line    0x00000000000233b4       0x94 build/xrom.o
 .debug_line    0x0000000000023448     0x158c build/console.o
 .debug_line    0x00000000000249d4       0x5c build/libconsts.a(const_50.o)
 .debug_line    0x0000000000024a30       0x61 build/libconsts.a(const_randfac.o)
 .debug_line    0x0000000000024a91       0x5e build/libconsts.a(const_ln10.o)
 .debug_line    0x0000000000024aef       0x60 build/libconsts.a(const_egamma.o)
 .debug_line    0x0000000000024b4f       0x5d build/libconsts.a(const_256.o)
 .debug_line    0x0000000000024bac       0x5d build/libconsts.a(const_180.o)
 .debug_line    0x0000000000024c09       0x5f build/libconsts.a(const_1e_32.o)
 .debug_line    0x0000000000024c68       0x62 build/libconsts.a(const_gammaC03.o)
 .debug_line    0x0000000000024cca       0x5c build/libconsts.a(const_60.o)
 .debug_line    0x0000000000024d26       0x5c build/libconsts.a(const_10.o)
 .debug_line    0x0000000000024d82       0x5d build/libconsts.a(const_360.o)
 .debug_line    0x0000000000024ddf       0x62 build/libconsts.a(const_gammaC10.o)
 .debug_line    0x0000000000024e41       0x62 build/libconsts.a(const_gammaC11.o)
 .debug_line    0x0000000000024ea3       0x5e build/libconsts.a(const__inf.o)
 .debug_line    0x0000000000024f01       0x5c build/libconsts.a(const_21.o)
 .debug_line    0x0000000000024f5d       0x62 build/libconsts.a(const_gammaC16.o)
 .debug_line    0x0000000000024fbf       0x5d build/libconsts.a(const_200.o)
 .debug_line    0x000000000002501c       0x62 build/libconsts.a(const_gammaC06.o)
 .debug_line    0x000000000002507e       0x5d build/libconsts.a(const_NaN.o)
 .debug_line    0x00000000000250db       0x62 build/libconsts.a(const_gammaC15.o)
 .debug_line    0x000000000002513d       0x5f build/libconsts.a(const_1e_24.o)
 .debug_line    0x000000000002519c       0x5c build/libconsts.a(const_45.o)
 .debug_line    0x00000000000251f8       0x5e build/libconsts.a(const_0_05.o)
 .debug_line    0x0000000000025256       0x5b build/libconsts.a(const_3.o)
 .debug_line    0x00000000000252b1       0x67 build/libconsts.a(const_hms_threshold.o)
 .debug_line    0x0000000000025318       0x62 build/libconsts.a(const_gammaC14.o)
 .debug_line    0x000000000002537a       0x5d build/libconsts.a(const_0_6.o)
 .debug_line    0x00000000000253d7       0x5c build/libconsts.a(const_32.o)
 .debug_line    0x0000000000025433       0x5e build/libconsts.a(const_0_75.o)
 .debug_line    0x0000000000025491       0x5c build/libconsts.a(const__1.o)
 .debug_line    0x00000000000254ed       0x62 build/libconsts.a(const_gammaC00.o)
 .debug_line    0x000000000002554f       0x5d build/libconsts.a(const_ln2.o)
 .debug_line    0x00000000000255ac       0x62 build/libconsts.a(const_gammaC18.o)
 .debug_line    0x000000000002560e       0x5d build/libconsts.a(const_2PI.o)
 .debug_line    0x000000000002566b       0x5f build/libconsts.a(const_1e_14.o)
 .debug_line    0x00000000000256ca       0x5b build/libconsts.a(const_0.o)
 .debug_line    0x0000000000025725       0x61 build/libconsts.a(const_PIon180.o)
 .debug_line    0x0000000000025786       0x5e build/libconsts.a(const_9000.o)
 .debug_line    0x00000000000257e4       0x5d build/libconsts.a(const_0_9.o)
 .debug_line    0x0000000000025841       0x62 build/libconsts.a(const_gammaC08.o)
 .debug_line    0x00000000000258a3       0x62 build/libconsts.a(const_gammaC21.o)
 .debug_line    0x0000000000025905       0x5f build/libconsts.a(const_1e_37.o)
 .debug_line    0x0000000000025964       0x62 build/libconsts.a(const_gammaC05.o)
 .debug_line    0x00000000000259c6       0x5b build/libconsts.a(const_2.o)
 .debug_line    0x0000000000025a21       0x62 build/libconsts.a(const_gammaC13.o)
 .debug_line    0x0000000000025a83       0x60 build/libconsts.a(const_100000.o)
 .debug_line    0x0000000000025ae3       0x60 build/libconsts.a(const_gammaR.o)
 .debug_line    0x0000000000025b43       0x5b build/libconsts.a(const_5.o)
 .debug_line    0x0000000000025b9e       0x5b build/libconsts.a(const_1.o)
 .debug_line    0x0000000000025bf9       0x62 build/libconsts.a(const_gammaC19.o)
 .debug_line    0x0000000000025c5b       0x5d build/libconsts.a(const_inf.o)
 .debug_line    0x0000000000025cb8       0x5f build/libconsts.a(const_0_995.o)
 .debug_line    0x0000000000025d17       0x60 build/libconsts.a(const_0_0001.o)
 .debug_line    0x0000000000025d77       0x5f build/libconsts.a(const_1on60.o)
 .debug_line    0x0000000000025dd6       0x61 build/libconsts.a(const_PIon200.o)
 .debug_line    0x0000000000025e37       0x62 build/libconsts.a(const_gammaC01.o)
 .debug_line    0x0000000000025e99       0x62 build/libconsts.a(const_gammaC09.o)
 .debug_line    0x0000000000025efb       0x5d build/libconsts.a(const_0_5.o)
 .debug_line    0x0000000000025f58       0x5e build/libconsts.a(const_9on5.o)
 .debug_line    0x0000000000025fb6       0x5c build/libconsts.a(const_20.o)
 .debug_line    0x0000000000026012       0x62 build/libconsts.a(const_gammaC20.o)
 .debug_line    0x0000000000026074       0x5d build/libconsts.a(const_400.o)
 .debug_line    0x00000000000260d1       0x62 build/libconsts.a(const_gammaC07.o)
 .debug_line    0x0000000000026133       0x5c build/libconsts.a(const__0.o)
 .debug_line    0x000000000002618f       0x5d build/libconsts.a(const_0_4.o)
 .debug_line    0x00000000000261ec       0x62 build/libconsts.a(const_1e_10000.o)
 .debug_line    0x000000000002624e       0x62 build/libconsts.a(const_gammaC12.o)
 .debug_line    0x00000000000262b0       0x60 build/libconsts.a(const_2pow64.o)
 .debug_line    0x0000000000026310       0x5f build/libconsts.a(const_PIon2.o)
 .debug_line    0x000000000002636f       0x62 build/libconsts.a(const_gammaC04.o)
 .debug_line    0x00000000000263d1       0x5c build/libconsts.a(const_90.o)
 .debug_line    0x000000000002642d       0x62 build/libconsts.a(const_gammaC17.o)
 .debug_line    0x000000000002648f       0x62 build/libconsts.a(const_gammaC02.o)
 .debug_line    0x00000000000264f1       0x5c build/libconsts.a(const_PI.o)
 .debug_line    0x000000000002654d       0x62 build/libconsts.a(const_root2on2.o)
 .debug_line    0x00000000000265af       0x5d build/libconsts.a(const_100.o)
 .debug_line    0x000000000002660c       0x5d build/libconsts.a(const_0_1.o)
 .debug_line    0x0000000000026669      0x161 build/libdecNumber.a(decContext.o)
 .debug_line    0x00000000000267ca     0x5195 build/libdecNumber.a(decNumber.o)
 .debug_line    0x000000000002b95f      0x3da build/libdecNumber.a(decimal128.o)
 .debug_line    0x000000000002bd39      0x7d1 build/libdecNumber.a(decimal64.o)
 .debug_line    0x000000000002c50a       0x5d build/startup_pgm.o
 .debug_line    0x000000000002c567       0x60 /usr/lib/gcc/arm-none-eabi/9.2.1/thumb/v7e-m+fp/hard/libgcc.a(_aeabi_uldivmod.o)
 .debug_line    0x000000000002c5c7      0x61a /usr/lib/gcc/arm-none-eabi/9.2.1/thumb/v7e-m+fp/hard/libgcc.a(_udivmoddi4.o)
 .debug_line    0x000000000002cbe1       0x60 /usr/lib/gcc/arm-none-eabi/9.2.1/thumb/v7e-m+fp/hard/libgcc.a(_dvmd_tls.o)
 .debug_line    0x000000000002cc41      0x14a /usr/lib/gcc/arm-none-eabi/9.2.1/../../../arm-none-eabi/lib/thumb/v7e-m+fp/hard/libc.a(lib_a-atexit.o)
 .debug_line    0x000000000002cd8b      0x108 /usr/lib/gcc/arm-none-eabi/9.2.1/../../../arm-none-eabi/lib/thumb/v7e-m+fp/hard/libc.a(lib_a-errno.o)
 .debug_line    0x000000000002ce93       0xd7 /usr/lib/gcc/arm-none-eabi/9.2.1/../../../arm-none-eabi/lib/thumb/v7e-m+fp/hard/libc.a(lib_a-fini.o)
 .debug_line    0x000000000002cf6a       0xe3 /usr/lib/gcc/arm-none-eabi/9.2.1/../../../arm-none-eabi/lib/thumb/v7e-m+fp/hard/libc.a(lib_a-impure.o)
 .debug_line    0x000000000002d04d      0x10d /usr/lib/gcc/arm-none-eabi/9.2.1/../../../arm-none-eabi/lib/thumb/v7e-m+fp/hard/libc.a(lib_a-init.o)
 .debug_line    0x000000000002d15a      0x26b /usr/lib/gcc/arm-none-eabi/9.2.1/../../../arm-none-eabi/lib/thumb/v7e-m+fp/hard/libc.a(lib_a-memset.o)
 .debug_line    0x000000000002d3c5      0x2c2 /usr/lib/gcc/arm-none-eabi/9.2.1/../../../arm-none-eabi/lib/thumb/v7e-m+fp/hard/libc.a(lib_a-perror.o)
 .debug_line    0x000000000002d687      0x22c /usr/lib/gcc/arm-none-eabi/9.2.1/../../../arm-none-eabi/lib/thumb/v7e-m+fp/hard/libc.a(lib_a-sprintf.o)
 .debug_line    0x000000000002d8b3      0x731 /usr/lib/gcc/arm-none-eabi/9.2.1/../../../arm-none-eabi/lib/thumb/v7e-m+fp/hard/libc.a(lib_a-strerror.o)
 .debug_line    0x000000000002dfe4       0xaf /usr/lib/gcc/arm-none-eabi/9.2.1/../../../arm-none-eabi/lib/thumb/v7e-m+fp/hard/libc.a(lib_a-strlen.o)
 .debug_line    0x000000000002e093      0x1e5 /usr/lib/gcc/arm-none-eabi/9.2.1/../../../arm-none-eabi/lib/thumb/v7e-m+fp/hard/libc.a(lib_a-strncpy.o)
 .debug_line    0x000000000002e278     0x161e /usr/lib/gcc/arm-none-eabi/9.2.1/../../../arm-none-eabi/lib/thumb/v7e-m+fp/hard/libc.a(lib_a-svfprintf.o)
 .debug_line    0x000000000002f896       0x70 /usr/lib/gcc/arm-none-eabi/9.2.1/../../../arm-none-eabi/lib/thumb/v7e-m+fp/hard/libc.a(lib_a-u_strerr.o)
 .debug_line    0x000000000002f906      0x188 /usr/lib/gcc/arm-none-eabi/9.2.1/../../../arm-none-eabi/lib/thumb/v7e-m+fp/hard/libc.a(lib_a-writer.o)
 .debug_line    0x000000000002fa8e      0x1e1 /usr/lib/gcc/arm-none-eabi/9.2.1/../../../arm-none-eabi/lib/thumb/v7e-m+fp/hard/libc.a(lib_a-__atexit.o)
 .debug_line    0x000000000002fc6f      0x238 /usr/lib/gcc/arm-none-eabi/9.2.1/../../../arm-none-eabi/lib/thumb/v7e-m+fp/hard/libc.a(lib_a-__call_atexit.o)
 .debug_line    0x000000000002fea7      0x154 /usr/lib/gcc/arm-none-eabi/9.2.1/../../../arm-none-eabi/lib/thumb/v7e-m+fp/hard/libc.a(lib_a-ctype_.o)
 .debug_line    0x000000000002fffb     0x13b3 /usr/lib/gcc/arm-none-eabi/9.2.1/../../../arm-none-eabi/lib/thumb/v7e-m+fp/hard/libc.a(lib_a-dtoa.o)
 .debug_line    0x00000000000313ae      0x430 /usr/lib/gcc/arm-none-eabi/9.2.1/../../../arm-none-eabi/lib/thumb/v7e-m+fp/hard/libc.a(lib_a-fflush.o)
 .debug_line    0x00000000000317de      0x1cc /usr/lib/gcc/arm-none-eabi/9.2.1/../../../arm-none-eabi/lib/thumb/v7e-m+fp/hard/libc.a(lib_a-fileno.o)
 .debug_line    0x00000000000319aa      0x526 /usr/lib/gcc/arm-none-eabi/9.2.1/../../../arm-none-eabi/lib/thumb/v7e-m+fp/hard/libc.a(lib_a-findfp.o)
 .debug_line    0x0000000000031ed0      0x289 /usr/lib/gcc/arm-none-eabi/9.2.1/../../../arm-none-eabi/lib/thumb/v7e-m+fp/hard/libc.a(lib_a-fwalk.o)
 .debug_line    0x0000000000032159      0x1ca /usr/lib/gcc/arm-none-eabi/9.2.1/../../../arm-none-eabi/lib/thumb/v7e-m+fp/hard/libc.a(lib_a-localeconv.o)
 .debug_line    0x0000000000032323       0xa4 /usr/lib/gcc/arm-none-eabi/9.2.1/../../../arm-none-eabi/lib/thumb/v7e-m+fp/hard/libc.a(lib_a-memchr.o)
 .debug_line    0x00000000000323c7       0xbe /usr/lib/gcc/arm-none-eabi/9.2.1/../../../arm-none-eabi/lib/thumb/v7e-m+fp/hard/libc.a(lib_a-memcpy.o)
 .debug_line    0x0000000000032485     0x146f /usr/lib/gcc/arm-none-eabi/9.2.1/../../../arm-none-eabi/lib/thumb/v7e-m+fp/hard/libc.a(lib_a-mprec.o)
 .debug_line    0x00000000000338f4      0x21b /usr/lib/gcc/arm-none-eabi/9.2.1/../../../arm-none-eabi/lib/thumb/v7e-m+fp/hard/libc.a(lib_a-reent.o)
 .debug_line    0x0000000000033b0f      0x25f /usr/lib/gcc/arm-none-eabi/9.2.1/../../../arm-none-eabi/lib/thumb/v7e-m+fp/hard/libc.a(lib_a-stdio.o)
 .debug_line    0x0000000000033d6e      0xe6c /usr/lib/gcc/arm-none-eabi/9.2.1/../../../arm-none-eabi/lib/thumb/v7e-m+fp/hard/libc.a(lib_a-svfiprintf.o)
 .debug_line    0x0000000000034bda      0x18d /usr/lib/gcc/arm-none-eabi/9.2.1/../../../arm-none-eabi/lib/thumb/v7e-m+fp/hard/libc.a(lib_a-assert.o)
 .debug_line    0x0000000000034d67      0x182 /usr/lib/gcc/arm-none-eabi/9.2.1/../../../arm-none-eabi/lib/thumb/v7e-m+fp/hard/libc.a(lib_a-closer.o)
 .debug_line    0x0000000000034ee9      0x23d /usr/lib/gcc/arm-none-eabi/9.2.1/../../../arm-none-eabi/lib/thumb/v7e-m+fp/hard/libc.a(lib_a-fclose.o)
 .debug_line    0x0000000000035126      0x199 /usr/lib/gcc/arm-none-eabi/9.2.1/../../../arm-none-eabi/lib/thumb/v7e-m+fp/hard/libc.a(lib_a-fiprintf.o)
 .debug_line    0x00000000000352bf      0x252 /usr/lib/gcc/arm-none-eabi/9.2.1/../../../arm-none-eabi/lib/thumb/v7e-m+fp/hard/libc.a(lib_a-locale.o)
 .debug_line    0x0000000000035511      0x188 /usr/lib/gcc/arm-none-eabi/9.2.1/../../../arm-none-eabi/lib/thumb/v7e-m+fp/hard/libc.a(lib_a-lseekr.o)
 .debug_line    0x0000000000035699      0x228 /usr/lib/gcc/arm-none-eabi/9.2.1/../../../arm-none-eabi/lib/thumb/v7e-m+fp/hard/libc.a(lib_a-mbtowc_r.o)
 .debug_line    0x00000000000358c1      0x287 /usr/lib/gcc/arm-none-eabi/9.2.1/../../../arm-none-eabi/lib/thumb/v7e-m+fp/hard/libc.a(lib_a-memmove.o)
 .debug_line    0x0000000000035b48      0x187 /usr/lib/gcc/arm-none-eabi/9.2.1/../../../arm-none-eabi/lib/thumb/v7e-m+fp/hard/libc.a(lib_a-readr.o)
 .debug_line    0x0000000000035ccf      0x137 /usr/lib/gcc/arm-none-eabi/9.2.1/../../../arm-none-eabi/lib/thumb/v7e-m+fp/hard/libc.a(lib_a-strcmp.o)
 .debug_line    0x0000000000035e06     0x118d /usr/lib/gcc/arm-none-eabi/9.2.1/../../../arm-none-eabi/lib/thumb/v7e-m+fp/hard/libc.a(lib_a-vfiprintf.o)
 .debug_line    0x0000000000036f93      0x212 /usr/lib/gcc/arm-none-eabi/9.2.1/../../../arm-none-eabi/lib/thumb/v7e-m+fp/hard/libc.a(lib_a-wctomb_r.o)
 .debug_line    0x00000000000371a5      0x2cd /usr/lib/gcc/arm-none-eabi/9.2.1/../../../arm-none-eabi/lib/thumb/v7e-m+fp/hard/libc.a(lib_a-wsetup.o)
 .debug_line    0x0000000000037472      0x15f /usr/lib/gcc/arm-none-eabi/9.2.1/../../../arm-none-eabi/lib/thumb/v7e-m+fp/hard/libc.a(lib_a-abort.o)
 .debug_line    0x00000000000375d1      0x2f9 /usr/lib/gcc/arm-none-eabi/9.2.1/../../../arm-none-eabi/lib/thumb/v7e-m+fp/hard/libc.a(lib_a-fputwc.o)
 .debug_line    0x00000000000378ca      0x5e8 /usr/lib/gcc/arm-none-eabi/9.2.1/../../../arm-none-eabi/lib/thumb/v7e-m+fp/hard/libc.a(lib_a-fvwrite.o)
 .debug_line    0x0000000000037eb2      0x35d /usr/lib/gcc/arm-none-eabi/9.2.1/../../../arm-none-eabi/lib/thumb/v7e-m+fp/hard/libc.a(lib_a-makebuf.o)
 .debug_line    0x000000000003820f      0x3cc /usr/lib/gcc/arm-none-eabi/9.2.1/../../../arm-none-eabi/lib/thumb/v7e-m+fp/hard/libc.a(lib_a-signal.o)
 .debug_line    0x00000000000385db      0x1a4 /usr/lib/gcc/arm-none-eabi/9.2.1/../../../arm-none-eabi/lib/thumb/v7e-m+fp/hard/libc.a(lib_a-signalr.o)
 .debug_line    0x000000000003877f      0x29b /usr/lib/gcc/arm-none-eabi/9.2.1/../../../arm-none-eabi/lib/thumb/v7e-m+fp/hard/libc.a(lib_a-wbuf.o)
 .debug_line    0x0000000000038a1a      0x2b5 /usr/lib/gcc/arm-none-eabi/9.2.1/../../../arm-none-eabi/lib/thumb/v7e-m+fp/hard/libc.a(lib_a-wcrtomb.o)
 .debug_line    0x0000000000038ccf      0x213 /usr/lib/gcc/arm-none-eabi/9.2.1/../../../arm-none-eabi/lib/thumb/v7e-m+fp/hard/libc.a(lib_a-fstatr.o)
 .debug_line    0x0000000000038ee2      0x183 /usr/lib/gcc/arm-none-eabi/9.2.1/../../../arm-none-eabi/lib/thumb/v7e-m+fp/hard/libc.a(lib_a-isattyr.o)
 .debug_line    0x0000000000039065      0x186 /usr/lib/gcc/arm-none-eabi/9.2.1/thumb/v7e-m+fp/hard/libgcc.a(_arm_addsubdf3.o)
 .debug_line    0x00000000000391eb      0x19b /usr/lib/gcc/arm-none-eabi/9.2.1/thumb/v7e-m+fp/hard/libgcc.a(_arm_muldivdf3.o)
 .debug_line    0x0000000000039386       0xbd /usr/lib/gcc/arm-none-eabi/9.2.1/thumb/v7e-m+fp/hard/libgcc.a(_arm_cmpdf2.o)
 .debug_line    0x0000000000039443       0x6e /usr/lib/gcc/arm-none-eabi/9.2.1/thumb/v7e-m+fp/hard/libgcc.a(_arm_unorddf2.o)
 .debug_line    0x00000000000394b1       0x79 /usr/lib/gcc/arm-none-eabi/9.2.1/thumb/v7e-m+fp/hard/libgcc.a(_arm_fixdfsi.o)
 .debug_line    0x000000000003952a       0x6e /usr/lib/gcc/arm-none-eabi/9.2.1/../../../arm-none-eabi/lib/thumb/v7e-m+fp/hard/libnosys.a(_exit.o)

.debug_str      0x0000000000000000     0xafbe
 .debug_str     0x0000000000000000      0x774 build/pgm_syscalls.o
                                        0x8ac (size before relaxing)
 .debug_str     0x0000000000000774     0x3655 build/keys.o
                                       0x3aed (size before relaxing)
 .debug_str     0x0000000000003dc9      0x8d1 build/display.o
                                       0x3241 (size before relaxing)
 .debug_str     0x000000000000469a      0xec0 build/xeq.o
                                       0x477e (size before relaxing)
 .debug_str     0x000000000000555a       0xc6 build/prt.o
                                       0x2a72 (size before relaxing)
 .debug_str     0x0000000000005620      0x799 build/decn.o
                                       0x31e4 (size before relaxing)
 .debug_str     0x0000000000005db9      0x189 build/complex.o
                                       0x21d9 (size before relaxing)
 .debug_str     0x0000000000005f42      0x249 build/stats.o
                                       0x2842 (size before relaxing)
 .debug_str     0x000000000000618b      0x327 build/lcd.o
                                       0x1eb5 (size before relaxing)
 .debug_str     0x00000000000064b2      0x242 build/int.o
                                       0x207c (size before relaxing)
 .debug_str     0x00000000000066f4      0x1a5 build/date.o
                                       0x27ed (size before relaxing)
 .debug_str     0x0000000000006899        0xd build/consts.o
                                       0x1ea7 (size before relaxing)
 .debug_str     0x00000000000068a6       0xe0 build/alpha.o
                                       0x2117 (size before relaxing)
 .debug_str     0x0000000000006986       0x28 build/charmap.o
                                        0x114 (size before relaxing)
 .debug_str     0x00000000000069ae        0xf build/commands.o
                                       0x27b1 (size before relaxing)
 .debug_str     0x00000000000069bd       0x18 build/string.o
                                       0x19d5 (size before relaxing)
 .debug_str     0x00000000000069d5      0x39f build/storage.o
                                       0x26ea (size before relaxing)
 .debug_str     0x0000000000006d74      0x21b build/matrix.o
                                       0x26d0 (size before relaxing)
 .debug_str     0x0000000000006f8f       0x29 build/font.o
                                        0x151 (size before relaxing)
 .debug_str     0x0000000000006fb8        0xb build/xrom.o
                                       0x196b (size before relaxing)
 .debug_str     0x0000000000006fc3      0x232 build/console.o
                                       0x32d3 (size before relaxing)
 .debug_str     0x00000000000071f5       0x1e build/libconsts.a(const_50.o)
                                        0x183 (size before relaxing)
 .debug_str     0x0000000000007213       0x23 build/libconsts.a(const_randfac.o)
                                        0x18d (size before relaxing)
 .debug_str     0x0000000000007236       0x20 build/libconsts.a(const_ln10.o)
                                        0x187 (size before relaxing)
 .debug_str     0x0000000000007256       0x22 build/libconsts.a(const_egamma.o)
                                        0x18b (size before relaxing)
 .debug_str     0x0000000000007278       0x1f build/libconsts.a(const_256.o)
                                        0x185 (size before relaxing)
 .debug_str     0x0000000000007297       0x1f build/libconsts.a(const_180.o)
                                        0x185 (size before relaxing)
 .debug_str     0x00000000000072b6       0x21 build/libconsts.a(const_1e_32.o)
                                        0x189 (size before relaxing)
 .debug_str     0x00000000000072d7       0x24 build/libconsts.a(const_gammaC03.o)
                                        0x18f (size before relaxing)
 .debug_str     0x00000000000072fb       0x1e build/libconsts.a(const_60.o)
                                        0x183 (size before relaxing)
 .debug_str     0x0000000000007319       0x1e build/libconsts.a(const_10.o)
                                        0x183 (size before relaxing)
 .debug_str     0x0000000000007337       0x1f build/libconsts.a(const_360.o)
                                        0x185 (size before relaxing)
 .debug_str     0x0000000000007356       0x24 build/libconsts.a(const_gammaC10.o)
                                        0x18f (size before relaxing)
 .debug_str     0x000000000000737a       0x24 build/libconsts.a(const_gammaC11.o)
                                        0x18f (size before relaxing)
 .debug_str     0x000000000000739e       0x20 build/libconsts.a(const__inf.o)
                                        0x187 (size before relaxing)
 .debug_str     0x00000000000073be       0x1e build/libconsts.a(const_21.o)
                                        0x183 (size before relaxing)
 .debug_str     0x00000000000073dc       0x24 build/libconsts.a(const_gammaC16.o)
                                        0x18f (size before relaxing)
 .debug_str     0x0000000000007400       0x1f build/libconsts.a(const_200.o)
                                        0x185 (size before relaxing)
 .debug_str     0x000000000000741f       0x24 build/libconsts.a(const_gammaC06.o)
                                        0x18f (size before relaxing)
 .debug_str     0x0000000000007443       0x1f build/libconsts.a(const_NaN.o)
                                        0x185 (size before relaxing)
 .debug_str     0x0000000000007462       0x24 build/libconsts.a(const_gammaC15.o)
                                        0x18f (size before relaxing)
 .debug_str     0x0000000000007486       0x21 build/libconsts.a(const_1e_24.o)
                                        0x189 (size before relaxing)
 .debug_str     0x00000000000074a7       0x1e build/libconsts.a(const_45.o)
                                        0x183 (size before relaxing)
 .debug_str     0x00000000000074c5       0x20 build/libconsts.a(const_0_05.o)
                                        0x187 (size before relaxing)
 .debug_str     0x00000000000074e5       0x1d build/libconsts.a(const_3.o)
                                        0x181 (size before relaxing)
 .debug_str     0x0000000000007502       0x29 build/libconsts.a(const_hms_threshold.o)
                                        0x199 (size before relaxing)
 .debug_str     0x000000000000752b       0x24 build/libconsts.a(const_gammaC14.o)
                                        0x18f (size before relaxing)
 .debug_str     0x000000000000754f       0x1f build/libconsts.a(const_0_6.o)
                                        0x185 (size before relaxing)
 .debug_str     0x000000000000756e       0x1e build/libconsts.a(const_32.o)
                                        0x183 (size before relaxing)
 .debug_str     0x000000000000758c       0x20 build/libconsts.a(const_0_75.o)
                                        0x187 (size before relaxing)
 .debug_str     0x00000000000075ac       0x1e build/libconsts.a(const__1.o)
                                        0x183 (size before relaxing)
 .debug_str     0x00000000000075ca       0x24 build/libconsts.a(const_gammaC00.o)
                                        0x18f (size before relaxing)
 .debug_str     0x00000000000075ee       0x1f build/libconsts.a(const_ln2.o)
                                        0x185 (size before relaxing)
 .debug_str     0x000000000000760d       0x24 build/libconsts.a(const_gammaC18.o)
                                        0x18f (size before relaxing)
 .debug_str     0x0000000000007631       0x1f build/libconsts.a(const_2PI.o)
                                        0x185 (size before relaxing)
 .debug_str     0x0000000000007650       0x21 build/libconsts.a(const_1e_14.o)
                                        0x189 (size before relaxing)
 .debug_str     0x0000000000007671       0x1d build/libconsts.a(const_0.o)
                                        0x181 (size before relaxing)
 .debug_str     0x000000000000768e       0x23 build/libconsts.a(const_PIon180.o)
                                        0x18d (size before relaxing)
 .debug_str     0x00000000000076b1       0x20 build/libconsts.a(const_9000.o)
                                        0x187 (size before relaxing)
 .debug_str     0x00000000000076d1       0x1f build/libconsts.a(const_0_9.o)
                                        0x185 (size before relaxing)
 .debug_str     0x00000000000076f0       0x24 build/libconsts.a(const_gammaC08.o)
                                        0x18f (size before relaxing)
 .debug_str     0x0000000000007714       0x24 build/libconsts.a(const_gammaC21.o)
                                        0x18f (size before relaxing)
 .debug_str     0x0000000000007738       0x21 build/libconsts.a(const_1e_37.o)
                                        0x189 (size before relaxing)
 .debug_str     0x0000000000007759       0x24 build/libconsts.a(const_gammaC05.o)
                                        0x18f (size before relaxing)
 .debug_str     0x000000000000777d       0x1d build/libconsts.a(const_2.o)
                                        0x181 (size before relaxing)
 .debug_str     0x000000000000779a       0x24 build/libconsts.a(const_gammaC13.o)
                                        0x18f (size before relaxing)
 .debug_str     0x00000000000077be       0x22 build/libconsts.a(const_100000.o)
                                        0x18b (size before relaxing)
 .debug_str     0x00000000000077e0       0x22 build/libconsts.a(const_gammaR.o)
                                        0x18b (size before relaxing)
 .debug_str     0x0000000000007802       0x1d build/libconsts.a(const_5.o)
                                        0x181 (size before relaxing)
 .debug_str     0x000000000000781f       0x1d build/libconsts.a(const_1.o)
                                        0x181 (size before relaxing)
 .debug_str     0x000000000000783c       0x24 build/libconsts.a(const_gammaC19.o)
                                        0x18f (size before relaxing)
 .debug_str     0x0000000000007860       0x1f build/libconsts.a(const_inf.o)
                                        0x185 (size before relaxing)
 .debug_str     0x000000000000787f       0x21 build/libconsts.a(const_0_995.o)
                                        0x189 (size before relaxing)
 .debug_str     0x00000000000078a0       0x22 build/libconsts.a(const_0_0001.o)
                                        0x18b (size before relaxing)
 .debug_str     0x00000000000078c2       0x21 build/libconsts.a(const_1on60.o)
                                        0x189 (size before relaxing)
 .debug_str     0x00000000000078e3       0x23 build/libconsts.a(const_PIon200.o)
                                        0x18d (size before relaxing)
 .debug_str     0x0000000000007906       0x24 build/libconsts.a(const_gammaC01.o)
                                        0x18f (size before relaxing)
 .debug_str     0x000000000000792a       0x24 build/libconsts.a(const_gammaC09.o)
                                        0x18f (size before relaxing)
 .debug_str     0x000000000000794e       0x1f build/libconsts.a(const_0_5.o)
                                        0x185 (size before relaxing)
 .debug_str     0x000000000000796d       0x20 build/libconsts.a(const_9on5.o)
                                        0x187 (size before relaxing)
 .debug_str     0x000000000000798d       0x1e build/libconsts.a(const_20.o)
                                        0x183 (size before relaxing)
 .debug_str     0x00000000000079ab       0x24 build/libconsts.a(const_gammaC20.o)
                                        0x18f (size before relaxing)
 .debug_str     0x00000000000079cf       0x1f build/libconsts.a(const_400.o)
                                        0x185 (size before relaxing)
 .debug_str     0x00000000000079ee       0x24 build/libconsts.a(const_gammaC07.o)
                                        0x18f (size before relaxing)
 .debug_str     0x0000000000007a12       0x1e build/libconsts.a(const__0.o)
                                        0x183 (size before relaxing)
 .debug_str     0x0000000000007a30       0x1f build/libconsts.a(const_0_4.o)
                                        0x185 (size before relaxing)
 .debug_str     0x0000000000007a4f       0x24 build/libconsts.a(const_1e_10000.o)
                                        0x18f (size before relaxing)
 .debug_str     0x0000000000007a73       0x24 build/libconsts.a(const_gammaC12.o)
                                        0x18f (size before relaxing)
 .debug_str     0x0000000000007a97       0x22 build/libconsts.a(const_2pow64.o)
                                        0x18b (size before relaxing)
 .debug_str     0x0000000000007ab9       0x21 build/libconsts.a(const_PIon2.o)
                                        0x189 (size before relaxing)
 .debug_str     0x0000000000007ada       0x24 build/libconsts.a(const_gammaC04.o)
                                        0x18f (size before relaxing)
 .debug_str     0x0000000000007afe       0x1e build/libconsts.a(const_90.o)
                                        0x183 (size before relaxing)
 .debug_str     0x0000000000007b1c       0x24 build/libconsts.a(const_gammaC17.o)
                                        0x18f (size before relaxing)
 .debug_str     0x0000000000007b40       0x24 build/libconsts.a(const_gammaC02.o)
                                        0x18f (size before relaxing)
 .debug_str     0x0000000000007b64       0x1e build/libconsts.a(const_PI.o)
                                        0x183 (size before relaxing)
 .debug_str     0x0000000000007b82       0x24 build/libconsts.a(const_root2on2.o)
                                        0x18f (size before relaxing)
 .debug_str     0x0000000000007ba6       0x1f build/libconsts.a(const_100.o)
                                        0x185 (size before relaxing)
 .debug_str     0x0000000000007bc5       0x1f build/libconsts.a(const_0_1.o)
                                        0x185 (size before relaxing)
 .debug_str     0x0000000000007be4       0x3e build/libdecNumber.a(decContext.o)
                                        0x25a (size before relaxing)
 .debug_str     0x0000000000007c22      0x418 build/libdecNumber.a(decNumber.o)
                                        0xc8d (size before relaxing)
 .debug_str     0x000000000000803a       0x6c build/libdecNumber.a(decimal128.o)
                                        0x323 (size before relaxing)
 .debug_str     0x00000000000080a6       0x43 build/libdecNumber.a(decimal64.o)
                                        0x397 (size before relaxing)
 .debug_str     0x00000000000080e9       0x1f build/startup_pgm.o
                                         0x37 (size before relaxing)
 .debug_str     0x0000000000008108       0x97 /usr/lib/gcc/arm-none-eabi/9.2.1/thumb/v7e-m+fp/hard/libgcc.a(_aeabi_uldivmod.o)
                                         0xa3 (size before relaxing)
 .debug_str     0x000000000000819f     0x10dc /usr/lib/gcc/arm-none-eabi/9.2.1/thumb/v7e-m+fp/hard/libgcc.a(_udivmoddi4.o)
                                       0x11e6 (size before relaxing)
 .debug_str     0x000000000000927b       0x30 /usr/lib/gcc/arm-none-eabi/9.2.1/thumb/v7e-m+fp/hard/libgcc.a(_dvmd_tls.o)
                                         0xa7 (size before relaxing)
 .debug_str     0x00000000000092ab      0x166 /usr/lib/gcc/arm-none-eabi/9.2.1/../../../arm-none-eabi/lib/thumb/v7e-m+fp/hard/libc.a(lib_a-atexit.o)
                                        0x5eb (size before relaxing)
 .debug_str     0x0000000000009411       0x8e /usr/lib/gcc/arm-none-eabi/9.2.1/../../../arm-none-eabi/lib/thumb/v7e-m+fp/hard/libc.a(lib_a-errno.o)
                                        0x5b2 (size before relaxing)
 .debug_str     0x000000000000949f       0xc1 /usr/lib/gcc/arm-none-eabi/9.2.1/../../../arm-none-eabi/lib/thumb/v7e-m+fp/hard/libc.a(lib_a-fini.o)
                                        0x1fa (size before relaxing)
 .debug_str     0x0000000000009560       0x9b /usr/lib/gcc/arm-none-eabi/9.2.1/../../../arm-none-eabi/lib/thumb/v7e-m+fp/hard/libc.a(lib_a-impure.o)
                                        0x5a0 (size before relaxing)
 .debug_str     0x00000000000095fb       0x90 /usr/lib/gcc/arm-none-eabi/9.2.1/../../../arm-none-eabi/lib/thumb/v7e-m+fp/hard/libc.a(lib_a-init.o)
                                        0x224 (size before relaxing)
 .debug_str     0x000000000000968b      0x2f7 /usr/lib/gcc/arm-none-eabi/9.2.1/../../../arm-none-eabi/lib/thumb/v7e-m+fp/hard/libc.a(lib_a-memset.o)
                                        0x8cd (size before relaxing)
 .debug_str     0x0000000000009982      0x208 /usr/lib/gcc/arm-none-eabi/9.2.1/../../../arm-none-eabi/lib/thumb/v7e-m+fp/hard/libc.a(lib_a-perror.o)
                                        0x753 (size before relaxing)
 .debug_str     0x0000000000009b8a       0x6a /usr/lib/gcc/arm-none-eabi/9.2.1/../../../arm-none-eabi/lib/thumb/v7e-m+fp/hard/libc.a(lib_a-sprintf.o)
                                        0x71b (size before relaxing)
 .debug_str     0x0000000000009bf4       0x5e /usr/lib/gcc/arm-none-eabi/9.2.1/../../../arm-none-eabi/lib/thumb/v7e-m+fp/hard/libc.a(lib_a-strerror.o)
                                        0x60b (size before relaxing)
 .debug_str     0x0000000000009c52       0xa4 /usr/lib/gcc/arm-none-eabi/9.2.1/../../../arm-none-eabi/lib/thumb/v7e-m+fp/hard/libc.a(lib_a-strlen.o)
                                         0xb0 (size before relaxing)
 .debug_str     0x0000000000009cf6       0x57 /usr/lib/gcc/arm-none-eabi/9.2.1/../../../arm-none-eabi/lib/thumb/v7e-m+fp/hard/libc.a(lib_a-strncpy.o)
                                        0x5ce (size before relaxing)
 .debug_str     0x0000000000009d4d      0x1e7 /usr/lib/gcc/arm-none-eabi/9.2.1/../../../arm-none-eabi/lib/thumb/v7e-m+fp/hard/libc.a(lib_a-svfprintf.o)
                                        0xc6b (size before relaxing)
 .debug_str     0x0000000000009f34       0x36 /usr/lib/gcc/arm-none-eabi/9.2.1/../../../arm-none-eabi/lib/thumb/v7e-m+fp/hard/libc.a(lib_a-u_strerr.o)
                                        0x14f (size before relaxing)
 .debug_str     0x0000000000009f6a       0x33 /usr/lib/gcc/arm-none-eabi/9.2.1/../../../arm-none-eabi/lib/thumb/v7e-m+fp/hard/libc.a(lib_a-writer.o)
                                        0x5e0 (size before relaxing)
 .debug_str     0x0000000000009f9d       0x4f /usr/lib/gcc/arm-none-eabi/9.2.1/../../../arm-none-eabi/lib/thumb/v7e-m+fp/hard/libc.a(lib_a-__atexit.o)
                                        0x609 (size before relaxing)
 .debug_str     0x0000000000009fec       0x74 /usr/lib/gcc/arm-none-eabi/9.2.1/../../../arm-none-eabi/lib/thumb/v7e-m+fp/hard/libc.a(lib_a-__call_atexit.o)
                                        0x61c (size before relaxing)
 .debug_str     0x000000000000a060       0x8f /usr/lib/gcc/arm-none-eabi/9.2.1/../../../arm-none-eabi/lib/thumb/v7e-m+fp/hard/libc.a(lib_a-ctype_.o)
                                        0x8b8 (size before relaxing)
 .debug_str     0x000000000000a0ef      0x172 /usr/lib/gcc/arm-none-eabi/9.2.1/../../../arm-none-eabi/lib/thumb/v7e-m+fp/hard/libc.a(lib_a-dtoa.o)
                                        0xa9d (size before relaxing)
 .debug_str     0x000000000000a261       0x63 /usr/lib/gcc/arm-none-eabi/9.2.1/../../../arm-none-eabi/lib/thumb/v7e-m+fp/hard/libc.a(lib_a-fflush.o)
                                        0x752 (size before relaxing)
 .debug_str     0x000000000000a2c4       0x33 /usr/lib/gcc/arm-none-eabi/9.2.1/../../../arm-none-eabi/lib/thumb/v7e-m+fp/hard/libc.a(lib_a-fileno.o)
                                        0x711 (size before relaxing)
 .debug_str     0x000000000000a2f7      0x14f /usr/lib/gcc/arm-none-eabi/9.2.1/../../../arm-none-eabi/lib/thumb/v7e-m+fp/hard/libc.a(lib_a-findfp.o)
                                        0x862 (size before relaxing)
 .debug_str     0x000000000000a446       0x41 /usr/lib/gcc/arm-none-eabi/9.2.1/../../../arm-none-eabi/lib/thumb/v7e-m+fp/hard/libc.a(lib_a-fwalk.o)
                                        0x716 (size before relaxing)
 .debug_str     0x000000000000a487       0xf7 /usr/lib/gcc/arm-none-eabi/9.2.1/../../../arm-none-eabi/lib/thumb/v7e-m+fp/hard/libc.a(lib_a-localeconv.o)
                                        0x932 (size before relaxing)
 .debug_str     0x000000000000a57e       0x3c /usr/lib/gcc/arm-none-eabi/9.2.1/../../../arm-none-eabi/lib/thumb/v7e-m+fp/hard/libc.a(lib_a-memchr.o)
                                         0xaa (size before relaxing)
 .debug_str     0x000000000000a5ba       0x43 /usr/lib/gcc/arm-none-eabi/9.2.1/../../../arm-none-eabi/lib/thumb/v7e-m+fp/hard/libc.a(lib_a-memcpy.o)
                                         0xb1 (size before relaxing)
 .debug_str     0x000000000000a5fd       0x83 /usr/lib/gcc/arm-none-eabi/9.2.1/../../../arm-none-eabi/lib/thumb/v7e-m+fp/hard/libc.a(lib_a-mprec.o)
                                        0xa46 (size before relaxing)
 .debug_str     0x000000000000a680       0x5e /usr/lib/gcc/arm-none-eabi/9.2.1/../../../arm-none-eabi/lib/thumb/v7e-m+fp/hard/libc.a(lib_a-reent.o)
                                        0x5dc (size before relaxing)
 .debug_str     0x000000000000a6de       0x80 /usr/lib/gcc/arm-none-eabi/9.2.1/../../../arm-none-eabi/lib/thumb/v7e-m+fp/hard/libc.a(lib_a-stdio.o)
                                        0x76a (size before relaxing)
 .debug_str     0x000000000000a75e       0x25 /usr/lib/gcc/arm-none-eabi/9.2.1/../../../arm-none-eabi/lib/thumb/v7e-m+fp/hard/libc.a(lib_a-svfiprintf.o)
                                        0xbec (size before relaxing)
 .debug_str     0x000000000000a783       0x4e /usr/lib/gcc/arm-none-eabi/9.2.1/../../../arm-none-eabi/lib/thumb/v7e-m+fp/hard/libc.a(lib_a-assert.o)
                                        0x5e0 (size before relaxing)
 .debug_str     0x000000000000a7d1       0x33 /usr/lib/gcc/arm-none-eabi/9.2.1/../../../arm-none-eabi/lib/thumb/v7e-m+fp/hard/libc.a(lib_a-closer.o)
                                        0x5d0 (size before relaxing)
 .debug_str     0x000000000000a804       0x44 /usr/lib/gcc/arm-none-eabi/9.2.1/../../../arm-none-eabi/lib/thumb/v7e-m+fp/hard/libc.a(lib_a-fclose.o)
                                        0x73b (size before relaxing)
 .debug_str     0x000000000000a848       0x4e /usr/lib/gcc/arm-none-eabi/9.2.1/../../../arm-none-eabi/lib/thumb/v7e-m+fp/hard/libc.a(lib_a-fiprintf.o)
                                        0x5e3 (size before relaxing)
 .debug_str     0x000000000000a896       0x7b /usr/lib/gcc/arm-none-eabi/9.2.1/../../../arm-none-eabi/lib/thumb/v7e-m+fp/hard/libc.a(lib_a-locale.o)
                                        0x972 (size before relaxing)
 .debug_str     0x000000000000a911       0x33 /usr/lib/gcc/arm-none-eabi/9.2.1/../../../arm-none-eabi/lib/thumb/v7e-m+fp/hard/libc.a(lib_a-lseekr.o)
                                        0x5de (size before relaxing)
 .debug_str     0x000000000000a944       0x4f /usr/lib/gcc/arm-none-eabi/9.2.1/../../../arm-none-eabi/lib/thumb/v7e-m+fp/hard/libc.a(lib_a-mbtowc_r.o)
                                        0x943 (size before relaxing)
 .debug_str     0x000000000000a993       0x47 /usr/lib/gcc/arm-none-eabi/9.2.1/../../../arm-none-eabi/lib/thumb/v7e-m+fp/hard/libc.a(lib_a-memmove.o)
                                        0x8ec (size before relaxing)
 .debug_str     0x000000000000a9da       0x32 /usr/lib/gcc/arm-none-eabi/9.2.1/../../../arm-none-eabi/lib/thumb/v7e-m+fp/hard/libc.a(lib_a-readr.o)
                                        0x5de (size before relaxing)
 .debug_str     0x000000000000aa0c       0x42 /usr/lib/gcc/arm-none-eabi/9.2.1/../../../arm-none-eabi/lib/thumb/v7e-m+fp/hard/libc.a(lib_a-strcmp.o)
                                         0xb0 (size before relaxing)
 .debug_str     0x000000000000aa4e       0x48 /usr/lib/gcc/arm-none-eabi/9.2.1/../../../arm-none-eabi/lib/thumb/v7e-m+fp/hard/libc.a(lib_a-vfiprintf.o)
                                        0xc1a (size before relaxing)
 .debug_str     0x000000000000aa96       0x56 /usr/lib/gcc/arm-none-eabi/9.2.1/../../../arm-none-eabi/lib/thumb/v7e-m+fp/hard/libc.a(lib_a-wctomb_r.o)
                                        0x94a (size before relaxing)
 .debug_str     0x000000000000aaec       0x40 /usr/lib/gcc/arm-none-eabi/9.2.1/../../../arm-none-eabi/lib/thumb/v7e-m+fp/hard/libc.a(lib_a-wsetup.o)
                                        0x724 (size before relaxing)
 .debug_str     0x000000000000ab2c       0x39 /usr/lib/gcc/arm-none-eabi/9.2.1/../../../arm-none-eabi/lib/thumb/v7e-m+fp/hard/libc.a(lib_a-abort.o)
                                        0x5de (size before relaxing)
 .debug_str     0x000000000000ab65       0x5b /usr/lib/gcc/arm-none-eabi/9.2.1/../../../arm-none-eabi/lib/thumb/v7e-m+fp/hard/libc.a(lib_a-fputwc.o)
                                        0x76a (size before relaxing)
 .debug_str     0x000000000000abc0       0x43 /usr/lib/gcc/arm-none-eabi/9.2.1/../../../arm-none-eabi/lib/thumb/v7e-m+fp/hard/libc.a(lib_a-fvwrite.o)
                                        0x7a3 (size before relaxing)
 .debug_str     0x000000000000ac03       0x6c /usr/lib/gcc/arm-none-eabi/9.2.1/../../../arm-none-eabi/lib/thumb/v7e-m+fp/hard/libc.a(lib_a-makebuf.o)
                                        0x897 (size before relaxing)
 .debug_str     0x000000000000ac6f       0xf7 /usr/lib/gcc/arm-none-eabi/9.2.1/../../../arm-none-eabi/lib/thumb/v7e-m+fp/hard/libc.a(lib_a-signal.o)
                                        0x643 (size before relaxing)
 .debug_str     0x000000000000ad66       0x34 /usr/lib/gcc/arm-none-eabi/9.2.1/../../../arm-none-eabi/lib/thumb/v7e-m+fp/hard/libc.a(lib_a-signalr.o)
                                        0x5e8 (size before relaxing)
 .debug_str     0x000000000000ad9a       0x39 /usr/lib/gcc/arm-none-eabi/9.2.1/../../../arm-none-eabi/lib/thumb/v7e-m+fp/hard/libc.a(lib_a-wbuf.o)
                                        0x729 (size before relaxing)
 .debug_str     0x000000000000add3       0x44 /usr/lib/gcc/arm-none-eabi/9.2.1/../../../arm-none-eabi/lib/thumb/v7e-m+fp/hard/libc.a(lib_a-wcrtomb.o)
                                        0x93d (size before relaxing)
 .debug_str     0x000000000000ae17       0x39 /usr/lib/gcc/arm-none-eabi/9.2.1/../../../arm-none-eabi/lib/thumb/v7e-m+fp/hard/libc.a(lib_a-fstatr.o)
                                        0x73e (size before relaxing)
 .debug_str     0x000000000000ae50       0x34 /usr/lib/gcc/arm-none-eabi/9.2.1/../../../arm-none-eabi/lib/thumb/v7e-m+fp/hard/libc.a(lib_a-isattyr.o)
                                        0x5da (size before relaxing)
 .debug_str     0x000000000000ae84       0x31 /usr/lib/gcc/arm-none-eabi/9.2.1/thumb/v7e-m+fp/hard/libgcc.a(_arm_addsubdf3.o)
                                         0xa8 (size before relaxing)
 .debug_str     0x000000000000aeb5       0xa8 /usr/lib/gcc/arm-none-eabi/9.2.1/thumb/v7e-m+fp/hard/libgcc.a(_arm_muldivdf3.o)
 .debug_str     0x000000000000aeb5       0xa8 /usr/lib/gcc/arm-none-eabi/9.2.1/thumb/v7e-m+fp/hard/libgcc.a(_arm_cmpdf2.o)
 .debug_str     0x000000000000aeb5       0xa8 /usr/lib/gcc/arm-none-eabi/9.2.1/thumb/v7e-m+fp/hard/libgcc.a(_arm_unorddf2.o)
 .debug_str     0x000000000000aeb5       0xa8 /usr/lib/gcc/arm-none-eabi/9.2.1/thumb/v7e-m+fp/hard/libgcc.a(_arm_fixdfsi.o)
 .debug_str     0x000000000000aeb5      0x109 /usr/lib/gcc/arm-none-eabi/9.2.1/../../../arm-none-eabi/lib/thumb/v7e-m+fp/hard/libnosys.a(_exit.o)
                                        0x19f (size before relaxing)

.debug_frame    0x0000000000000000     0x8590
 .debug_frame   0x0000000000000000      0x134 build/pgm_syscalls.o
 .debug_frame   0x0000000000000134      0x4f0 build/keys.o
 .debug_frame   0x0000000000000624      0x4c0 build/display.o
 .debug_frame   0x0000000000000ae4     0x1dbc build/xeq.o
 .debug_frame   0x00000000000028a0      0x168 build/prt.o
 .debug_frame   0x0000000000002a08     0x1024 build/decn.o
 .debug_frame   0x0000000000003a2c      0x51c build/complex.o
 .debug_frame   0x0000000000003f48      0x5ac build/stats.o
 .debug_frame   0x00000000000044f4      0x38c build/lcd.o
 .debug_frame   0x0000000000004880      0xa14 build/int.o
 .debug_frame   0x0000000000005294      0x38c build/date.o
 .debug_frame   0x0000000000005620      0x294 build/alpha.o
 .debug_frame   0x00000000000058b4       0x20 build/charmap.o
 .debug_frame   0x00000000000058d4      0x130 build/string.o
 .debug_frame   0x0000000000005a04      0x5b8 build/storage.o
 .debug_frame   0x0000000000005fbc      0x460 build/matrix.o
 .debug_frame   0x000000000000641c       0x74 build/font.o
 .debug_frame   0x0000000000006490      0x354 build/console.o
 .debug_frame   0x00000000000067e4       0x4c build/libdecNumber.a(decContext.o)
 .debug_frame   0x0000000000006830      0x830 build/libdecNumber.a(decNumber.o)
 .debug_frame   0x0000000000007060       0x70 build/libdecNumber.a(decimal128.o)
 .debug_frame   0x00000000000070d0       0xd8 build/libdecNumber.a(decimal64.o)
 .debug_frame   0x00000000000071a8       0x2c /usr/lib/gcc/arm-none-eabi/9.2.1/thumb/v7e-m+fp/hard/libgcc.a(_aeabi_uldivmod.o)
 .debug_frame   0x00000000000071d4       0x34 /usr/lib/gcc/arm-none-eabi/9.2.1/thumb/v7e-m+fp/hard/libgcc.a(_udivmoddi4.o)
 .debug_frame   0x0000000000007208       0x20 /usr/lib/gcc/arm-none-eabi/9.2.1/../../../arm-none-eabi/lib/thumb/v7e-m+fp/hard/libc.a(lib_a-atexit.o)
 .debug_frame   0x0000000000007228       0x20 /usr/lib/gcc/arm-none-eabi/9.2.1/../../../arm-none-eabi/lib/thumb/v7e-m+fp/hard/libc.a(lib_a-errno.o)
 .debug_frame   0x0000000000007248       0x34 /usr/lib/gcc/arm-none-eabi/9.2.1/../../../arm-none-eabi/lib/thumb/v7e-m+fp/hard/libc.a(lib_a-fini.o)
 .debug_frame   0x000000000000727c       0x2c /usr/lib/gcc/arm-none-eabi/9.2.1/../../../arm-none-eabi/lib/thumb/v7e-m+fp/hard/libc.a(lib_a-init.o)
 .debug_frame   0x00000000000072a8       0x38 /usr/lib/gcc/arm-none-eabi/9.2.1/../../../arm-none-eabi/lib/thumb/v7e-m+fp/hard/libc.a(lib_a-memset.o)
 .debug_frame   0x00000000000072e0       0x48 /usr/lib/gcc/arm-none-eabi/9.2.1/../../../arm-none-eabi/lib/thumb/v7e-m+fp/hard/libc.a(lib_a-perror.o)
 .debug_frame   0x0000000000007328       0x80 /usr/lib/gcc/arm-none-eabi/9.2.1/../../../arm-none-eabi/lib/thumb/v7e-m+fp/hard/libc.a(lib_a-sprintf.o)
 .debug_frame   0x00000000000073a8       0x60 /usr/lib/gcc/arm-none-eabi/9.2.1/../../../arm-none-eabi/lib/thumb/v7e-m+fp/hard/libc.a(lib_a-strerror.o)
 .debug_frame   0x0000000000007408       0x38 /usr/lib/gcc/arm-none-eabi/9.2.1/../../../arm-none-eabi/lib/thumb/v7e-m+fp/hard/libc.a(lib_a-strncpy.o)
 .debug_frame   0x0000000000007440       0x40 /usr/lib/gcc/arm-none-eabi/9.2.1/../../../arm-none-eabi/lib/thumb/v7e-m+fp/hard/libc.a(lib_a-svfprintf.o)
 .debug_frame   0x0000000000007480       0x20 /usr/lib/gcc/arm-none-eabi/9.2.1/../../../arm-none-eabi/lib/thumb/v7e-m+fp/hard/libc.a(lib_a-u_strerr.o)
 .debug_frame   0x00000000000074a0       0x2c /usr/lib/gcc/arm-none-eabi/9.2.1/../../../arm-none-eabi/lib/thumb/v7e-m+fp/hard/libc.a(lib_a-writer.o)
 .debug_frame   0x00000000000074cc       0x38 /usr/lib/gcc/arm-none-eabi/9.2.1/../../../arm-none-eabi/lib/thumb/v7e-m+fp/hard/libc.a(lib_a-__atexit.o)
 .debug_frame   0x0000000000007504       0x50 /usr/lib/gcc/arm-none-eabi/9.2.1/../../../arm-none-eabi/lib/thumb/v7e-m+fp/hard/libc.a(lib_a-__call_atexit.o)
 .debug_frame   0x0000000000007554       0x8c /usr/lib/gcc/arm-none-eabi/9.2.1/../../../arm-none-eabi/lib/thumb/v7e-m+fp/hard/libc.a(lib_a-dtoa.o)
 .debug_frame   0x00000000000075e0       0x68 /usr/lib/gcc/arm-none-eabi/9.2.1/../../../arm-none-eabi/lib/thumb/v7e-m+fp/hard/libc.a(lib_a-fflush.o)
 .debug_frame   0x0000000000007648       0x2c /usr/lib/gcc/arm-none-eabi/9.2.1/../../../arm-none-eabi/lib/thumb/v7e-m+fp/hard/libc.a(lib_a-fileno.o)
 .debug_frame   0x0000000000007674      0x120 /usr/lib/gcc/arm-none-eabi/9.2.1/../../../arm-none-eabi/lib/thumb/v7e-m+fp/hard/libc.a(lib_a-findfp.o)
 .debug_frame   0x0000000000007794       0x54 /usr/lib/gcc/arm-none-eabi/9.2.1/../../../arm-none-eabi/lib/thumb/v7e-m+fp/hard/libc.a(lib_a-fwalk.o)
 .debug_frame   0x00000000000077e8       0x40 /usr/lib/gcc/arm-none-eabi/9.2.1/../../../arm-none-eabi/lib/thumb/v7e-m+fp/hard/libc.a(lib_a-localeconv.o)
 .debug_frame   0x0000000000007828      0x268 /usr/lib/gcc/arm-none-eabi/9.2.1/../../../arm-none-eabi/lib/thumb/v7e-m+fp/hard/libc.a(lib_a-mprec.o)
 .debug_frame   0x0000000000007a90       0x60 /usr/lib/gcc/arm-none-eabi/9.2.1/../../../arm-none-eabi/lib/thumb/v7e-m+fp/hard/libc.a(lib_a-reent.o)
 .debug_frame   0x0000000000007af0       0x8c /usr/lib/gcc/arm-none-eabi/9.2.1/../../../arm-none-eabi/lib/thumb/v7e-m+fp/hard/libc.a(lib_a-stdio.o)
 .debug_frame   0x0000000000007b7c       0x74 /usr/lib/gcc/arm-none-eabi/9.2.1/../../../arm-none-eabi/lib/thumb/v7e-m+fp/hard/libc.a(lib_a-svfiprintf.o)
 .debug_frame   0x0000000000007bf0       0x40 /usr/lib/gcc/arm-none-eabi/9.2.1/../../../arm-none-eabi/lib/thumb/v7e-m+fp/hard/libc.a(lib_a-assert.o)
 .debug_frame   0x0000000000007c30       0x2c /usr/lib/gcc/arm-none-eabi/9.2.1/../../../arm-none-eabi/lib/thumb/v7e-m+fp/hard/libc.a(lib_a-closer.o)
 .debug_frame   0x0000000000007c5c       0x3c /usr/lib/gcc/arm-none-eabi/9.2.1/../../../arm-none-eabi/lib/thumb/v7e-m+fp/hard/libc.a(lib_a-fclose.o)
 .debug_frame   0x0000000000007c98       0x70 /usr/lib/gcc/arm-none-eabi/9.2.1/../../../arm-none-eabi/lib/thumb/v7e-m+fp/hard/libc.a(lib_a-fiprintf.o)
 .debug_frame   0x0000000000007d08       0x54 /usr/lib/gcc/arm-none-eabi/9.2.1/../../../arm-none-eabi/lib/thumb/v7e-m+fp/hard/libc.a(lib_a-locale.o)
 .debug_frame   0x0000000000007d5c       0x2c /usr/lib/gcc/arm-none-eabi/9.2.1/../../../arm-none-eabi/lib/thumb/v7e-m+fp/hard/libc.a(lib_a-lseekr.o)
 .debug_frame   0x0000000000007d88       0x4c /usr/lib/gcc/arm-none-eabi/9.2.1/../../../arm-none-eabi/lib/thumb/v7e-m+fp/hard/libc.a(lib_a-mbtowc_r.o)
 .debug_frame   0x0000000000007dd4       0x40 /usr/lib/gcc/arm-none-eabi/9.2.1/../../../arm-none-eabi/lib/thumb/v7e-m+fp/hard/libc.a(lib_a-memmove.o)
 .debug_frame   0x0000000000007e14       0x2c /usr/lib/gcc/arm-none-eabi/9.2.1/../../../arm-none-eabi/lib/thumb/v7e-m+fp/hard/libc.a(lib_a-readr.o)
 .debug_frame   0x0000000000007e40       0x68 /usr/lib/gcc/arm-none-eabi/9.2.1/../../../arm-none-eabi/lib/thumb/v7e-m+fp/hard/libc.a(lib_a-strcmp.o)
 .debug_frame   0x0000000000007ea8       0xc8 /usr/lib/gcc/arm-none-eabi/9.2.1/../../../arm-none-eabi/lib/thumb/v7e-m+fp/hard/libc.a(lib_a-vfiprintf.o)
 .debug_frame   0x0000000000007f70       0x3c /usr/lib/gcc/arm-none-eabi/9.2.1/../../../arm-none-eabi/lib/thumb/v7e-m+fp/hard/libc.a(lib_a-wctomb_r.o)
 .debug_frame   0x0000000000007fac       0x2c /usr/lib/gcc/arm-none-eabi/9.2.1/../../../arm-none-eabi/lib/thumb/v7e-m+fp/hard/libc.a(lib_a-wsetup.o)
 .debug_frame   0x0000000000007fd8       0x28 /usr/lib/gcc/arm-none-eabi/9.2.1/../../../arm-none-eabi/lib/thumb/v7e-m+fp/hard/libc.a(lib_a-abort.o)
 .debug_frame   0x0000000000008000       0x8c /usr/lib/gcc/arm-none-eabi/9.2.1/../../../arm-none-eabi/lib/thumb/v7e-m+fp/hard/libc.a(lib_a-fputwc.o)
 .debug_frame   0x000000000000808c       0x64 /usr/lib/gcc/arm-none-eabi/9.2.1/../../../arm-none-eabi/lib/thumb/v7e-m+fp/hard/libc.a(lib_a-fvwrite.o)
 .debug_frame   0x00000000000080f0       0x64 /usr/lib/gcc/arm-none-eabi/9.2.1/../../../arm-none-eabi/lib/thumb/v7e-m+fp/hard/libc.a(lib_a-makebuf.o)
 .debug_frame   0x0000000000008154       0xe0 /usr/lib/gcc/arm-none-eabi/9.2.1/../../../arm-none-eabi/lib/thumb/v7e-m+fp/hard/libc.a(lib_a-signal.o)
 .debug_frame   0x0000000000008234       0x3c /usr/lib/gcc/arm-none-eabi/9.2.1/../../../arm-none-eabi/lib/thumb/v7e-m+fp/hard/libc.a(lib_a-signalr.o)
 .debug_frame   0x0000000000008270       0x40 /usr/lib/gcc/arm-none-eabi/9.2.1/../../../arm-none-eabi/lib/thumb/v7e-m+fp/hard/libc.a(lib_a-wbuf.o)
 .debug_frame   0x00000000000082b0       0x64 /usr/lib/gcc/arm-none-eabi/9.2.1/../../../arm-none-eabi/lib/thumb/v7e-m+fp/hard/libc.a(lib_a-wcrtomb.o)
 .debug_frame   0x0000000000008314       0x2c /usr/lib/gcc/arm-none-eabi/9.2.1/../../../arm-none-eabi/lib/thumb/v7e-m+fp/hard/libc.a(lib_a-fstatr.o)
 .debug_frame   0x0000000000008340       0x2c /usr/lib/gcc/arm-none-eabi/9.2.1/../../../arm-none-eabi/lib/thumb/v7e-m+fp/hard/libc.a(lib_a-isattyr.o)
 .debug_frame   0x000000000000836c       0xac /usr/lib/gcc/arm-none-eabi/9.2.1/thumb/v7e-m+fp/hard/libgcc.a(_arm_addsubdf3.o)
 .debug_frame   0x0000000000008418       0x50 /usr/lib/gcc/arm-none-eabi/9.2.1/thumb/v7e-m+fp/hard/libgcc.a(_arm_muldivdf3.o)
 .debug_frame   0x0000000000008468       0xc4 /usr/lib/gcc/arm-none-eabi/9.2.1/thumb/v7e-m+fp/hard/libgcc.a(_arm_cmpdf2.o)
 .debug_frame   0x000000000000852c       0x20 /usr/lib/gcc/arm-none-eabi/9.2.1/thumb/v7e-m+fp/hard/libgcc.a(_arm_unorddf2.o)
 .debug_frame   0x000000000000854c       0x24 /usr/lib/gcc/arm-none-eabi/9.2.1/thumb/v7e-m+fp/hard/libgcc.a(_arm_fixdfsi.o)
 .debug_frame   0x0000000000008570       0x20 /usr/lib/gcc/arm-none-eabi/9.2.1/../../../arm-none-eabi/lib/thumb/v7e-m+fp/hard/libnosys.a(_exit.o)

Cross Reference Table

Symbol                                            File
Busy                                              build/xeq.o
COMBEXP                                           build/libdecNumber.a(decimal64.o)
                                                  build/libdecNumber.a(decimal128.o)
COMBMSD                                           build/libdecNumber.a(decimal64.o)
                                                  build/libdecNumber.a(decimal128.o)
Ctx                                               build/xeq.o
                                                  build/complex.o
                                                  build/decn.o
                                                  build/display.o
DIGITS                                            build/display.o
                                                  build/alpha.o
DM42_Ticker                                       build/xeq.o
DispMsg                                           build/display.o
                                                  build/console.o
                                                  build/storage.o
                                                  build/alpha.o
                                                  build/date.o
                                                  build/stats.o
                                                  build/xeq.o
                                                  build/keys.o
DispPlot                                          build/display.o
Error                                             build/xeq.o
GoFast                                            build/keys.o
                                                  build/xeq.o
IntMaxWindow                                      build/display.o
                                                  build/keys.o
IoAnnunciator                                     build/display.o
JustDisplayed                                     build/display.o
                                                  build/console.o
                                                  build/xeq.o
                                                  build/keys.o
JustStopped                                       build/xeq.o
                                                  build/keys.o
LastDisplayedExponent                             build/display.o
LastDisplayedNumber                               build/display.o
LastDisplayedText                                 build/display.o
MID_MENU                                          build/console.o
NonProgrammable                                   build/keys.o
OpCode                                            build/keys.o
                                                  build/xeq.o
OpCodeDisplayPending                              build/keys.o
Pause                                             build/xeq.o
                                                  build/console.o
                                                  build/keys.o
PcWrapped                                         build/xeq.o
                                                  build/keys.o
ProgFree                                          build/xeq.o
                                                  build/storage.o
                                                  build/display.o
Program_Entry                                     build/startup_pgm.o
                                                  build/pgm_syscalls.o
RectPolConv                                       build/xeq.o
                                                  build/console.o
                                                  build/decn.o
                                                  build/display.o
                                                  build/keys.o
RetStk                                            build/xeq.o
RetStkSize                                        build/xeq.o
Running                                           build/xeq.o
                                                  build/console.o
                                                  build/date.o
                                                  build/display.o
                                                  build/keys.o
ShowRPN                                           build/display.o
                                                  build/xeq.o
                                                  build/keys.o
ShowRegister                                      build/xeq.o
                                                  build/alpha.o
                                                  build/display.o
                                                  build/keys.o
SizeStatRegs                                      build/stats.o
                                                  build/storage.o
                                                  build/xeq.o
                                                  build/display.o
StackBase                                         build/xeq.o
                                                  build/stats.o
                                                  build/display.o
StatRegs                                          build/stats.o
StateWhileOn                                      build/storage.o
                                                  build/console.o
                                                  build/alpha.o
                                                  build/prt.o
                                                  build/xeq.o
                                                  build/display.o
                                                  build/keys.o
SvnRevision                                       build/display.o
TraceBuffer                                       build/xeq.o
                                                  build/keys.o
UserLocalRegs                                     build/xeq.o
UserMenu                                          build/console.o
WasDataEntry                                      build/keys.o
                                                  build/display.o
XeqOpCode                                         build/xeq.o
                                                  build/date.o
                                                  build/int.o
                                                  build/decn.o
XisEvenOrOdd                                      build/xeq.o
                                                  build/commands.o
XisInt                                            build/xeq.o
                                                  build/commands.o
XisPrime                                          build/xeq.o
                                                  build/commands.o
XromA2D                                           build/storage.o
                                                  build/xeq.o
XromLocal                                         build/storage.o
                                                  build/xeq.o
XromParams                                        build/storage.o
                                                  build/xeq.o
XromRunning                                       build/xeq.o
XromUserPc                                        build/xeq.o
_Balloc                                           /usr/lib/gcc/arm-none-eabi/9.2.1/../../../arm-none-eabi/lib/thumb/v7e-m+fp/hard/libc.a(lib_a-mprec.o)
                                                  /usr/lib/gcc/arm-none-eabi/9.2.1/../../../arm-none-eabi/lib/thumb/v7e-m+fp/hard/libc.a(lib_a-dtoa.o)
_Bfree                                            /usr/lib/gcc/arm-none-eabi/9.2.1/../../../arm-none-eabi/lib/thumb/v7e-m+fp/hard/libc.a(lib_a-mprec.o)
                                                  /usr/lib/gcc/arm-none-eabi/9.2.1/../../../arm-none-eabi/lib/thumb/v7e-m+fp/hard/libc.a(lib_a-dtoa.o)
_ITM_deregisterTMCloneTable                       /usr/lib/gcc/arm-none-eabi/9.2.1/thumb/v7e-m+fp/hard/crtbegin.o
_ITM_registerTMCloneTable                         /usr/lib/gcc/arm-none-eabi/9.2.1/thumb/v7e-m+fp/hard/crtbegin.o
_PathLocale                                       /usr/lib/gcc/arm-none-eabi/9.2.1/../../../arm-none-eabi/lib/thumb/v7e-m+fp/hard/libc.a(lib_a-locale.o)
__TMC_END__                                       /usr/lib/gcc/arm-none-eabi/9.2.1/thumb/v7e-m+fp/hard/crtend.o
                                                  /usr/lib/gcc/arm-none-eabi/9.2.1/thumb/v7e-m+fp/hard/crtbegin.o
__adddf3                                          /usr/lib/gcc/arm-none-eabi/9.2.1/thumb/v7e-m+fp/hard/libgcc.a(_arm_addsubdf3.o)
__aeabi_cdcmpeq                                   /usr/lib/gcc/arm-none-eabi/9.2.1/thumb/v7e-m+fp/hard/libgcc.a(_arm_cmpdf2.o)
__aeabi_cdcmple                                   /usr/lib/gcc/arm-none-eabi/9.2.1/thumb/v7e-m+fp/hard/libgcc.a(_arm_cmpdf2.o)
__aeabi_cdrcmple                                  /usr/lib/gcc/arm-none-eabi/9.2.1/thumb/v7e-m+fp/hard/libgcc.a(_arm_cmpdf2.o)
__aeabi_d2iz                                      /usr/lib/gcc/arm-none-eabi/9.2.1/thumb/v7e-m+fp/hard/libgcc.a(_arm_fixdfsi.o)
                                                  /usr/lib/gcc/arm-none-eabi/9.2.1/../../../arm-none-eabi/lib/thumb/v7e-m+fp/hard/libc.a(lib_a-dtoa.o)
__aeabi_dadd                                      /usr/lib/gcc/arm-none-eabi/9.2.1/thumb/v7e-m+fp/hard/libgcc.a(_arm_addsubdf3.o)
                                                  /usr/lib/gcc/arm-none-eabi/9.2.1/../../../arm-none-eabi/lib/thumb/v7e-m+fp/hard/libc.a(lib_a-dtoa.o)
__aeabi_dcmpeq                                    /usr/lib/gcc/arm-none-eabi/9.2.1/thumb/v7e-m+fp/hard/libgcc.a(_arm_cmpdf2.o)
                                                  /usr/lib/gcc/arm-none-eabi/9.2.1/../../../arm-none-eabi/lib/thumb/v7e-m+fp/hard/libc.a(lib_a-dtoa.o)
                                                  /usr/lib/gcc/arm-none-eabi/9.2.1/../../../arm-none-eabi/lib/thumb/v7e-m+fp/hard/libc.a(lib_a-svfprintf.o)
__aeabi_dcmpge                                    /usr/lib/gcc/arm-none-eabi/9.2.1/thumb/v7e-m+fp/hard/libgcc.a(_arm_cmpdf2.o)
                                                  /usr/lib/gcc/arm-none-eabi/9.2.1/../../../arm-none-eabi/lib/thumb/v7e-m+fp/hard/libc.a(lib_a-dtoa.o)
__aeabi_dcmpgt                                    /usr/lib/gcc/arm-none-eabi/9.2.1/thumb/v7e-m+fp/hard/libgcc.a(_arm_cmpdf2.o)
                                                  /usr/lib/gcc/arm-none-eabi/9.2.1/../../../arm-none-eabi/lib/thumb/v7e-m+fp/hard/libc.a(lib_a-dtoa.o)
__aeabi_dcmple                                    /usr/lib/gcc/arm-none-eabi/9.2.1/thumb/v7e-m+fp/hard/libgcc.a(_arm_cmpdf2.o)
                                                  /usr/lib/gcc/arm-none-eabi/9.2.1/../../../arm-none-eabi/lib/thumb/v7e-m+fp/hard/libc.a(lib_a-svfprintf.o)
__aeabi_dcmplt                                    /usr/lib/gcc/arm-none-eabi/9.2.1/thumb/v7e-m+fp/hard/libgcc.a(_arm_cmpdf2.o)
                                                  /usr/lib/gcc/arm-none-eabi/9.2.1/../../../arm-none-eabi/lib/thumb/v7e-m+fp/hard/libc.a(lib_a-dtoa.o)
                                                  /usr/lib/gcc/arm-none-eabi/9.2.1/../../../arm-none-eabi/lib/thumb/v7e-m+fp/hard/libc.a(lib_a-svfprintf.o)
__aeabi_dcmpun                                    /usr/lib/gcc/arm-none-eabi/9.2.1/thumb/v7e-m+fp/hard/libgcc.a(_arm_unorddf2.o)
                                                  /usr/lib/gcc/arm-none-eabi/9.2.1/../../../arm-none-eabi/lib/thumb/v7e-m+fp/hard/libc.a(lib_a-svfprintf.o)
__aeabi_ddiv                                      /usr/lib/gcc/arm-none-eabi/9.2.1/thumb/v7e-m+fp/hard/libgcc.a(_arm_muldivdf3.o)
                                                  /usr/lib/gcc/arm-none-eabi/9.2.1/../../../arm-none-eabi/lib/thumb/v7e-m+fp/hard/libc.a(lib_a-mprec.o)
                                                  /usr/lib/gcc/arm-none-eabi/9.2.1/../../../arm-none-eabi/lib/thumb/v7e-m+fp/hard/libc.a(lib_a-dtoa.o)
__aeabi_dmul                                      /usr/lib/gcc/arm-none-eabi/9.2.1/thumb/v7e-m+fp/hard/libgcc.a(_arm_muldivdf3.o)
                                                  /usr/lib/gcc/arm-none-eabi/9.2.1/thumb/v7e-m+fp/hard/libgcc.a(_arm_muldf3.o)
                                                  /usr/lib/gcc/arm-none-eabi/9.2.1/../../../arm-none-eabi/lib/thumb/v7e-m+fp/hard/libc.a(lib_a-mprec.o)
                                                  /usr/lib/gcc/arm-none-eabi/9.2.1/../../../arm-none-eabi/lib/thumb/v7e-m+fp/hard/libc.a(lib_a-dtoa.o)
__aeabi_drsub                                     /usr/lib/gcc/arm-none-eabi/9.2.1/thumb/v7e-m+fp/hard/libgcc.a(_arm_addsubdf3.o)
__aeabi_dsub                                      /usr/lib/gcc/arm-none-eabi/9.2.1/thumb/v7e-m+fp/hard/libgcc.a(_arm_addsubdf3.o)
                                                  /usr/lib/gcc/arm-none-eabi/9.2.1/../../../arm-none-eabi/lib/thumb/v7e-m+fp/hard/libc.a(lib_a-dtoa.o)
__aeabi_f2d                                       /usr/lib/gcc/arm-none-eabi/9.2.1/thumb/v7e-m+fp/hard/libgcc.a(_arm_addsubdf3.o)
__aeabi_i2d                                       /usr/lib/gcc/arm-none-eabi/9.2.1/thumb/v7e-m+fp/hard/libgcc.a(_arm_addsubdf3.o)
                                                  /usr/lib/gcc/arm-none-eabi/9.2.1/../../../arm-none-eabi/lib/thumb/v7e-m+fp/hard/libc.a(lib_a-dtoa.o)
__aeabi_idiv0                                     /usr/lib/gcc/arm-none-eabi/9.2.1/thumb/v7e-m+fp/hard/libgcc.a(_dvmd_tls.o)
__aeabi_l2d                                       /usr/lib/gcc/arm-none-eabi/9.2.1/thumb/v7e-m+fp/hard/libgcc.a(_arm_addsubdf3.o)
__aeabi_ldiv0                                     /usr/lib/gcc/arm-none-eabi/9.2.1/thumb/v7e-m+fp/hard/libgcc.a(_dvmd_tls.o)
                                                  /usr/lib/gcc/arm-none-eabi/9.2.1/thumb/v7e-m+fp/hard/libgcc.a(_aeabi_uldivmod.o)
__aeabi_ui2d                                      /usr/lib/gcc/arm-none-eabi/9.2.1/thumb/v7e-m+fp/hard/libgcc.a(_arm_addsubdf3.o)
                                                  /usr/lib/gcc/arm-none-eabi/9.2.1/../../../arm-none-eabi/lib/thumb/v7e-m+fp/hard/libc.a(lib_a-dtoa.o)
__aeabi_ul2d                                      /usr/lib/gcc/arm-none-eabi/9.2.1/thumb/v7e-m+fp/hard/libgcc.a(_arm_addsubdf3.o)
__aeabi_uldivmod                                  /usr/lib/gcc/arm-none-eabi/9.2.1/thumb/v7e-m+fp/hard/libgcc.a(_aeabi_uldivmod.o)
                                                  /usr/lib/gcc/arm-none-eabi/9.2.1/../../../arm-none-eabi/lib/thumb/v7e-m+fp/hard/libc.a(lib_a-vfiprintf.o)
                                                  /usr/lib/gcc/arm-none-eabi/9.2.1/../../../arm-none-eabi/lib/thumb/v7e-m+fp/hard/libc.a(lib_a-svfiprintf.o)
                                                  /usr/lib/gcc/arm-none-eabi/9.2.1/../../../arm-none-eabi/lib/thumb/v7e-m+fp/hard/libc.a(lib_a-svfprintf.o)
                                                  /usr/lib/gcc/arm-none-eabi/9.2.1/../../../arm-none-eabi/lib/thumb/v7e-m+fp/hard/libc.a(lib_a-strtoull.o)
                                                  build/libdecNumber.a(decNumber.o)
                                                  build/alpha.o
                                                  build/int.o
                                                  build/xeq.o
                                                  build/display.o
__any_on                                          /usr/lib/gcc/arm-none-eabi/9.2.1/../../../arm-none-eabi/lib/thumb/v7e-m+fp/hard/libc.a(lib_a-mprec.o)
__ascii_mbtowc                                    /usr/lib/gcc/arm-none-eabi/9.2.1/../../../arm-none-eabi/lib/thumb/v7e-m+fp/hard/libc.a(lib_a-mbtowc_r.o)
                                                  /usr/lib/gcc/arm-none-eabi/9.2.1/../../../arm-none-eabi/lib/thumb/v7e-m+fp/hard/libc.a(lib_a-locale.o)
__ascii_wctomb                                    /usr/lib/gcc/arm-none-eabi/9.2.1/../../../arm-none-eabi/lib/thumb/v7e-m+fp/hard/libc.a(lib_a-wctomb_r.o)
                                                  /usr/lib/gcc/arm-none-eabi/9.2.1/../../../arm-none-eabi/lib/thumb/v7e-m+fp/hard/libc.a(lib_a-locale.o)
__assert                                          /usr/lib/gcc/arm-none-eabi/9.2.1/../../../arm-none-eabi/lib/thumb/v7e-m+fp/hard/libc.a(lib_a-assert.o)
__assert_func                                     /usr/lib/gcc/arm-none-eabi/9.2.1/../../../arm-none-eabi/lib/thumb/v7e-m+fp/hard/libc.a(lib_a-assert.o)
                                                  /usr/lib/gcc/arm-none-eabi/9.2.1/../../../arm-none-eabi/lib/thumb/v7e-m+fp/hard/libc.a(lib_a-mprec.o)
                                                  /usr/lib/gcc/arm-none-eabi/9.2.1/../../../arm-none-eabi/lib/thumb/v7e-m+fp/hard/libc.a(lib_a-dtoa.o)
__b2d                                             /usr/lib/gcc/arm-none-eabi/9.2.1/../../../arm-none-eabi/lib/thumb/v7e-m+fp/hard/libc.a(lib_a-mprec.o)
__bss_end__                                       /usr/lib/gcc/arm-none-eabi/9.2.1/../../../arm-none-eabi/lib/thumb/v7e-m+fp/hard/crt0.o
__bss_start__                                     /usr/lib/gcc/arm-none-eabi/9.2.1/../../../arm-none-eabi/lib/thumb/v7e-m+fp/hard/crt0.o
__call_exitprocs                                  /usr/lib/gcc/arm-none-eabi/9.2.1/../../../arm-none-eabi/lib/thumb/v7e-m+fp/hard/libc.a(lib_a-__call_atexit.o)
                                                  /usr/lib/gcc/arm-none-eabi/9.2.1/../../../arm-none-eabi/lib/thumb/v7e-m+fp/hard/libc.a(lib_a-exit.o)
__cmpdf2                                          /usr/lib/gcc/arm-none-eabi/9.2.1/thumb/v7e-m+fp/hard/libgcc.a(_arm_cmpdf2.o)
__copybits                                        /usr/lib/gcc/arm-none-eabi/9.2.1/../../../arm-none-eabi/lib/thumb/v7e-m+fp/hard/libc.a(lib_a-mprec.o)
__d2b                                             /usr/lib/gcc/arm-none-eabi/9.2.1/../../../arm-none-eabi/lib/thumb/v7e-m+fp/hard/libc.a(lib_a-mprec.o)
                                                  /usr/lib/gcc/arm-none-eabi/9.2.1/../../../arm-none-eabi/lib/thumb/v7e-m+fp/hard/libc.a(lib_a-dtoa.o)
__deregister_frame_info                           /usr/lib/gcc/arm-none-eabi/9.2.1/thumb/v7e-m+fp/hard/crtbegin.o
__divdf3                                          /usr/lib/gcc/arm-none-eabi/9.2.1/thumb/v7e-m+fp/hard/libgcc.a(_arm_muldivdf3.o)
__dso_handle                                      /usr/lib/gcc/arm-none-eabi/9.2.1/thumb/v7e-m+fp/hard/crtbegin.o
__eqdf2                                           /usr/lib/gcc/arm-none-eabi/9.2.1/thumb/v7e-m+fp/hard/libgcc.a(_arm_cmpdf2.o)
__errno                                           /usr/lib/gcc/arm-none-eabi/9.2.1/../../../arm-none-eabi/lib/thumb/v7e-m+fp/hard/libc.a(lib_a-errno.o)
                                                  build/pgm_syscalls.o
__extendsfdf2                                     /usr/lib/gcc/arm-none-eabi/9.2.1/thumb/v7e-m+fp/hard/libgcc.a(_arm_addsubdf3.o)
__fini_array_end                                  /usr/lib/gcc/arm-none-eabi/9.2.1/../../../arm-none-eabi/lib/thumb/v7e-m+fp/hard/libc.a(lib_a-fini.o)
__fini_array_start                                /usr/lib/gcc/arm-none-eabi/9.2.1/../../../arm-none-eabi/lib/thumb/v7e-m+fp/hard/libc.a(lib_a-fini.o)
__fixdfsi                                         /usr/lib/gcc/arm-none-eabi/9.2.1/thumb/v7e-m+fp/hard/libgcc.a(_arm_fixdfsi.o)
__floatdidf                                       /usr/lib/gcc/arm-none-eabi/9.2.1/thumb/v7e-m+fp/hard/libgcc.a(_arm_addsubdf3.o)
__floatsidf                                       /usr/lib/gcc/arm-none-eabi/9.2.1/thumb/v7e-m+fp/hard/libgcc.a(_arm_addsubdf3.o)
__floatundidf                                     /usr/lib/gcc/arm-none-eabi/9.2.1/thumb/v7e-m+fp/hard/libgcc.a(_arm_addsubdf3.o)
__floatunsidf                                     /usr/lib/gcc/arm-none-eabi/9.2.1/thumb/v7e-m+fp/hard/libgcc.a(_arm_addsubdf3.o)
__fp_lock_all                                     /usr/lib/gcc/arm-none-eabi/9.2.1/../../../arm-none-eabi/lib/thumb/v7e-m+fp/hard/libc.a(lib_a-findfp.o)
__fp_unlock_all                                   /usr/lib/gcc/arm-none-eabi/9.2.1/../../../arm-none-eabi/lib/thumb/v7e-m+fp/hard/libc.a(lib_a-findfp.o)
__fputwc                                          /usr/lib/gcc/arm-none-eabi/9.2.1/../../../arm-none-eabi/lib/thumb/v7e-m+fp/hard/libc.a(lib_a-fputwc.o)
__gedf2                                           /usr/lib/gcc/arm-none-eabi/9.2.1/thumb/v7e-m+fp/hard/libgcc.a(_arm_cmpdf2.o)
__global_locale                                   /usr/lib/gcc/arm-none-eabi/9.2.1/../../../arm-none-eabi/lib/thumb/v7e-m+fp/hard/libc.a(lib_a-locale.o)
                                                  /usr/lib/gcc/arm-none-eabi/9.2.1/../../../arm-none-eabi/lib/thumb/v7e-m+fp/hard/libc.a(lib_a-wcrtomb.o)
                                                  /usr/lib/gcc/arm-none-eabi/9.2.1/../../../arm-none-eabi/lib/thumb/v7e-m+fp/hard/libc.a(lib_a-wctomb_r.o)
                                                  /usr/lib/gcc/arm-none-eabi/9.2.1/../../../arm-none-eabi/lib/thumb/v7e-m+fp/hard/libc.a(lib_a-mbtowc_r.o)
                                                  /usr/lib/gcc/arm-none-eabi/9.2.1/../../../arm-none-eabi/lib/thumb/v7e-m+fp/hard/libc.a(lib_a-localeconv.o)
__gtdf2                                           /usr/lib/gcc/arm-none-eabi/9.2.1/thumb/v7e-m+fp/hard/libgcc.a(_arm_cmpdf2.o)
__hi0bits                                         /usr/lib/gcc/arm-none-eabi/9.2.1/../../../arm-none-eabi/lib/thumb/v7e-m+fp/hard/libc.a(lib_a-mprec.o)
                                                  /usr/lib/gcc/arm-none-eabi/9.2.1/../../../arm-none-eabi/lib/thumb/v7e-m+fp/hard/libc.a(lib_a-dtoa.o)
__i2b                                             /usr/lib/gcc/arm-none-eabi/9.2.1/../../../arm-none-eabi/lib/thumb/v7e-m+fp/hard/libc.a(lib_a-mprec.o)
                                                  /usr/lib/gcc/arm-none-eabi/9.2.1/../../../arm-none-eabi/lib/thumb/v7e-m+fp/hard/libc.a(lib_a-dtoa.o)
__init_array_end                                  /usr/lib/gcc/arm-none-eabi/9.2.1/../../../arm-none-eabi/lib/thumb/v7e-m+fp/hard/libc.a(lib_a-init.o)
__init_array_start                                /usr/lib/gcc/arm-none-eabi/9.2.1/../../../arm-none-eabi/lib/thumb/v7e-m+fp/hard/libc.a(lib_a-init.o)
__ledf2                                           /usr/lib/gcc/arm-none-eabi/9.2.1/thumb/v7e-m+fp/hard/libgcc.a(_arm_cmpdf2.o)
__libc_fini                                       /usr/lib/gcc/arm-none-eabi/9.2.1/../../../arm-none-eabi/lib/thumb/v7e-m+fp/hard/libc.a(lib_a-__call_atexit.o)
__libc_fini_array                                 /usr/lib/gcc/arm-none-eabi/9.2.1/../../../arm-none-eabi/lib/thumb/v7e-m+fp/hard/libc.a(lib_a-fini.o)
                                                  /usr/lib/gcc/arm-none-eabi/9.2.1/../../../arm-none-eabi/lib/thumb/v7e-m+fp/hard/libc.a(lib_a-__call_atexit.o)
                                                  /usr/lib/gcc/arm-none-eabi/9.2.1/../../../arm-none-eabi/lib/thumb/v7e-m+fp/hard/crt0.o
__libc_init_array                                 /usr/lib/gcc/arm-none-eabi/9.2.1/../../../arm-none-eabi/lib/thumb/v7e-m+fp/hard/libc.a(lib_a-init.o)
                                                  build/startup_pgm.o
                                                  /usr/lib/gcc/arm-none-eabi/9.2.1/../../../arm-none-eabi/lib/thumb/v7e-m+fp/hard/crt0.o
__lo0bits                                         /usr/lib/gcc/arm-none-eabi/9.2.1/../../../arm-none-eabi/lib/thumb/v7e-m+fp/hard/libc.a(lib_a-mprec.o)
__locale_mb_cur_max                               /usr/lib/gcc/arm-none-eabi/9.2.1/../../../arm-none-eabi/lib/thumb/v7e-m+fp/hard/libc.a(lib_a-locale.o)
                                                  /usr/lib/gcc/arm-none-eabi/9.2.1/../../../arm-none-eabi/lib/thumb/v7e-m+fp/hard/libc.a(lib_a-fputwc.o)
__localeconv_l                                    /usr/lib/gcc/arm-none-eabi/9.2.1/../../../arm-none-eabi/lib/thumb/v7e-m+fp/hard/libc.a(lib_a-localeconv.o)
__lshift                                          /usr/lib/gcc/arm-none-eabi/9.2.1/../../../arm-none-eabi/lib/thumb/v7e-m+fp/hard/libc.a(lib_a-mprec.o)
                                                  /usr/lib/gcc/arm-none-eabi/9.2.1/../../../arm-none-eabi/lib/thumb/v7e-m+fp/hard/libc.a(lib_a-dtoa.o)
__ltdf2                                           /usr/lib/gcc/arm-none-eabi/9.2.1/thumb/v7e-m+fp/hard/libgcc.a(_arm_cmpdf2.o)
__mcmp                                            /usr/lib/gcc/arm-none-eabi/9.2.1/../../../arm-none-eabi/lib/thumb/v7e-m+fp/hard/libc.a(lib_a-mprec.o)
                                                  /usr/lib/gcc/arm-none-eabi/9.2.1/../../../arm-none-eabi/lib/thumb/v7e-m+fp/hard/libc.a(lib_a-dtoa.o)
__mdiff                                           /usr/lib/gcc/arm-none-eabi/9.2.1/../../../arm-none-eabi/lib/thumb/v7e-m+fp/hard/libc.a(lib_a-mprec.o)
                                                  /usr/lib/gcc/arm-none-eabi/9.2.1/../../../arm-none-eabi/lib/thumb/v7e-m+fp/hard/libc.a(lib_a-dtoa.o)
__mprec_bigtens                                   /usr/lib/gcc/arm-none-eabi/9.2.1/../../../arm-none-eabi/lib/thumb/v7e-m+fp/hard/libc.a(lib_a-mprec.o)
                                                  /usr/lib/gcc/arm-none-eabi/9.2.1/../../../arm-none-eabi/lib/thumb/v7e-m+fp/hard/libc.a(lib_a-dtoa.o)
__mprec_tens                                      /usr/lib/gcc/arm-none-eabi/9.2.1/../../../arm-none-eabi/lib/thumb/v7e-m+fp/hard/libc.a(lib_a-mprec.o)
                                                  /usr/lib/gcc/arm-none-eabi/9.2.1/../../../arm-none-eabi/lib/thumb/v7e-m+fp/hard/libc.a(lib_a-dtoa.o)
__mprec_tinytens                                  /usr/lib/gcc/arm-none-eabi/9.2.1/../../../arm-none-eabi/lib/thumb/v7e-m+fp/hard/libc.a(lib_a-mprec.o)
__muldf3                                          /usr/lib/gcc/arm-none-eabi/9.2.1/thumb/v7e-m+fp/hard/libgcc.a(_arm_muldivdf3.o)
                                                  /usr/lib/gcc/arm-none-eabi/9.2.1/thumb/v7e-m+fp/hard/libgcc.a(_arm_muldf3.o)
__multadd                                         /usr/lib/gcc/arm-none-eabi/9.2.1/../../../arm-none-eabi/lib/thumb/v7e-m+fp/hard/libc.a(lib_a-mprec.o)
                                                  /usr/lib/gcc/arm-none-eabi/9.2.1/../../../arm-none-eabi/lib/thumb/v7e-m+fp/hard/libc.a(lib_a-dtoa.o)
__multiply                                        /usr/lib/gcc/arm-none-eabi/9.2.1/../../../arm-none-eabi/lib/thumb/v7e-m+fp/hard/libc.a(lib_a-mprec.o)
                                                  /usr/lib/gcc/arm-none-eabi/9.2.1/../../../arm-none-eabi/lib/thumb/v7e-m+fp/hard/libc.a(lib_a-dtoa.o)
__nedf2                                           /usr/lib/gcc/arm-none-eabi/9.2.1/thumb/v7e-m+fp/hard/libgcc.a(_arm_cmpdf2.o)
__pow5mult                                        /usr/lib/gcc/arm-none-eabi/9.2.1/../../../arm-none-eabi/lib/thumb/v7e-m+fp/hard/libc.a(lib_a-mprec.o)
                                                  /usr/lib/gcc/arm-none-eabi/9.2.1/../../../arm-none-eabi/lib/thumb/v7e-m+fp/hard/libc.a(lib_a-dtoa.o)
__preinit_array_end                               /usr/lib/gcc/arm-none-eabi/9.2.1/../../../arm-none-eabi/lib/thumb/v7e-m+fp/hard/libc.a(lib_a-init.o)
__preinit_array_start                             /usr/lib/gcc/arm-none-eabi/9.2.1/../../../arm-none-eabi/lib/thumb/v7e-m+fp/hard/libc.a(lib_a-init.o)
__ratio                                           /usr/lib/gcc/arm-none-eabi/9.2.1/../../../arm-none-eabi/lib/thumb/v7e-m+fp/hard/libc.a(lib_a-mprec.o)
__register_exitproc                               /usr/lib/gcc/arm-none-eabi/9.2.1/../../../arm-none-eabi/lib/thumb/v7e-m+fp/hard/libc.a(lib_a-__atexit.o)
                                                  /usr/lib/gcc/arm-none-eabi/9.2.1/../../../arm-none-eabi/lib/thumb/v7e-m+fp/hard/libc.a(lib_a-atexit.o)
__register_frame_info                             /usr/lib/gcc/arm-none-eabi/9.2.1/thumb/v7e-m+fp/hard/crtbegin.o
__s2b                                             /usr/lib/gcc/arm-none-eabi/9.2.1/../../../arm-none-eabi/lib/thumb/v7e-m+fp/hard/libc.a(lib_a-mprec.o)
__sclose                                          /usr/lib/gcc/arm-none-eabi/9.2.1/../../../arm-none-eabi/lib/thumb/v7e-m+fp/hard/libc.a(lib_a-stdio.o)
                                                  /usr/lib/gcc/arm-none-eabi/9.2.1/../../../arm-none-eabi/lib/thumb/v7e-m+fp/hard/libc.a(lib_a-findfp.o)
__seofread                                        /usr/lib/gcc/arm-none-eabi/9.2.1/../../../arm-none-eabi/lib/thumb/v7e-m+fp/hard/libc.a(lib_a-stdio.o)
__sflush_r                                        /usr/lib/gcc/arm-none-eabi/9.2.1/../../../arm-none-eabi/lib/thumb/v7e-m+fp/hard/libc.a(lib_a-fflush.o)
                                                  /usr/lib/gcc/arm-none-eabi/9.2.1/../../../arm-none-eabi/lib/thumb/v7e-m+fp/hard/libc.a(lib_a-fclose.o)
__sfmoreglue                                      /usr/lib/gcc/arm-none-eabi/9.2.1/../../../arm-none-eabi/lib/thumb/v7e-m+fp/hard/libc.a(lib_a-findfp.o)
__sfp                                             /usr/lib/gcc/arm-none-eabi/9.2.1/../../../arm-none-eabi/lib/thumb/v7e-m+fp/hard/libc.a(lib_a-findfp.o)
__sfp_lock_acquire                                /usr/lib/gcc/arm-none-eabi/9.2.1/../../../arm-none-eabi/lib/thumb/v7e-m+fp/hard/libc.a(lib_a-findfp.o)
                                                  /usr/lib/gcc/arm-none-eabi/9.2.1/../../../arm-none-eabi/lib/thumb/v7e-m+fp/hard/libc.a(lib_a-fclose.o)
__sfp_lock_release                                /usr/lib/gcc/arm-none-eabi/9.2.1/../../../arm-none-eabi/lib/thumb/v7e-m+fp/hard/libc.a(lib_a-findfp.o)
                                                  /usr/lib/gcc/arm-none-eabi/9.2.1/../../../arm-none-eabi/lib/thumb/v7e-m+fp/hard/libc.a(lib_a-fclose.o)
__sfvwrite_r                                      /usr/lib/gcc/arm-none-eabi/9.2.1/../../../arm-none-eabi/lib/thumb/v7e-m+fp/hard/libc.a(lib_a-fvwrite.o)
                                                  /usr/lib/gcc/arm-none-eabi/9.2.1/../../../arm-none-eabi/lib/thumb/v7e-m+fp/hard/libc.a(lib_a-vfiprintf.o)
__sigtramp                                        /usr/lib/gcc/arm-none-eabi/9.2.1/../../../arm-none-eabi/lib/thumb/v7e-m+fp/hard/libc.a(lib_a-signal.o)
__sigtramp_r                                      /usr/lib/gcc/arm-none-eabi/9.2.1/../../../arm-none-eabi/lib/thumb/v7e-m+fp/hard/libc.a(lib_a-signal.o)
__sinit                                           /usr/lib/gcc/arm-none-eabi/9.2.1/../../../arm-none-eabi/lib/thumb/v7e-m+fp/hard/libc.a(lib_a-findfp.o)
                                                  /usr/lib/gcc/arm-none-eabi/9.2.1/../../../arm-none-eabi/lib/thumb/v7e-m+fp/hard/libc.a(lib_a-wbuf.o)
                                                  /usr/lib/gcc/arm-none-eabi/9.2.1/../../../arm-none-eabi/lib/thumb/v7e-m+fp/hard/libc.a(lib_a-fputwc.o)
                                                  /usr/lib/gcc/arm-none-eabi/9.2.1/../../../arm-none-eabi/lib/thumb/v7e-m+fp/hard/libc.a(lib_a-wsetup.o)
                                                  /usr/lib/gcc/arm-none-eabi/9.2.1/../../../arm-none-eabi/lib/thumb/v7e-m+fp/hard/libc.a(lib_a-vfiprintf.o)
                                                  /usr/lib/gcc/arm-none-eabi/9.2.1/../../../arm-none-eabi/lib/thumb/v7e-m+fp/hard/libc.a(lib_a-fclose.o)
                                                  /usr/lib/gcc/arm-none-eabi/9.2.1/../../../arm-none-eabi/lib/thumb/v7e-m+fp/hard/libc.a(lib_a-fileno.o)
                                                  /usr/lib/gcc/arm-none-eabi/9.2.1/../../../arm-none-eabi/lib/thumb/v7e-m+fp/hard/libc.a(lib_a-fflush.o)
                                                  /usr/lib/gcc/arm-none-eabi/9.2.1/../../../arm-none-eabi/lib/thumb/v7e-m+fp/hard/libc.a(lib_a-perror.o)
__sinit_lock_acquire                              /usr/lib/gcc/arm-none-eabi/9.2.1/../../../arm-none-eabi/lib/thumb/v7e-m+fp/hard/libc.a(lib_a-findfp.o)
__sinit_lock_release                              /usr/lib/gcc/arm-none-eabi/9.2.1/../../../arm-none-eabi/lib/thumb/v7e-m+fp/hard/libc.a(lib_a-findfp.o)
__smakebuf_r                                      /usr/lib/gcc/arm-none-eabi/9.2.1/../../../arm-none-eabi/lib/thumb/v7e-m+fp/hard/libc.a(lib_a-makebuf.o)
                                                  /usr/lib/gcc/arm-none-eabi/9.2.1/../../../arm-none-eabi/lib/thumb/v7e-m+fp/hard/libc.a(lib_a-wsetup.o)
__sprint_r                                        /usr/lib/gcc/arm-none-eabi/9.2.1/../../../arm-none-eabi/lib/thumb/v7e-m+fp/hard/libc.a(lib_a-vfiprintf.o)
__sread                                           /usr/lib/gcc/arm-none-eabi/9.2.1/../../../arm-none-eabi/lib/thumb/v7e-m+fp/hard/libc.a(lib_a-stdio.o)
                                                  /usr/lib/gcc/arm-none-eabi/9.2.1/../../../arm-none-eabi/lib/thumb/v7e-m+fp/hard/libc.a(lib_a-findfp.o)
__sseek                                           /usr/lib/gcc/arm-none-eabi/9.2.1/../../../arm-none-eabi/lib/thumb/v7e-m+fp/hard/libc.a(lib_a-stdio.o)
                                                  /usr/lib/gcc/arm-none-eabi/9.2.1/../../../arm-none-eabi/lib/thumb/v7e-m+fp/hard/libc.a(lib_a-findfp.o)
__ssprint_r                                       /usr/lib/gcc/arm-none-eabi/9.2.1/../../../arm-none-eabi/lib/thumb/v7e-m+fp/hard/libc.a(lib_a-svfiprintf.o)
                                                  /usr/lib/gcc/arm-none-eabi/9.2.1/../../../arm-none-eabi/lib/thumb/v7e-m+fp/hard/libc.a(lib_a-svfprintf.o)
__stack                                           /usr/lib/gcc/arm-none-eabi/9.2.1/../../../arm-none-eabi/lib/thumb/v7e-m+fp/hard/crt0.o
__strtok_r                                        /usr/lib/gcc/arm-none-eabi/9.2.1/../../../arm-none-eabi/lib/thumb/v7e-m+fp/hard/libc.a(lib_a-strtok_r.o)
                                                  /usr/lib/gcc/arm-none-eabi/9.2.1/../../../arm-none-eabi/lib/thumb/v7e-m+fp/hard/libc.a(lib_a-strtok.o)
__subdf3                                          /usr/lib/gcc/arm-none-eabi/9.2.1/thumb/v7e-m+fp/hard/libgcc.a(_arm_addsubdf3.o)
__swbuf                                           /usr/lib/gcc/arm-none-eabi/9.2.1/../../../arm-none-eabi/lib/thumb/v7e-m+fp/hard/libc.a(lib_a-wbuf.o)
__swbuf_r                                         /usr/lib/gcc/arm-none-eabi/9.2.1/../../../arm-none-eabi/lib/thumb/v7e-m+fp/hard/libc.a(lib_a-wbuf.o)
                                                  /usr/lib/gcc/arm-none-eabi/9.2.1/../../../arm-none-eabi/lib/thumb/v7e-m+fp/hard/libc.a(lib_a-fputwc.o)
__swhatbuf_r                                      /usr/lib/gcc/arm-none-eabi/9.2.1/../../../arm-none-eabi/lib/thumb/v7e-m+fp/hard/libc.a(lib_a-makebuf.o)
__swrite                                          /usr/lib/gcc/arm-none-eabi/9.2.1/../../../arm-none-eabi/lib/thumb/v7e-m+fp/hard/libc.a(lib_a-stdio.o)
                                                  /usr/lib/gcc/arm-none-eabi/9.2.1/../../../arm-none-eabi/lib/thumb/v7e-m+fp/hard/libc.a(lib_a-findfp.o)
__swsetup_r                                       /usr/lib/gcc/arm-none-eabi/9.2.1/../../../arm-none-eabi/lib/thumb/v7e-m+fp/hard/libc.a(lib_a-wsetup.o)
                                                  /usr/lib/gcc/arm-none-eabi/9.2.1/../../../arm-none-eabi/lib/thumb/v7e-m+fp/hard/libc.a(lib_a-wbuf.o)
                                                  /usr/lib/gcc/arm-none-eabi/9.2.1/../../../arm-none-eabi/lib/thumb/v7e-m+fp/hard/libc.a(lib_a-fvwrite.o)
                                                  /usr/lib/gcc/arm-none-eabi/9.2.1/../../../arm-none-eabi/lib/thumb/v7e-m+fp/hard/libc.a(lib_a-vfiprintf.o)
__udivmoddi4                                      /usr/lib/gcc/arm-none-eabi/9.2.1/thumb/v7e-m+fp/hard/libgcc.a(_udivmoddi4.o)
                                                  /usr/lib/gcc/arm-none-eabi/9.2.1/thumb/v7e-m+fp/hard/libgcc.a(_aeabi_uldivmod.o)
__ulp                                             /usr/lib/gcc/arm-none-eabi/9.2.1/../../../arm-none-eabi/lib/thumb/v7e-m+fp/hard/libc.a(lib_a-mprec.o)
__unorddf2                                        /usr/lib/gcc/arm-none-eabi/9.2.1/thumb/v7e-m+fp/hard/libgcc.a(_arm_unorddf2.o)
__wrap__malloc_r                                  build/pgm_syscalls.o
                                                  /usr/lib/gcc/arm-none-eabi/9.2.1/../../../arm-none-eabi/lib/thumb/v7e-m+fp/hard/libc.a(lib_a-signal.o)
                                                  /usr/lib/gcc/arm-none-eabi/9.2.1/../../../arm-none-eabi/lib/thumb/v7e-m+fp/hard/libc.a(lib_a-makebuf.o)
                                                  /usr/lib/gcc/arm-none-eabi/9.2.1/../../../arm-none-eabi/lib/thumb/v7e-m+fp/hard/libc.a(lib_a-fvwrite.o)
                                                  /usr/lib/gcc/arm-none-eabi/9.2.1/../../../arm-none-eabi/lib/thumb/v7e-m+fp/hard/libc.a(lib_a-svfiprintf.o)
                                                  /usr/lib/gcc/arm-none-eabi/9.2.1/../../../arm-none-eabi/lib/thumb/v7e-m+fp/hard/libc.a(lib_a-findfp.o)
                                                  /usr/lib/gcc/arm-none-eabi/9.2.1/../../../arm-none-eabi/lib/thumb/v7e-m+fp/hard/libc.a(lib_a-svfprintf.o)
                                                  /usr/lib/gcc/arm-none-eabi/9.2.1/../../../arm-none-eabi/lib/thumb/v7e-m+fp/hard/libc.a(lib_a-strdup_r.o)
_calloc_r                                         build/pgm_syscalls.o
                                                  /usr/lib/gcc/arm-none-eabi/9.2.1/../../../arm-none-eabi/lib/thumb/v7e-m+fp/hard/libc.a(lib_a-mprec.o)
_cleanup                                          /usr/lib/gcc/arm-none-eabi/9.2.1/../../../arm-none-eabi/lib/thumb/v7e-m+fp/hard/libc.a(lib_a-findfp.o)
_cleanup_r                                        /usr/lib/gcc/arm-none-eabi/9.2.1/../../../arm-none-eabi/lib/thumb/v7e-m+fp/hard/libc.a(lib_a-findfp.o)
                                                  /usr/lib/gcc/arm-none-eabi/9.2.1/../../../arm-none-eabi/lib/thumb/v7e-m+fp/hard/libc.a(lib_a-makebuf.o)
_close                                            build/pgm_syscalls.o
                                                  /usr/lib/gcc/arm-none-eabi/9.2.1/../../../arm-none-eabi/lib/thumb/v7e-m+fp/hard/libc.a(lib_a-closer.o)
_close_r                                          /usr/lib/gcc/arm-none-eabi/9.2.1/../../../arm-none-eabi/lib/thumb/v7e-m+fp/hard/libc.a(lib_a-closer.o)
                                                  /usr/lib/gcc/arm-none-eabi/9.2.1/../../../arm-none-eabi/lib/thumb/v7e-m+fp/hard/libc.a(lib_a-stdio.o)
_ctype_                                           /usr/lib/gcc/arm-none-eabi/9.2.1/../../../arm-none-eabi/lib/thumb/v7e-m+fp/hard/libc.a(lib_a-ctype_.o)
                                                  /usr/lib/gcc/arm-none-eabi/9.2.1/../../../arm-none-eabi/lib/thumb/v7e-m+fp/hard/libc.a(lib_a-locale.o)
                                                  /usr/lib/gcc/arm-none-eabi/9.2.1/../../../arm-none-eabi/lib/thumb/v7e-m+fp/hard/libc.a(lib_a-strtoull.o)
_dtoa_r                                           /usr/lib/gcc/arm-none-eabi/9.2.1/../../../arm-none-eabi/lib/thumb/v7e-m+fp/hard/libc.a(lib_a-dtoa.o)
                                                  /usr/lib/gcc/arm-none-eabi/9.2.1/../../../arm-none-eabi/lib/thumb/v7e-m+fp/hard/libc.a(lib_a-svfprintf.o)
_ebss                                             build/startup_pgm.o
_edata                                            build/startup_pgm.o
_exit                                             /usr/lib/gcc/arm-none-eabi/9.2.1/../../../arm-none-eabi/lib/thumb/v7e-m+fp/hard/libnosys.a(_exit.o)
                                                  /usr/lib/gcc/arm-none-eabi/9.2.1/../../../arm-none-eabi/lib/thumb/v7e-m+fp/hard/libc.a(lib_a-abort.o)
                                                  /usr/lib/gcc/arm-none-eabi/9.2.1/../../../arm-none-eabi/lib/thumb/v7e-m+fp/hard/libc.a(lib_a-exit.o)
_fclose_r                                         /usr/lib/gcc/arm-none-eabi/9.2.1/../../../arm-none-eabi/lib/thumb/v7e-m+fp/hard/libc.a(lib_a-fclose.o)
                                                  /usr/lib/gcc/arm-none-eabi/9.2.1/../../../arm-none-eabi/lib/thumb/v7e-m+fp/hard/libc.a(lib_a-findfp.o)
_fflush_r                                         /usr/lib/gcc/arm-none-eabi/9.2.1/../../../arm-none-eabi/lib/thumb/v7e-m+fp/hard/libc.a(lib_a-fflush.o)
                                                  /usr/lib/gcc/arm-none-eabi/9.2.1/../../../arm-none-eabi/lib/thumb/v7e-m+fp/hard/libc.a(lib_a-wbuf.o)
                                                  /usr/lib/gcc/arm-none-eabi/9.2.1/../../../arm-none-eabi/lib/thumb/v7e-m+fp/hard/libc.a(lib_a-fvwrite.o)
                                                  /usr/lib/gcc/arm-none-eabi/9.2.1/../../../arm-none-eabi/lib/thumb/v7e-m+fp/hard/libc.a(lib_a-vfiprintf.o)
                                                  /usr/lib/gcc/arm-none-eabi/9.2.1/../../../arm-none-eabi/lib/thumb/v7e-m+fp/hard/libc.a(lib_a-perror.o)
_fini                                             /usr/lib/gcc/arm-none-eabi/9.2.1/thumb/v7e-m+fp/hard/crti.o
                                                  /usr/lib/gcc/arm-none-eabi/9.2.1/../../../arm-none-eabi/lib/thumb/v7e-m+fp/hard/libc.a(lib_a-fini.o)
_fiprintf_r                                       /usr/lib/gcc/arm-none-eabi/9.2.1/../../../arm-none-eabi/lib/thumb/v7e-m+fp/hard/libc.a(lib_a-fiprintf.o)
_fputwc_r                                         /usr/lib/gcc/arm-none-eabi/9.2.1/../../../arm-none-eabi/lib/thumb/v7e-m+fp/hard/libc.a(lib_a-fputwc.o)
                                                  /usr/lib/gcc/arm-none-eabi/9.2.1/../../../arm-none-eabi/lib/thumb/v7e-m+fp/hard/libc.a(lib_a-vfiprintf.o)
_free_r                                           build/pgm_syscalls.o
                                                  /usr/lib/gcc/arm-none-eabi/9.2.1/../../../arm-none-eabi/lib/thumb/v7e-m+fp/hard/libc.a(lib_a-fvwrite.o)
                                                  /usr/lib/gcc/arm-none-eabi/9.2.1/../../../arm-none-eabi/lib/thumb/v7e-m+fp/hard/libc.a(lib_a-wsetup.o)
                                                  /usr/lib/gcc/arm-none-eabi/9.2.1/../../../arm-none-eabi/lib/thumb/v7e-m+fp/hard/libc.a(lib_a-fclose.o)
                                                  /usr/lib/gcc/arm-none-eabi/9.2.1/../../../arm-none-eabi/lib/thumb/v7e-m+fp/hard/libc.a(lib_a-svfiprintf.o)
                                                  /usr/lib/gcc/arm-none-eabi/9.2.1/../../../arm-none-eabi/lib/thumb/v7e-m+fp/hard/libc.a(lib_a-reent.o)
                                                  /usr/lib/gcc/arm-none-eabi/9.2.1/../../../arm-none-eabi/lib/thumb/v7e-m+fp/hard/libc.a(lib_a-fflush.o)
_fstat                                            build/pgm_syscalls.o
                                                  /usr/lib/gcc/arm-none-eabi/9.2.1/../../../arm-none-eabi/lib/thumb/v7e-m+fp/hard/libc.a(lib_a-fstatr.o)
_fstat_r                                          /usr/lib/gcc/arm-none-eabi/9.2.1/../../../arm-none-eabi/lib/thumb/v7e-m+fp/hard/libc.a(lib_a-fstatr.o)
                                                  /usr/lib/gcc/arm-none-eabi/9.2.1/../../../arm-none-eabi/lib/thumb/v7e-m+fp/hard/libc.a(lib_a-makebuf.o)
_fwalk                                            /usr/lib/gcc/arm-none-eabi/9.2.1/../../../arm-none-eabi/lib/thumb/v7e-m+fp/hard/libc.a(lib_a-fwalk.o)
                                                  /usr/lib/gcc/arm-none-eabi/9.2.1/../../../arm-none-eabi/lib/thumb/v7e-m+fp/hard/libc.a(lib_a-findfp.o)
_fwalk_reent                                      /usr/lib/gcc/arm-none-eabi/9.2.1/../../../arm-none-eabi/lib/thumb/v7e-m+fp/hard/libc.a(lib_a-fwalk.o)
                                                  /usr/lib/gcc/arm-none-eabi/9.2.1/../../../arm-none-eabi/lib/thumb/v7e-m+fp/hard/libc.a(lib_a-findfp.o)
                                                  /usr/lib/gcc/arm-none-eabi/9.2.1/../../../arm-none-eabi/lib/thumb/v7e-m+fp/hard/libc.a(lib_a-fflush.o)
_getpid                                           build/pgm_syscalls.o
                                                  /usr/lib/gcc/arm-none-eabi/9.2.1/../../../arm-none-eabi/lib/thumb/v7e-m+fp/hard/libc.a(lib_a-signalr.o)
_getpid_r                                         /usr/lib/gcc/arm-none-eabi/9.2.1/../../../arm-none-eabi/lib/thumb/v7e-m+fp/hard/libc.a(lib_a-signalr.o)
                                                  /usr/lib/gcc/arm-none-eabi/9.2.1/../../../arm-none-eabi/lib/thumb/v7e-m+fp/hard/libc.a(lib_a-signal.o)
_global_impure_ptr                                /usr/lib/gcc/arm-none-eabi/9.2.1/../../../arm-none-eabi/lib/thumb/v7e-m+fp/hard/libc.a(lib_a-impure.o)
                                                  /usr/lib/gcc/arm-none-eabi/9.2.1/../../../arm-none-eabi/lib/thumb/v7e-m+fp/hard/libc.a(lib_a-findfp.o)
                                                  /usr/lib/gcc/arm-none-eabi/9.2.1/../../../arm-none-eabi/lib/thumb/v7e-m+fp/hard/libc.a(lib_a-fflush.o)
                                                  /usr/lib/gcc/arm-none-eabi/9.2.1/../../../arm-none-eabi/lib/thumb/v7e-m+fp/hard/libc.a(lib_a-__call_atexit.o)
                                                  /usr/lib/gcc/arm-none-eabi/9.2.1/../../../arm-none-eabi/lib/thumb/v7e-m+fp/hard/libc.a(lib_a-__atexit.o)
                                                  /usr/lib/gcc/arm-none-eabi/9.2.1/../../../arm-none-eabi/lib/thumb/v7e-m+fp/hard/libc.a(lib_a-exit.o)
_impure_ptr                                       /usr/lib/gcc/arm-none-eabi/9.2.1/../../../arm-none-eabi/lib/thumb/v7e-m+fp/hard/libc.a(lib_a-impure.o)
                                                  /usr/lib/gcc/arm-none-eabi/9.2.1/../../../arm-none-eabi/lib/thumb/v7e-m+fp/hard/libc.a(lib_a-wcrtomb.o)
                                                  /usr/lib/gcc/arm-none-eabi/9.2.1/../../../arm-none-eabi/lib/thumb/v7e-m+fp/hard/libc.a(lib_a-wbuf.o)
                                                  /usr/lib/gcc/arm-none-eabi/9.2.1/../../../arm-none-eabi/lib/thumb/v7e-m+fp/hard/libc.a(lib_a-signal.o)
                                                  /usr/lib/gcc/arm-none-eabi/9.2.1/../../../arm-none-eabi/lib/thumb/v7e-m+fp/hard/libc.a(lib_a-fputwc.o)
                                                  /usr/lib/gcc/arm-none-eabi/9.2.1/../../../arm-none-eabi/lib/thumb/v7e-m+fp/hard/libc.a(lib_a-wsetup.o)
                                                  /usr/lib/gcc/arm-none-eabi/9.2.1/../../../arm-none-eabi/lib/thumb/v7e-m+fp/hard/libc.a(lib_a-vfiprintf.o)
                                                  /usr/lib/gcc/arm-none-eabi/9.2.1/../../../arm-none-eabi/lib/thumb/v7e-m+fp/hard/libc.a(lib_a-locale.o)
                                                  /usr/lib/gcc/arm-none-eabi/9.2.1/../../../arm-none-eabi/lib/thumb/v7e-m+fp/hard/libc.a(lib_a-fiprintf.o)
                                                  /usr/lib/gcc/arm-none-eabi/9.2.1/../../../arm-none-eabi/lib/thumb/v7e-m+fp/hard/libc.a(lib_a-fclose.o)
                                                  /usr/lib/gcc/arm-none-eabi/9.2.1/../../../arm-none-eabi/lib/thumb/v7e-m+fp/hard/libc.a(lib_a-assert.o)
                                                  /usr/lib/gcc/arm-none-eabi/9.2.1/../../../arm-none-eabi/lib/thumb/v7e-m+fp/hard/libc.a(lib_a-reent.o)
                                                  /usr/lib/gcc/arm-none-eabi/9.2.1/../../../arm-none-eabi/lib/thumb/v7e-m+fp/hard/libc.a(lib_a-findfp.o)
                                                  /usr/lib/gcc/arm-none-eabi/9.2.1/../../../arm-none-eabi/lib/thumb/v7e-m+fp/hard/libc.a(lib_a-fileno.o)
                                                  /usr/lib/gcc/arm-none-eabi/9.2.1/../../../arm-none-eabi/lib/thumb/v7e-m+fp/hard/libc.a(lib_a-fflush.o)
                                                  /usr/lib/gcc/arm-none-eabi/9.2.1/../../../arm-none-eabi/lib/thumb/v7e-m+fp/hard/libc.a(lib_a-strtoull.o)
                                                  /usr/lib/gcc/arm-none-eabi/9.2.1/../../../arm-none-eabi/lib/thumb/v7e-m+fp/hard/libc.a(lib_a-strtok.o)
                                                  /usr/lib/gcc/arm-none-eabi/9.2.1/../../../arm-none-eabi/lib/thumb/v7e-m+fp/hard/libc.a(lib_a-strerror.o)
                                                  /usr/lib/gcc/arm-none-eabi/9.2.1/../../../arm-none-eabi/lib/thumb/v7e-m+fp/hard/libc.a(lib_a-strdup.o)
                                                  /usr/lib/gcc/arm-none-eabi/9.2.1/../../../arm-none-eabi/lib/thumb/v7e-m+fp/hard/libc.a(lib_a-sprintf.o)
                                                  /usr/lib/gcc/arm-none-eabi/9.2.1/../../../arm-none-eabi/lib/thumb/v7e-m+fp/hard/libc.a(lib_a-perror.o)
                                                  /usr/lib/gcc/arm-none-eabi/9.2.1/../../../arm-none-eabi/lib/thumb/v7e-m+fp/hard/libc.a(lib_a-errno.o)
_init                                             /usr/lib/gcc/arm-none-eabi/9.2.1/thumb/v7e-m+fp/hard/crti.o
                                                  /usr/lib/gcc/arm-none-eabi/9.2.1/../../../arm-none-eabi/lib/thumb/v7e-m+fp/hard/libc.a(lib_a-init.o)
_init_signal                                      /usr/lib/gcc/arm-none-eabi/9.2.1/../../../arm-none-eabi/lib/thumb/v7e-m+fp/hard/libc.a(lib_a-signal.o)
_init_signal_r                                    /usr/lib/gcc/arm-none-eabi/9.2.1/../../../arm-none-eabi/lib/thumb/v7e-m+fp/hard/libc.a(lib_a-signal.o)
_isatty                                           build/pgm_syscalls.o
                                                  /usr/lib/gcc/arm-none-eabi/9.2.1/../../../arm-none-eabi/lib/thumb/v7e-m+fp/hard/libc.a(lib_a-isattyr.o)
_isatty_r                                         /usr/lib/gcc/arm-none-eabi/9.2.1/../../../arm-none-eabi/lib/thumb/v7e-m+fp/hard/libc.a(lib_a-isattyr.o)
                                                  /usr/lib/gcc/arm-none-eabi/9.2.1/../../../arm-none-eabi/lib/thumb/v7e-m+fp/hard/libc.a(lib_a-makebuf.o)
_kill                                             build/pgm_syscalls.o
                                                  /usr/lib/gcc/arm-none-eabi/9.2.1/../../../arm-none-eabi/lib/thumb/v7e-m+fp/hard/libc.a(lib_a-signalr.o)
_kill_r                                           /usr/lib/gcc/arm-none-eabi/9.2.1/../../../arm-none-eabi/lib/thumb/v7e-m+fp/hard/libc.a(lib_a-signalr.o)
                                                  /usr/lib/gcc/arm-none-eabi/9.2.1/../../../arm-none-eabi/lib/thumb/v7e-m+fp/hard/libc.a(lib_a-signal.o)
_localeconv_r                                     /usr/lib/gcc/arm-none-eabi/9.2.1/../../../arm-none-eabi/lib/thumb/v7e-m+fp/hard/libc.a(lib_a-localeconv.o)
                                                  /usr/lib/gcc/arm-none-eabi/9.2.1/../../../arm-none-eabi/lib/thumb/v7e-m+fp/hard/libc.a(lib_a-svfprintf.o)
_lseek                                            build/pgm_syscalls.o
                                                  /usr/lib/gcc/arm-none-eabi/9.2.1/../../../arm-none-eabi/lib/thumb/v7e-m+fp/hard/libc.a(lib_a-lseekr.o)
_lseek_r                                          /usr/lib/gcc/arm-none-eabi/9.2.1/../../../arm-none-eabi/lib/thumb/v7e-m+fp/hard/libc.a(lib_a-lseekr.o)
                                                  /usr/lib/gcc/arm-none-eabi/9.2.1/../../../arm-none-eabi/lib/thumb/v7e-m+fp/hard/libc.a(lib_a-stdio.o)
_mainCRTStartup                                   /usr/lib/gcc/arm-none-eabi/9.2.1/../../../arm-none-eabi/lib/thumb/v7e-m+fp/hard/crt0.o
_mbtowc_r                                         /usr/lib/gcc/arm-none-eabi/9.2.1/../../../arm-none-eabi/lib/thumb/v7e-m+fp/hard/libc.a(lib_a-mbtowc_r.o)
_mprec_log10                                      /usr/lib/gcc/arm-none-eabi/9.2.1/../../../arm-none-eabi/lib/thumb/v7e-m+fp/hard/libc.a(lib_a-mprec.o)
_perror_r                                         /usr/lib/gcc/arm-none-eabi/9.2.1/../../../arm-none-eabi/lib/thumb/v7e-m+fp/hard/libc.a(lib_a-perror.o)
_raise_r                                          /usr/lib/gcc/arm-none-eabi/9.2.1/../../../arm-none-eabi/lib/thumb/v7e-m+fp/hard/libc.a(lib_a-signal.o)
_read                                             build/pgm_syscalls.o
                                                  /usr/lib/gcc/arm-none-eabi/9.2.1/../../../arm-none-eabi/lib/thumb/v7e-m+fp/hard/libc.a(lib_a-readr.o)
_read_r                                           /usr/lib/gcc/arm-none-eabi/9.2.1/../../../arm-none-eabi/lib/thumb/v7e-m+fp/hard/libc.a(lib_a-readr.o)
                                                  /usr/lib/gcc/arm-none-eabi/9.2.1/../../../arm-none-eabi/lib/thumb/v7e-m+fp/hard/libc.a(lib_a-stdio.o)
_realloc_r                                        build/pgm_syscalls.o
                                                  /usr/lib/gcc/arm-none-eabi/9.2.1/../../../arm-none-eabi/lib/thumb/v7e-m+fp/hard/libc.a(lib_a-fvwrite.o)
                                                  /usr/lib/gcc/arm-none-eabi/9.2.1/../../../arm-none-eabi/lib/thumb/v7e-m+fp/hard/libc.a(lib_a-svfiprintf.o)
_reclaim_reent                                    /usr/lib/gcc/arm-none-eabi/9.2.1/../../../arm-none-eabi/lib/thumb/v7e-m+fp/hard/libc.a(lib_a-reent.o)
_sbss                                             build/startup_pgm.o
_sdata                                            build/startup_pgm.o
_setlocale_r                                      /usr/lib/gcc/arm-none-eabi/9.2.1/../../../arm-none-eabi/lib/thumb/v7e-m+fp/hard/libc.a(lib_a-locale.o)
_sidata                                           build/startup_pgm.o
_signal_r                                         /usr/lib/gcc/arm-none-eabi/9.2.1/../../../arm-none-eabi/lib/thumb/v7e-m+fp/hard/libc.a(lib_a-signal.o)
_sprintf_r                                        /usr/lib/gcc/arm-none-eabi/9.2.1/../../../arm-none-eabi/lib/thumb/v7e-m+fp/hard/libc.a(lib_a-sprintf.o)
_stack_init                                       /usr/lib/gcc/arm-none-eabi/9.2.1/../../../arm-none-eabi/lib/thumb/v7e-m+fp/hard/crt0.o
_start                                            /usr/lib/gcc/arm-none-eabi/9.2.1/../../../arm-none-eabi/lib/thumb/v7e-m+fp/hard/crt0.o
_strdup_r                                         /usr/lib/gcc/arm-none-eabi/9.2.1/../../../arm-none-eabi/lib/thumb/v7e-m+fp/hard/libc.a(lib_a-strdup_r.o)
                                                  /usr/lib/gcc/arm-none-eabi/9.2.1/../../../arm-none-eabi/lib/thumb/v7e-m+fp/hard/libc.a(lib_a-strdup.o)
_strerror_r                                       /usr/lib/gcc/arm-none-eabi/9.2.1/../../../arm-none-eabi/lib/thumb/v7e-m+fp/hard/libc.a(lib_a-strerror.o)
                                                  /usr/lib/gcc/arm-none-eabi/9.2.1/../../../arm-none-eabi/lib/thumb/v7e-m+fp/hard/libc.a(lib_a-perror.o)
_strtoull_r                                       /usr/lib/gcc/arm-none-eabi/9.2.1/../../../arm-none-eabi/lib/thumb/v7e-m+fp/hard/libc.a(lib_a-strtoull.o)
_svfiprintf_r                                     /usr/lib/gcc/arm-none-eabi/9.2.1/../../../arm-none-eabi/lib/thumb/v7e-m+fp/hard/libc.a(lib_a-svfiprintf.o)
_svfprintf_r                                      /usr/lib/gcc/arm-none-eabi/9.2.1/../../../arm-none-eabi/lib/thumb/v7e-m+fp/hard/libc.a(lib_a-svfprintf.o)
                                                  /usr/lib/gcc/arm-none-eabi/9.2.1/../../../arm-none-eabi/lib/thumb/v7e-m+fp/hard/libc.a(lib_a-sprintf.o)
_user_strerror                                    /usr/lib/gcc/arm-none-eabi/9.2.1/../../../arm-none-eabi/lib/thumb/v7e-m+fp/hard/libc.a(lib_a-u_strerr.o)
                                                  /usr/lib/gcc/arm-none-eabi/9.2.1/../../../arm-none-eabi/lib/thumb/v7e-m+fp/hard/libc.a(lib_a-strerror.o)
_vfiprintf_r                                      /usr/lib/gcc/arm-none-eabi/9.2.1/../../../arm-none-eabi/lib/thumb/v7e-m+fp/hard/libc.a(lib_a-vfiprintf.o)
                                                  /usr/lib/gcc/arm-none-eabi/9.2.1/../../../arm-none-eabi/lib/thumb/v7e-m+fp/hard/libc.a(lib_a-fiprintf.o)
_wcrtomb_r                                        /usr/lib/gcc/arm-none-eabi/9.2.1/../../../arm-none-eabi/lib/thumb/v7e-m+fp/hard/libc.a(lib_a-wcrtomb.o)
                                                  /usr/lib/gcc/arm-none-eabi/9.2.1/../../../arm-none-eabi/lib/thumb/v7e-m+fp/hard/libc.a(lib_a-fputwc.o)
_wctomb_r                                         /usr/lib/gcc/arm-none-eabi/9.2.1/../../../arm-none-eabi/lib/thumb/v7e-m+fp/hard/libc.a(lib_a-wctomb_r.o)
_write                                            build/pgm_syscalls.o
                                                  /usr/lib/gcc/arm-none-eabi/9.2.1/../../../arm-none-eabi/lib/thumb/v7e-m+fp/hard/libc.a(lib_a-writer.o)
_write_r                                          /usr/lib/gcc/arm-none-eabi/9.2.1/../../../arm-none-eabi/lib/thumb/v7e-m+fp/hard/libc.a(lib_a-writer.o)
                                                  /usr/lib/gcc/arm-none-eabi/9.2.1/../../../arm-none-eabi/lib/thumb/v7e-m+fp/hard/libc.a(lib_a-stdio.o)
                                                  /usr/lib/gcc/arm-none-eabi/9.2.1/../../../arm-none-eabi/lib/thumb/v7e-m+fp/hard/libc.a(lib_a-perror.o)
abort                                             /usr/lib/gcc/arm-none-eabi/9.2.1/../../../arm-none-eabi/lib/thumb/v7e-m+fp/hard/libc.a(lib_a-abort.o)
                                                  /usr/lib/gcc/arm-none-eabi/9.2.1/../../../arm-none-eabi/lib/thumb/v7e-m+fp/hard/libc.a(lib_a-assert.o)
absolute_error                                    build/decn.o
                                                  build/xeq.o
add_string                                        build/alpha.o
                                                  build/date.o
alen                                              build/alpha.o
                                                  build/keys.o
all_menu_dots                                     build/console.o
                                                  build/lcd.o
alpha_fromx                                       build/alpha.o
                                                  build/commands.o
alpha_ip                                          build/alpha.o
                                                  build/commands.o
alpha_length                                      build/alpha.o
                                                  build/commands.o
alpha_onoff                                       build/alpha.o
                                                  build/commands.o
alpha_rcl                                         build/alpha.o
                                                  build/commands.o
alpha_rcl_s                                       build/alpha.o
                                                  build/xeq.o
                                                  build/display.o
alpha_reg                                         build/alpha.o
                                                  build/commands.o
alpha_rot_r                                       build/alpha.o
                                                  build/commands.o
alpha_shift_l                                     build/alpha.o
                                                  build/commands.o
alpha_shift_r                                     build/alpha.o
                                                  build/commands.o
alpha_sto                                         build/alpha.o
                                                  build/commands.o
alpha_tox                                         build/alpha.o
                                                  build/commands.o
alpha_view                                        build/alpha.o
                                                  build/commands.o
alpha_view_common                                 build/alpha.o
                                                  build/xeq.o
alpha_view_reg                                    build/alpha.o
                                                  build/commands.o
append_program                                    build/storage.o
argcmds                                           build/commands.o
                                                  build/prt.o
                                                  build/xeq.o
                                                  build/display.o
                                                  build/keys.o
arrow_key_string                                  build/console.o
atexit                                            /usr/lib/gcc/arm-none-eabi/9.2.1/../../../arm-none-eabi/lib/thumb/v7e-m+fp/hard/libc.a(lib_a-atexit.o)
                                                  /usr/lib/gcc/arm-none-eabi/9.2.1/../../../arm-none-eabi/lib/thumb/v7e-m+fp/hard/libc.a(lib_a-__call_atexit.o)
                                                  /usr/lib/gcc/arm-none-eabi/9.2.1/../../../arm-none-eabi/lib/thumb/v7e-m+fp/hard/crt0.o
backup_ram                                        build/storage.o
                                                  build/xeq.o
bad_mode_error                                    build/xeq.o
betai                                             build/stats.o
                                                  build/commands.o
bottom                                            build/lcd.o
build_user_menu                                   build/console.o
build_value                                       build/int.o
                                                  build/xeq.o
                                                  build/display.o
busy                                              build/xeq.o
                                                  build/matrix.o
                                                  build/stats.o
                                                  build/decn.o
calloc                                            build/pgm_syscalls.o
                                                  build/storage.o
catcmd                                            build/prt.o
                                                  build/console.o
                                                  build/display.o
                                                  build/keys.o
charlengths                                       build/font.o
                                                  build/console.o
                                                  build/display.o
check_create_wp34sdir                             build/storage.o
                                                  build/console.o
check_dblmode                                     build/xeq.o
                                                  build/commands.o
check_mode                                        build/xeq.o
                                                  build/commands.o
check_overflow                                    build/int.o
                                                  build/xeq.o
check_zero                                        build/xeq.o
                                                  build/commands.o
checksum_backup                                   build/storage.o
checksum_program                                  build/storage.o
checksum_ram                                      build/storage.o
                                                  build/xeq.o
cleanup_glue                                      /usr/lib/gcc/arm-none-eabi/9.2.1/../../../arm-none-eabi/lib/thumb/v7e-m+fp/hard/libc.a(lib_a-reent.o)
clpall                                            build/storage.o
                                                  build/keys.o
clr_dot                                           build/lcd.o
                                                  build/xeq.o
                                                  build/display.o
                                                  build/keys.o
clrall                                            build/storage.o
                                                  build/keys.o
clralpha                                          build/alpha.o
                                                  build/storage.o
                                                  build/commands.o
clrflags                                          build/xeq.o
                                                  build/storage.o
                                                  build/commands.o
clrprog                                           build/storage.o
                                                  build/keys.o
clrreg                                            build/xeq.o
                                                  build/storage.o
                                                  build/commands.o
clrretstk                                         build/xeq.o
                                                  build/storage.o
clrretstk_pc                                      build/xeq.o
                                                  build/storage.o
clrstk                                            build/xeq.o
                                                  build/storage.o
                                                  build/commands.o
clrx                                              build/xeq.o
                                                  build/commands.o
cmd_off                                           build/xeq.o
                                                  build/commands.o
cmdalpha                                          build/alpha.o
                                                  build/commands.o
cmdalphagto                                       build/xeq.o
                                                  build/commands.o
cmdback                                           build/xeq.o
                                                  build/commands.o
cmdconst                                          build/xeq.o
                                                  build/commands.o
cmdconv                                           build/xeq.o
                                                  build/commands.o
cmdconverged                                      build/xeq.o
                                                  build/commands.o
cmdcrcl                                           build/xeq.o
                                                  build/commands.o
cmdcsto                                           build/xeq.o
                                                  build/commands.o
cmddisp                                           build/xeq.o
                                                  build/commands.o
cmderr                                            build/xeq.o
                                                  build/commands.o
cmdflag                                           build/xeq.o
                                                  build/commands.o
                                                  build/int.o
cmdgto                                            build/xeq.o
                                                  build/commands.o
cmdgtocommon                                      build/xeq.o
                                                  build/keys.o
cmdircl                                           build/xeq.o
                                                  build/commands.o
cmdkeyp                                           build/xeq.o
                                                  build/commands.o
cmdkeytype                                        build/xeq.o
                                                  build/commands.o
cmdlblp                                           build/xeq.o
                                                  build/commands.o
cmdlincdec                                        build/xeq.o
                                                  build/commands.o
cmdlocr                                           build/xeq.o
                                                  build/commands.o
cmdloop                                           build/xeq.o
                                                  build/commands.o
cmdloopz                                          build/xeq.o
                                                  build/commands.o
cmdlpop                                           build/xeq.o
                                                  build/commands.o
cmdmode                                           build/xeq.o
                                                  build/commands.o
cmdmsg                                            build/xeq.o
                                                  build/commands.o
cmdmultigto                                       build/xeq.o
                                                  build/commands.o
cmdmultilblp                                      build/xeq.o
                                                  build/commands.o
cmdpause                                          build/xeq.o
                                                  build/commands.o
cmdputkey                                         build/xeq.o
                                                  build/commands.o
cmdrcl                                            build/xeq.o
                                                  build/commands.o
cmdrclstk                                         build/xeq.o
                                                  build/commands.o
cmdregs                                           build/xeq.o
                                                  build/storage.o
                                                  build/commands.o
cmdrestm                                          build/xeq.o
                                                  build/commands.o
cmdrrcl                                           build/xeq.o
                                                  build/commands.o
cmdsavem                                          build/xeq.o
                                                  build/commands.o
cmdshuffle                                        build/xeq.o
                                                  build/commands.o
cmdskip                                           build/xeq.o
                                                  build/commands.o
cmdsto                                            build/xeq.o
                                                  build/commands.o
cmdstostk                                         build/xeq.o
                                                  build/commands.o
cmdswap                                           build/xeq.o
                                                  build/commands.o
cmdtest                                           build/xeq.o
                                                  build/commands.o
cmdview                                           build/xeq.o
                                                  build/commands.o
cmdxin                                            build/xeq.o
                                                  build/commands.o
cmdxout                                           build/xeq.o
                                                  build/commands.o
cmdztest                                          build/xeq.o
                                                  build/commands.o
cmplxAbs                                          build/complex.o
                                                  build/commands.o
cmplxAdd                                          build/complex.o
                                                  build/commands.o
                                                  build/xeq.o
cmplxArg                                          build/complex.o
cmplxCos                                          build/complex.o
                                                  build/commands.o
cmplxCosh                                         build/complex.o
                                                  build/commands.o
cmplxCubeRoot                                     build/complex.o
                                                  build/commands.o
cmplxDivide                                       build/complex.o
                                                  build/commands.o
                                                  build/xeq.o
cmplxExp                                          build/complex.o
                                                  build/commands.o
cmplxGamma                                        build/complex.o
                                                  build/commands.o
cmplxLn                                           build/complex.o
                                                  build/commands.o
cmplxLnGamma                                      build/complex.o
                                                  build/commands.o
cmplxMinus                                        build/complex.o
                                                  build/commands.o
cmplxMultiply                                     build/complex.o
                                                  build/commands.o
                                                  build/xeq.o
cmplxPower                                        build/complex.o
                                                  build/commands.o
cmplxR                                            build/complex.o
                                                  build/xeq.o
cmplxRecip                                        build/complex.o
                                                  build/commands.o
cmplxSin                                          build/complex.o
                                                  build/commands.o
cmplxSinc                                         build/complex.o
                                                  build/commands.o
cmplxSinh                                         build/complex.o
                                                  build/commands.o
cmplxSqrt                                         build/complex.o
                                                  build/commands.o
cmplxSubtract                                     build/complex.o
                                                  build/commands.o
                                                  build/xeq.o
cmplxTan                                          build/complex.o
                                                  build/commands.o
cmplxTanh                                         build/complex.o
                                                  build/commands.o
cmplxToPolar                                      build/complex.o
                                                  build/decn.o
cmplxXRoot                                        build/complex.o
                                                  build/commands.o
cmplx_1x                                          build/complex.o
                                                  build/commands.o
cmplx_NaN                                         build/complex.o
                                                  build/decn.o
cmplx_key_string                                  build/console.o
cnsts                                             build/consts.o
                                                  build/prt.o
                                                  build/xeq.o
cnsts_conv                                        build/consts.o
                                                  build/prt.o
                                                  build/xeq.o
cnsts_d128                                        build/consts.o
                                                  build/xeq.o
cnsts_d64                                         build/consts.o
                                                  build/xeq.o
comma                                             build/lcd.o
const_0                                           build/libconsts.a(const_0.o)
                                                  build/complex.o
                                                  build/decn.o
                                                  build/xeq.o
const_0_0001                                      build/libconsts.a(const_0_0001.o)
                                                  build/display.o
const_0_05                                        build/libconsts.a(const_0_05.o)
                                                  build/xeq.o
const_0_1                                         build/libconsts.a(const_0_1.o)
                                                  build/decn.o
const_0_4                                         build/libconsts.a(const_0_4.o)
                                                  build/decn.o
const_0_5                                         build/libconsts.a(const_0_5.o)
                                                  build/complex.o
                                                  build/decn.o
const_0_6                                         build/libconsts.a(const_0_6.o)
                                                  build/decn.o
const_0_75                                        build/libconsts.a(const_0_75.o)
                                                  build/decn.o
const_0_9                                         build/libconsts.a(const_0_9.o)
                                                  build/decn.o
const_0_995                                       build/libconsts.a(const_0_995.o)
                                                  build/decn.o
const_1                                           build/libconsts.a(const_1.o)
                                                  build/stats.o
                                                  build/complex.o
                                                  build/decn.o
                                                  build/xeq.o
const_10                                          build/libconsts.a(const_10.o)
                                                  build/alpha.o
                                                  build/decn.o
const_100                                         build/libconsts.a(const_100.o)
                                                  build/decn.o
                                                  build/display.o
const_100000                                      build/libconsts.a(const_100000.o)
                                                  build/display.o
const_180                                         build/libconsts.a(const_180.o)
                                                  build/decn.o
const_1e_10000                                    build/libconsts.a(const_1e_10000.o)
                                                  build/decn.o
const_1e_14                                       build/libconsts.a(const_1e_14.o)
                                                  build/xeq.o
const_1e_24                                       build/libconsts.a(const_1e_24.o)
                                                  build/decn.o
                                                  build/xeq.o
const_1e_32                                       build/libconsts.a(const_1e_32.o)
                                                  build/stats.o
                                                  build/decn.o
                                                  build/xeq.o
const_1e_37                                       build/libconsts.a(const_1e_37.o)
                                                  build/decn.o
const_1on60                                       build/libconsts.a(const_1on60.o)
                                                  build/decn.o
const_2                                           build/libconsts.a(const_2.o)
                                                  build/stats.o
                                                  build/complex.o
                                                  build/decn.o
const_20                                          build/libconsts.a(const_20.o)
                                                  build/xeq.o
const_200                                         build/libconsts.a(const_200.o)
                                                  build/decn.o
const_21                                          build/libconsts.a(const_21.o)
                                                  build/complex.o
                                                  build/decn.o
const_256                                         build/libconsts.a(const_256.o)
                                                  build/decn.o
const_2PI                                         build/libconsts.a(const_2PI.o)
                                                  build/decn.o
                                                  build/xeq.o
const_2pow64                                      build/libconsts.a(const_2pow64.o)
                                                  build/xeq.o
const_3                                           build/libconsts.a(const_3.o)
                                                  build/complex.o
                                                  build/decn.o
const_32                                          build/libconsts.a(const_32.o)
                                                  build/xeq.o
const_360                                         build/libconsts.a(const_360.o)
                                                  build/decn.o
                                                  build/xeq.o
const_400                                         build/libconsts.a(const_400.o)
                                                  build/decn.o
                                                  build/xeq.o
const_45                                          build/libconsts.a(const_45.o)
                                                  build/decn.o
const_5                                           build/libconsts.a(const_5.o)
                                                  build/decn.o
const_50                                          build/libconsts.a(const_50.o)
                                                  build/decn.o
const_60                                          build/libconsts.a(const_60.o)
                                                  build/decn.o
const_90                                          build/libconsts.a(const_90.o)
                                                  build/decn.o
const_9000                                        build/libconsts.a(const_9000.o)
                                                  build/decn.o
                                                  build/display.o
const_9on5                                        build/libconsts.a(const_9on5.o)
                                                  build/xeq.o
const_NaN                                         build/libconsts.a(const_NaN.o)
                                                  build/decn.o
                                                  build/xeq.o
const_PI                                          build/libconsts.a(const_PI.o)
                                                  build/complex.o
                                                  build/decn.o
                                                  build/xeq.o
const_PIon180                                     build/libconsts.a(const_PIon180.o)
                                                  build/decn.o
const_PIon2                                       build/libconsts.a(const_PIon2.o)
                                                  build/decn.o
const_PIon200                                     build/libconsts.a(const_PIon200.o)
                                                  build/decn.o
const__0                                          build/libconsts.a(const__0.o)
                                                  build/decn.o
const__1                                          build/libconsts.a(const__1.o)
                                                  build/stats.o
                                                  build/decn.o
const__inf                                        build/libconsts.a(const__inf.o)
                                                  build/decn.o
const_egamma                                      build/libconsts.a(const_egamma.o)
                                                  build/decn.o
const_gammaC00                                    build/libconsts.a(const_gammaC00.o)
                                                  build/complex.o
                                                  build/decn.o
const_gammaC01                                    build/libconsts.a(const_gammaC01.o)
                                                  build/decn.o
const_gammaC02                                    build/libconsts.a(const_gammaC02.o)
                                                  build/decn.o
const_gammaC03                                    build/libconsts.a(const_gammaC03.o)
                                                  build/decn.o
const_gammaC04                                    build/libconsts.a(const_gammaC04.o)
                                                  build/decn.o
const_gammaC05                                    build/libconsts.a(const_gammaC05.o)
                                                  build/decn.o
const_gammaC06                                    build/libconsts.a(const_gammaC06.o)
                                                  build/decn.o
const_gammaC07                                    build/libconsts.a(const_gammaC07.o)
                                                  build/decn.o
const_gammaC08                                    build/libconsts.a(const_gammaC08.o)
                                                  build/decn.o
const_gammaC09                                    build/libconsts.a(const_gammaC09.o)
                                                  build/decn.o
const_gammaC10                                    build/libconsts.a(const_gammaC10.o)
                                                  build/decn.o
const_gammaC11                                    build/libconsts.a(const_gammaC11.o)
                                                  build/decn.o
const_gammaC12                                    build/libconsts.a(const_gammaC12.o)
                                                  build/decn.o
const_gammaC13                                    build/libconsts.a(const_gammaC13.o)
                                                  build/decn.o
const_gammaC14                                    build/libconsts.a(const_gammaC14.o)
                                                  build/decn.o
const_gammaC15                                    build/libconsts.a(const_gammaC15.o)
                                                  build/decn.o
const_gammaC16                                    build/libconsts.a(const_gammaC16.o)
                                                  build/decn.o
const_gammaC17                                    build/libconsts.a(const_gammaC17.o)
                                                  build/decn.o
const_gammaC18                                    build/libconsts.a(const_gammaC18.o)
                                                  build/decn.o
const_gammaC19                                    build/libconsts.a(const_gammaC19.o)
                                                  build/decn.o
const_gammaC20                                    build/libconsts.a(const_gammaC20.o)
                                                  build/decn.o
const_gammaC21                                    build/libconsts.a(const_gammaC21.o)
                                                  build/decn.o
const_gammaR                                      build/libconsts.a(const_gammaR.o)
                                                  build/complex.o
                                                  build/decn.o
const_hms_threshold                               build/libconsts.a(const_hms_threshold.o)
                                                  build/display.o
const_inf                                         build/libconsts.a(const_inf.o)
                                                  build/decn.o
const_ln10                                        build/libconsts.a(const_ln10.o)
                                                  build/decn.o
const_ln2                                         build/libconsts.a(const_ln2.o)
                                                  build/decn.o
const_randfac                                     build/libconsts.a(const_randfac.o)
                                                  build/stats.o
const_root2on2                                    build/libconsts.a(const_root2on2.o)
                                                  build/complex.o
                                                  build/decn.o
convAR2DB                                         build/xeq.o
                                                  build/commands.o
convC2F                                           build/xeq.o
                                                  build/commands.o
convDB2AR                                         build/xeq.o
                                                  build/commands.o
convDB2PR                                         build/xeq.o
                                                  build/commands.o
convF2C                                           build/xeq.o
                                                  build/commands.o
convPR2DB                                         build/xeq.o
                                                  build/commands.o
convergence_threshold                             build/decn.o
convert_regK                                      build/xeq.o
                                                  build/keys.o
copyreg                                           build/xeq.o
                                                  build/display.o
                                                  build/keys.o
copyreg_n                                         build/xeq.o
cpx_dot                                           build/complex.o
                                                  build/commands.o
cpx_dotdiv                                        build/complex.o
                                                  build/commands.o
cpx_enter                                         build/xeq.o
                                                  build/commands.o
cpx_fill                                          build/xeq.o
                                                  build/commands.o
cpx_nop                                           build/xeq.o
                                                  build/commands.o
cpx_pi                                            build/xeq.o
                                                  build/commands.o
cpx_roll_down                                     build/xeq.o
                                                  build/commands.o
cpx_roll_up                                       build/xeq.o
                                                  build/commands.o
crc16                                             build/storage.o
cur_shift                                         build/keys.o
                                                  build/console.o
                                                  build/display.o
current_catalogue                                 build/keys.o
                                                  build/display.o
current_catalogue_max                             build/keys.o
dateDayOfWeek                                     build/date.o
                                                  build/commands.o
dateEaster                                        build/date.o
                                                  build/commands.o
dateExtraction                                    build/date.o
                                                  build/commands.o
dateFromJ                                         build/date.o
                                                  build/commands.o
dateFromYMD                                       build/date.o
                                                  build/commands.o
dateToJ                                           build/date.o
                                                  build/commands.o
date_alphadate                                    build/date.o
                                                  build/commands.o
date_alphaday                                     build/date.o
                                                  build/commands.o
date_alphamonth                                   build/date.o
                                                  build/commands.o
date_alphatime                                    build/date.o
                                                  build/commands.o
date_date                                         build/date.o
                                                  build/commands.o
date_isleap                                       build/date.o
                                                  build/commands.o
date_setdate                                      build/date.o
                                                  build/commands.o
date_settime                                      build/date.o
                                                  build/commands.o
date_time                                         build/date.o
                                                  build/commands.o
decContextDefault                                 build/libdecNumber.a(decContext.o)
                                                  build/libdecNumber.a(decimal64.o)
                                                  build/libdecNumber.a(decimal128.o)
                                                  build/libdecNumber.a(decNumber.o)
                                                  build/xeq.o
decContextSetStatus                               build/libdecNumber.a(decContext.o)
                                                  build/libdecNumber.a(decimal64.o)
                                                  build/libdecNumber.a(decimal128.o)
                                                  build/libdecNumber.a(decNumber.o)
decDigitsFromDPD                                  build/libdecNumber.a(decimal64.o)
                                                  build/libdecNumber.a(decimal128.o)
decDigitsToDPD                                    build/libdecNumber.a(decimal64.o)
                                                  build/libdecNumber.a(decimal128.o)
decFactor                                         build/decn.o
                                                  build/commands.o
decGetInt                                         build/libdecNumber.a(decNumber.o)
                                                  build/decn.o
decNumber2Fraction                                build/decn.o
                                                  build/xeq.o
                                                  build/display.o
decNumberAbs                                      build/libdecNumber.a(decNumber.o)
                                                  build/decn.o
decNumberAdd                                      build/libdecNumber.a(decNumber.o)
                                                  build/decn.o
decNumberArcCos                                   build/decn.o
                                                  build/commands.o
decNumberArcCosh                                  build/decn.o
                                                  build/commands.o
decNumberArcSin                                   build/decn.o
                                                  build/commands.o
decNumberArcSinh                                  build/decn.o
                                                  build/commands.o
decNumberArcTan                                   build/decn.o
                                                  build/commands.o
decNumberArcTan2                                  build/decn.o
                                                  build/commands.o
decNumberArcTanh                                  build/decn.o
                                                  build/commands.o
decNumberBigMod                                   build/decn.o
                                                  build/commands.o
decNumberBooleanOp                                build/decn.o
                                                  build/commands.o
decNumberCeil                                     build/decn.o
                                                  build/commands.o
decNumberComb                                     build/decn.o
                                                  build/commands.o
decNumberCompare                                  build/libdecNumber.a(decNumber.o)
                                                  build/decn.o
decNumberCopy                                     build/libdecNumber.a(decNumber.o)
                                                  build/matrix.o
                                                  build/date.o
                                                  build/stats.o
                                                  build/complex.o
                                                  build/decn.o
                                                  build/xeq.o
decNumberCos                                      build/decn.o
                                                  build/commands.o
decNumberCosh                                     build/decn.o
                                                  build/commands.o
decNumberCube                                     build/decn.o
                                                  build/commands.o
decNumberCubeRoot                                 build/decn.o
                                                  build/commands.o
decNumberD2G                                      build/decn.o
                                                  build/commands.o
decNumberD2R                                      build/decn.o
                                                  build/commands.o
decNumberDRG                                      build/decn.o
                                                  build/commands.o
decNumberDivide                                   build/libdecNumber.a(decNumber.o)
                                                  build/decn.o
decNumberExp                                      build/libdecNumber.a(decNumber.o)
                                                  build/decn.o
decNumberExpm1                                    build/decn.o
                                                  build/commands.o
decNumberExponent                                 build/decn.o
                                                  build/commands.o
decNumberFactorial                                build/decn.o
                                                  build/commands.o
decNumberFloor                                    build/decn.o
                                                  build/commands.o
                                                  build/alpha.o
decNumberFrac                                     build/decn.o
                                                  build/commands.o
                                                  build/display.o
decNumberFromString                               build/libdecNumber.a(decNumber.o)
                                                  build/xeq.o
decNumberG2D                                      build/decn.o
                                                  build/commands.o
decNumberG2R                                      build/decn.o
                                                  build/commands.o
decNumberGCD                                      build/decn.o
                                                  build/commands.o
decNumberGamma                                    build/decn.o
                                                  build/commands.o
decNumberGammap                                   build/decn.o
                                                  build/commands.o
decNumberHMS2HR                                   build/decn.o
                                                  build/commands.o
decNumberHMSAdd                                   build/decn.o
                                                  build/commands.o
decNumberHMSSub                                   build/decn.o
                                                  build/commands.o
decNumberHR2HMS                                   build/decn.o
                                                  build/commands.o
                                                  build/display.o
decNumberLCM                                      build/decn.o
                                                  build/commands.o
decNumberLn1p                                     build/decn.o
                                                  build/commands.o
decNumberLnBeta                                   build/decn.o
                                                  build/commands.o
                                                  build/stats.o
decNumberLnGamma                                  build/decn.o
                                                  build/commands.o
decNumberLogxy                                    build/decn.o
                                                  build/commands.o
decNumberMantissa                                 build/decn.o
                                                  build/commands.o
decNumberMax                                      build/libdecNumber.a(decNumber.o)
                                                  build/decn.o
decNumberMin                                      build/libdecNumber.a(decNumber.o)
                                                  build/decn.o
decNumberMinus                                    build/libdecNumber.a(decNumber.o)
                                                  build/decn.o
decNumberMod                                      build/decn.o
                                                  build/alpha.o
                                                  build/complex.o
                                                  build/display.o
decNumberMultiply                                 build/libdecNumber.a(decNumber.o)
                                                  build/decn.o
decNumberNeighbour                                build/decn.o
                                                  build/commands.o
decNumberNormalize                                build/libdecNumber.a(decNumber.o)
                                                  build/xeq.o
                                                  build/display.o
decNumberNot                                      build/decn.o
                                                  build/commands.o
decNumberPI                                       build/decn.o
                                                  build/complex.o
decNumberPIon2                                    build/decn.o
decNumberPerm                                     build/decn.o
                                                  build/commands.o
decNumberPlus                                     build/libdecNumber.a(decNumber.o)
                                                  build/libdecNumber.a(decimal64.o)
                                                  build/libdecNumber.a(decimal128.o)
                                                  build/decn.o
decNumberPow10                                    build/decn.o
                                                  build/commands.o
                                                  build/xeq.o
decNumberPow2                                     build/decn.o
                                                  build/commands.o
decNumberPow_1                                    build/decn.o
                                                  build/commands.o
decNumberQuantize                                 build/libdecNumber.a(decNumber.o)
decNumberR2D                                      build/decn.o
                                                  build/commands.o
decNumberR2G                                      build/decn.o
                                                  build/commands.o
decNumberRecip                                    build/decn.o
                                                  build/commands.o
                                                  build/stats.o
                                                  build/complex.o
decNumberRemainder                                build/libdecNumber.a(decNumber.o)
                                                  build/decn.o
decNumberRescale                                  build/libdecNumber.a(decNumber.o)
                                                  build/decn.o
decNumberRnd                                      build/decn.o
                                                  build/commands.o
                                                  build/xeq.o
decNumberRound                                    build/decn.o
                                                  build/commands.o
                                                  build/date.o
                                                  build/display.o
decNumberRoundDecimals                            build/decn.o
                                                  build/xeq.o
decNumberRoundDigits                              build/decn.o
                                                  build/xeq.o
decNumberSin                                      build/decn.o
                                                  build/commands.o
decNumberSinc                                     build/decn.o
                                                  build/commands.o
                                                  build/complex.o
decNumberSinh                                     build/decn.o
                                                  build/commands.o
decNumberSquare                                   build/decn.o
                                                  build/commands.o
                                                  build/stats.o
decNumberSquareRoot                               build/libdecNumber.a(decNumber.o)
                                                  build/decn.o
decNumberSubtract                                 build/libdecNumber.a(decNumber.o)
                                                  build/decn.o
decNumberTan                                      build/decn.o
                                                  build/commands.o
decNumberTanh                                     build/decn.o
                                                  build/commands.o
                                                  build/complex.o
decNumberToIntegralValue                          build/libdecNumber.a(decNumber.o)
                                                  build/decn.o
decNumberToString                                 build/libdecNumber.a(decNumber.o)
                                                  build/libdecNumber.a(decimal64.o)
                                                  build/decn.o
                                                  build/xeq.o
                                                  build/display.o
decNumberTrunc                                    build/decn.o
                                                  build/commands.o
                                                  build/date.o
                                                  build/xeq.o
                                                  build/display.o
decNumberULP                                      build/decn.o
                                                  build/commands.o
decNumberXRoot                                    build/decn.o
                                                  build/commands.o
decNumberZero                                     build/libdecNumber.a(decNumber.o)
                                                  build/libdecNumber.a(decimal64.o)
                                                  build/libdecNumber.a(decimal128.o)
                                                  build/matrix.o
                                                  build/stats.o
                                                  build/complex.o
                                                  build/decn.o
                                                  build/xeq.o
                                                  build/display.o
decimal                                           build/lcd.o
decimal128FromNumber                              build/libdecNumber.a(decimal128.o)
                                                  build/xeq.o
decimal128ToNumber                                build/libdecNumber.a(decimal128.o)
                                                  build/matrix.o
                                                  build/stats.o
                                                  build/xeq.o
                                                  build/display.o
decimal64FromNumber                               build/libdecNumber.a(decimal64.o)
                                                  build/xeq.o
decimal64ToNumber                                 build/libdecNumber.a(decimal64.o)
                                                  build/matrix.o
                                                  build/stats.o
                                                  build/xeq.o
                                                  build/display.o
decimal64ToString                                 build/libdecNumber.a(decimal64.o)
decpc                                             build/xeq.o
                                                  build/storage.o
delprog                                           build/storage.o
                                                  build/keys.o
disp_about                                        build/console.o
display                                           build/display.o
                                                  build/console.o
                                                  build/xeq.o
                                                  build/keys.o
display_current_menu                              build/console.o
                                                  build/keys.o
display_menu                                      build/console.o
dn_1                                              build/decn.o
                                                  build/stats.o
                                                  build/complex.o
                                                  build/xeq.o
dn_1m                                             build/decn.o
                                                  build/stats.o
                                                  build/complex.o
dn__1                                             build/decn.o
                                                  build/stats.o
                                                  build/complex.o
dn_abs                                            build/decn.o
                                                  build/matrix.o
                                                  build/commands.o
                                                  build/stats.o
                                                  build/xeq.o
                                                  build/display.o
dn_abs_lt                                         build/decn.o
                                                  build/stats.o
dn_add                                            build/decn.o
                                                  build/matrix.o
                                                  build/commands.o
                                                  build/stats.o
                                                  build/complex.o
                                                  build/xeq.o
                                                  build/display.o
dn_average                                        build/decn.o
dn_compare                                        build/decn.o
                                                  build/stats.o
                                                  build/xeq.o
                                                  build/display.o
dn_dec                                            build/decn.o
                                                  build/complex.o
                                                  build/xeq.o
dn_div2                                           build/decn.o
dn_divide                                         build/decn.o
                                                  build/matrix.o
                                                  build/commands.o
                                                  build/alpha.o
                                                  build/stats.o
                                                  build/complex.o
                                                  build/xeq.o
                                                  build/display.o
dn_eq                                             build/decn.o
                                                  build/stats.o
                                                  build/xeq.o
                                                  build/display.o
dn_eq0                                            build/decn.o
                                                  build/matrix.o
                                                  build/alpha.o
                                                  build/stats.o
                                                  build/complex.o
                                                  build/xeq.o
                                                  build/display.o
dn_eq1                                            build/decn.o
dn_exp                                            build/decn.o
                                                  build/commands.o
                                                  build/stats.o
                                                  build/complex.o
dn_inc                                            build/decn.o
                                                  build/stats.o
                                                  build/xeq.o
                                                  build/display.o
dn_le0                                            build/decn.o
                                                  build/stats.o
                                                  build/xeq.o
dn_ln                                             build/decn.o
                                                  build/commands.o
                                                  build/stats.o
                                                  build/complex.o
dn_log10                                          build/decn.o
                                                  build/commands.o
                                                  build/xeq.o
dn_log2                                           build/decn.o
                                                  build/commands.o
dn_lt                                             build/decn.o
                                                  build/matrix.o
                                                  build/stats.o
                                                  build/xeq.o
                                                  build/display.o
dn_lt0                                            build/decn.o
                                                  build/date.o
                                                  build/xeq.o
dn_m1                                             build/decn.o
                                                  build/stats.o
                                                  build/complex.o
dn_max                                            build/decn.o
                                                  build/commands.o
                                                  build/xeq.o
dn_min                                            build/decn.o
                                                  build/commands.o
                                                  build/xeq.o
dn_minus                                          build/decn.o
                                                  build/alpha.o
                                                  build/date.o
                                                  build/stats.o
                                                  build/complex.o
                                                  build/xeq.o
                                                  build/display.o
dn_mul100                                         build/decn.o
                                                  build/date.o
                                                  build/stats.o
                                                  build/xeq.o
dn_mul2                                           build/decn.o
                                                  build/stats.o
dn_mulPI                                          build/decn.o
                                                  build/complex.o
dn_mulpow10                                       build/decn.o
                                                  build/matrix.o
                                                  build/date.o
                                                  build/xeq.o
                                                  build/display.o
dn_multiply                                       build/decn.o
                                                  build/matrix.o
                                                  build/commands.o
                                                  build/stats.o
                                                  build/complex.o
                                                  build/xeq.o
                                                  build/display.o
dn_p1                                             build/decn.o
                                                  build/stats.o
dn_p2                                             build/decn.o
                                                  build/stats.o
dn_plus                                           build/decn.o
                                                  build/complex.o
dn_power                                          build/decn.o
                                                  build/commands.o
dn_power_internal                                 build/decn.o
dn_sincos                                         build/decn.o
                                                  build/complex.o
dn_sinhcosh                                       build/decn.o
                                                  build/complex.o
dn_sqrt                                           build/decn.o
                                                  build/commands.o
                                                  build/stats.o
                                                  build/complex.o
dn_subtract                                       build/decn.o
                                                  build/matrix.o
                                                  build/commands.o
                                                  build/date.o
                                                  build/stats.o
                                                  build/complex.o
                                                  build/xeq.o
dn_to_int                                         build/decn.o
                                                  build/matrix.o
                                                  build/alpha.o
                                                  build/date.o
                                                  build/xeq.o
                                                  build/display.o
dn_to_ull                                         build/decn.o
                                                  build/stats.o
                                                  build/xeq.o
                                                  build/display.o
doFactor                                          build/int.o
                                                  build/decn.o
do_acos                                           build/decn.o
do_all_dots                                       build/lcd.o
                                                  build/console.o
do_asin                                           build/decn.o
do_atan                                           build/decn.o
do_atan2                                          build/decn.o
                                                  build/complex.o
do_conv                                           build/xeq.o
                                                  build/display.o
do_dec                                            build/xeq.o
                                                  build/keys.o
do_inc                                            build/xeq.o
                                                  build/console.o
                                                  build/storage.o
                                                  build/keys.o
do_log                                            build/decn.o
do_multi                                          build/console.o
do_now                                            build/console.o
do_usergsb                                        build/xeq.o
                                                  build/commands.o
dot                                               build/display.o
                                                  build/lcd.o
                                                  build/xeq.o
                                                  build/keys.o
drop                                              build/xeq.o
                                                  build/commands.o
                                                  build/keys.o
dyfuncs                                           build/commands.o
                                                  build/prt.o
                                                  build/xeq.o
errno                                             /usr/lib/gcc/arm-none-eabi/9.2.1/../../../arm-none-eabi/lib/thumb/v7e-m+fp/hard/libc.a(lib_a-reent.o)
                                                  /usr/lib/gcc/arm-none-eabi/9.2.1/../../../arm-none-eabi/lib/thumb/v7e-m+fp/hard/libc.a(lib_a-isattyr.o)
                                                  /usr/lib/gcc/arm-none-eabi/9.2.1/../../../arm-none-eabi/lib/thumb/v7e-m+fp/hard/libc.a(lib_a-fstatr.o)
                                                  /usr/lib/gcc/arm-none-eabi/9.2.1/../../../arm-none-eabi/lib/thumb/v7e-m+fp/hard/libc.a(lib_a-signalr.o)
                                                  /usr/lib/gcc/arm-none-eabi/9.2.1/../../../arm-none-eabi/lib/thumb/v7e-m+fp/hard/libc.a(lib_a-readr.o)
                                                  /usr/lib/gcc/arm-none-eabi/9.2.1/../../../arm-none-eabi/lib/thumb/v7e-m+fp/hard/libc.a(lib_a-lseekr.o)
                                                  /usr/lib/gcc/arm-none-eabi/9.2.1/../../../arm-none-eabi/lib/thumb/v7e-m+fp/hard/libc.a(lib_a-closer.o)
                                                  /usr/lib/gcc/arm-none-eabi/9.2.1/../../../arm-none-eabi/lib/thumb/v7e-m+fp/hard/libc.a(lib_a-writer.o)
error_message                                     build/display.o
                                                  build/storage.o
                                                  build/xeq.o
                                                  build/keys.o
exit                                              /usr/lib/gcc/arm-none-eabi/9.2.1/../../../arm-none-eabi/lib/thumb/v7e-m+fp/hard/libc.a(lib_a-exit.o)
                                                  /usr/lib/gcc/arm-none-eabi/9.2.1/../../../arm-none-eabi/lib/thumb/v7e-m+fp/hard/crt0.o
exp_bottom                                        build/lcd.o
exp_left_side                                     build/lcd.o
exp_left_side_bottom                              build/lcd.o
exp_left_side_top                                 build/lcd.o
exp_middle                                        build/lcd.o
exp_right_side                                    build/lcd.o
exp_right_side_bottom                             build/lcd.o
exp_right_side_top                                build/lcd.o
exp_top                                           build/lcd.o
extract_value                                     build/int.o
                                                  build/alpha.o
                                                  build/xeq.o
                                                  build/display.o
f_shift                                           build/console.o
fclose                                            /usr/lib/gcc/arm-none-eabi/9.2.1/../../../arm-none-eabi/lib/thumb/v7e-m+fp/hard/libc.a(lib_a-fclose.o)
fflush                                            /usr/lib/gcc/arm-none-eabi/9.2.1/../../../arm-none-eabi/lib/thumb/v7e-m+fp/hard/libc.a(lib_a-fflush.o)
fileno                                            /usr/lib/gcc/arm-none-eabi/9.2.1/../../../arm-none-eabi/lib/thumb/v7e-m+fp/hard/libc.a(lib_a-fileno.o)
                                                  /usr/lib/gcc/arm-none-eabi/9.2.1/../../../arm-none-eabi/lib/thumb/v7e-m+fp/hard/libc.a(lib_a-perror.o)
fill                                              build/xeq.o
                                                  build/commands.o
fill_buffer_from_raw_x                            build/xeq.o
fin_tst                                           build/xeq.o
                                                  build/matrix.o
                                                  build/date.o
                                                  build/int.o
find_char                                         build/string.o
                                                  build/alpha.o
                                                  build/xeq.o
                                                  build/display.o
                                                  build/keys.o
find_label_from                                   build/xeq.o
                                                  build/display.o
                                                  build/keys.o
find_opcode_from                                  build/xeq.o
                                                  build/storage.o
find_pos                                          build/keys.o
find_user_pc                                      build/xeq.o
                                                  build/keys.o
findlengths                                       build/font.o
                                                  build/console.o
                                                  build/display.o
findmultilbl                                      build/xeq.o
                                                  build/console.o
                                                  build/display.o
finish_RPN                                        build/lcd.o
                                                  build/xeq.o
                                                  build/keys.o
finish_cpx_entry                                  build/keys.o
                                                  build/xeq.o
finish_display                                    build/lcd.o
                                                  build/xeq.o
                                                  build/display.o
fiprintf                                          /usr/lib/gcc/arm-none-eabi/9.2.1/../../../arm-none-eabi/lib/thumb/v7e-m+fp/hard/libc.a(lib_a-fiprintf.o)
                                                  /usr/lib/gcc/arm-none-eabi/9.2.1/../../../arm-none-eabi/lib/thumb/v7e-m+fp/hard/libc.a(lib_a-assert.o)
flash_backup                                      build/storage.o
                                                  build/console.o
                                                  build/commands.o
flash_remove                                      build/storage.o
flash_restore                                     build/storage.o
                                                  build/console.o
                                                  build/commands.o
forceDispPlot                                     build/display.o
                                                  build/console.o
format_reg                                        build/display.o
                                                  build/alpha.o
fputwc                                            /usr/lib/gcc/arm-none-eabi/9.2.1/../../../arm-none-eabi/lib/thumb/v7e-m+fp/hard/libc.a(lib_a-fputwc.o)
free                                              build/pgm_syscalls.o
                                                  build/storage.o
                                                  build/xeq.o
free_flash                                        build/xeq.o
                                                  build/display.o
free_mem                                          build/xeq.o
                                                  build/display.o
frozen_display                                    build/display.o
                                                  build/alpha.o
g_shift                                           build/console.o
gamma_consts                                      build/decn.o
                                                  build/complex.o
getRegister                                       build/xeq.o
                                                  build/alpha.o
                                                  build/display.o
getX                                              build/xeq.o
                                                  build/matrix.o
                                                  build/date.o
                                                  build/stats.o
                                                  build/display.o
getXY                                             build/xeq.o
                                                  build/stats.o
                                                  build/decn.o
getXYZ                                            build/xeq.o
getXYZT                                           build/xeq.o
                                                  build/matrix.o
getX_int                                          build/xeq.o
                                                  build/int.o
                                                  build/stats.o
getX_int_sgn                                      build/xeq.o
                                                  build/alpha.o
getY                                              build/xeq.o
                                                  build/matrix.o
getYZ                                             build/xeq.o
get_alpha_state                                   build/keys.o
                                                  build/console.o
get_base                                          build/xeq.o
                                                  build/commands.o
get_carry                                         build/int.o
                                                  build/display.o
get_cmdline                                       build/xeq.o
                                                  build/display.o
get_const                                         build/xeq.o
                                                  build/matrix.o
                                                  build/stats.o
                                                  build/display.o
get_current_prog                                  build/xeq.o
                                                  build/storage.o
get_dispmode_digs                                 build/xeq.o
                                                  build/decn.o
                                                  build/display.o
                                                  build/keys.o
get_flash_reg_n                                   build/xeq.o
                                                  build/storage.o
get_key                                           build/console.o
get_last_menu                                     build/console.o
                                                  build/keys.o
get_maxdenom                                      build/xeq.o
                                                  build/decn.o
get_mem                                           build/xeq.o
                                                  build/commands.o
get_menu                                          build/console.o
get_overflow                                      build/int.o
                                                  build/display.o
get_reg_n                                         build/xeq.o
                                                  build/matrix.o
                                                  build/storage.o
                                                  build/stats.o
                                                  build/display.o
                                                  build/keys.o
get_reg_n_int                                     build/xeq.o
                                                  build/alpha.o
                                                  build/int.o
                                                  build/display.o
get_reg_n_int_sgn                                 build/xeq.o
                                                  build/alpha.o
get_sign_mode                                     build/xeq.o
                                                  build/commands.o
get_stack                                         build/xeq.o
get_stack_size                                    build/xeq.o
                                                  build/commands.o
get_trig_mode                                     build/xeq.o
                                                  build/decn.o
                                                  build/display.o
get_user_flag                                     build/xeq.o
                                                  build/int.o
                                                  build/display.o
get_word_size                                     build/xeq.o
                                                  build/commands.o
getdig                                            build/display.o
getprog                                           build/xeq.o
                                                  build/console.o
                                                  build/storage.o
                                                  build/display.o
                                                  build/keys.o
global_regs                                       build/xeq.o
                                                  build/storage.o
                                                  build/display.o
                                                  build/keys.o
global_regs_rarg                                  build/xeq.o
                                                  build/keys.o
h_shift                                           build/console.o
hardware_init_hook                                /usr/lib/gcc/arm-none-eabi/9.2.1/../../../arm-none-eabi/lib/thumb/v7e-m+fp/hard/crt0.o
heartbeat                                         build/console.o
incpc                                             build/xeq.o
init_34s                                          build/xeq.o
                                                  build/console.o
init_RegionTab                                    build/xeq.o
                                                  build/console.o
init_library                                      build/storage.o
init_mem                                          build/storage.o
                                                  build/console.o
init_state                                        build/keys.o
                                                  build/storage.o
                                                  build/xeq.o
int10pow                                          build/int.o
                                                  build/commands.o
int2pow                                           build/int.o
                                                  build/commands.o
intAbs                                            build/int.o
                                                  build/commands.o
intAdd                                            build/int.o
                                                  build/commands.o
                                                  build/xeq.o
intBooleanOp                                      build/int.o
                                                  build/commands.o
intChs                                            build/int.o
                                                  build/xeq.o
intCube                                           build/int.o
                                                  build/commands.o
intDblDiv                                         build/int.o
                                                  build/commands.o
intDblMul                                         build/int.o
                                                  build/commands.o
intDblRmdr                                        build/int.o
                                                  build/commands.o
intDivide                                         build/int.o
                                                  build/commands.o
                                                  build/xeq.o
intDyadic                                         build/xeq.o
                                                  build/commands.o
intFP                                             build/int.o
                                                  build/commands.o
intFactor                                         build/int.o
                                                  build/commands.o
intFib                                            build/int.o
                                                  build/commands.o
intGCD                                            build/int.o
                                                  build/commands.o
intLCM                                            build/int.o
                                                  build/commands.o
intLog10                                          build/int.o
                                                  build/commands.o
intLog2                                           build/int.o
                                                  build/commands.o
intMax                                            build/int.o
                                                  build/commands.o
                                                  build/xeq.o
intMin                                            build/int.o
                                                  build/commands.o
                                                  build/xeq.o
intMirror                                         build/int.o
                                                  build/commands.o
intMod                                            build/int.o
                                                  build/commands.o
intMonadic                                        build/xeq.o
                                                  build/commands.o
intMultiply                                       build/int.o
                                                  build/commands.o
                                                  build/xeq.o
intNot                                            build/int.o
                                                  build/commands.o
intNumBits                                        build/int.o
                                                  build/commands.o
intPower                                          build/int.o
                                                  build/commands.o
intSign                                           build/int.o
                                                  build/commands.o
intSqr                                            build/int.o
                                                  build/commands.o
intSqrt                                           build/int.o
                                                  build/commands.o
intSubtract                                       build/int.o
                                                  build/commands.o
                                                  build/xeq.o
int_1pow                                          build/int.o
                                                  build/commands.o
int_base                                          build/int.o
                                                  build/alpha.o
                                                  build/xeq.o
                                                  build/display.o
                                                  build/keys.o
int_justify                                       build/int.o
                                                  build/commands.o
int_mode                                          build/int.o
                                                  build/xeq.o
                                                  build/display.o
int_power_helper                                  build/int.o
int_to_dn                                         build/decn.o
                                                  build/matrix.o
                                                  build/date.o
                                                  build/stats.o
                                                  build/xeq.o
intbits                                           build/int.o
                                                  build/commands.o
intmodop                                          build/int.o
                                                  build/commands.o
intmsks                                           build/int.o
                                                  build/commands.o
introt                                            build/int.o
                                                  build/commands.o
intws                                             build/xeq.o
                                                  build/commands.o
isInfinite                                        build/xeq.o
                                                  build/commands.o
isNan                                             build/xeq.o
                                                  build/commands.o
isPrime                                           build/int.o
                                                  build/xeq.o
isSpecial                                         build/xeq.o
                                                  build/commands.o
isTop                                             build/xeq.o
                                                  build/commands.o
is_bad_cmdline                                    build/xeq.o
                                                  build/keys.o
is_dblmode                                        build/xeq.o
                                                  build/matrix.o
                                                  build/storage.o
                                                  build/stats.o
                                                  build/complex.o
                                                  build/decn.o
                                                  build/display.o
                                                  build/keys.o
is_dot                                            build/lcd.o
                                                  build/keys.o
is_even                                           build/decn.o
                                                  build/xeq.o
is_int                                            build/decn.o
                                                  build/date.o
                                                  build/complex.o
                                                  build/xeq.o
is_key_pressed                                    build/console.o
                                                  build/xeq.o
                                                  build/keys.o
is_usrdblmode                                     build/xeq.o
is_xrom                                           build/xeq.o
keycode_to_digit_or_register                      build/keys.o
keycode_to_row_column                             build/keys.o
                                                  build/xeq.o
keyticks                                          build/console.o
                                                  build/keys.o
left_side                                         build/lcd.o
left_side_bottom                                  build/lcd.o
left_side_top                                     build/lcd.o
library_ram                                       build/storage.o
                                                  build/xeq.o
lift                                              build/xeq.o
                                                  build/int.o
                                                  build/keys.o
lift_if_enabled                                   build/xeq.o
load_backup_file                                  build/storage.o
                                                  build/console.o
load_lib_file                                     build/storage.o
                                                  build/console.o
load_prog_file                                    build/storage.o
                                                  build/console.o
load_program                                      build/storage.o
                                                  build/commands.o
load_ram_file                                     build/storage.o
                                                  build/console.o
load_registers                                    build/storage.o
                                                  build/commands.o
load_sigma                                        build/storage.o
                                                  build/commands.o
load_state                                        build/storage.o
                                                  build/commands.o
local_levels                                      build/xeq.o
local_regs                                        build/xeq.o
                                                  build/matrix.o
                                                  build/display.o
                                                  build/keys.o
local_regs_rarg                                   build/xeq.o
                                                  build/keys.o
localeconv                                        /usr/lib/gcc/arm-none-eabi/9.2.1/../../../arm-none-eabi/lib/thumb/v7e-m+fp/hard/libc.a(lib_a-localeconv.o)
main                                              /usr/lib/gcc/arm-none-eabi/9.2.1/../../../arm-none-eabi/lib/thumb/v7e-m+fp/hard/crt0.o
main_ram                                          build/storage.o
                                                  build/console.o
                                                  build/matrix.o
                                                  build/alpha.o
                                                  build/date.o
                                                  build/int.o
                                                  build/lcd.o
                                                  build/stats.o
                                                  build/decn.o
                                                  build/prt.o
                                                  build/xeq.o
                                                  build/display.o
                                                  build/keys.o
malloc                                            build/pgm_syscalls.o
mask_value                                        build/int.o
                                                  build/commands.o
                                                  build/xeq.o
matrix_all                                        build/matrix.o
                                                  build/commands.o
matrix_col                                        build/matrix.o
                                                  build/commands.o
matrix_colq                                       build/matrix.o
                                                  build/commands.o
matrix_copy                                       build/matrix.o
                                                  build/commands.o
matrix_determinant                                build/matrix.o
                                                  build/commands.o
matrix_diag                                       build/matrix.o
                                                  build/commands.o
matrix_genadd                                     build/matrix.o
                                                  build/commands.o
matrix_getrc                                      build/matrix.o
                                                  build/commands.o
matrix_getreg                                     build/matrix.o
                                                  build/commands.o
matrix_inverse                                    build/matrix.o
                                                  build/commands.o
matrix_is_square                                  build/matrix.o
                                                  build/commands.o
matrix_linear_eqn                                 build/matrix.o
                                                  build/commands.o
matrix_lu_decomp                                  build/matrix.o
                                                  build/commands.o
matrix_multiply                                   build/matrix.o
                                                  build/commands.o
matrix_row                                        build/matrix.o
                                                  build/commands.o
matrix_rowops                                     build/matrix.o
                                                  build/commands.o
matrix_rowq                                       build/matrix.o
                                                  build/commands.o
matrix_transpose                                  build/matrix.o
                                                  build/commands.o
mdot                                              build/console.o
memchr                                            /usr/lib/gcc/arm-none-eabi/9.2.1/../../../arm-none-eabi/lib/thumb/v7e-m+fp/hard/libc.a(lib_a-memchr.o)
                                                  /usr/lib/gcc/arm-none-eabi/9.2.1/../../../arm-none-eabi/lib/thumb/v7e-m+fp/hard/libc.a(lib_a-fvwrite.o)
                                                  /usr/lib/gcc/arm-none-eabi/9.2.1/../../../arm-none-eabi/lib/thumb/v7e-m+fp/hard/libc.a(lib_a-vfiprintf.o)
                                                  /usr/lib/gcc/arm-none-eabi/9.2.1/../../../arm-none-eabi/lib/thumb/v7e-m+fp/hard/libc.a(lib_a-svfiprintf.o)
                                                  /usr/lib/gcc/arm-none-eabi/9.2.1/../../../arm-none-eabi/lib/thumb/v7e-m+fp/hard/libc.a(lib_a-svfprintf.o)
memcpy                                            /usr/lib/gcc/arm-none-eabi/9.2.1/../../../arm-none-eabi/lib/thumb/v7e-m+fp/hard/libc.a(lib_a-memcpy.o)
                                                  /usr/lib/gcc/arm-none-eabi/9.2.1/../../../arm-none-eabi/lib/thumb/v7e-m+fp/hard/libc.a(lib_a-fvwrite.o)
                                                  /usr/lib/gcc/arm-none-eabi/9.2.1/../../../arm-none-eabi/lib/thumb/v7e-m+fp/hard/libc.a(lib_a-svfiprintf.o)
                                                  /usr/lib/gcc/arm-none-eabi/9.2.1/../../../arm-none-eabi/lib/thumb/v7e-m+fp/hard/libc.a(lib_a-mprec.o)
                                                  /usr/lib/gcc/arm-none-eabi/9.2.1/../../../arm-none-eabi/lib/thumb/v7e-m+fp/hard/libc.a(lib_a-dtoa.o)
                                                  /usr/lib/gcc/arm-none-eabi/9.2.1/../../../arm-none-eabi/lib/thumb/v7e-m+fp/hard/libc.a(lib_a-strdup_r.o)
memmove                                           /usr/lib/gcc/arm-none-eabi/9.2.1/../../../arm-none-eabi/lib/thumb/v7e-m+fp/hard/libc.a(lib_a-memmove.o)
                                                  /usr/lib/gcc/arm-none-eabi/9.2.1/../../../arm-none-eabi/lib/thumb/v7e-m+fp/hard/libc.a(lib_a-fvwrite.o)
                                                  /usr/lib/gcc/arm-none-eabi/9.2.1/../../../arm-none-eabi/lib/thumb/v7e-m+fp/hard/libc.a(lib_a-svfiprintf.o)
memset                                            /usr/lib/gcc/arm-none-eabi/9.2.1/../../../arm-none-eabi/lib/thumb/v7e-m+fp/hard/libc.a(lib_a-memset.o)
                                                  /usr/lib/gcc/arm-none-eabi/9.2.1/../../../arm-none-eabi/lib/thumb/v7e-m+fp/hard/libc.a(lib_a-findfp.o)
                                                  /usr/lib/gcc/arm-none-eabi/9.2.1/../../../arm-none-eabi/lib/thumb/v7e-m+fp/hard/crt0.o
menu_line_str                                     build/console.o
message                                           build/display.o
                                                  build/xeq.o
                                                  build/keys.o
mid_menu                                          build/console.o
middle                                            build/lcd.o
monfuncs                                          build/commands.o
                                                  build/prt.o
                                                  build/xeq.o
                                                  build/display.o
move_regs                                         build/xeq.o
move_retstk                                       build/xeq.o
                                                  build/stats.o
moveto                                            build/console.o
multialpha                                        build/alpha.o
                                                  build/commands.o
multicmds                                         build/commands.o
                                                  build/prt.o
                                                  build/xeq.o
                                                  build/display.o
n_p                                               build/console.o
nd_opcode                                         build/keys.o
niladics                                          build/commands.o
                                                  build/prt.o
                                                  build/xeq.o
no_key                                            build/console.o
no_status_top                                     build/display.o
not_running                                       build/xeq.o
                                                  build/storage.o
num_arg                                           build/string.o
                                                  build/date.o
                                                  build/display.o
num_arg_0                                         build/string.o
                                                  build/date.o
                                                  build/prt.o
                                                  build/xeq.o
                                                  build/display.o
num_arg_digits                                    build/prt.o
                                                  build/keys.o
op_2frac                                          build/xeq.o
                                                  build/commands.o
op_double                                         build/xeq.o
                                                  build/commands.o
op_entryp                                         build/xeq.o
                                                  build/commands.o
op_float                                          build/xeq.o
                                                  build/commands.o
op_fracdenom                                      build/xeq.o
                                                  build/commands.o
op_fract                                          build/xeq.o
                                                  build/commands.o
op_gtoalpha                                       build/xeq.o
                                                  build/commands.o
op_p2r                                            build/decn.o
                                                  build/commands.o
                                                  build/keys.o
op_popusr                                         build/xeq.o
                                                  build/commands.o
op_prompt                                         build/xeq.o
                                                  build/commands.o
op_query_print                                    build/xeq.o
                                                  build/commands.o
op_query_xtal                                     build/xeq.o
                                                  build/commands.o
op_r2p                                            build/decn.o
                                                  build/commands.o
                                                  build/display.o
op_regclr                                         build/xeq.o
                                                  build/commands.o
op_regcopy                                        build/xeq.o
                                                  build/commands.o
op_regsort                                        build/xeq.o
                                                  build/commands.o
op_regswap                                        build/xeq.o
                                                  build/commands.o
op_roundingmode                                   build/xeq.o
                                                  build/commands.o
op_rs                                             build/xeq.o
                                                  build/commands.o
op_rtn                                            build/xeq.o
                                                  build/commands.o
op_setspeed                                       build/xeq.o
                                                  build/commands.o
op_shift_digit                                    build/xeq.o
                                                  build/commands.o
op_ticks                                          build/xeq.o
                                                  build/commands.o
op_voltage                                        build/xeq.o
                                                  build/commands.o
open_selected_file                                build/storage.o
packed128_from_number                             build/xeq.o
                                                  build/matrix.o
                                                  build/stats.o
packed128_from_packed                             build/xeq.o
                                                  build/stats.o
packed_from_number                                build/xeq.o
                                                  build/matrix.o
                                                  build/stats.o
                                                  build/display.o
packed_from_packed128                             build/xeq.o
                                                  build/matrix.o
                                                  build/stats.o
paste_raw_x                                       build/xeq.o
perror                                            /usr/lib/gcc/arm-none-eabi/9.2.1/../../../arm-none-eabi/lib/thumb/v7e-m+fp/hard/libc.a(lib_a-perror.o)
                                                  build/storage.o
pixel_length                                      build/display.o
                                                  build/console.o
post_main                                         build/pgm_syscalls.o
                                                  build/startup_pgm.o
powers                                            build/libdecNumber.a(decNumber.o)
                                                  build/libdecNumber.a(decimal64.o)
print_debug                                       build/console.o
print_debug2                                      build/console.o
print_string                                      build/console.o
process_cmdline                                   build/xeq.o
                                                  build/keys.o
process_cmdline_set_lift                          build/xeq.o
                                                  build/storage.o
                                                  build/keys.o
process_keycode                                   build/keys.o
process_keycode_with_shift                        build/keys.o
                                                  build/console.o
prog_info                                         build/pgm_syscalls.o
program_main                                      build/console.o
                                                  build/startup_pgm.o
prt                                               build/prt.o
                                                  build/xeq.o
                                                  build/display.o
                                                  build/keys.o
put_key                                           build/console.o
                                                  build/xeq.o
put_user_flag                                     build/xeq.o
raise                                             /usr/lib/gcc/arm-none-eabi/9.2.1/../../../arm-none-eabi/lib/thumb/v7e-m+fp/hard/libc.a(lib_a-signal.o)
                                                  /usr/lib/gcc/arm-none-eabi/9.2.1/../../../arm-none-eabi/lib/thumb/v7e-m+fp/hard/libc.a(lib_a-abort.o)
rarg_round                                        build/xeq.o
                                                  build/commands.o
rarg_roundingmode                                 build/xeq.o
                                                  build/commands.o
realloc                                           build/pgm_syscalls.o
recall_program                                    build/storage.o
                                                  build/commands.o
reg_decode                                        build/xeq.o
relative_error                                    build/decn.o
                                                  build/xeq.o
release                                           build/console.o
remap_chars                                       build/charmap.o
                                                  build/keys.o
replace_char                                      build/string.o
                                                  build/display.o
report_err                                        build/xeq.o
                                                  build/matrix.o
                                                  build/storage.o
                                                  build/date.o
                                                  build/int.o
                                                  build/stats.o
report_warn                                       build/xeq.o
                                                  build/storage.o
reset                                             build/storage.o
                                                  build/xeq.o
                                                  build/keys.o
reset_disp                                        build/lcd.o
                                                  build/display.o
reset_shift                                       build/keys.o
                                                  build/console.o
                                                  build/storage.o
                                                  build/xeq.o
reset_volatile_state                              build/xeq.o
right_side                                        build/lcd.o
right_side_bottom                                 build/lcd.o
right_side_top                                    build/lcd.o
roll_down                                         build/xeq.o
                                                  build/commands.o
roll_up                                           build/xeq.o
                                                  build/commands.o
row_column_to_keycode                             build/keys.o
                                                  build/xeq.o
run_menu_item                                     build/console.o
s_to_i                                            build/xeq.o
                                                  build/display.o
s_to_ull                                          build/xeq.o
                                                  build/decn.o
save_lib_file                                     build/storage.o
                                                  build/console.o
save_prog_file                                    build/storage.o
                                                  build/console.o
save_ram_file                                     build/storage.o
                                                  build/console.o
scopy                                             build/string.o
                                                  build/alpha.o
                                                  build/date.o
                                                  build/prt.o
                                                  build/xeq.o
                                                  build/display.o
scopy_char                                        build/string.o
                                                  build/xeq.o
                                                  build/display.o
                                                  build/keys.o
scopy_spc                                         build/string.o
                                                  build/display.o
setRegister                                       build/xeq.o
                                                  build/stats.o
                                                  build/decn.o
setX                                              build/xeq.o
                                                  build/date.o
                                                  build/stats.o
setXY                                             build/xeq.o
                                                  build/decn.o
setX_int                                          build/xeq.o
                                                  build/int.o
setX_int_sgn                                      build/xeq.o
                                                  build/alpha.o
                                                  build/stats.o
setY                                              build/xeq.o
                                                  build/matrix.o
                                                  build/stats.o
set_IO_annunciator                                build/display.o
set_NaN                                           build/decn.o
                                                  build/date.o
                                                  build/stats.o
                                                  build/complex.o
                                                  build/xeq.o
                                                  build/display.o
set_carry                                         build/int.o
                                                  build/xeq.o
set_default_menu                                  build/console.o
                                                  build/keys.o
set_dispmode_digs                                 build/xeq.o
set_dot                                           build/lcd.o
                                                  build/xeq.o
                                                  build/display.o
set_entry                                         build/xeq.o
                                                  build/alpha.o
set_inf                                           build/decn.o
                                                  build/complex.o
set_int_base                                      build/xeq.o
                                                  build/commands.o
set_last_menu                                     build/console.o
                                                  build/keys.o
set_lift                                          build/xeq.o
                                                  build/keys.o
set_menu                                          build/console.o
                                                  build/keys.o
set_neginf                                        build/decn.o
                                                  build/complex.o
set_overflow                                      build/int.o
                                                  build/xeq.o
set_pc                                            build/xeq.o
                                                  build/storage.o
                                                  build/keys.o
set_reg_n_int                                     build/xeq.o
                                                  build/int.o
set_reg_n_int_sgn                                 build/xeq.o
                                                  build/alpha.o
set_running_off                                   build/xeq.o
                                                  build/keys.o
set_running_off_sst                               build/xeq.o
set_running_on                                    build/xeq.o
set_running_on_sst                                build/xeq.o
set_x_dn                                          build/display.o
setlastX                                          build/xeq.o
                                                  build/int.o
                                                  build/decn.o
setlocale                                         /usr/lib/gcc/arm-none-eabi/9.2.1/../../../arm-none-eabi/lib/thumb/v7e-m+fp/hard/libc.a(lib_a-locale.o)
setuptty                                          build/lcd.o
shift_down                                        build/console.o
                                                  build/keys.o
show_disp                                         build/lcd.o
show_flags                                        build/lcd.o
                                                  build/display.o
show_progtrace                                    build/lcd.o
show_stack                                        build/lcd.o
                                                  build/display.o
shutdown                                          build/console.o
                                                  build/xeq.o
sigmaCheck                                        build/stats.o
sigmaCopy                                         build/stats.o
                                                  build/storage.o
sigmaDeallocate                                   build/stats.o
                                                  build/storage.o
sigma_clear                                       build/stats.o
                                                  build/commands.o
sigma_minus                                       build/stats.o
                                                  build/xeq.o
sigma_plus                                        build/stats.o
                                                  build/xeq.o
sigma_plus_x                                      build/stats.o
sigma_sum                                         build/stats.o
                                                  build/commands.o
sigma_val                                         build/stats.o
                                                  build/commands.o
                                                  build/xeq.o
                                                  build/display.o
signal                                            /usr/lib/gcc/arm-none-eabi/9.2.1/../../../arm-none-eabi/lib/thumb/v7e-m+fp/hard/libc.a(lib_a-signal.o)
sincosTaylor                                      build/decn.o
                                                  build/complex.o
sizeLIB                                           build/xeq.o
                                                  build/keys.o
slen                                              build/string.o
                                                  build/display.o
sncopy                                            build/string.o
                                                  build/prt.o
sncopy_char                                       build/string.o
                                                  build/prt.o
sncopy_spc                                        build/string.o
soft_init_state                                   build/keys.o
software_init_hook                                /usr/lib/gcc/arm-none-eabi/9.2.1/../../../arm-none-eabi/lib/thumb/v7e-m+fp/hard/crt0.o
spaces                                            build/console.o
sprintf                                           /usr/lib/gcc/arm-none-eabi/9.2.1/../../../arm-none-eabi/lib/thumb/v7e-m+fp/hard/libc.a(lib_a-sprintf.o)
                                                  build/console.o
                                                  build/xeq.o
stack_begin                                       build/keys.o
                                                  build/xeq.o
stack_size                                        build/xeq.o
                                                  build/display.o
start_key_timer                                   build/console.o
stats_COV                                         build/stats.o
                                                  build/commands.o
stats_LR                                          build/stats.o
                                                  build/commands.o
stats_correlation                                 build/stats.o
                                                  build/commands.o
stats_deviations                                  build/stats.o
                                                  build/commands.o
stats_gmean                                       build/stats.o
                                                  build/commands.o
stats_mean                                        build/stats.o
                                                  build/commands.o
stats_mode                                        build/stats.o
                                                  build/commands.o
stats_random                                      build/stats.o
                                                  build/commands.o
stats_sigper                                      build/stats.o
                                                  build/commands.o
stats_sto_random                                  build/stats.o
                                                  build/commands.o
stats_wdeviations                                 build/stats.o
                                                  build/commands.o
stats_wmean                                       build/stats.o
                                                  build/commands.o
stats_xhat                                        build/stats.o
                                                  build/commands.o
stats_yhat                                        build/stats.o
                                                  build/commands.o
std_round_fix                                     build/display.o
                                                  build/decn.o
stoprog                                           build/storage.o
                                                  build/keys.o
store_a_to_d                                      build/xeq.o
                                                  build/commands.o
store_program                                     build/storage.o
                                                  build/commands.o
store_program_from_buffer                         build/storage.o
strchr                                            /usr/lib/gcc/arm-none-eabi/9.2.1/../../../arm-none-eabi/lib/thumb/v7e-m+fp/hard/libc.a(lib_a-strchr.o)
                                                  build/xeq.o
strcmp                                            /usr/lib/gcc/arm-none-eabi/9.2.1/../../../arm-none-eabi/lib/thumb/v7e-m+fp/hard/libc.a(lib_a-strcmp.o)
                                                  /usr/lib/gcc/arm-none-eabi/9.2.1/../../../arm-none-eabi/lib/thumb/v7e-m+fp/hard/libc.a(lib_a-locale.o)
strcpy                                            /usr/lib/gcc/arm-none-eabi/9.2.1/../../../arm-none-eabi/lib/thumb/v7e-m+fp/hard/libc.a(lib_a-strcpy.o)
                                                  build/console.o
strdup                                            /usr/lib/gcc/arm-none-eabi/9.2.1/../../../arm-none-eabi/lib/thumb/v7e-m+fp/hard/libc.a(lib_a-strdup.o)
                                                  build/xeq.o
strerror                                          /usr/lib/gcc/arm-none-eabi/9.2.1/../../../arm-none-eabi/lib/thumb/v7e-m+fp/hard/libc.a(lib_a-strerror.o)
strerror_l                                        /usr/lib/gcc/arm-none-eabi/9.2.1/../../../arm-none-eabi/lib/thumb/v7e-m+fp/hard/libc.a(lib_a-strerror.o)
strlen                                            /usr/lib/gcc/arm-none-eabi/9.2.1/../../../arm-none-eabi/lib/thumb/v7e-m+fp/hard/libc.a(lib_a-strlen.o)
                                                  /usr/lib/gcc/arm-none-eabi/9.2.1/../../../arm-none-eabi/lib/thumb/v7e-m+fp/hard/libc.a(lib_a-vfiprintf.o)
                                                  /usr/lib/gcc/arm-none-eabi/9.2.1/../../../arm-none-eabi/lib/thumb/v7e-m+fp/hard/libc.a(lib_a-svfiprintf.o)
                                                  /usr/lib/gcc/arm-none-eabi/9.2.1/../../../arm-none-eabi/lib/thumb/v7e-m+fp/hard/libc.a(lib_a-svfprintf.o)
                                                  /usr/lib/gcc/arm-none-eabi/9.2.1/../../../arm-none-eabi/lib/thumb/v7e-m+fp/hard/libc.a(lib_a-strdup_r.o)
                                                  /usr/lib/gcc/arm-none-eabi/9.2.1/../../../arm-none-eabi/lib/thumb/v7e-m+fp/hard/libc.a(lib_a-perror.o)
strncpy                                           /usr/lib/gcc/arm-none-eabi/9.2.1/../../../arm-none-eabi/lib/thumb/v7e-m+fp/hard/libc.a(lib_a-strncpy.o)
                                                  build/console.o
strtok                                            /usr/lib/gcc/arm-none-eabi/9.2.1/../../../arm-none-eabi/lib/thumb/v7e-m+fp/hard/libc.a(lib_a-strtok.o)
                                                  build/xeq.o
strtok_r                                          /usr/lib/gcc/arm-none-eabi/9.2.1/../../../arm-none-eabi/lib/thumb/v7e-m+fp/hard/libc.a(lib_a-strtok_r.o)
strtoull                                          /usr/lib/gcc/arm-none-eabi/9.2.1/../../../arm-none-eabi/lib/thumb/v7e-m+fp/hard/libc.a(lib_a-strtoull.o)
                                                  build/xeq.o
strtoull_l                                        /usr/lib/gcc/arm-none-eabi/9.2.1/../../../arm-none-eabi/lib/thumb/v7e-m+fp/hard/libc.a(lib_a-strtoull.o)
swap_reg                                          build/xeq.o
                                                  build/matrix.o
                                                  build/keys.o
toggle_default_menu                               build/console.o
top                                               build/lcd.o
trifuncs                                          build/commands.o
                                                  build/prt.o
                                                  build/xeq.o
ullint_to_dn                                      build/libdecNumber.a(decNumber.o)
                                                  build/stats.o
                                                  build/decn.o
                                                  build/xeq.o
unpackchar                                        build/font.o
                                                  build/console.o
                                                  build/display.o
update_program_bounds                             build/xeq.o
                                                  build/storage.o
                                                  build/keys.o
user_pc                                           build/xeq.o
                                                  build/display.o
version                                           build/xeq.o
                                                  build/commands.o
vfiprintf                                         /usr/lib/gcc/arm-none-eabi/9.2.1/../../../arm-none-eabi/lib/thumb/v7e-m+fp/hard/libc.a(lib_a-vfiprintf.o)
wait_for_display                                  build/lcd.o
                                                  build/display.o
wcrtomb                                           /usr/lib/gcc/arm-none-eabi/9.2.1/../../../arm-none-eabi/lib/thumb/v7e-m+fp/hard/libc.a(lib_a-wcrtomb.o)
word_size                                         build/int.o
                                                  build/alpha.o
                                                  build/xeq.o
                                                  build/display.o
xcopy                                             build/string.o
                                                  build/matrix.o
                                                  build/storage.o
                                                  build/alpha.o
                                                  build/stats.o
                                                  build/xeq.o
                                                  build/display.o
xeq                                               build/xeq.o
                                                  build/keys.o
xeq_init_contexts                                 build/xeq.o
                                                  build/storage.o
                                                  build/keys.o
xeq_sst_bst                                       build/xeq.o
                                                  build/keys.o
xeq_xrom                                          build/xeq.o
                                                  build/keys.o
xeqprog                                           build/xeq.o
                                                  build/keys.o
xrom                                              build/xrom.o
                                                  build/commands.o
                                                  build/xeq.o
xrom_size                                         build/xrom.o
                                                  build/xeq.o
xrom_targets                                      build/xeq.o
xset                                              build/string.o
                                                  build/storage.o
                                                  build/alpha.o
                                                  build/date.o
                                                  build/int.o
                                                  build/stats.o
                                                  build/prt.o
                                                  build/xeq.o
                                                  build/display.o
                                                  build/keys.o
zero_X                                            build/xeq.o
                                                  build/stats.o
                                                  build/keys.o
zero_Y                                            build/xeq.o
                                                  build/keys.o
zero_regs                                         build/xeq.o
