ARM GAS  /tmp/ccBFDvgN.s 			page 1


   1              		.arch armv7e-m
   2              		.eabi_attribute 27, 1
   3              		.eabi_attribute 28, 1
   4              		.eabi_attribute 20, 1
   5              		.eabi_attribute 21, 1
   6              		.eabi_attribute 23, 3
   7              		.eabi_attribute 24, 1
   8              		.eabi_attribute 25, 1
   9              		.eabi_attribute 26, 1
  10              		.eabi_attribute 30, 2
  11              		.eabi_attribute 34, 1
  12              		.eabi_attribute 18, 4
  13              		.file	"xeq.c"
  14              		.text
  15              	.Ltext0:
  16              		.cfi_sections	.debug_frame
  17              		.section	.text.find_section_bounds,"ax",%progbits
  18              		.align	1
  19              		.p2align 2,,3
  20              		.arch armv7e-m
  21              		.syntax unified
  22              		.thumb
  23              		.thumb_func
  24              		.fpu fpv4-sp-d16
  26              	find_section_bounds:
  27              	.LVL0:
  28              	.LFB19:
  29              		.file 1 "src/xeq.c"
   1:src/xeq.c     **** /* This file is part of 34S.
   2:src/xeq.c     ****  * 
   3:src/xeq.c     ****  * 34S is free software: you can redistribute it and/or modify
   4:src/xeq.c     ****  * it under the terms of the GNU General Public License as published by
   5:src/xeq.c     ****  * the Free Software Foundation, either version 3 of the License, or
   6:src/xeq.c     ****  * (at your option) any later version.
   7:src/xeq.c     ****  * 
   8:src/xeq.c     ****  * 34S is distributed in the hope that it will be useful,
   9:src/xeq.c     ****  * but WITHOUT ANY WARRANTY; without even the implied warranty of
  10:src/xeq.c     ****  * MERCHANTABILITY or FITNESS FOR A PARTICULAR PURPOSE.  See the
  11:src/xeq.c     ****  * GNU General Public License for more details.
  12:src/xeq.c     ****  * 
  13:src/xeq.c     ****  * You should have received a copy of the GNU General Public License
  14:src/xeq.c     ****  * along with 34S.  If not, see <http://www.gnu.org/licenses/>.
  15:src/xeq.c     ****  */
  16:src/xeq.c     **** 
  17:src/xeq.c     **** #ifndef REALBUILD
  18:src/xeq.c     **** 
  19:src/xeq.c     **** #if defined(WIN32) && !defined(QTGUI) && !defined(IOS) && !defined(__GNUC__) && !defined(DM42)
  20:src/xeq.c     **** 
  21:src/xeq.c     **** #include <stdlib.h>  // sleep
  22:src/xeq.c     **** #include "win32.h"
  23:src/xeq.c     **** #define sleep _sleep
  24:src/xeq.c     **** #define strtoull _strtoui64
  25:src/xeq.c     **** 
  26:src/xeq.c     **** #else
  27:src/xeq.c     **** 
  28:src/xeq.c     **** #ifdef DM42
  29:src/xeq.c     **** #include "dmcp.h"
ARM GAS  /tmp/ccBFDvgN.s 			page 2


  30:src/xeq.c     **** #else
  31:src/xeq.c     **** #include <unistd.h>
  32:src/xeq.c     **** #include <sys/time.h>
  33:src/xeq.c     **** extern unsigned long long strtoull(const char *, char **, int);
  34:src/xeq.c     **** #endif
  35:src/xeq.c     **** 
  36:src/xeq.c     **** #endif
  37:src/xeq.c     **** 
  38:src/xeq.c     **** #include <stdio.h>   // (s)printf
  39:src/xeq.c     **** #include <string.h>
  40:src/xeq.c     **** #include <stdlib.h>
  41:src/xeq.c     **** 
  42:src/xeq.c     **** #endif // not REALBUILD
  43:src/xeq.c     **** 
  44:src/xeq.c     **** #ifdef IOS
  45:src/xeq.c     **** #include <stdarg.h>
  46:src/xeq.c     **** #endif
  47:src/xeq.c     **** 
  48:src/xeq.c     **** #if __GNUC__ >= 4 && __GNUC_MINOR__ >= 6
  49:src/xeq.c     **** #define GNUC_POP_ERROR
  50:src/xeq.c     **** #pragma GCC diagnostic push
  51:src/xeq.c     **** #pragma GCC diagnostic ignored "-Warray-bounds"
  52:src/xeq.c     **** #endif
  53:src/xeq.c     **** 
  54:src/xeq.c     **** #define XEQ_INTERNAL 1
  55:src/xeq.c     **** #define DM42SAFE
  56:src/xeq.c     **** #include "xeq.h"
  57:src/xeq.c     **** #ifdef DM42
  58:src/xeq.c     **** #include "keys.h"
  59:src/xeq.c     **** #endif
  60:src/xeq.c     **** #include "storage.h"
  61:src/xeq.c     **** #include "decn.h"
  62:src/xeq.c     **** #include "complex.h"
  63:src/xeq.c     **** #include "stats.h"
  64:src/xeq.c     **** #include "display.h"
  65:src/xeq.c     **** #include "consts.h"
  66:src/xeq.c     **** #include "int.h"
  67:src/xeq.c     **** #include "date.h"
  68:src/xeq.c     **** #include "lcd.h"
  69:src/xeq.c     **** #include "xrom.h"
  70:src/xeq.c     **** #include "alpha.h"
  71:src/xeq.c     **** #ifdef INCLUDE_STOPWATCH
  72:src/xeq.c     **** #include "stopwatch.h"
  73:src/xeq.c     **** #endif
  74:src/xeq.c     **** #ifndef DM42
  75:src/xeq.c     **** #include "printer.h"
  76:src/xeq.c     **** #endif
  77:src/xeq.c     **** #undef DM42SAFE
  78:src/xeq.c     **** 
  79:src/xeq.c     **** #include "pretty.h"
  80:src/xeq.c     **** 
  81:src/xeq.c     **** 
  82:src/xeq.c     **** #include "xrom_targets.c"	// Generated by PP
  83:src/xeq.c     **** 
  84:src/xeq.c     **** /* Define the number of program Ticks that must elapse between flashing the
  85:src/xeq.c     ****  * RCL annunciator.
  86:src/xeq.c     ****  */
ARM GAS  /tmp/ccBFDvgN.s 			page 3


  87:src/xeq.c     **** #define TICKS_PER_FLASH	(5)
  88:src/xeq.c     **** 
  89:src/xeq.c     **** /*
  90:src/xeq.c     ****  *  A program is running
  91:src/xeq.c     ****  */
  92:src/xeq.c     **** FLAG Running;
  93:src/xeq.c     **** FLAG XromRunning;
  94:src/xeq.c     **** 
  95:src/xeq.c     **** #ifndef CONSOLE
  96:src/xeq.c     **** /*
  97:src/xeq.c     ****  *  A program has just stopped
  98:src/xeq.c     ****  */
  99:src/xeq.c     **** FLAG JustStopped;
 100:src/xeq.c     **** #endif
 101:src/xeq.c     **** 
 102:src/xeq.c     **** /*
 103:src/xeq.c     ****  *  Count down counter for a programmed pause
 104:src/xeq.c     ****  */
 105:src/xeq.c     **** volatile unsigned char Pause;
 106:src/xeq.c     **** 
 107:src/xeq.c     **** /*
 108:src/xeq.c     ****  *  Some long running function has called busy();
 109:src/xeq.c     ****  */
 110:src/xeq.c     **** FLAG Busy;
 111:src/xeq.c     **** 
 112:src/xeq.c     **** /*
 113:src/xeq.c     ****  *  Error code
 114:src/xeq.c     ****  */
 115:src/xeq.c     **** SMALL_INT Error;
 116:src/xeq.c     **** 
 117:src/xeq.c     **** /*
 118:src/xeq.c     ****  *  Indication of PC wrap around
 119:src/xeq.c     ****  */
 120:src/xeq.c     **** FLAG PcWrapped;
 121:src/xeq.c     **** 
 122:src/xeq.c     **** /*
 123:src/xeq.c     ****  *  Currently executed function
 124:src/xeq.c     ****  */
 125:src/xeq.c     **** s_opcode XeqOpCode;
 126:src/xeq.c     **** 
 127:src/xeq.c     **** /*
 128:src/xeq.c     ****  *  Temporary display (not X)
 129:src/xeq.c     ****  */
 130:src/xeq.c     **** SMALL_INT ShowRegister;
 131:src/xeq.c     **** 
 132:src/xeq.c     **** /*
 133:src/xeq.c     ****  *  User code being called from XROM
 134:src/xeq.c     ****  */
 135:src/xeq.c     **** SMALL_INT XromUserPc;
 136:src/xeq.c     **** SMALL_INT UserLocalRegs;
 137:src/xeq.c     **** 
 138:src/xeq.c     **** /* We need various different math contexts.
 139:src/xeq.c     ****  * More efficient to define these globally and reuse them as needed.
 140:src/xeq.c     ****  */
 141:src/xeq.c     **** decContext Ctx;
 142:src/xeq.c     **** 
 143:src/xeq.c     **** /*
ARM GAS  /tmp/ccBFDvgN.s 			page 4


 144:src/xeq.c     ****  * A buffer for instruction display
 145:src/xeq.c     ****  */
 146:src/xeq.c     **** char TraceBuffer[25];
 147:src/xeq.c     **** 
 148:src/xeq.c     **** /*
 149:src/xeq.c     ****  *  Total Size of the return stack
 150:src/xeq.c     ****  */
 151:src/xeq.c     **** SMALL_INT RetStkSize;
 152:src/xeq.c     **** 
 153:src/xeq.c     **** /*
 154:src/xeq.c     ****  *  Number of remaining program steps
 155:src/xeq.c     ****  */
 156:src/xeq.c     **** SMALL_INT ProgFree;
 157:src/xeq.c     **** 
 158:src/xeq.c     **** /*
 159:src/xeq.c     ****  * The actual top of the return stack
 160:src/xeq.c     ****  */
 161:src/xeq.c     **** unsigned short *RetStk;
 162:src/xeq.c     **** 
 163:src/xeq.c     **** /*
 164:src/xeq.c     ****  *  The location of the RPN stack
 165:src/xeq.c     ****  */
 166:src/xeq.c     **** REGISTER *StackBase;
 167:src/xeq.c     **** 
 168:src/xeq.c     **** #ifdef INFRARED
 169:src/xeq.c     **** /*
 170:src/xeq.c     ****  *  Is tracing active?
 171:src/xeq.c     ****  */
 172:src/xeq.c     **** FLAG Tracing;
 173:src/xeq.c     **** #endif
 174:src/xeq.c     **** 
 175:src/xeq.c     **** /*
 176:src/xeq.c     **** *	Indicates that a coordinate converstion has just happened
 177:src/xeq.c     **** */
 178:src/xeq.c     **** #ifdef RP_PREFIX
 179:src/xeq.c     **** SMALL_INT RectPolConv; // 1 - R->P just done; 2 - P->R just done
 180:src/xeq.c     **** #endif
 181:src/xeq.c     **** 
 182:src/xeq.c     **** /*
 183:src/xeq.c     ****  *  Check if the current PC is in XROM
 184:src/xeq.c     ****  */
 185:src/xeq.c     **** int is_xrom(void) {
 186:src/xeq.c     **** 	return isXROM(state_pc());
 187:src/xeq.c     **** }
 188:src/xeq.c     **** 
 189:src/xeq.c     **** /*
 190:src/xeq.c     ****  *  Shift the return stack.
 191:src/xeq.c     ****  *  The distance is in levels.
 192:src/xeq.c     ****  *  If argument is negative, return stack will shrink.
 193:src/xeq.c     ****  *  Returns 1 if unsuccessful (error is set)
 194:src/xeq.c     ****  */
 195:src/xeq.c     **** int move_retstk(int distance)
 196:src/xeq.c     **** {
 197:src/xeq.c     **** #ifndef REALBUILD
 198:src/xeq.c     **** 	// Sanity check
 199:src/xeq.c     **** 	if (XromFlags.xIN) {
 200:src/xeq.c     **** 		report_err(ERR_ILLEGAL);
ARM GAS  /tmp/ccBFDvgN.s 			page 5


 201:src/xeq.c     **** 		return 1;
 202:src/xeq.c     **** 	}
 203:src/xeq.c     **** #endif
 204:src/xeq.c     **** 	if (RetStkSize + RetStkPtr + distance < 0) {
 205:src/xeq.c     **** 		report_err(ERR_RAM_FULL);
 206:src/xeq.c     **** 		return 1;
 207:src/xeq.c     **** 	}
 208:src/xeq.c     **** 	xcopy(RetStk + RetStkPtr + distance, RetStk + RetStkPtr, (-RetStkPtr) << 1);
 209:src/xeq.c     **** 	RetStk += distance;
 210:src/xeq.c     **** 	RetStkSize += distance;
 211:src/xeq.c     **** 	return 0;
 212:src/xeq.c     **** }
 213:src/xeq.c     **** 
 214:src/xeq.c     **** /*
 215:src/xeq.c     ****  *  How many stack levels with local data have we?
 216:src/xeq.c     ****  */
 217:src/xeq.c     **** int local_levels(void) {
 218:src/xeq.c     **** 	return LocalRegs < 0 ? LOCAL_LEVELS(RetStk[LocalRegs]) : 0;
 219:src/xeq.c     **** }
 220:src/xeq.c     **** 
 221:src/xeq.c     **** /*
 222:src/xeq.c     ****  *  How many local registers have we?
 223:src/xeq.c     ****  *  The result depends on the RARG operation to allow for "alien" RCL commands
 224:src/xeq.c     ****  */
 225:src/xeq.c     **** int local_regs_rarg(enum rarg op) {
 226:src/xeq.c     **** 	const int dbl = op != RARG_sRCL && op != RARG_iRCL && (op == RARG_dRCL || is_dblmode()); 
 227:src/xeq.c     **** 	return local_levels() >> (2 + dbl);
 228:src/xeq.c     **** }
 229:src/xeq.c     **** 
 230:src/xeq.c     **** /*
 231:src/xeq.c     ****  *  How many local registers have we?
 232:src/xeq.c     ****  */
 233:src/xeq.c     **** int local_regs(void) {
 234:src/xeq.c     **** 	return local_regs_rarg(RARG_RCL);
 235:src/xeq.c     **** }
 236:src/xeq.c     **** 
 237:src/xeq.c     **** /*
 238:src/xeq.c     ****  *  How many global registers have we?
 239:src/xeq.c     ****  *  The result depends on the RARG operation to allow for "alien" RCL commands
 240:src/xeq.c     ****  */
 241:src/xeq.c     **** unsigned int global_regs_rarg(enum rarg op) {
 242:src/xeq.c     **** 	if (is_dblmode() || op == RARG_dRCL) {
 243:src/xeq.c     **** 		const int num_regs = NumRegs - STACK_SIZE - EXTRA_REG;
 244:src/xeq.c     **** 		return op == RARG_sRCL || op == RARG_iRCL ? num_regs : num_regs >> 1; 
 245:src/xeq.c     **** 	}
 246:src/xeq.c     **** 	else
 247:src/xeq.c     **** 		return NumRegs;
 248:src/xeq.c     **** }
 249:src/xeq.c     **** 
 250:src/xeq.c     **** /*
 251:src/xeq.c     ****  *  How many global registers have we?
 252:src/xeq.c     ****  */
 253:src/xeq.c     **** unsigned int global_regs(void) {
 254:src/xeq.c     **** 	return global_regs_rarg(RARG_RCL);
 255:src/xeq.c     **** }
 256:src/xeq.c     **** 
 257:src/xeq.c     **** 
ARM GAS  /tmp/ccBFDvgN.s 			page 6


 258:src/xeq.c     **** #if defined(CONSOLE)
 259:src/xeq.c     **** // Console screen only
 260:src/xeq.c     **** unsigned int get_local_flags(void) {
 261:src/xeq.c     **** 	if (LocalRegs == 0)
 262:src/xeq.c     **** 		return 0;
 263:src/xeq.c     **** 	return RetStk[LocalRegs + 1];
 264:src/xeq.c     **** }
 265:src/xeq.c     **** #endif
 266:src/xeq.c     **** 
 267:src/xeq.c     **** void version(enum nilop op) {
 268:src/xeq.c     **** 	State2.version = 1;
 269:src/xeq.c     **** 	if (!State2.runmode)
 270:src/xeq.c     **** 		display();
 271:src/xeq.c     **** }
 272:src/xeq.c     **** 
 273:src/xeq.c     **** void cmd_off(enum nilop op) {
 274:src/xeq.c     **** 	shutdown();
 275:src/xeq.c     **** }
 276:src/xeq.c     **** 
 277:src/xeq.c     **** #ifndef state_pc
 278:src/xeq.c     **** unsigned int state_pc(void) {
 279:src/xeq.c     **** 	return State.pc;	
 280:src/xeq.c     **** }
 281:src/xeq.c     **** #endif
 282:src/xeq.c     **** static void raw_set_pc(unsigned int pc) {
 283:src/xeq.c     **** 	State.pc = pc;
 284:src/xeq.c     **** 	update_program_bounds(0);
 285:src/xeq.c     **** }
 286:src/xeq.c     **** 
 287:src/xeq.c     **** /*
 288:src/xeq.c     ****  *  Where do the program regions start?
 289:src/xeq.c     ****  */
 290:src/xeq.c     **** #ifdef DM42
 291:src/xeq.c     **** 
 292:src/xeq.c     **** #pragma GCC diagnostic push
 293:src/xeq.c     **** #pragma GCC diagnostic ignored "-Wdiscarded-qualifiers"
 294:src/xeq.c     **** static s_opcode * RegionTab[] = {
 295:src/xeq.c     **** 	NULL,
 296:src/xeq.c     **** 	NULL,
 297:src/xeq.c     **** 	NULL,
 298:src/xeq.c     **** 	xrom
 299:src/xeq.c     **** };
 300:src/xeq.c     **** #pragma GCC diagnostic pop
 301:src/xeq.c     **** 
 302:src/xeq.c     **** void init_RegionTab (void) {
 303:src/xeq.c     ****   RegionTab[0] = (s_opcode*) Prog;
 304:src/xeq.c     ****   RegionTab[1] = (s_opcode*) UserFlash.prog;
 305:src/xeq.c     ****   RegionTab[2] = (s_opcode*) BackupFlash._prog;
 306:src/xeq.c     **** }
 307:src/xeq.c     **** 
 308:src/xeq.c     **** #else
 309:src/xeq.c     **** static const s_opcode *const RegionTab[] = {
 310:src/xeq.c     **** 	Prog,
 311:src/xeq.c     **** 	UserFlash.prog,
 312:src/xeq.c     **** 	BackupFlash._prog,
 313:src/xeq.c     **** 	xrom
 314:src/xeq.c     **** };
ARM GAS  /tmp/ccBFDvgN.s 			page 7


 315:src/xeq.c     **** #endif
 316:src/xeq.c     **** /*
 317:src/xeq.c     ****  *  Size of a program segment
 318:src/xeq.c     ****  */
 319:src/xeq.c     **** int sizeLIB(int region) {
 320:src/xeq.c     **** 	if (region == REGION_XROM)
 321:src/xeq.c     **** 		return xrom_size;
 322:src/xeq.c     **** 	else
 323:src/xeq.c     **** 		return (int)RegionTab[region][-1];
 324:src/xeq.c     **** }
 325:src/xeq.c     **** 
 326:src/xeq.c     **** 
 327:src/xeq.c     **** /*
 328:src/xeq.c     ****  *  Get an opcode, check for double length codes
 329:src/xeq.c     ****  */
 330:src/xeq.c     **** static opcode get_opcode( const s_opcode *loc )
 331:src/xeq.c     **** {
 332:src/xeq.c     **** 	opcode r = *loc;
 333:src/xeq.c     **** 	if ( isDBL(r) ) {
 334:src/xeq.c     **** 		r |= loc[1] << 16;
 335:src/xeq.c     **** 	}
 336:src/xeq.c     **** 	return r;
 337:src/xeq.c     **** }
 338:src/xeq.c     **** 
 339:src/xeq.c     **** 
 340:src/xeq.c     **** /* 
 341:src/xeq.c     ****  * Return the program memory location specified.
 342:src/xeq.c     ****  */
 343:src/xeq.c     **** opcode getprog(unsigned int pc) {
 344:src/xeq.c     **** 
 345:src/xeq.c     **** 	const int region = nLIB(pc);
 346:src/xeq.c     **** 	int offset = offsetLIB(pc);
 347:src/xeq.c     **** 
 348:src/xeq.c     **** 	if (offset < 0 || offset >= sizeLIB(region))
 349:src/xeq.c     **** 		return OP_NIL | OP_END;
 350:src/xeq.c     **** 	return get_opcode(RegionTab[region] + offset);
 351:src/xeq.c     **** }
 352:src/xeq.c     **** 
 353:src/xeq.c     **** 
 354:src/xeq.c     **** /* 
 355:src/xeq.c     ****  * Return the physical start-address of the current program
 356:src/xeq.c     ****  */
 357:src/xeq.c     **** const s_opcode *get_current_prog(void) {
 358:src/xeq.c     **** 
 359:src/xeq.c     **** 	const int region = nLIB(ProgBegin);
 360:src/xeq.c     **** 	return RegionTab[region] + offsetLIB(ProgBegin);
 361:src/xeq.c     **** }
 362:src/xeq.c     **** 
 363:src/xeq.c     **** 
 364:src/xeq.c     **** /*
 365:src/xeq.c     ****  *  Set PC with sanity check
 366:src/xeq.c     ****  */
 367:src/xeq.c     **** void set_pc(unsigned int pc) {
 368:src/xeq.c     **** 	if (isRAM(pc)) {
 369:src/xeq.c     **** 		if (pc > ProgSize)
 370:src/xeq.c     **** 			pc = ProgSize;
 371:src/xeq.c     **** 		if (pc > 1 && isDBL(Prog_1[pc - 1]))
ARM GAS  /tmp/ccBFDvgN.s 			page 8


 372:src/xeq.c     **** 			pc--;
 373:src/xeq.c     **** 	} else if (!isXROM(pc)) {
 374:src/xeq.c     **** 		const unsigned int n = startLIB(pc) + sizeLIB(nLIB(pc));
 375:src/xeq.c     **** 		if (pc > n - 1)
 376:src/xeq.c     **** 			pc = n - 1;
 377:src/xeq.c     **** 		if (pc > startLIB(pc) && isDBL(getprog(pc - 1)))
 378:src/xeq.c     **** 			--pc;
 379:src/xeq.c     **** 	}
 380:src/xeq.c     **** 	raw_set_pc(pc);
 381:src/xeq.c     **** }
 382:src/xeq.c     **** 
 383:src/xeq.c     **** 
 384:src/xeq.c     **** 
 385:src/xeq.c     **** /* Locate the beginning and end of a section from a PC that points anywhere within
 386:src/xeq.c     ****  */
 387:src/xeq.c     **** static unsigned short int find_section_bounds(const unsigned int pc, const int endp, unsigned short
  30              		.loc 1 387 119 view -0
  31              		.cfi_startproc
  32              		@ args = 0, pretend = 0, frame = 0
  33              		@ frame_needed = 0, uses_anonymous_args = 0
  34              		@ link register save eliminated.
 388:src/xeq.c     **** 	unsigned short int top, bottom;
  35              		.loc 1 388 2 view .LVU1
 389:src/xeq.c     **** 
 390:src/xeq.c     **** 	if (endp && State2.runmode) { 
  36              		.loc 1 390 2 view .LVU2
  37              		.loc 1 390 5 is_stmt 0 view .LVU3
  38 0000 71B1     		cbz	r1, .L2
  39              		.loc 1 390 11 discriminator 1 view .LVU4
  40 0002 194B     		ldr	r3, .L14
  41 0004 9B7D     		ldrb	r3, [r3, #22]	@ zero_extendqisi2
  42 0006 5B06     		lsls	r3, r3, #25
  43 0008 0AD5     		bpl	.L2
 391:src/xeq.c     **** 		// Use the current program as bounds
 392:src/xeq.c     **** 		top = ProgBegin;
  44              		.loc 1 392 3 is_stmt 1 view .LVU5
  45              		.loc 1 392 9 is_stmt 0 view .LVU6
  46 000a 184B     		ldr	r3, .L14+4
  47 000c 1968     		ldr	r1, [r3]
  48              	.LVL1:
 393:src/xeq.c     **** 		bottom = ProgEnd;
  49              		.loc 1 393 3 is_stmt 1 view .LVU7
  50 000e B1F8EC37 		ldrh	r3, [r1, #2028]
  51              		.loc 1 393 10 is_stmt 0 view .LVU8
  52 0012 B1F8EE07 		ldrh	r0, [r1, #2030]
  53              	.LVL2:
 394:src/xeq.c     **** 		if (top == 0)
  54              		.loc 1 394 3 is_stmt 1 view .LVU9
  55 0016 012B     		cmp	r3, #1
  56 0018 38BF     		it	cc
  57 001a 0123     		movcc	r3, #1
  58              	.LVL3:
 395:src/xeq.c     **** 			top = 1;
 396:src/xeq.c     **** 	}
 397:src/xeq.c     **** 	else if (isXROM(pc)) {
 398:src/xeq.c     **** 		top = addrXROM(1);
 399:src/xeq.c     **** 		bottom = addrXROM(xrom_size);
ARM GAS  /tmp/ccBFDvgN.s 			page 9


 400:src/xeq.c     **** 	} 
 401:src/xeq.c     **** 	else if (isLIB(pc)) {
 402:src/xeq.c     **** 		top = startLIB(pc);
 403:src/xeq.c     **** 		bottom = top + sizeLIB(nLIB(pc)) - 1;
 404:src/xeq.c     **** 	}
 405:src/xeq.c     **** 	else {
 406:src/xeq.c     **** 		top = State2.runmode;  // step 001 if not entering a program
 407:src/xeq.c     **** 		bottom = ProgSize;
 408:src/xeq.c     **** 	}
 409:src/xeq.c     **** 	*p_top = top;
  59              		.loc 1 409 2 view .LVU10
  60              		.loc 1 409 9 is_stmt 0 view .LVU11
  61 001c 1380     		strh	r3, [r2]	@ movhi
 410:src/xeq.c     **** 	return bottom;
  62              		.loc 1 410 2 is_stmt 1 view .LVU12
 411:src/xeq.c     **** }
  63              		.loc 1 411 1 is_stmt 0 view .LVU13
  64 001e 7047     		bx	lr
  65              	.LVL4:
  66              	.L2:
 397:src/xeq.c     **** 		top = addrXROM(1);
  67              		.loc 1 397 7 is_stmt 1 view .LVU14
 397:src/xeq.c     **** 		top = addrXROM(1);
  68              		.loc 1 397 11 is_stmt 0 view .LVU15
  69 0020 830B     		lsrs	r3, r0, #14
 397:src/xeq.c     **** 		top = addrXROM(1);
  70              		.loc 1 397 10 view .LVU16
  71 0022 032B     		cmp	r3, #3
  72 0024 0FD0     		beq	.L13
 401:src/xeq.c     **** 		top = startLIB(pc);
  73              		.loc 1 401 7 is_stmt 1 view .LVU17
 401:src/xeq.c     **** 		top = startLIB(pc);
  74              		.loc 1 401 10 is_stmt 0 view .LVU18
  75 0026 10F4404F 		tst	r0, #49152
  76 002a 14D0     		beq	.L5
 402:src/xeq.c     **** 		bottom = top + sizeLIB(nLIB(pc)) - 1;
  77              		.loc 1 402 3 is_stmt 1 view .LVU19
  78              	.LBB1321:
  79              	.LBB1322:
 323:src/xeq.c     **** }
  80              		.loc 1 323 24 is_stmt 0 view .LVU20
  81 002c 1049     		ldr	r1, .L14+8
  82              	.LVL5:
 323:src/xeq.c     **** }
  83              		.loc 1 323 32 view .LVU21
  84 002e 51F82330 		ldr	r3, [r1, r3, lsl #2]
  85              	.LBE1322:
  86              	.LBE1321:
 403:src/xeq.c     **** 	}
  87              		.loc 1 403 10 view .LVU22
  88 0032 33F8021C 		ldrh	r1, [r3, #-2]
 402:src/xeq.c     **** 		bottom = top + sizeLIB(nLIB(pc)) - 1;
  89              		.loc 1 402 9 view .LVU23
  90 0036 00F44043 		and	r3, r0, #49152
 403:src/xeq.c     **** 	}
  91              		.loc 1 403 10 view .LVU24
  92 003a 5818     		adds	r0, r3, r1
ARM GAS  /tmp/ccBFDvgN.s 			page 10


  93              	.LVL6:
 402:src/xeq.c     **** 		bottom = top + sizeLIB(nLIB(pc)) - 1;
  94              		.loc 1 402 7 view .LVU25
  95 003c 0133     		adds	r3, r3, #1
  96 003e 9BB2     		uxth	r3, r3
  97              	.LVL7:
 403:src/xeq.c     **** 	}
  98              		.loc 1 403 3 is_stmt 1 view .LVU26
  99              	.LBB1324:
 100              	.LBI1321:
 319:src/xeq.c     **** 	if (region == REGION_XROM)
 101              		.loc 1 319 5 view .LVU27
 102              	.LBB1323:
 320:src/xeq.c     **** 		return xrom_size;
 103              		.loc 1 320 2 view .LVU28
 323:src/xeq.c     **** }
 104              		.loc 1 323 3 view .LVU29
 323:src/xeq.c     **** }
 105              		.loc 1 323 3 is_stmt 0 view .LVU30
 106              	.LBE1323:
 107              	.LBE1324:
 403:src/xeq.c     **** 	}
 108              		.loc 1 403 10 view .LVU31
 109 0040 80B2     		uxth	r0, r0
 110              	.LVL8:
 409:src/xeq.c     **** 	return bottom;
 111              		.loc 1 409 2 is_stmt 1 view .LVU32
 409:src/xeq.c     **** 	return bottom;
 112              		.loc 1 409 9 is_stmt 0 view .LVU33
 113 0042 1380     		strh	r3, [r2]	@ movhi
 410:src/xeq.c     **** }
 114              		.loc 1 410 2 is_stmt 1 view .LVU34
 115              		.loc 1 411 1 is_stmt 0 view .LVU35
 116 0044 7047     		bx	lr
 117              	.LVL9:
 118              	.L13:
 398:src/xeq.c     **** 		bottom = addrXROM(xrom_size);
 119              		.loc 1 398 3 is_stmt 1 view .LVU36
 399:src/xeq.c     **** 	} 
 120              		.loc 1 399 3 view .LVU37
 399:src/xeq.c     **** 	} 
 121              		.loc 1 399 10 is_stmt 0 view .LVU38
 122 0046 0B4B     		ldr	r3, .L14+12
 123 0048 1888     		ldrh	r0, [r3]
 124              	.LVL10:
 398:src/xeq.c     **** 		bottom = addrXROM(xrom_size);
 125              		.loc 1 398 7 view .LVU39
 126 004a 4CF20103 		movw	r3, #49153
 399:src/xeq.c     **** 	} 
 127              		.loc 1 399 10 view .LVU40
 128 004e 40F44040 		orr	r0, r0, #49152
 129              	.LVL11:
 409:src/xeq.c     **** 	return bottom;
 130              		.loc 1 409 2 is_stmt 1 view .LVU41
 409:src/xeq.c     **** 	return bottom;
 131              		.loc 1 409 9 is_stmt 0 view .LVU42
 132 0052 1380     		strh	r3, [r2]	@ movhi
ARM GAS  /tmp/ccBFDvgN.s 			page 11


 410:src/xeq.c     **** }
 133              		.loc 1 410 2 is_stmt 1 view .LVU43
 134              		.loc 1 411 1 is_stmt 0 view .LVU44
 135 0054 7047     		bx	lr
 136              	.LVL12:
 137              	.L5:
 406:src/xeq.c     **** 		bottom = ProgSize;
 138              		.loc 1 406 3 is_stmt 1 view .LVU45
 406:src/xeq.c     **** 		bottom = ProgSize;
 139              		.loc 1 406 15 is_stmt 0 view .LVU46
 140 0056 044B     		ldr	r3, .L14
 407:src/xeq.c     **** 	}
 141              		.loc 1 407 10 view .LVU47
 142 0058 0449     		ldr	r1, .L14+4
 143              	.LVL13:
 406:src/xeq.c     **** 		bottom = ProgSize;
 144              		.loc 1 406 15 view .LVU48
 145 005a 9B7D     		ldrb	r3, [r3, #22]	@ zero_extendqisi2
 407:src/xeq.c     **** 	}
 146              		.loc 1 407 10 view .LVU49
 147 005c 0968     		ldr	r1, [r1]
 406:src/xeq.c     **** 		bottom = ProgSize;
 148              		.loc 1 406 7 view .LVU50
 149 005e C3F38013 		ubfx	r3, r3, #6, #1
 150              	.LVL14:
 407:src/xeq.c     **** 	}
 151              		.loc 1 407 3 is_stmt 1 view .LVU51
 407:src/xeq.c     **** 	}
 152              		.loc 1 407 10 is_stmt 0 view .LVU52
 153 0062 4888     		ldrh	r0, [r1, #2]
 154              	.LVL15:
 409:src/xeq.c     **** 	return bottom;
 155              		.loc 1 409 2 is_stmt 1 view .LVU53
 409:src/xeq.c     **** 	return bottom;
 156              		.loc 1 409 9 is_stmt 0 view .LVU54
 157 0064 1380     		strh	r3, [r2]	@ movhi
 410:src/xeq.c     **** }
 158              		.loc 1 410 2 is_stmt 1 view .LVU55
 159              		.loc 1 411 1 is_stmt 0 view .LVU56
 160 0066 7047     		bx	lr
 161              	.L15:
 162              		.align	2
 163              	.L14:
 164 0068 00000000 		.word	StateWhileOn
 165 006c 00000000 		.word	main_ram
 166 0070 00000000 		.word	.LANCHOR0
 167 0074 00000000 		.word	xrom_size
 168              		.cfi_endproc
 169              	.LFE19:
 171              		.section	.text.reg_address,"ax",%progbits
 172              		.align	1
 173              		.p2align 2,,3
 174              		.syntax unified
 175              		.thumb
 176              		.thumb_func
 177              		.fpu fpv4-sp-d16
 179              	reg_address:
ARM GAS  /tmp/ccBFDvgN.s 			page 12


 180              	.LVL16:
 181              	.LFB90:
 412:src/xeq.c     **** 
 413:src/xeq.c     **** 
 414:src/xeq.c     **** /* Increment the passed PC.  Account for wrap around but nothing else.
 415:src/xeq.c     ****  * Return the updated PC.
 416:src/xeq.c     ****  * Set PcWrapped on wrap around
 417:src/xeq.c     ****  */
 418:src/xeq.c     **** unsigned int do_inc(const unsigned int pc, int endp) {
 419:src/xeq.c     **** 	const unsigned short int npc = pc + 1 + isDBL(getprog(pc));
 420:src/xeq.c     **** 	unsigned short int top = 0;
 421:src/xeq.c     **** 	unsigned short int bottom = 0;
 422:src/xeq.c     **** 
 423:src/xeq.c     **** 	PcWrapped = 0;
 424:src/xeq.c     **** 	bottom = find_section_bounds(pc, endp, &top);
 425:src/xeq.c     **** 
 426:src/xeq.c     **** 	if (npc > bottom) {
 427:src/xeq.c     **** 		PcWrapped = 1;
 428:src/xeq.c     **** 		return top;
 429:src/xeq.c     **** 	}
 430:src/xeq.c     **** 	return npc;
 431:src/xeq.c     **** }
 432:src/xeq.c     **** 
 433:src/xeq.c     **** /* Decrement the passed PC.  Account for wrap around but nothing else.
 434:src/xeq.c     ****  * Return the updated PC.
 435:src/xeq.c     ****  * Set PcWrapped on wrap around
 436:src/xeq.c     ****  */
 437:src/xeq.c     **** unsigned int do_dec(unsigned int pc, int endp) {
 438:src/xeq.c     **** 	unsigned short int top = 0;
 439:src/xeq.c     **** 	unsigned short int bottom = 0;
 440:src/xeq.c     **** 
 441:src/xeq.c     **** 	PcWrapped = 0;
 442:src/xeq.c     **** 	bottom = find_section_bounds(pc, endp, &top);
 443:src/xeq.c     **** 
 444:src/xeq.c     **** 	if (pc <= top) {
 445:src/xeq.c     **** 		PcWrapped = 1;
 446:src/xeq.c     **** 		pc = bottom;
 447:src/xeq.c     **** 	}
 448:src/xeq.c     **** 	else
 449:src/xeq.c     **** 		--pc;
 450:src/xeq.c     **** 	if (pc > top && isDBL(getprog(pc - 1)))
 451:src/xeq.c     **** 		--pc;
 452:src/xeq.c     **** 	return pc;
 453:src/xeq.c     **** }
 454:src/xeq.c     **** 
 455:src/xeq.c     **** /* Increment the PC keeping account of wrapping around and stopping
 456:src/xeq.c     ****  * programs on such.  Return non-zero if we wrapped.
 457:src/xeq.c     ****  */
 458:src/xeq.c     **** int incpc(void) {
 459:src/xeq.c     **** 	raw_set_pc(do_inc(state_pc(), 1));
 460:src/xeq.c     **** 	return PcWrapped;
 461:src/xeq.c     **** }
 462:src/xeq.c     **** 
 463:src/xeq.c     **** void decpc(void) {
 464:src/xeq.c     **** 	raw_set_pc(do_dec(state_pc(), 1));
 465:src/xeq.c     **** }
 466:src/xeq.c     **** 
ARM GAS  /tmp/ccBFDvgN.s 			page 13


 467:src/xeq.c     **** /*
 468:src/xeq.c     ****  * Update the pointers to the current program delimited by END statements
 469:src/xeq.c     ****  */
 470:src/xeq.c     **** void update_program_bounds(const int force) {
 471:src/xeq.c     **** 	unsigned int pc = state_pc();
 472:src/xeq.c     **** 	if (pc == 0 && State2.runmode)
 473:src/xeq.c     **** 		State.pc = pc = 1;
 474:src/xeq.c     **** 	if (! force && pc >= ProgBegin && pc <= ProgEnd)
 475:src/xeq.c     **** 		return;
 476:src/xeq.c     **** 	for (PcWrapped = 0; !PcWrapped; pc = do_inc(pc, 0)) {
 477:src/xeq.c     **** 		ProgEnd = pc;
 478:src/xeq.c     **** 		if (getprog(pc) == (OP_NIL | OP_END)) {
 479:src/xeq.c     **** 			break;
 480:src/xeq.c     **** 		}
 481:src/xeq.c     **** 	}
 482:src/xeq.c     **** 	for (pc = state_pc();;) {
 483:src/xeq.c     **** 		const unsigned int opc = pc;
 484:src/xeq.c     **** 		pc = do_dec(opc, 0);
 485:src/xeq.c     **** 		if (PcWrapped || getprog(pc) == (OP_NIL | OP_END)) {
 486:src/xeq.c     **** 			ProgBegin = opc == 0 ? 1 : opc;
 487:src/xeq.c     **** 			break;
 488:src/xeq.c     **** 		}
 489:src/xeq.c     **** 	}
 490:src/xeq.c     **** }
 491:src/xeq.c     **** 
 492:src/xeq.c     **** /* Determine where in program space the PC really is
 493:src/xeq.c     ****  */
 494:src/xeq.c     **** unsigned int user_pc(unsigned int pc) {
 495:src/xeq.c     **** 	unsigned int n = 1;
 496:src/xeq.c     **** 	unsigned int base;
 497:src/xeq.c     **** 
 498:src/xeq.c     **** #ifndef REALBUILD
 499:src/xeq.c     **** 	if (pc == 0 || isXROM(pc))
 500:src/xeq.c     **** 		return offsetLIB(pc) + 1;
 501:src/xeq.c     **** #else
 502:src/xeq.c     **** 	if (pc == 0)
 503:src/xeq.c     **** 		return 0;
 504:src/xeq.c     **** #endif
 505:src/xeq.c     **** 	base = startLIB(pc);
 506:src/xeq.c     **** 	while (base < pc) {
 507:src/xeq.c     **** 		base = do_inc(base, 0);
 508:src/xeq.c     **** 		if (PcWrapped)
 509:src/xeq.c     **** 			return n;
 510:src/xeq.c     **** 		++n;
 511:src/xeq.c     **** 	}
 512:src/xeq.c     **** 	return n;
 513:src/xeq.c     **** }
 514:src/xeq.c     **** 
 515:src/xeq.c     **** /* Given a target user PC, figure out the real matching PC
 516:src/xeq.c     ****  */
 517:src/xeq.c     **** unsigned int find_user_pc(unsigned int target) {
 518:src/xeq.c     **** 	unsigned int upc = state_pc();
 519:src/xeq.c     **** 	const int libp = isLIB(upc);
 520:src/xeq.c     **** 	unsigned int base = libp ? startLIB(upc) : 0;
 521:src/xeq.c     **** 	unsigned int n = libp ? 1 : 0;
 522:src/xeq.c     **** #ifndef REALBUILD
 523:src/xeq.c     **** 	if (isXROM(upc))
ARM GAS  /tmp/ccBFDvgN.s 			page 14


 524:src/xeq.c     **** 		return addrXROM(target);
 525:src/xeq.c     **** #endif
 526:src/xeq.c     **** 	while (n++ < target) {
 527:src/xeq.c     **** 		const unsigned int oldbase = base;
 528:src/xeq.c     **** 		base = do_inc(oldbase, 0);
 529:src/xeq.c     **** 		if (PcWrapped)
 530:src/xeq.c     **** 			return oldbase;
 531:src/xeq.c     **** 	}
 532:src/xeq.c     **** 	return base;
 533:src/xeq.c     **** }
 534:src/xeq.c     **** 
 535:src/xeq.c     **** 
 536:src/xeq.c     **** /* Set a flag to indicate that a complex operation has taken place
 537:src/xeq.c     ****  * The flag disappears with the next command executed.
 538:src/xeq.c     ****  */
 539:src/xeq.c     **** static void set_was_complex(void) {
 540:src/xeq.c     **** 	State2.wascomplex = 1;
 541:src/xeq.c     **** }
 542:src/xeq.c     **** 
 543:src/xeq.c     **** 
 544:src/xeq.c     **** /* Produce an error and stop
 545:src/xeq.c     ****  */
 546:src/xeq.c     **** int report_err(const unsigned int e) {
 547:src/xeq.c     **** 	if (Error == ERR_NONE) {
 548:src/xeq.c     **** 		Error = e;
 549:src/xeq.c     **** 		if (e == ERR_NONE) {
 550:src/xeq.c     **** 			error_message(e); // "Running Program"
 551:src/xeq.c     **** 			return 0;
 552:src/xeq.c     **** 		}
 553:src/xeq.c     **** 	}
 554:src/xeq.c     **** 	return 1;
 555:src/xeq.c     **** }
 556:src/xeq.c     **** 
 557:src/xeq.c     **** 
 558:src/xeq.c     **** /* Display a warning
 559:src/xeq.c     ****  */
 560:src/xeq.c     **** int report_warn(const unsigned int e) {
 561:src/xeq.c     **** 	if (Running) {
 562:src/xeq.c     **** 		return report_err(e);
 563:src/xeq.c     **** 	}
 564:src/xeq.c     **** 	error_message(e);
 565:src/xeq.c     **** #ifndef CONSOLE
 566:src/xeq.c     **** 	State2.disp_freeze = 0;
 567:src/xeq.c     **** 	JustDisplayed = 1;
 568:src/xeq.c     **** 	ShowRPN = 1;
 569:src/xeq.c     **** #endif
 570:src/xeq.c     **** 	return e != ERR_NONE;
 571:src/xeq.c     **** }
 572:src/xeq.c     **** 
 573:src/xeq.c     **** 
 574:src/xeq.c     **** /* Doing something in the wrong mode */
 575:src/xeq.c     **** void bad_mode_error(void) {
 576:src/xeq.c     **** 	report_err(ERR_BAD_MODE);
 577:src/xeq.c     **** }
 578:src/xeq.c     **** 
 579:src/xeq.c     **** 
 580:src/xeq.c     **** /* User command to produce an error */
ARM GAS  /tmp/ccBFDvgN.s 			page 15


 581:src/xeq.c     **** void cmderr(unsigned int arg, enum rarg op) {
 582:src/xeq.c     **** 	report_err(arg);
 583:src/xeq.c     **** }
 584:src/xeq.c     **** 
 585:src/xeq.c     **** 
 586:src/xeq.c     **** /* User command to display a warning */
 587:src/xeq.c     **** void cmdmsg(unsigned int arg, enum rarg op) {
 588:src/xeq.c     **** 	error_message(arg);
 589:src/xeq.c     **** }
 590:src/xeq.c     **** 
 591:src/xeq.c     **** 
 592:src/xeq.c     **** #if defined(DEBUG) && defined(CONSOLE)
 593:src/xeq.c     **** #include <stdlib.h>
 594:src/xeq.c     **** static void error(const char *fmt, ...) {
 595:src/xeq.c     **** 	va_list ap;
 596:src/xeq.c     **** 	va_start(ap, fmt);
 597:src/xeq.c     **** 	vprintf(fmt, ap);
 598:src/xeq.c     **** 	va_end(ap);
 599:src/xeq.c     **** 	putchar('\n');
 600:src/xeq.c     **** 	exit(1);
 601:src/xeq.c     **** }
 602:src/xeq.c     **** 
 603:src/xeq.c     **** #define illegal(op)	do { report_err(ERR_PROG_BAD); printf("illegal opcode 0x%08x\n", op); } while (
 604:src/xeq.c     **** #else
 605:src/xeq.c     **** #define illegal(op)	do { report_err(ERR_PROG_BAD); } while (0)
 606:src/xeq.c     **** #endif
 607:src/xeq.c     **** 
 608:src/xeq.c     **** /* Real rounding mode access routine
 609:src/xeq.c     ****  */
 610:src/xeq.c     **** static enum rounding get_rounding_mode() {
 611:src/xeq.c     **** 	static const unsigned char modes[DEC_ROUND_MAX] = {
 612:src/xeq.c     **** 		DEC_ROUND_HALF_EVEN, DEC_ROUND_HALF_UP, DEC_ROUND_HALF_DOWN,
 613:src/xeq.c     **** 		DEC_ROUND_UP, DEC_ROUND_DOWN,
 614:src/xeq.c     **** 		DEC_ROUND_CEILING, DEC_ROUND_FLOOR
 615:src/xeq.c     **** 	};
 616:src/xeq.c     **** 	return (enum rounding) modes[UState.rounding_mode];
 617:src/xeq.c     **** }
 618:src/xeq.c     **** 
 619:src/xeq.c     **** void op_roundingmode(enum nilop op) {
 620:src/xeq.c     **** 	setX_int_sgn(UState.rounding_mode, 0);
 621:src/xeq.c     **** }
 622:src/xeq.c     **** 
 623:src/xeq.c     **** void rarg_roundingmode(unsigned int arg, enum rarg op) {
 624:src/xeq.c     **** 	UState.rounding_mode = arg;
 625:src/xeq.c     **** }
 626:src/xeq.c     **** 
 627:src/xeq.c     **** 
 628:src/xeq.c     **** /* Pack a number into our DPD register format
 629:src/xeq.c     ****  */
 630:src/xeq.c     **** 
 631:src/xeq.c     **** void packed_from_number(decimal64 *r, const decNumber *x) {
 632:src/xeq.c     **** 	decContext ctx64;
 633:src/xeq.c     **** 
 634:src/xeq.c     **** 	decContextDefault(&ctx64, DEC_INIT_DECIMAL64);
 635:src/xeq.c     **** 	ctx64.round = get_rounding_mode();
 636:src/xeq.c     **** 	decimal64FromNumber(r, x, &ctx64);
 637:src/xeq.c     **** }
ARM GAS  /tmp/ccBFDvgN.s 			page 16


 638:src/xeq.c     **** 
 639:src/xeq.c     **** void packed128_from_number(decimal128 *r, const decNumber *x) {
 640:src/xeq.c     **** 	decContext ctx128;
 641:src/xeq.c     **** 
 642:src/xeq.c     **** 	decContextDefault(&ctx128, DEC_INIT_DECIMAL128);
 643:src/xeq.c     **** 	ctx128.round = get_rounding_mode();
 644:src/xeq.c     **** 	decimal128FromNumber(r, x, &ctx128);
 645:src/xeq.c     **** }
 646:src/xeq.c     **** 
 647:src/xeq.c     **** // Repack a decimal128 to decimal64
 648:src/xeq.c     **** void packed_from_packed128(decimal64 *r, const decimal128 *s) {
 649:src/xeq.c     **** 	decNumber temp;
 650:src/xeq.c     **** 	packed_from_number(r, decimal128ToNumber(s, &temp));
 651:src/xeq.c     **** }
 652:src/xeq.c     **** 
 653:src/xeq.c     **** // Repack a decimal64 to decimal128
 654:src/xeq.c     **** void packed128_from_packed(decimal128 *r, const decimal64 *s) {
 655:src/xeq.c     **** 	decNumber temp;
 656:src/xeq.c     **** 	packed128_from_number(r, decimal64ToNumber(s, &temp));
 657:src/xeq.c     **** }
 658:src/xeq.c     **** 
 659:src/xeq.c     **** /*
 660:src/xeq.c     ****  *  User command to round to a specific number of digits
 661:src/xeq.c     ****  */
 662:src/xeq.c     **** void rarg_round(unsigned int arg, enum rarg op) {
 663:src/xeq.c     **** 	decNumber res, x;
 664:src/xeq.c     **** 	const enum rounding rm = get_rounding_mode();
 665:src/xeq.c     **** 
 666:src/xeq.c     **** 	if (is_intmode()) {
 667:src/xeq.c     **** 		report_err(ERR_BAD_MODE);
 668:src/xeq.c     **** 		return;
 669:src/xeq.c     **** 	}
 670:src/xeq.c     **** 
 671:src/xeq.c     **** 	setlastX();
 672:src/xeq.c     **** 	getX(&x);
 673:src/xeq.c     **** 	if (op == RARG_ROUND)
 674:src/xeq.c     **** 		decNumberRoundDigits(&res, &x, arg, rm);
 675:src/xeq.c     **** 	else /* if (op == RARG_ROUND_DEC) */
 676:src/xeq.c     **** 		decNumberRoundDecimals(&res, &x, arg, rm);
 677:src/xeq.c     **** 	setX(&res);
 678:src/xeq.c     **** }
 679:src/xeq.c     **** 
 680:src/xeq.c     **** /* Check if a value is bogus and error out if so.
 681:src/xeq.c     ****  * A value is bogus if it is infinite, NaN *and* flag D is not set.
 682:src/xeq.c     ****  * If flag D is set, these values are allowed through just fine.
 683:src/xeq.c     ****  */
 684:src/xeq.c     **** static int check_special(const decNumber *x) {
 685:src/xeq.c     **** 	decNumber y;
 686:src/xeq.c     **** 	decimal64 z;
 687:src/xeq.c     **** 	decimal128 d;
 688:src/xeq.c     **** 	if (is_dblmode()) {
 689:src/xeq.c     **** 		packed128_from_number(&d, x);
 690:src/xeq.c     **** 		decimal128ToNumber(&d, &y);
 691:src/xeq.c     **** 	}
 692:src/xeq.c     **** 	else 
 693:src/xeq.c     **** 	{
 694:src/xeq.c     **** 		packed_from_number(&z, x);
ARM GAS  /tmp/ccBFDvgN.s 			page 17


 695:src/xeq.c     **** 		decimal64ToNumber(&z, &y);
 696:src/xeq.c     **** 	}
 697:src/xeq.c     **** 	if (decNumberIsSpecial(&y)) {
 698:src/xeq.c     **** 		if (! get_user_flag(NAN_FLAG)) {
 699:src/xeq.c     **** 			if (decNumberIsNaN(&y))
 700:src/xeq.c     **** 				report_err(ERR_DOMAIN);
 701:src/xeq.c     **** 			else if (decNumberIsNegative(&y))
 702:src/xeq.c     **** 				report_err(ERR_MINFINITY);
 703:src/xeq.c     **** 			else
 704:src/xeq.c     **** 				report_err(ERR_INFINITY);
 705:src/xeq.c     **** 			return 1;
 706:src/xeq.c     **** 		}
 707:src/xeq.c     **** 	}
 708:src/xeq.c     **** 	return 0;
 709:src/xeq.c     **** }
 710:src/xeq.c     **** 
 711:src/xeq.c     **** 
 712:src/xeq.c     **** int stack_size(void) {
 713:src/xeq.c     **** 	if (! UState.stack_depth || (is_xrom() && ! XromFlags.xIN))
 714:src/xeq.c     **** 		return 4;
 715:src/xeq.c     **** 	return 8;
 716:src/xeq.c     **** }
 717:src/xeq.c     **** 
 718:src/xeq.c     **** REGISTER *get_stack(int pos) {
 719:src/xeq.c     **** 	return get_reg_n(regX_idx + pos);
 720:src/xeq.c     **** }
 721:src/xeq.c     **** 
 722:src/xeq.c     **** static REGISTER *get_stack_top(void) {
 723:src/xeq.c     **** 	return get_stack(stack_size()-1);
 724:src/xeq.c     **** }
 725:src/xeq.c     **** 
 726:src/xeq.c     **** void copyreg(REGISTER *d, const REGISTER *s) {
 727:src/xeq.c     **** 	xcopy(d, s, is_dblmode() ? sizeof(decimal128) : sizeof(decimal64));
 728:src/xeq.c     **** }
 729:src/xeq.c     **** 
 730:src/xeq.c     **** void copyreg_n(int d, int s) {
 731:src/xeq.c     **** 	copyreg(get_reg_n(d), get_reg_n(s));
 732:src/xeq.c     **** }
 733:src/xeq.c     **** 
 734:src/xeq.c     **** /* Lift the stack one level.
 735:src/xeq.c     ****  */
 736:src/xeq.c     **** void lift(void) {
 737:src/xeq.c     **** 	const int n = stack_size();
 738:src/xeq.c     **** 	int i;
 739:src/xeq.c     **** 	for (i=n-1; i>0; i--)
 740:src/xeq.c     **** 		copyreg(get_stack(i), get_stack(i-1));
 741:src/xeq.c     **** }
 742:src/xeq.c     **** 
 743:src/xeq.c     **** static int get_lift(void) {
 744:src/xeq.c     **** 	return State2.state_lift;
 745:src/xeq.c     **** }
 746:src/xeq.c     **** 
 747:src/xeq.c     **** void lift_if_enabled(void) {
 748:src/xeq.c     **** 	if (get_lift())
 749:src/xeq.c     **** 		lift();
 750:src/xeq.c     **** }
 751:src/xeq.c     **** 
ARM GAS  /tmp/ccBFDvgN.s 			page 18


 752:src/xeq.c     **** static void lift2_if_enabled(void) {
 753:src/xeq.c     **** #ifdef INCLUDE_C_LOCK
 754:src/xeq.c     **** 	lift_if_enabled();
 755:src/xeq.c     **** 	if (C_LOCKED) {
 756:src/xeq.c     **** 		lift_if_enabled();
 757:src/xeq.c     **** 	}
 758:src/xeq.c     **** 	else {
 759:src/xeq.c     **** 		lift();
 760:src/xeq.c     **** 	}
 761:src/xeq.c     **** #else
 762:src/xeq.c     **** 	lift_if_enabled();
 763:src/xeq.c     **** 	lift();
 764:src/xeq.c     **** #endif
 765:src/xeq.c     **** }
 766:src/xeq.c     **** 
 767:src/xeq.c     **** void set_lift(void) {
 768:src/xeq.c     ****     State2.state_lift = 1;
 769:src/xeq.c     **** }
 770:src/xeq.c     **** 
 771:src/xeq.c     **** static void clr_lift(void) {
 772:src/xeq.c     ****     State2.state_lift = 0;
 773:src/xeq.c     **** }
 774:src/xeq.c     **** 
 775:src/xeq.c     **** static void lower(void) {
 776:src/xeq.c     **** 	const int n = stack_size();
 777:src/xeq.c     **** 	int i;
 778:src/xeq.c     **** 
 779:src/xeq.c     **** 	for (i=1; i<n; i++)
 780:src/xeq.c     **** 		copyreg(get_stack(i-1), get_stack(i));
 781:src/xeq.c     **** }
 782:src/xeq.c     **** 
 783:src/xeq.c     **** static void lower2(void) {
 784:src/xeq.c     **** 	const int n = stack_size();
 785:src/xeq.c     **** 	int i;
 786:src/xeq.c     **** 
 787:src/xeq.c     **** 	for (i=2; i<n; i++)
 788:src/xeq.c     **** 		copyreg(get_stack(i-2), get_stack(i));
 789:src/xeq.c     **** }
 790:src/xeq.c     **** 
 791:src/xeq.c     **** 
 792:src/xeq.c     **** void setlastX(void) {
 793:src/xeq.c     **** 	copyreg_n(regL_idx, regX_idx);
 794:src/xeq.c     **** }
 795:src/xeq.c     **** 
 796:src/xeq.c     **** static void setlastXY(void) {
 797:src/xeq.c     **** 	setlastX();
 798:src/xeq.c     **** 	copyreg_n(regI_idx, regY_idx);
 799:src/xeq.c     **** }
 800:src/xeq.c     **** 
 801:src/xeq.c     **** 
 802:src/xeq.c     **** decNumber *getRegister(decNumber *r, int index) {
 803:src/xeq.c     **** 	const REGISTER *const reg = get_reg_n(index);
 804:src/xeq.c     **** 	if (is_dblmode())
 805:src/xeq.c     **** 		decimal128ToNumber(&(reg->d), r);
 806:src/xeq.c     **** 	else
 807:src/xeq.c     **** 		decimal64ToNumber(&(reg->s), r);
 808:src/xeq.c     **** 	return r;
ARM GAS  /tmp/ccBFDvgN.s 			page 19


 809:src/xeq.c     **** }
 810:src/xeq.c     **** 
 811:src/xeq.c     **** void setRegister(int index, const decNumber *x) {
 812:src/xeq.c     **** 	REGISTER *const reg = get_reg_n(index);
 813:src/xeq.c     **** 	decNumber dn;
 814:src/xeq.c     **** 
 815:src/xeq.c     **** 	if (! check_special(x)) {	/* This correctly deals with infinities and NaN based on flag D */
 816:src/xeq.c     **** 		decNumberNormalize(&dn, x, &Ctx);
 817:src/xeq.c     **** 		if (is_dblmode())
 818:src/xeq.c     **** 			packed128_from_number(&(reg->d), &dn);
 819:src/xeq.c     **** 		else
 820:src/xeq.c     **** 			packed_from_number(&(reg->s), &dn);
 821:src/xeq.c     **** 	}
 822:src/xeq.c     **** }
 823:src/xeq.c     **** 
 824:src/xeq.c     **** decNumber *getX(decNumber *x) {
 825:src/xeq.c     **** 	return getRegister(x, regX_idx);
 826:src/xeq.c     **** }
 827:src/xeq.c     **** 
 828:src/xeq.c     **** void setX(const decNumber *x) {
 829:src/xeq.c     **** 	setRegister(regX_idx, x);
 830:src/xeq.c     **** }
 831:src/xeq.c     **** 
 832:src/xeq.c     **** void getY(decNumber *y) {
 833:src/xeq.c     **** 	getRegister(y, regY_idx);
 834:src/xeq.c     **** }
 835:src/xeq.c     **** 
 836:src/xeq.c     **** void setY(const decNumber *y) {
 837:src/xeq.c     **** 	setRegister(regY_idx, y);
 838:src/xeq.c     **** }
 839:src/xeq.c     **** 
 840:src/xeq.c     **** static void getZ(decNumber *z) {
 841:src/xeq.c     **** 	getRegister(z, regZ_idx);
 842:src/xeq.c     **** }
 843:src/xeq.c     **** 
 844:src/xeq.c     **** #if 0
 845:src/xeq.c     **** static void setZ(const decNumber *z) {
 846:src/xeq.c     **** 	setRegister(regZ_idx, z);
 847:src/xeq.c     **** }
 848:src/xeq.c     **** #endif
 849:src/xeq.c     **** 
 850:src/xeq.c     **** static void getT(decNumber *t) {
 851:src/xeq.c     **** 	getRegister(t, regT_idx);
 852:src/xeq.c     **** }
 853:src/xeq.c     **** 
 854:src/xeq.c     **** void getXY(decNumber *x, decNumber *y) {
 855:src/xeq.c     **** 	getX(x);
 856:src/xeq.c     **** 	getY(y);
 857:src/xeq.c     **** }
 858:src/xeq.c     **** 
 859:src/xeq.c     **** void setXY(const decNumber *x, const decNumber *y) {
 860:src/xeq.c     **** 	setX(x);
 861:src/xeq.c     **** 	setY(y);
 862:src/xeq.c     **** #ifdef INCLUDE_C_LOCK
 863:src/xeq.c     **** 	CLEAR_POLAR_READY;
 864:src/xeq.c     **** #endif
 865:src/xeq.c     **** }
ARM GAS  /tmp/ccBFDvgN.s 			page 20


 866:src/xeq.c     **** 
 867:src/xeq.c     **** void getXYZ(decNumber *x, decNumber *y, decNumber *z) {
 868:src/xeq.c     **** 	getXY(x, y);
 869:src/xeq.c     **** 	getZ(z);
 870:src/xeq.c     **** }
 871:src/xeq.c     **** 
 872:src/xeq.c     **** #if 0
 873:src/xeq.c     **** void setXYZ(const decNumber *x, const decNumber *y, const decNumber *z) {
 874:src/xeq.c     **** 	setXY(x, y);
 875:src/xeq.c     **** 	setZ(z);
 876:src/xeq.c     **** }
 877:src/xeq.c     **** #endif
 878:src/xeq.c     **** 
 879:src/xeq.c     **** void getXYZT(decNumber *x, decNumber *y, decNumber *z, decNumber *t) {
 880:src/xeq.c     **** 	getXYZ(x, y, z);
 881:src/xeq.c     **** 	getT(t);
 882:src/xeq.c     **** }
 883:src/xeq.c     **** 
 884:src/xeq.c     **** void getYZ(decNumber *y, decNumber *z) {
 885:src/xeq.c     **** 	getY(y);
 886:src/xeq.c     **** 	getZ(z);
 887:src/xeq.c     **** }
 888:src/xeq.c     **** 
 889:src/xeq.c     **** void roll_down(enum nilop op) {
 890:src/xeq.c     **** 	REGISTER r;
 891:src/xeq.c     **** 	copyreg(&r, StackBase);
 892:src/xeq.c     **** 	lower();
 893:src/xeq.c     **** 	copyreg(get_stack_top(), &r);
 894:src/xeq.c     **** }
 895:src/xeq.c     **** 
 896:src/xeq.c     **** void roll_up(enum nilop op) {
 897:src/xeq.c     **** 	REGISTER r;
 898:src/xeq.c     **** 	copyreg(&r, get_stack_top());
 899:src/xeq.c     **** 	lift();
 900:src/xeq.c     **** 	copyreg(StackBase, &r);
 901:src/xeq.c     **** }
 902:src/xeq.c     **** 
 903:src/xeq.c     **** void cpx_roll_down(enum nilop op) {
 904:src/xeq.c     **** 	roll_down(OP_RDOWN);
 905:src/xeq.c     **** 	roll_down(OP_RDOWN);
 906:src/xeq.c     **** 	set_was_complex();
 907:src/xeq.c     **** #ifdef INCLUDE_C_LOCK
 908:src/xeq.c     **** 	CLEAR_POLAR_READY;
 909:src/xeq.c     **** #endif
 910:src/xeq.c     **** }
 911:src/xeq.c     **** 
 912:src/xeq.c     **** void cpx_roll_up(enum nilop op) {
 913:src/xeq.c     **** 	roll_up(OP_RUP);
 914:src/xeq.c     **** 	roll_up(OP_RUP);
 915:src/xeq.c     **** 	set_was_complex();
 916:src/xeq.c     **** #ifdef INCLUDE_C_LOCK
 917:src/xeq.c     **** 	CLEAR_POLAR_READY;
 918:src/xeq.c     **** #endif
 919:src/xeq.c     **** }
 920:src/xeq.c     **** 
 921:src/xeq.c     **** void cpx_enter(enum nilop op) {
 922:src/xeq.c     ****   if( (State2.state_lift || (XromRunning || Running)) && ENTRY_RPN_ENABLED ) { // flag is zero if e
ARM GAS  /tmp/ccBFDvgN.s 			page 21


 923:src/xeq.c     ****     //Only duplicate if needed, otherwise ignore. CPX LOCK mode cannot run code, but the same excep
 924:src/xeq.c     ****     lift();
 925:src/xeq.c     ****     lift();
 926:src/xeq.c     ****     copyreg(get_reg_n(regY_idx), get_reg_n(regT_idx));
 927:src/xeq.c     ****     set_was_complex();
 928:src/xeq.c     ****   }
 929:src/xeq.c     ****   else {
 930:src/xeq.c     ****     lift();
 931:src/xeq.c     ****     lift();
 932:src/xeq.c     ****     copyreg(get_reg_n(regY_idx), get_reg_n(regT_idx));
 933:src/xeq.c     ****     set_was_complex();
 934:src/xeq.c     ****   }
 935:src/xeq.c     **** }
 936:src/xeq.c     **** 
 937:src/xeq.c     **** #ifdef INCLUDE_C_LOCK
 938:src/xeq.c     **** 
 939:src/xeq.c     **** void convert_regK ( enum trig_modes i ) { // needed to change the displayed angular part in polar m
 940:src/xeq.c     **** 	decNumber k;
 941:src/xeq.c     **** 
 942:src/xeq.c     **** 	enum trig_modes j = get_trig_mode();
 943:src/xeq.c     **** 	if (i==j) return; // no mode change
 944:src/xeq.c     **** 	getRegister(&k, regK_idx);
 945:src/xeq.c     **** 	switch (j) { // convert angle to fraction of one complete turn
 946:src/xeq.c     **** 		case TRIG_DEG:
 947:src/xeq.c     **** 			dn_divide(&k, &k, &const_360);
 948:src/xeq.c     **** 			break;
 949:src/xeq.c     **** 		case TRIG_RAD:
 950:src/xeq.c     **** 			dn_divide(&k, &k, &const_2PI);
 951:src/xeq.c     **** 			break;
 952:src/xeq.c     **** 		case TRIG_GRAD:
 953:src/xeq.c     **** 			dn_divide(&k, &k, &const_400);
 954:src/xeq.c     **** 		default:;
 955:src/xeq.c     **** 	}
 956:src/xeq.c     **** 	switch (i) { // convert to new angular units
 957:src/xeq.c     **** 		case TRIG_DEG:
 958:src/xeq.c     **** 			dn_multiply(&k, &k, &const_360);
 959:src/xeq.c     **** 			break;
 960:src/xeq.c     **** 		case TRIG_RAD:
 961:src/xeq.c     **** 			dn_multiply(&k, &k, &const_2PI);
 962:src/xeq.c     **** 			break;
 963:src/xeq.c     **** 		case TRIG_GRAD:
 964:src/xeq.c     **** 			dn_multiply(&k, &k, &const_400);
 965:src/xeq.c     **** 		default:;
 966:src/xeq.c     **** 	}
 967:src/xeq.c     **** 	setRegister(regK_idx, &k);
 968:src/xeq.c     **** }
 969:src/xeq.c     **** 
 970:src/xeq.c     **** void finish_cpx_entry ( int lift );
 971:src/xeq.c     **** void stack_begin ( int zero_y ); // defined in keys.c - needed so it can be called here
 972:src/xeq.c     **** 
 973:src/xeq.c     **** void cpx_pi (enum nilop op) {
 974:src/xeq.c     **** 	switch (op) {
 975:src/xeq.c     **** 	case OP_PIA: // no command line present - puts pi into x-register
 976:src/xeq.c     **** 		if (!REAL_FLAG && !IMAG_FLAG) {
 977:src/xeq.c     **** 			stack_begin( 1 );
 978:src/xeq.c     **** 			SET_REAL;
 979:src/xeq.c     **** 		}
ARM GAS  /tmp/ccBFDvgN.s 			page 22


 980:src/xeq.c     **** 		copyreg(StackBase, get_const(OP_PI, is_dblmode()));
 981:src/xeq.c     **** 		break;
 982:src/xeq.c     **** 	case OP_PIB: // command line present - multiplies contents by pi
 983:src/xeq.c     **** 		State2.state_lift = 0;
 984:src/xeq.c     **** 		process_cmdline();
 985:src/xeq.c     **** 		State2.state_lift = 0;
 986:src/xeq.c     **** 		{
 987:src/xeq.c     **** 			decNumber r;
 988:src/xeq.c     **** 			getX(&r);
 989:src/xeq.c     **** 			dn_multiply (&r, &const_PI, &r);
 990:src/xeq.c     **** 			setX(&r);
 991:src/xeq.c     **** 		}
 992:src/xeq.c     **** 	default:;
 993:src/xeq.c     **** 	}
 994:src/xeq.c     **** 	CLEAR_POLAR_READY;
 995:src/xeq.c     **** }
 996:src/xeq.c     **** 
 997:src/xeq.c     **** #ifdef ENTRY_RPN
 998:src/xeq.c     **** void entry_rpn_on_off(enum nilop op) { // turn entry_rpn on/off
 999:src/xeq.c     ****   switch (op) {
1000:src/xeq.c     ****   case OP_ENTRY_ON:
1001:src/xeq.c     ****     ENTRY_RPN_ON;
1002:src/xeq.c     ****     return;
1003:src/xeq.c     ****   case OP_ENTRY_OFF:
1004:src/xeq.c     ****     ENTRY_RPN_OFF;
1005:src/xeq.c     ****     return;
1006:src/xeq.c     ****   default:;
1007:src/xeq.c     ****   }
1008:src/xeq.c     **** }
1009:src/xeq.c     **** #endif
1010:src/xeq.c     **** 
1011:src/xeq.c     **** void cpx_nop(enum nilop op) { // miscellaneous complex operations
1012:src/xeq.c     ****   reset_shift();
1013:src/xeq.c     **** 	switch (op) {
1014:src/xeq.c     **** 	case OP_CYES: // set flag to allow complex mode to be entered - can be called at any time
1015:src/xeq.c     **** 	        SET_CPX_YES;
1016:src/xeq.c     **** 		CLEAR_REAL; // tidy a few flags when mode enabled
1017:src/xeq.c     **** 		CLEAR_IMAG;
1018:src/xeq.c     **** 		SET_RECTANGULAR_DISPLAY; 
1019:src/xeq.c     **** 		return;
1020:src/xeq.c     **** 	case OP_C_ON: // start complex mode - only called if CPX_ENABLED and C_LOCK_OFF
1021:src/xeq.c     **** 		if (UState.stack_depth) { // save prior stack size 
1022:src/xeq.c     **** 			INIT_8;
1023:src/xeq.c     **** 		}
1024:src/xeq.c     **** 		else {
1025:src/xeq.c     **** 			INIT_4;
1026:src/xeq.c     **** 		}
1027:src/xeq.c     **** 		LOCK_C;
1028:src/xeq.c     **** 		UState.stack_depth = 1; // set stack size to 8
1029:src/xeq.c     **** #ifdef DM42
1030:src/xeq.c     **** 		set_menu(M_C_Lock);
1031:src/xeq.c     **** 		display_current_menu();
1032:src/xeq.c     **** #endif
1033:src/xeq.c     **** 		break;
1034:src/xeq.c     **** 	case OP_CNO: // reset flag so that complex mode cannot be entered
1035:src/xeq.c     **** 		if (!C_LOCKED) { 
1036:src/xeq.c     **** 			SET_CPX_NO;
ARM GAS  /tmp/ccBFDvgN.s 			page 23


1037:src/xeq.c     **** 			UNLOCK_C; //just in case
1038:src/xeq.c     **** 			return;
1039:src/xeq.c     **** 		}
1040:src/xeq.c     **** 		SET_CPX_NO;
1041:src/xeq.c     **** 	case OP_C_OFF: // exit complex mode - only called if CPX_ENABLED and C_LOCK_ON
1042:src/xeq.c     **** 		finish_cpx_entry(1);
1043:src/xeq.c     **** 		UNLOCK_C;
1044:src/xeq.c     **** 		UState.stack_depth = TRUE_8; // restore prior stack size
1045:src/xeq.c     **** 		State2.wascomplex = 0;
1046:src/xeq.c     **** #ifdef DM42
1047:src/xeq.c     **** 		set_default_menu();
1048:src/xeq.c     **** 		display_current_menu();
1049:src/xeq.c     **** #endif
1050:src/xeq.c     **** 		return;
1051:src/xeq.c     **** 	case OP_C_MIM: // change sign of imaginary part
1052:src/xeq.c     **** 		{
1053:src/xeq.c     **** 		decNumber y;
1054:src/xeq.c     **** 		getY(&y);
1055:src/xeq.c     **** 		dn_minus(&y, &y);
1056:src/xeq.c     **** 		setY(&y);
1057:src/xeq.c     **** 		}
1058:src/xeq.c     **** 		break;
1059:src/xeq.c     **** 	case OP_C_MRE: // change sign of real part
1060:src/xeq.c     **** 		{
1061:src/xeq.c     **** 		decNumber x;
1062:src/xeq.c     **** 		getX(&x);
1063:src/xeq.c     **** 		dn_minus(&x, &x);
1064:src/xeq.c     **** 		setX(&x);
1065:src/xeq.c     **** 		}
1066:src/xeq.c     **** 		break;
1067:src/xeq.c     **** 	case OP_C_IM: // zero real part
1068:src/xeq.c     **** 		zero_X();
1069:src/xeq.c     **** 		break;
1070:src/xeq.c     **** 	case OP_C_RE: // zero imag part
1071:src/xeq.c     **** 		zero_Y();
1072:src/xeq.c     **** 		break;
1073:src/xeq.c     **** 	case OP_CPXI: // use i to display complex numbers
1074:src/xeq.c     **** 		SET_CPX_I;
1075:src/xeq.c     **** 		break;
1076:src/xeq.c     **** 	case OP_CPXJ: // use j to display complex numbers
1077:src/xeq.c     **** 		SET_CPX_J;
1078:src/xeq.c     **** 		break;
1079:src/xeq.c     **** 	default:;
1080:src/xeq.c     **** 	}
1081:src/xeq.c     **** 	set_was_complex();
1082:src/xeq.c     **** 	CLEAR_POLAR_READY;
1083:src/xeq.c     **** }
1084:src/xeq.c     **** #endif
1085:src/xeq.c     **** 
1086:src/xeq.c     **** void cpx_fill(enum nilop op) {
1087:src/xeq.c     **** 	const int n = stack_size();
1088:src/xeq.c     **** 	const REGISTER *y = get_reg_n(regY_idx);
1089:src/xeq.c     **** 	int i;
1090:src/xeq.c     **** 
1091:src/xeq.c     **** 	for (i=2; i<n; i++)
1092:src/xeq.c     **** 		copyreg(get_stack(i), (i & 1) ? y : StackBase);
1093:src/xeq.c     **** 	set_was_complex();
ARM GAS  /tmp/ccBFDvgN.s 			page 24


1094:src/xeq.c     **** }
1095:src/xeq.c     **** 
1096:src/xeq.c     **** void fill(enum nilop op) {
1097:src/xeq.c     **** 	const int n = stack_size();
1098:src/xeq.c     **** 	int i;
1099:src/xeq.c     **** 
1100:src/xeq.c     **** 	for (i=1; i<n; i++)
1101:src/xeq.c     **** 		copyreg(get_stack(i), StackBase);
1102:src/xeq.c     **** }
1103:src/xeq.c     **** 
1104:src/xeq.c     **** void drop(enum nilop op) {
1105:src/xeq.c     **** 	if (op == OP_DROPXY) {
1106:src/xeq.c     **** 		lower2();
1107:src/xeq.c     **** 		set_was_complex();
1108:src/xeq.c     **** 	} else
1109:src/xeq.c     **** 		lower();
1110:src/xeq.c     **** }
1111:src/xeq.c     **** 
1112:src/xeq.c     **** #ifndef is_intmode
1113:src/xeq.c     **** int is_intmode(void) {
1114:src/xeq.c     **** 	return UState.intm;
1115:src/xeq.c     **** }
1116:src/xeq.c     **** #endif
1117:src/xeq.c     **** 
1118:src/xeq.c     **** int is_dblmode(void) {
1119:src/xeq.c     **** 	return (! UState.intm && UState.mode_double);
1120:src/xeq.c     **** }
1121:src/xeq.c     **** 
1122:src/xeq.c     **** int is_usrdblmode(void) {
1123:src/xeq.c     **** 	if (XromFlags.xIN)
1124:src/xeq.c     **** 		return XromFlags.mode_double;
1125:src/xeq.c     **** 	return is_dblmode();
1126:src/xeq.c     **** }
1127:src/xeq.c     **** 
1128:src/xeq.c     **** /* Convert a possibly signed string to an integer
1129:src/xeq.c     ****  */
1130:src/xeq.c     **** int s_to_i(const char *s) {
1131:src/xeq.c     **** 	int x = 0;
1132:src/xeq.c     **** 	int neg;
1133:src/xeq.c     **** 
1134:src/xeq.c     **** 	if (*s == '-') {
1135:src/xeq.c     **** 		s++;
1136:src/xeq.c     **** 		neg = 1;
1137:src/xeq.c     **** 	} else {
1138:src/xeq.c     **** 		if (*s == '+')
1139:src/xeq.c     **** 			s++;
1140:src/xeq.c     **** 		neg = 0;
1141:src/xeq.c     **** 	}
1142:src/xeq.c     **** 
1143:src/xeq.c     **** 	for (;;) {
1144:src/xeq.c     **** 		const char c = *s++;
1145:src/xeq.c     **** 
1146:src/xeq.c     **** 		if (c < '0' || c > '9')
1147:src/xeq.c     **** 			break;
1148:src/xeq.c     **** 		x = 10 * x + (c - '0');
1149:src/xeq.c     **** 	}
1150:src/xeq.c     **** 	if (neg)
ARM GAS  /tmp/ccBFDvgN.s 			page 25


1151:src/xeq.c     **** 		return -x;
1152:src/xeq.c     **** 	return x;
1153:src/xeq.c     **** }
1154:src/xeq.c     **** 
1155:src/xeq.c     **** /* Convert a string in the given base to an unsigned integer
1156:src/xeq.c     ****  */
1157:src/xeq.c     **** unsigned long long int s_to_ull(const char *s, unsigned int base) {
1158:src/xeq.c     **** 	unsigned long long int x = 0;
1159:src/xeq.c     **** 
1160:src/xeq.c     **** 	for (;;) {
1161:src/xeq.c     **** 		unsigned int n;
1162:src/xeq.c     **** 		const char c = *s++;
1163:src/xeq.c     **** 
1164:src/xeq.c     **** 		if (c >= '0' && c <= '9')
1165:src/xeq.c     **** 			n = c - '0';
1166:src/xeq.c     **** 		else if (c >= 'A' && c <= 'F')
1167:src/xeq.c     **** 			n = c - 'A' + 10;
1168:src/xeq.c     **** 		else
1169:src/xeq.c     **** 			break;
1170:src/xeq.c     **** 		if (n >= base)
1171:src/xeq.c     **** 			break;
1172:src/xeq.c     **** 		x = x * base + n;
1173:src/xeq.c     **** 	}
1174:src/xeq.c     **** 	return x;
1175:src/xeq.c     **** }
1176:src/xeq.c     **** 
1177:src/xeq.c     **** const char *get_cmdline(void) {
1178:src/xeq.c     **** 	if (CmdLineLength) {
1179:src/xeq.c     **** 		Cmdline[CmdLineLength] = '\0';
1180:src/xeq.c     **** 		return Cmdline;
1181:src/xeq.c     **** 	}
1182:src/xeq.c     **** 	return NULL;
1183:src/xeq.c     **** }
1184:src/xeq.c     **** 
1185:src/xeq.c     **** #if 0
1186:src/xeq.c     **** static int fract_convert_number(decNumber *x, const char *s) {
1187:src/xeq.c     **** 	if (*s == '\0') {
1188:src/xeq.c     **** 		report_err(ERR_DOMAIN);
1189:src/xeq.c     **** 		return 1;
1190:src/xeq.c     **** 	}
1191:src/xeq.c     **** 	decNumberFromString(x, s, &Ctx);
1192:src/xeq.c     **** 	return check_special(x);
1193:src/xeq.c     **** }
1194:src/xeq.c     **** #endif
1195:src/xeq.c     **** 
1196:src/xeq.c     **** /* Return 1 if the command line contains an error and also set an appropriate
1197:src/xeq.c     ****  * error message.
1198:src/xeq.c     ****  */
1199:src/xeq.c     **** int is_bad_cmdline(void)
1200:src/xeq.c     **** {
1201:src/xeq.c     **** #ifndef IGNORE_INVALID_FRACTIONS
1202:src/xeq.c     **** 	if (CmdLineDot == 2) {
1203:src/xeq.c     **** 		char *p;
1204:src/xeq.c     **** 
1205:src/xeq.c     **** 		// Check if there's a non-zero digit after the last decimal mark
1206:src/xeq.c     **** 		p = Cmdline + CmdLineLength;
1207:src/xeq.c     **** 		for (;;) {
ARM GAS  /tmp/ccBFDvgN.s 			page 26


1208:src/xeq.c     **** 			p--;
1209:src/xeq.c     **** 			if (*p >= '1' && *p <= '9')
1210:src/xeq.c     **** 				return 0;
1211:src/xeq.c     **** 			if (*p == '.')
1212:src/xeq.c     **** 				break;
1213:src/xeq.c     **** 		}
1214:src/xeq.c     **** 
1215:src/xeq.c     **** 		reset_shift();
1216:src/xeq.c     **** 		error_message(ERR_DOMAIN);
1217:src/xeq.c     **** 		State2.invalid_disp = 1;
1218:src/xeq.c     **** 		return 1;
1219:src/xeq.c     **** 	}
1220:src/xeq.c     **** #endif
1221:src/xeq.c     **** 	return 0;
1222:src/xeq.c     **** }
1223:src/xeq.c     **** 
1224:src/xeq.c     **** /* Process the command line if any
1225:src/xeq.c     ****  */
1226:src/xeq.c     **** void process_cmdline(void) {
1227:src/xeq.c     **** 	decNumber a, b, x, t;
1228:src/xeq.c     **** 
1229:src/xeq.c     **** 	if (CmdLineLength) {
1230:src/xeq.c     **** 		const int bad_cmdline = is_bad_cmdline();
1231:src/xeq.c     **** 		const unsigned int cmdlinedot = CmdLineDot;
1232:src/xeq.c     **** #ifdef LARGE_EXPONENT_ENTRY
1233:src/xeq.c     **** 		char cmdline[CMDLINELEN + 2];
1234:src/xeq.c     **** #else
1235:src/xeq.c     **** 		char cmdline[CMDLINELEN + 1];
1236:src/xeq.c     **** #endif
1237:src/xeq.c     **** 
1238:src/xeq.c     **** 		xcopy(cmdline, Cmdline, CMDLINELEN + 1);
1239:src/xeq.c     **** 
1240:src/xeq.c     **** 		cmdline[CmdLineLength] = '\0';
1241:src/xeq.c     **** 		if (!is_intmode()) {
1242:src/xeq.c     **** #ifdef LARGE_EXPONENT_ENTRY
1243:src/xeq.c     **** 			if (cmdline[CmdLineLength-1] == 'E' || cmdline[CmdLineLength-1] == 'D')
1244:src/xeq.c     **** 				cmdline[CmdLineLength-1] = '\0';
1245:src/xeq.c     **** 			else if (cmdline[CmdLineEex] == 'D') {
1246:src/xeq.c     **** 				xcopy(cmdline + CmdLineEex + 2, cmdline + CmdLineEex + 1, CMDLINELEN - 1 - CmdLineEex);
1247:src/xeq.c     **** 				cmdline[CmdLineEex] = 'E';
1248:src/xeq.c     **** 				cmdline[CmdLineEex + 1] = '-';
1249:src/xeq.c     **** 			}
1250:src/xeq.c     **** #else
1251:src/xeq.c     **** 			if (cmdline[CmdLineLength-1] == 'E')
1252:src/xeq.c     **** 				cmdline[CmdLineLength-1] = '\0';
1253:src/xeq.c     **** 			else if (CmdLineLength > 1 && cmdline[CmdLineLength-2] == 'E' && cmdline[CmdLineLength-1] == '-'
1254:src/xeq.c     **** 				cmdline[CmdLineLength-2] = '\0';
1255:src/xeq.c     **** #endif
1256:src/xeq.c     **** 			if (0
1257:src/xeq.c     **** #if (FRACTION_MODE_INPUT & 3) == 3
1258:src/xeq.c     **** 			    || CmdLineEex
1259:src/xeq.c     **** #endif
1260:src/xeq.c     **** #if FRACTION_MODE_INPUT & 4
1261:src/xeq.c     **** 			    || cmdlinedot == 1
1262:src/xeq.c     **** #endif
1263:src/xeq.c     **** 			   )
1264:src/xeq.c     **** 				UState.fract = 0;
ARM GAS  /tmp/ccBFDvgN.s 			page 27


1265:src/xeq.c     **** 		}
1266:src/xeq.c     **** 		CmdLineLength = 0;
1267:src/xeq.c     **** 		lift_if_enabled();
1268:src/xeq.c     **** 		set_lift();
1269:src/xeq.c     **** 		CmdLineDot = 0;
1270:src/xeq.c     **** 		CmdLineEex = 0;
1271:src/xeq.c     **** 		if (is_intmode()) {
1272:src/xeq.c     **** 			const int sgn = (cmdline[0] == '-')?1:0;
1273:src/xeq.c     **** 			unsigned long long int x = s_to_ull(cmdline+sgn, int_base());
1274:src/xeq.c     **** 			setX_int_sgn(x, sgn);
1275:src/xeq.c     **** 		} else if (cmdlinedot == 2) {
1276:src/xeq.c     **** 			char *d0, *d1, *d2;
1277:src/xeq.c     **** 			int neg;
1278:src/xeq.c     **** 
1279:src/xeq.c     **** 			if (bad_cmdline)
1280:src/xeq.c     **** 				return;
1281:src/xeq.c     **** #if !(FRACTION_MODE_INPUT & 8)
1282:src/xeq.c     **** 			UState.fract = 1;
1283:src/xeq.c     **** #endif
1284:src/xeq.c     **** 			if (cmdline[0] == '-') {
1285:src/xeq.c     **** 				neg = 1;
1286:src/xeq.c     **** 				d0 = cmdline+1;
1287:src/xeq.c     **** 			} else {
1288:src/xeq.c     **** 				neg = 0;
1289:src/xeq.c     **** 				d0 = cmdline;
1290:src/xeq.c     **** 			}
1291:src/xeq.c     **** 			d1 = find_char(d0, '.');
1292:src/xeq.c     **** 			*d1++ = '\0';
1293:src/xeq.c     **** 			d2 = find_char(d1, '.');
1294:src/xeq.c     **** 			*d2++ = '\0';
1295:src/xeq.c     **** 			decNumberFromString(&b, d2, &Ctx);
1296:src/xeq.c     **** 			decNumberFromString(&x, d0, &Ctx);
1297:src/xeq.c     **** #if defined(INCLUDE_DOUBLEDOT_FRACTIONS)
1298:src/xeq.c     **** 			if (d2 == d1+1) { // ND change starts here; if dots are adjacent...
1299:src/xeq.c     **** 				decNumberCopy(&a, &x); // put x (integer part) into a (numerator) ...
1300:src/xeq.c     **** 				decNumberZero(&x); // and zero x
1301:src/xeq.c     **** #if FRACTION_MODE_INPUT & 32
1302:src/xeq.c     **** 				UState.improperfrac = 1;
1303:src/xeq.c     **** #endif
1304:src/xeq.c     **** 			}
1305:src/xeq.c     **** 			else
1306:src/xeq.c     **** #endif
1307:src/xeq.c     **** 			{
1308:src/xeq.c     **** 				decNumberFromString(&a, d1, &Ctx);
1309:src/xeq.c     **** #if (FRACTION_MODE_INPUT & 16) && defined(INCLUDE_DOUBLEDOT_FRACTIONS)
1310:src/xeq.c     **** 				UState.improperfrac = 0;
1311:src/xeq.c     **** #endif
1312:src/xeq.c     **** 			}
1313:src/xeq.c     **** 			dn_divide(&t, &a, &b);
1314:src/xeq.c     **** #ifdef IGNORE_INVALID_FRACTIONS
1315:src/xeq.c     **** 			if (!decNumberIsSpecial(&t))
1316:src/xeq.c     **** #endif
1317:src/xeq.c     **** 				dn_add(&x, &x, &t);
1318:src/xeq.c     **** 			if (neg)
1319:src/xeq.c     **** 				dn_minus(&x, &x);
1320:src/xeq.c     **** 			setX(&x);
1321:src/xeq.c     **** 		} else {
ARM GAS  /tmp/ccBFDvgN.s 			page 28


1322:src/xeq.c     **** 			decNumberFromString(&x, cmdline, &Ctx);
1323:src/xeq.c     **** 			setX(&x);
1324:src/xeq.c     **** 		}
1325:src/xeq.c     **** 		set_entry();
1326:src/xeq.c     **** #ifndef DM42
1327:src/xeq.c     **** 		print_trace( TRACE_DATA_ENTRY, 1 );
1328:src/xeq.c     **** #endif
1329:src/xeq.c     **** 	}
1330:src/xeq.c     **** }
1331:src/xeq.c     **** 
1332:src/xeq.c     **** void process_cmdline_set_lift(void) {
1333:src/xeq.c     **** 	process_cmdline();
1334:src/xeq.c     **** 	set_lift();
1335:src/xeq.c     **** }
1336:src/xeq.c     **** 
1337:src/xeq.c     **** 
1338:src/xeq.c     **** /*
1339:src/xeq.c     ****  *  Return a pointer to a numbered register.
1340:src/xeq.c     ****  *  If locals are enabled and a non existent local register
1341:src/xeq.c     ****  *  is accessed, the respective global register is returned.
1342:src/xeq.c     ****  *  Error checking must be done outside this routine.
1343:src/xeq.c     ****  *  We force the beginning of the local registers on an even stack position.
1344:src/xeq.c     ****  *  This ensures 32 bit alignment of the decima64 object.
1345:src/xeq.c     ****  */
1346:src/xeq.c     **** /*
1347:src/xeq.c     ****  *  If working in double precision, register numbers must be remapped
1348:src/xeq.c     ****  */
1349:src/xeq.c     **** static decimal64 *reg_address(int n, decimal64 *const regs, decimal64 *const named_regs) {
 182              		.loc 1 1349 90 is_stmt 1 view -0
 183              		.cfi_startproc
 184              		@ args = 0, pretend = 0, frame = 0
 185              		@ frame_needed = 0, uses_anonymous_args = 0
 186              		@ link register save eliminated.
1350:src/xeq.c     **** 	const int dbl = is_dblmode();
 187              		.loc 1 1350 2 view .LVU58
 188              	.LBB1325:
 189              	.LBI1325:
1118:src/xeq.c     **** 	return (! UState.intm && UState.mode_double);
 190              		.loc 1 1118 5 view .LVU59
 191              	.LBB1326:
1119:src/xeq.c     **** }
 192              		.loc 1 1119 2 view .LVU60
1119:src/xeq.c     **** }
 193              		.loc 1 1119 24 is_stmt 0 view .LVU61
 194 0000 154B     		ldr	r3, .L25
 195 0002 1B68     		ldr	r3, [r3]
 196              	.LBE1326:
 197              	.LBE1325:
1349:src/xeq.c     **** 	const int dbl = is_dblmode();
 198              		.loc 1 1349 90 view .LVU62
 199 0004 10B4     		push	{r4}
 200              		.cfi_def_cfa_offset 4
 201              		.cfi_offset 4, -4
 202              	.LBB1329:
 203              	.LBB1327:
1119:src/xeq.c     **** }
 204              		.loc 1 1119 24 view .LVU63
ARM GAS  /tmp/ccBFDvgN.s 			page 29


 205 0006 B3F8E847 		ldrh	r4, [r3, #2024]
 206              	.LBE1327:
 207              	.LBE1329:
1351:src/xeq.c     **** 
1352:src/xeq.c     **** 	if (n < regX_idx)
 208              		.loc 1 1352 5 view .LVU64
 209 000a 6328     		cmp	r0, #99
 210              	.LBB1330:
 211              	.LBB1328:
1119:src/xeq.c     **** }
 212              		.loc 1 1119 24 view .LVU65
 213 000c 44F20103 		movw	r3, #16385
 214 0010 03EA0403 		and	r3, r3, r4
 215              	.LVL17:
1119:src/xeq.c     **** }
 216              		.loc 1 1119 24 view .LVU66
 217              	.LBE1328:
 218              	.LBE1330:
 219              		.loc 1 1352 2 is_stmt 1 view .LVU67
 220              		.loc 1 1352 5 is_stmt 0 view .LVU68
 221 0014 10DD     		ble	.L23
1353:src/xeq.c     **** 		return regs + n + (dbl ? n : 0);
1354:src/xeq.c     **** 
1355:src/xeq.c     **** 	n -= regX_idx;
 222              		.loc 1 1355 2 is_stmt 1 view .LVU69
1356:src/xeq.c     **** 	// Lettered register
1357:src/xeq.c     **** 	if (XromFlags.xIN)
 223              		.loc 1 1357 6 is_stmt 0 view .LVU70
 224 0016 1149     		ldr	r1, .L25+4
 225              	.LVL18:
 226              		.loc 1 1357 5 view .LVU71
 227 0018 91F90140 		ldrsb	r4, [r1, #1]
 228 001c 002C     		cmp	r4, #0
1355:src/xeq.c     **** 	// Lettered register
 229              		.loc 1 1355 4 view .LVU72
 230 001e A0F16401 		sub	r1, r0, #100
 231              	.LVL19:
 232              		.loc 1 1357 2 is_stmt 1 view .LVU73
 233              		.loc 1 1357 5 is_stmt 0 view .LVU74
 234 0022 13DB     		blt	.L24
1358:src/xeq.c     **** 		return (decimal64 *) (XromStack + n);
1359:src/xeq.c     **** 	if (dbl)
 235              		.loc 1 1359 2 is_stmt 1 view .LVU75
 236              		.loc 1 1359 5 is_stmt 0 view .LVU76
 237 0024 B3F5804F 		cmp	r3, #16384
1360:src/xeq.c     **** 		n = (n << 1) - STACK_SIZE - EXTRA_REG;
 238              		.loc 1 1360 3 is_stmt 1 view .LVU77
 239              		.loc 1 1360 10 is_stmt 0 view .LVU78
 240 0028 04BF     		itt	eq
 241 002a 4900     		lsleq	r1, r1, #1
 242              	.LVL20:
 243              		.loc 1 1360 5 view .LVU79
 244 002c 0C39     		subeq	r1, r1, #12
 245              	.LVL21:
1361:src/xeq.c     **** 	return named_regs + n;
 246              		.loc 1 1361 2 is_stmt 1 view .LVU80
 247              		.loc 1 1361 20 is_stmt 0 view .LVU81
ARM GAS  /tmp/ccBFDvgN.s 			page 30


 248 002e 02EBC100 		add	r0, r2, r1, lsl #3
1362:src/xeq.c     **** }
 249              		.loc 1 1362 1 view .LVU82
 250 0032 5DF8044B 		ldr	r4, [sp], #4
 251              		.cfi_remember_state
 252              		.cfi_restore 4
 253              		.cfi_def_cfa_offset 0
 254 0036 7047     		bx	lr
 255              	.LVL22:
 256              	.L23:
 257              		.cfi_restore_state
1353:src/xeq.c     **** 
 258              		.loc 1 1353 3 is_stmt 1 view .LVU83
1353:src/xeq.c     **** 
 259              		.loc 1 1353 19 is_stmt 0 view .LVU84
 260 0038 B3F5804F 		cmp	r3, #16384
1353:src/xeq.c     **** 
 261              		.loc 1 1353 15 view .LVU85
 262 003c 4FEAC002 		lsl	r2, r0, #3
 263              	.LVL23:
1353:src/xeq.c     **** 
 264              		.loc 1 1353 15 view .LVU86
 265 0040 08BF     		it	eq
 266 0042 0201     		lsleq	r2, r0, #4
1353:src/xeq.c     **** 
 267              		.loc 1 1353 19 view .LVU87
 268 0044 8818     		adds	r0, r1, r2
 269              	.LVL24:
 270              		.loc 1 1362 1 view .LVU88
 271 0046 5DF8044B 		ldr	r4, [sp], #4
 272              		.cfi_remember_state
 273              		.cfi_restore 4
 274              		.cfi_def_cfa_offset 0
 275 004a 7047     		bx	lr
 276              	.LVL25:
 277              	.L24:
 278              		.cfi_restore_state
1358:src/xeq.c     **** 	if (dbl)
 279              		.loc 1 1358 3 is_stmt 1 view .LVU89
1358:src/xeq.c     **** 	if (dbl)
 280              		.loc 1 1358 10 is_stmt 0 view .LVU90
 281 004c 0448     		ldr	r0, .L25+8
 282              		.loc 1 1362 1 view .LVU91
 283 004e 5DF8044B 		ldr	r4, [sp], #4
 284              		.cfi_restore 4
 285              		.cfi_def_cfa_offset 0
1358:src/xeq.c     **** 	if (dbl)
 286              		.loc 1 1358 10 view .LVU92
 287 0052 00EB0110 		add	r0, r0, r1, lsl #4
 288              		.loc 1 1362 1 view .LVU93
 289 0056 7047     		bx	lr
 290              	.L26:
 291              		.align	2
 292              	.L25:
 293 0058 00000000 		.word	main_ram
 294 005c 00000000 		.word	XromParams
 295 0060 00000000 		.word	XromLocal
ARM GAS  /tmp/ccBFDvgN.s 			page 31


 296              		.cfi_endproc
 297              	.LFE90:
 299              		.section	.text.retstk_up,"ax",%progbits
 300              		.align	1
 301              		.p2align 2,,3
 302              		.syntax unified
 303              		.thumb
 304              		.thumb_func
 305              		.fpu fpv4-sp-d16
 307              	retstk_up:
 308              	.LFB150:
1363:src/xeq.c     **** 
1364:src/xeq.c     **** REGISTER *get_reg_n(int n) {
1365:src/xeq.c     **** 	const int dbl = is_dblmode();
1366:src/xeq.c     **** 
1367:src/xeq.c     **** 	if (n >= CONST_REG_BASE) {
1368:src/xeq.c     **** 		n -= CONST_REG_BASE;
1369:src/xeq.c     **** 		return get_const(n, dbl);
1370:src/xeq.c     **** 	}
1371:src/xeq.c     **** 	if (n >= FLASH_REG_BASE)
1372:src/xeq.c     **** 		return get_flash_reg_n(n - FLASH_REG_BASE);
1373:src/xeq.c     **** 
1374:src/xeq.c     **** 	if (n >= LOCAL_REG_BASE && local_regs() > 0) {
1375:src/xeq.c     **** 		// local register on the return stack
1376:src/xeq.c     **** 		n -= LOCAL_REG_BASE;
1377:src/xeq.c     **** 		if (dbl)
1378:src/xeq.c     **** 			n <<= 1;
1379:src/xeq.c     **** 		return (REGISTER *) ((decimal64 *) (RetStk + (short)((LocalRegs + 2) & 0xfffe)) + n);
1380:src/xeq.c     **** 	}
1381:src/xeq.c     **** 	return (REGISTER *) reg_address(n, Regs + TOPREALREG - NumRegs, Regs + regX_idx);
1382:src/xeq.c     **** }
1383:src/xeq.c     **** 
1384:src/xeq.c     **** 
1385:src/xeq.c     **** REGISTER *get_flash_reg_n(int n) {
1386:src/xeq.c     **** 	return (REGISTER *) reg_address(n, BackupFlash._regs + TOPREALREG - BackupFlash._numregs,
1387:src/xeq.c     **** 					   BackupFlash._regs + regX_idx);
1388:src/xeq.c     **** }
1389:src/xeq.c     **** 
1390:src/xeq.c     **** 
1391:src/xeq.c     **** /*
1392:src/xeq.c     ****  *  Get a constatnt by index and mode
1393:src/xeq.c     ****  *  In case of a conversion, a private copy is returned
1394:src/xeq.c     ****  */
1395:src/xeq.c     **** REGISTER *get_const(int index, int dbl)
1396:src/xeq.c     **** {
1397:src/xeq.c     **** 	static REGISTER result;
1398:src/xeq.c     **** 	const int i = cnsts[index].index;
1399:src/xeq.c     **** 	if (dbl) {
1400:src/xeq.c     **** 		if (i <= 1 || i >= 128)
1401:src/xeq.c     **** 			return (REGISTER *) (cnsts_d128 + (i & 0x7f));
1402:src/xeq.c     **** 		packed128_from_packed(&(result.d), cnsts_d64 + i);
1403:src/xeq.c     **** 	}
1404:src/xeq.c     **** 	else {
1405:src/xeq.c     **** 		if (i < 128)
1406:src/xeq.c     **** 			return (REGISTER *) (cnsts_d64 + i);
1407:src/xeq.c     **** 		packed_from_packed128(&(result.s), cnsts_d128 - 128 + i);
1408:src/xeq.c     **** 	}
ARM GAS  /tmp/ccBFDvgN.s 			page 32


1409:src/xeq.c     **** 	return &result;
1410:src/xeq.c     **** }
1411:src/xeq.c     **** 
1412:src/xeq.c     **** 
1413:src/xeq.c     **** /*  Some conversion routines to take decimals and produce integers
1414:src/xeq.c     ****  *  This is for opaque storage, no conversion takes place.
1415:src/xeq.c     ****  */
1416:src/xeq.c     **** long long int get_reg_n_int(int index) {
1417:src/xeq.c     **** 	long long int ll;
1418:src/xeq.c     **** 	xcopy(&ll, get_reg_n(index), sizeof(ll));
1419:src/xeq.c     **** 	return ll;
1420:src/xeq.c     **** }
1421:src/xeq.c     **** 
1422:src/xeq.c     **** void set_reg_n_int(int index, long long int ll) {
1423:src/xeq.c     **** 	xcopy(get_reg_n(index), &ll, sizeof(ll));
1424:src/xeq.c     **** }
1425:src/xeq.c     **** 
1426:src/xeq.c     **** /* Get an integer from a register
1427:src/xeq.c     ****  */
1428:src/xeq.c     **** unsigned long long int get_reg_n_int_sgn(int index, int *sgn) {
1429:src/xeq.c     **** 	if (is_intmode()) {
1430:src/xeq.c     **** 		return extract_value(get_reg_n_int(index), sgn);
1431:src/xeq.c     **** 	} else {
1432:src/xeq.c     **** 		decNumber n;
1433:src/xeq.c     **** 
1434:src/xeq.c     **** 		getRegister(&n, index);
1435:src/xeq.c     **** 		return dn_to_ull(&n, sgn);
1436:src/xeq.c     **** 	}
1437:src/xeq.c     **** }
1438:src/xeq.c     **** 
1439:src/xeq.c     **** 
1440:src/xeq.c     **** /* Get an integer from X
1441:src/xeq.c     ****  */
1442:src/xeq.c     **** long long int getX_int(void) {
1443:src/xeq.c     **** 	return get_reg_n_int(regX_idx);
1444:src/xeq.c     **** }
1445:src/xeq.c     **** 
1446:src/xeq.c     **** unsigned long long int getX_int_sgn(int *sgn) {
1447:src/xeq.c     **** 	return get_reg_n_int_sgn(regX_idx, sgn);
1448:src/xeq.c     **** }
1449:src/xeq.c     **** 
1450:src/xeq.c     **** /*
1451:src/xeq.c     ****  *  Forced conversion from real to intger
1452:src/xeq.c     ****  *  Leaves integer mode active on return!
1453:src/xeq.c     ****  */
1454:src/xeq.c     **** static void int_from_register(int out, int in) {
1455:src/xeq.c     **** 	int sgn;
1456:src/xeq.c     **** 	unsigned long long int val;
1457:src/xeq.c     **** 	
1458:src/xeq.c     **** 	UState.intm = 0;	// Force real mode access
1459:src/xeq.c     **** 	val = get_reg_n_int_sgn(in, &sgn);
1460:src/xeq.c     **** 
1461:src/xeq.c     **** 	UState.intm = 1;	// Force integer access
1462:src/xeq.c     **** 	set_reg_n_int_sgn(out, val, sgn);
1463:src/xeq.c     **** }
1464:src/xeq.c     **** 
1465:src/xeq.c     **** /* Put an integer into a register
ARM GAS  /tmp/ccBFDvgN.s 			page 33


1466:src/xeq.c     ****  */
1467:src/xeq.c     **** void set_reg_n_int_sgn(int index, unsigned long long int val, int sgn) {
1468:src/xeq.c     **** 	if (is_intmode()) {
1469:src/xeq.c     **** 		set_reg_n_int(index, build_value(val, sgn));
1470:src/xeq.c     **** 	} else {
1471:src/xeq.c     **** 		decNumber t;
1472:src/xeq.c     **** 
1473:src/xeq.c     **** 		ullint_to_dn(&t, val);
1474:src/xeq.c     **** 		if (sgn)
1475:src/xeq.c     **** 			dn_minus(&t, &t);
1476:src/xeq.c     **** 		setRegister(index, &t);
1477:src/xeq.c     **** 	}
1478:src/xeq.c     **** }
1479:src/xeq.c     **** 
1480:src/xeq.c     **** /* 
1481:src/xeq.c     ****  *  Forced conversion from integer to register format.
1482:src/xeq.c     ****  *  Leaves integer mode off after conversion.
1483:src/xeq.c     ****  *  Destination may be in XROM register space
1484:src/xeq.c     ****  */
1485:src/xeq.c     **** static void register_from_int(int out, int in, int called_from_xin) {
1486:src/xeq.c     **** 	int sgn;
1487:src/xeq.c     **** 	unsigned long long int val;
1488:src/xeq.c     **** 	const int xin = XromFlags.xIN;
1489:src/xeq.c     **** 	
1490:src/xeq.c     **** 	if (called_from_xin)
1491:src/xeq.c     **** 		XromFlags.xIN = 0;
1492:src/xeq.c     **** 	UState.intm = 1;
1493:src/xeq.c     **** 	val = get_reg_n_int_sgn(in, &sgn);
1494:src/xeq.c     **** 
1495:src/xeq.c     **** 	XromFlags.xIN = xin;
1496:src/xeq.c     **** 	UState.intm = 0;
1497:src/xeq.c     **** 	set_reg_n_int_sgn(out, val, sgn);
1498:src/xeq.c     **** }
1499:src/xeq.c     **** 
1500:src/xeq.c     **** 
1501:src/xeq.c     **** /* Put an integer into X
1502:src/xeq.c     ****  * Integer registers are always single precision!
1503:src/xeq.c     ****  */
1504:src/xeq.c     **** void setX_int(long long int val) {
1505:src/xeq.c     **** 	set_reg_n_int(regX_idx, val);
1506:src/xeq.c     **** }
1507:src/xeq.c     **** 
1508:src/xeq.c     **** 
1509:src/xeq.c     **** void setX_int_sgn(unsigned long long int val, int sgn) {
1510:src/xeq.c     **** 	set_reg_n_int_sgn(regX_idx, val, sgn);
1511:src/xeq.c     **** }
1512:src/xeq.c     **** 
1513:src/xeq.c     **** 
1514:src/xeq.c     **** 
1515:src/xeq.c     **** /*
1516:src/xeq.c     ****  *  Set the register value explicitely
1517:src/xeq.c     ****  */
1518:src/xeq.c     **** void zero_regs(REGISTER *dest, int n) {
1519:src/xeq.c     **** #if 0
1520:src/xeq.c     **** 	if (is_intmode())
1521:src/xeq.c     **** 		xset(dest, 0, n << 3);
1522:src/xeq.c     **** 	else {
ARM GAS  /tmp/ccBFDvgN.s 			page 34


1523:src/xeq.c     **** 		REGISTER *const zero = get_reg_n(CONST_REG_BASE + OP_ZERO);
1524:src/xeq.c     **** 		const int reg_size = is_dblmode() ? sizeof(decimal128) : sizeof(decimal64);
1525:src/xeq.c     **** 		char *d = (char *) dest;
1526:src/xeq.c     **** 		int i;
1527:src/xeq.c     **** 		for (i = 0; i < n; ++i, d += reg_size)
1528:src/xeq.c     **** 			copyreg((REGISTER *) d, zero);
1529:src/xeq.c     **** 	}
1530:src/xeq.c     **** #else
1531:src/xeq.c     **** 	// This works for all modes
1532:src/xeq.c     **** 	// no it doesn't -- it leaves varying values of zero around
1533:src/xeq.c     **** 	xset(dest, 0, n << (3 + is_dblmode()));
1534:src/xeq.c     **** #endif
1535:src/xeq.c     **** }
1536:src/xeq.c     **** 
1537:src/xeq.c     **** void move_regs(REGISTER *dest, REGISTER *src, int n) {
1538:src/xeq.c     **** 	if (is_dblmode())
1539:src/xeq.c     **** 		n <<= 1;
1540:src/xeq.c     **** 	xcopy(dest, src, n << 3);
1541:src/xeq.c     **** }
1542:src/xeq.c     **** 
1543:src/xeq.c     **** 
1544:src/xeq.c     **** /* Zero a register
1545:src/xeq.c     ****  */
1546:src/xeq.c     **** static void set_zero(REGISTER *x) {
1547:src/xeq.c     **** 	zero_regs(x, 1);
1548:src/xeq.c     **** }
1549:src/xeq.c     **** 
1550:src/xeq.c     **** void zero_X(void) {
1551:src/xeq.c     **** 	set_zero(StackBase);
1552:src/xeq.c     **** }
1553:src/xeq.c     **** 
1554:src/xeq.c     **** void zero_Y(void) {
1555:src/xeq.c     **** 	set_zero(get_reg_n(regY_idx));
1556:src/xeq.c     **** }
1557:src/xeq.c     **** 
1558:src/xeq.c     **** void clrx(enum nilop op) {
1559:src/xeq.c     **** 	zero_X();
1560:src/xeq.c     **** #ifdef INCLUDE_C_LOCK
1561:src/xeq.c     **** 	if (C_LOCKED) {
1562:src/xeq.c     **** 		zero_Y();
1563:src/xeq.c     **** 		if (POLAR_DISPLAY) {
1564:src/xeq.c     **** 			set_zero(get_reg_n(regJ_idx));
1565:src/xeq.c     **** 			set_zero(get_reg_n(regK_idx));
1566:src/xeq.c     **** 		}
1567:src/xeq.c     **** 		CLEAR_REAL;
1568:src/xeq.c     **** 		CLEAR_IMAG;
1569:src/xeq.c     **** 	}
1570:src/xeq.c     **** #endif
1571:src/xeq.c     **** 	clr_lift();
1572:src/xeq.c     **** }
1573:src/xeq.c     **** 
1574:src/xeq.c     **** /* Zero out the stack
1575:src/xeq.c     ****  */
1576:src/xeq.c     **** void clrstk(enum nilop op) {
1577:src/xeq.c     **** 	zero_regs(StackBase, stack_size());
1578:src/xeq.c     **** 	set_lift();
1579:src/xeq.c     **** }
ARM GAS  /tmp/ccBFDvgN.s 			page 35


1580:src/xeq.c     **** 
1581:src/xeq.c     **** 
1582:src/xeq.c     **** /* Zero out all registers excluding the stack and lastx
1583:src/xeq.c     ****  */	
1584:src/xeq.c     **** void clrreg(enum nilop op) {
1585:src/xeq.c     **** 	const int local = local_regs();
1586:src/xeq.c     **** 	process_cmdline_set_lift();
1587:src/xeq.c     **** 
1588:src/xeq.c     **** 	// erase register memory
1589:src/xeq.c     **** 	zero_regs(get_reg_n(0), global_regs());
1590:src/xeq.c     **** 
1591:src/xeq.c     **** 	// Clear A, B, C & D if they aren't part of the stack
1592:src/xeq.c     **** 	if (stack_size() != 8)
1593:src/xeq.c     **** 		zero_regs(get_reg_n(regA_idx), 4);
1594:src/xeq.c     **** 
1595:src/xeq.c     **** 	// Clear J & K but not I and L since they are last X.
1596:src/xeq.c     **** 	zero_regs(get_reg_n(regJ_idx), 2);
1597:src/xeq.c     **** 
1598:src/xeq.c     **** 	// erase local registers but keep them allocated
1599:src/xeq.c     **** 	if (local)
1600:src/xeq.c     **** 		zero_regs(get_reg_n(LOCAL_REG_BASE), local);
1601:src/xeq.c     **** }
1602:src/xeq.c     **** 
1603:src/xeq.c     **** 
1604:src/xeq.c     **** /* Clear the subroutine return stack
1605:src/xeq.c     ****  */
1606:src/xeq.c     **** void clrretstk(void) {
1607:src/xeq.c     **** 	RetStkPtr = LocalRegs = 0;
1608:src/xeq.c     **** }
1609:src/xeq.c     **** 
1610:src/xeq.c     **** void clrretstk_pc(void) {
1611:src/xeq.c     **** 	clrretstk();
1612:src/xeq.c     **** 	raw_set_pc(0);
1613:src/xeq.c     **** 	update_program_bounds(1);
1614:src/xeq.c     **** }
1615:src/xeq.c     **** 
1616:src/xeq.c     **** 
1617:src/xeq.c     **** /*
1618:src/xeq.c     ****  *  Command to allow access to constants and small integers
1619:src/xeq.c     ****  */
1620:src/xeq.c     **** void cmdconst(unsigned int arg, enum rarg op) {
1621:src/xeq.c     **** #ifdef INCLUDE_INDIRECT_CONSTS
1622:src/xeq.c     **** 	if (op == RARG_INTNUM_CMPLX || op == RARG_CONST_CMPLX || op == RARG_IND_CONST_CMPLX) {
1623:src/xeq.c     **** #else
1624:src/xeq.c     **** 	if (op == RARG_INTNUM_CMPLX || op == RARG_CONST_CMPLX) {
1625:src/xeq.c     **** #endif
1626:src/xeq.c     **** 		lift2_if_enabled();
1627:src/xeq.c     **** 		zero_Y();
1628:src/xeq.c     **** 		set_was_complex();
1629:src/xeq.c     **** 	} else
1630:src/xeq.c     **** 		lift_if_enabled();
1631:src/xeq.c     **** 
1632:src/xeq.c     **** 	if (op == RARG_INTNUM || op == RARG_INTNUM_CMPLX)
1633:src/xeq.c     **** 		setX_int_sgn(arg, 0);
1634:src/xeq.c     **** 	else if (is_intmode())
1635:src/xeq.c     **** 		bad_mode_error();
1636:src/xeq.c     **** 	else 
ARM GAS  /tmp/ccBFDvgN.s 			page 36


1637:src/xeq.c     **** 		copyreg(StackBase, get_const(arg, is_dblmode()));
1638:src/xeq.c     **** #ifdef INCLUDE_C_LOCK
1639:src/xeq.c     **** 	CLEAR_POLAR_READY;
1640:src/xeq.c     **** #endif
1641:src/xeq.c     **** }
1642:src/xeq.c     **** 
1643:src/xeq.c     **** 
1644:src/xeq.c     **** /* Store/recall code here.
1645:src/xeq.c     ****  * These two are pretty much the same so we define some utility routines first.
1646:src/xeq.c     ****  */
1647:src/xeq.c     **** 
1648:src/xeq.c     **** /* Do a basic STO/RCL arithmetic operation.
1649:src/xeq.c     ****  */
1650:src/xeq.c     **** static int storcl_op(unsigned short opr, int index, decNumber *r, int rev) {
1651:src/xeq.c     **** 	decNumber a, b, *x = &a, *y = &b;
1652:src/xeq.c     **** 
1653:src/xeq.c     **** 	getX(x);
1654:src/xeq.c     **** 	getRegister(y, index);
1655:src/xeq.c     **** 	if (rev) {
1656:src/xeq.c     **** 		x = y;
1657:src/xeq.c     **** 		y = &a;
1658:src/xeq.c     **** 	}
1659:src/xeq.c     **** 
1660:src/xeq.c     **** 	switch (opr) {
1661:src/xeq.c     **** 	case 1:
1662:src/xeq.c     **** 		dn_add(r, y, x);
1663:src/xeq.c     **** 		break;
1664:src/xeq.c     **** 	case 2:
1665:src/xeq.c     **** 		dn_subtract(r, y, x);
1666:src/xeq.c     **** 		break;
1667:src/xeq.c     **** 	case 3:
1668:src/xeq.c     **** 		dn_multiply(r, y, x);
1669:src/xeq.c     **** 		break;
1670:src/xeq.c     **** 	case 4:
1671:src/xeq.c     **** 		dn_divide(r, y, x);
1672:src/xeq.c     **** 		break;
1673:src/xeq.c     **** 	case 5:
1674:src/xeq.c     **** 		dn_min(r, y, x);
1675:src/xeq.c     **** 		break;
1676:src/xeq.c     **** 	case 6:
1677:src/xeq.c     **** 		dn_max(r, y, x);
1678:src/xeq.c     **** 		break;
1679:src/xeq.c     **** 	default:
1680:src/xeq.c     **** 		return 1;
1681:src/xeq.c     **** 	}
1682:src/xeq.c     **** 	return 0;
1683:src/xeq.c     **** }
1684:src/xeq.c     **** 
1685:src/xeq.c     **** static int storcl_intop(unsigned short opr, int index, long long int *r, int rev) {
1686:src/xeq.c     **** 	long long int x, y;
1687:src/xeq.c     **** 
1688:src/xeq.c     **** 	x = getX_int();
1689:src/xeq.c     **** 	y = get_reg_n_int(index);
1690:src/xeq.c     **** 
1691:src/xeq.c     **** 	if (rev) {
1692:src/xeq.c     **** 		const long long int t = x;
1693:src/xeq.c     **** 		x = y;
ARM GAS  /tmp/ccBFDvgN.s 			page 37


1694:src/xeq.c     **** 		y = t;
1695:src/xeq.c     **** 	}
1696:src/xeq.c     **** 
1697:src/xeq.c     **** 	switch (opr) {
1698:src/xeq.c     **** 	case 1:
1699:src/xeq.c     **** 		*r = intAdd(y, x);
1700:src/xeq.c     **** 		break;
1701:src/xeq.c     **** 	case 2:
1702:src/xeq.c     **** 		*r = intSubtract(y, x);
1703:src/xeq.c     **** 		break;
1704:src/xeq.c     **** 	case 3:
1705:src/xeq.c     **** 		*r = intMultiply(y, x);
1706:src/xeq.c     **** 		break;
1707:src/xeq.c     **** 	case 4:
1708:src/xeq.c     **** 		*r = intDivide(y, x);
1709:src/xeq.c     **** 		break;
1710:src/xeq.c     **** 	case 5:
1711:src/xeq.c     **** 		*r = intMin(y, x);
1712:src/xeq.c     **** 		break;
1713:src/xeq.c     **** 	case 6:
1714:src/xeq.c     **** 		*r = intMax(y, x);
1715:src/xeq.c     **** 		break;
1716:src/xeq.c     **** 	default:
1717:src/xeq.c     **** 		return 1;
1718:src/xeq.c     **** 	}
1719:src/xeq.c     **** 	return 0;
1720:src/xeq.c     **** }
1721:src/xeq.c     **** 
1722:src/xeq.c     **** /* We've got a STO operation to do.
1723:src/xeq.c     ****  */
1724:src/xeq.c     **** void cmdsto(unsigned int arg, enum rarg op) {
1725:src/xeq.c     **** 	if (op == RARG_STO) {
1726:src/xeq.c     **** 		copyreg_n(arg, regX_idx);
1727:src/xeq.c     **** 	} else {
1728:src/xeq.c     **** 		if (is_intmode()) {
1729:src/xeq.c     **** 			long long int r;
1730:src/xeq.c     **** 
1731:src/xeq.c     **** 			if (storcl_intop(op - RARG_STO, arg, &r, 0))
1732:src/xeq.c     **** 				illegal(op);
1733:src/xeq.c     **** 			set_reg_n_int(arg, r);
1734:src/xeq.c     **** 		} else {
1735:src/xeq.c     **** 			decNumber r;
1736:src/xeq.c     **** 
1737:src/xeq.c     **** 			if (storcl_op(op - RARG_STO, arg, &r, 0))
1738:src/xeq.c     **** 				illegal(op);
1739:src/xeq.c     **** 			setRegister(arg, &r);
1740:src/xeq.c     **** 		}
1741:src/xeq.c     **** 	}
1742:src/xeq.c     **** }
1743:src/xeq.c     **** 
1744:src/xeq.c     **** /* We've got a RCL operation to do.
1745:src/xeq.c     ****  */
1746:src/xeq.c     **** static void do_rcl(int index, enum rarg op) {
1747:src/xeq.c     **** 	if (op == RARG_RCL) {
1748:src/xeq.c     **** 		REGISTER temp;
1749:src/xeq.c     **** 		copyreg(&temp, get_reg_n(index));
1750:src/xeq.c     **** 		lift_if_enabled();
ARM GAS  /tmp/ccBFDvgN.s 			page 38


1751:src/xeq.c     **** 		copyreg(StackBase, &temp);
1752:src/xeq.c     **** 	} else {
1753:src/xeq.c     **** 		if (is_intmode()) {
1754:src/xeq.c     **** 			long long int r;
1755:src/xeq.c     **** 
1756:src/xeq.c     **** 			if (storcl_intop(op - RARG_RCL, index, &r, 1))
1757:src/xeq.c     **** 				illegal(op);
1758:src/xeq.c     **** 			setlastX();
1759:src/xeq.c     **** 			setX_int(r);
1760:src/xeq.c     **** 		} else {
1761:src/xeq.c     **** 			decNumber r;
1762:src/xeq.c     **** 
1763:src/xeq.c     **** 			if (storcl_op(op - RARG_RCL, index, &r, 1))
1764:src/xeq.c     **** 				illegal(op);
1765:src/xeq.c     **** 			setlastX();
1766:src/xeq.c     **** 			setX(&r);
1767:src/xeq.c     **** 		}
1768:src/xeq.c     **** 	}
1769:src/xeq.c     **** }
1770:src/xeq.c     **** 
1771:src/xeq.c     **** void cmdrcl(unsigned int arg, enum rarg op) {
1772:src/xeq.c     **** 	do_rcl(arg, op);
1773:src/xeq.c     **** }
1774:src/xeq.c     **** 
1775:src/xeq.c     **** #ifdef INCLUDE_FLASH_RECALL
1776:src/xeq.c     **** void cmdflashrcl(unsigned int arg, enum rarg op) {
1777:src/xeq.c     **** 	do_rcl(FLASH_REG_BASE + arg, op - RARG_FLRCL + RARG_RCL);
1778:src/xeq.c     **** }
1779:src/xeq.c     **** #endif
1780:src/xeq.c     **** 
1781:src/xeq.c     **** /* And the complex equivalents for the above.
1782:src/xeq.c     ****  * We pair registers arg & arg+1 to provide a complex number
1783:src/xeq.c     ****  */
1784:src/xeq.c     **** static int storcl_cop(unsigned short opr, int index, decNumber *r1, decNumber *r2, int rev) {
1785:src/xeq.c     **** 	decNumber a[2], b[2], *x = a, *y = b;
1786:src/xeq.c     **** 
1787:src/xeq.c     **** 	getXY(x + 0, x + 1);
1788:src/xeq.c     **** 	getRegister(y + 0, index);
1789:src/xeq.c     **** 	getRegister(y + 1, index + 1);
1790:src/xeq.c     **** 
1791:src/xeq.c     **** 	if (rev) {
1792:src/xeq.c     **** 		x = y;
1793:src/xeq.c     **** 		y = a;
1794:src/xeq.c     **** 	}
1795:src/xeq.c     **** 
1796:src/xeq.c     **** 	switch (opr) {
1797:src/xeq.c     **** 	case 1:
1798:src/xeq.c     **** 		cmplxAdd(r1, r2, y + 0, y + 1, x + 0, x + 1);
1799:src/xeq.c     **** 		break;
1800:src/xeq.c     **** 	case 2:
1801:src/xeq.c     **** 		cmplxSubtract(r1, r2, y + 0, y + 1, x + 0, x + 1);
1802:src/xeq.c     **** 		break;
1803:src/xeq.c     **** 	case 3:
1804:src/xeq.c     **** 		cmplxMultiply(r1, r2, y + 0, y + 1, x + 0, x + 1);
1805:src/xeq.c     **** 		break;
1806:src/xeq.c     **** 	case 4:
1807:src/xeq.c     **** 		cmplxDivide(r1, r2, y + 0, y + 1, x + 0, x + 1);
ARM GAS  /tmp/ccBFDvgN.s 			page 39


1808:src/xeq.c     **** 		break;
1809:src/xeq.c     **** 	default:
1810:src/xeq.c     **** 		return 1;
1811:src/xeq.c     **** 	}
1812:src/xeq.c     **** 	return 0;
1813:src/xeq.c     **** }
1814:src/xeq.c     **** 
1815:src/xeq.c     **** 
1816:src/xeq.c     **** void cmdcsto(unsigned int arg, enum rarg op) {
1817:src/xeq.c     **** 	decNumber r1, r2;
1818:src/xeq.c     **** 	REGISTER *t1, *t2;
1819:src/xeq.c     **** 
1820:src/xeq.c     **** 	t1 = get_reg_n(arg);
1821:src/xeq.c     **** 	t2 = get_reg_n(arg + 1);
1822:src/xeq.c     **** 
1823:src/xeq.c     **** 	if (op == RARG_CSTO) {
1824:src/xeq.c     **** 		copyreg(t1, StackBase);
1825:src/xeq.c     **** 		copyreg(t2, get_reg_n(regY_idx));
1826:src/xeq.c     **** 	} else {
1827:src/xeq.c     **** 		if (is_intmode())
1828:src/xeq.c     **** 			bad_mode_error();
1829:src/xeq.c     **** 		else if (storcl_cop(op - RARG_CSTO, arg, &r1, &r2, 0))
1830:src/xeq.c     **** 			illegal(op);
1831:src/xeq.c     **** 		else {
1832:src/xeq.c     **** 			setRegister(arg, &r1);
1833:src/xeq.c     **** 			setRegister(arg + 1, &r2);
1834:src/xeq.c     **** 		}
1835:src/xeq.c     **** 	}
1836:src/xeq.c     **** 	set_was_complex();
1837:src/xeq.c     **** }
1838:src/xeq.c     **** 
1839:src/xeq.c     **** static void do_crcl(int index, enum rarg op) {
1840:src/xeq.c     **** 	decNumber r1, r2;
1841:src/xeq.c     **** 
1842:src/xeq.c     **** 	if (op == RARG_CRCL) {
1843:src/xeq.c     **** 		REGISTER x, y;
1844:src/xeq.c     **** 		copyreg(&x, get_reg_n(index));
1845:src/xeq.c     **** 		copyreg(&y, get_reg_n(index + 1));
1846:src/xeq.c     **** 		lift2_if_enabled();
1847:src/xeq.c     **** 		copyreg(StackBase, &x);
1848:src/xeq.c     **** 		copyreg(get_reg_n(regY_idx), &y);
1849:src/xeq.c     **** 	} else {
1850:src/xeq.c     **** 		if (is_intmode())
1851:src/xeq.c     **** 			bad_mode_error();
1852:src/xeq.c     **** 		else if (storcl_cop(op - RARG_CRCL, index, &r1, &r2, 1))
1853:src/xeq.c     **** 			illegal(op);
1854:src/xeq.c     **** 		else {
1855:src/xeq.c     **** 			setlastXY();
1856:src/xeq.c     **** 			setXY(&r1, &r2);
1857:src/xeq.c     **** 		}
1858:src/xeq.c     **** 	}
1859:src/xeq.c     **** 	set_was_complex();
1860:src/xeq.c     **** }
1861:src/xeq.c     **** 
1862:src/xeq.c     **** void cmdcrcl(unsigned int arg, enum rarg op) {
1863:src/xeq.c     **** 	do_crcl(arg, op);
1864:src/xeq.c     **** #ifdef INCLUDE_C_LOCK
ARM GAS  /tmp/ccBFDvgN.s 			page 40


1865:src/xeq.c     **** 	CLEAR_POLAR_READY;
1866:src/xeq.c     **** #endif
1867:src/xeq.c     **** }
1868:src/xeq.c     **** 
1869:src/xeq.c     **** #ifdef INCLUDE_FLASH_RECALL
1870:src/xeq.c     **** void cmdflashcrcl(unsigned int arg, enum rarg op) {
1871:src/xeq.c     **** 	do_crcl(FLASH_REG_BASE + arg, op - RARG_FLCRCL + RARG_CRCL);
1872:src/xeq.c     **** }
1873:src/xeq.c     **** #endif
1874:src/xeq.c     **** 
1875:src/xeq.c     **** /*
1876:src/xeq.c     ****  *  "Alien" RCL commands to convert registers originally stored in a different format
1877:src/xeq.c     ****  */
1878:src/xeq.c     **** // RCL of an integer value
1879:src/xeq.c     **** void cmdircl(unsigned int arg, enum rarg op) {
1880:src/xeq.c     **** 	if (is_intmode())
1881:src/xeq.c     **** 		cmdrcl(arg, RARG_RCL);
1882:src/xeq.c     **** 	else
1883:src/xeq.c     **** 		register_from_int(regX_idx, arg, 0);
1884:src/xeq.c     **** }
1885:src/xeq.c     **** 
1886:src/xeq.c     **** // RCL of a single or double precision real value
1887:src/xeq.c     **** void cmdrrcl(unsigned int arg, enum rarg op) {
1888:src/xeq.c     **** 	const int was_dbl = UState.mode_double;
1889:src/xeq.c     **** 	const int rcl_dbl = (op == RARG_dRCL);
1890:src/xeq.c     **** 
1891:src/xeq.c     **** 	if (rcl_dbl && arg >= regX_idx && arg <= regK_idx) {
1892:src/xeq.c     **** 		// dRCL is not valid for lettered registers
1893:src/xeq.c     **** 		report_err(ERR_RANGE);
1894:src/xeq.c     **** 		return;
1895:src/xeq.c     **** 	}
1896:src/xeq.c     **** 
1897:src/xeq.c     **** 	UState.mode_double = rcl_dbl; // Force reading in requested format
1898:src/xeq.c     **** 	if (is_intmode()) {
1899:src/xeq.c     **** 		int_from_register(regX_idx, arg);
1900:src/xeq.c     **** 		UState.mode_double = was_dbl;
1901:src/xeq.c     **** 	}
1902:src/xeq.c     **** 	else {
1903:src/xeq.c     **** 		decNumber x;
1904:src/xeq.c     **** 		getRegister(&x, arg);
1905:src/xeq.c     **** 
1906:src/xeq.c     **** 		UState.mode_double = was_dbl; // Force access in original mode
1907:src/xeq.c     **** 		setX(&x);
1908:src/xeq.c     **** 	}
1909:src/xeq.c     **** }
1910:src/xeq.c     **** 
1911:src/xeq.c     **** 
1912:src/xeq.c     **** /* SWAP x with the specified register
1913:src/xeq.c     ****  */
1914:src/xeq.c     **** void swap_reg(REGISTER *a, REGISTER *b) {
1915:src/xeq.c     **** 	REGISTER t;
1916:src/xeq.c     **** 
1917:src/xeq.c     **** 	copyreg(&t, a);
1918:src/xeq.c     **** 	copyreg(a, b);
1919:src/xeq.c     **** 	copyreg(b, &t);
1920:src/xeq.c     **** }
1921:src/xeq.c     **** 
ARM GAS  /tmp/ccBFDvgN.s 			page 41


1922:src/xeq.c     **** void cmdswap(unsigned int arg, enum rarg op) {
1923:src/xeq.c     **** 	int idx;
1924:src/xeq.c     **** 
1925:src/xeq.c     **** 	if (op == RARG_CSWAPX)
1926:src/xeq.c     **** 		idx = regX_idx;
1927:src/xeq.c     **** 	else if (op == RARG_CSWAPZ)
1928:src/xeq.c     **** 		idx = regZ_idx;
1929:src/xeq.c     **** 	else
1930:src/xeq.c     **** 		idx = regX_idx + (int)(op - RARG_SWAPX);
1931:src/xeq.c     **** 
1932:src/xeq.c     **** 	swap_reg(get_reg_n(idx), get_reg_n(arg));
1933:src/xeq.c     **** 
1934:src/xeq.c     **** 	if (op >= RARG_CSWAPX) {
1935:src/xeq.c     **** 		swap_reg(get_reg_n(idx + 1), get_reg_n(arg + 1));
1936:src/xeq.c     **** 		set_was_complex();
1937:src/xeq.c     **** #ifdef INCLUDE_C_LOCK
1938:src/xeq.c     **** 	CLEAR_POLAR_READY;
1939:src/xeq.c     **** #endif
1940:src/xeq.c     **** 	}
1941:src/xeq.c     **** }
1942:src/xeq.c     **** 
1943:src/xeq.c     **** 
1944:src/xeq.c     **** /* View a specified register
1945:src/xeq.c     ****  */
1946:src/xeq.c     **** void cmdview(unsigned int arg, enum rarg op) {
1947:src/xeq.c     **** 	const int cmplx = op == RARG_CVIEW ? 1 : 0;
1948:src/xeq.c     **** 
1949:src/xeq.c     **** 	State2.wascomplex = cmplx;
1950:src/xeq.c     **** 	ShowRegister = arg;
1951:src/xeq.c     **** 	State2.disp_freeze = 0;
1952:src/xeq.c     **** 	display();
1953:src/xeq.c     **** 	State2.disp_freeze = cmplx || Running || arg != regX_idx;
1954:src/xeq.c     **** }
1955:src/xeq.c     **** 
1956:src/xeq.c     **** 
1957:src/xeq.c     **** /* Get the stack size */
1958:src/xeq.c     **** void get_stack_size(enum nilop op) {
1959:src/xeq.c     **** 	setX_int_sgn(stack_size(), 0);
1960:src/xeq.c     **** }
1961:src/xeq.c     **** 
1962:src/xeq.c     **** void get_word_size(enum nilop op) {
1963:src/xeq.c     **** 	setX_int_sgn((int)word_size(), 0);
1964:src/xeq.c     **** }
1965:src/xeq.c     **** 
1966:src/xeq.c     **** void get_sign_mode(enum nilop op) {
1967:src/xeq.c     **** 	static const unsigned char modes[4] = {
1968:src/xeq.c     **** 		0x02,		// 2's complement
1969:src/xeq.c     **** 		0x01,		// 1's complement
1970:src/xeq.c     **** 		0x00,		// unsigned
1971:src/xeq.c     **** 		0x81		// sign and mantissa
1972:src/xeq.c     **** 	};
1973:src/xeq.c     **** 	const unsigned char v = modes[(int)int_mode()];
1974:src/xeq.c     **** 	setX_int_sgn(v & 3, v & 0x80);
1975:src/xeq.c     **** }
1976:src/xeq.c     **** 
1977:src/xeq.c     **** void get_base(enum nilop op) {
1978:src/xeq.c     **** 	setX_int_sgn((int)int_base(), 0);
ARM GAS  /tmp/ccBFDvgN.s 			page 42


1979:src/xeq.c     **** }
1980:src/xeq.c     **** 
1981:src/xeq.c     **** #ifdef DM42
1982:src/xeq.c     ****  long int DM42_Ticker () {
1983:src/xeq.c     ****     long int f, t;
1984:src/xeq.c     ****     t = get_rtc_ticks();
1985:src/xeq.c     ****     f = ((t & 0xfffff)*10)>>8; // tenths of a second, with lots of whole seconds before it;
1986:src/xeq.c     ****     return f;
1987:src/xeq.c     ****  }
1988:src/xeq.c     **** #endif
1989:src/xeq.c     **** /* Get the current ticker value */
1990:src/xeq.c     **** void op_ticks(enum nilop op) {
1991:src/xeq.c     **** #if !defined(CONSOLE)
1992:src/xeq.c     ****     setX_int_sgn(Ticker, 0);
1993:src/xeq.c     **** #else 
1994:src/xeq.c     ****     struct timeval tv;
1995:src/xeq.c     ****     long long int t;
1996:src/xeq.c     ****     gettimeofday(&tv, NULL);
1997:src/xeq.c     ****     t = tv.tv_sec * 10 + tv.tv_usec / 100000;
1998:src/xeq.c     ****     setX_int_sgn(t, 0);
1999:src/xeq.c     **** #endif
2000:src/xeq.c     **** }
2001:src/xeq.c     **** 
2002:src/xeq.c     **** /* Display the battery voltage */
2003:src/xeq.c     **** void op_voltage(enum nilop op) {
2004:src/xeq.c     **** 	decNumber t, u;
2005:src/xeq.c     **** #ifdef REALBUILD
2006:src/xeq.c     **** 	unsigned long long int v = 19 + Voltage;
2007:src/xeq.c     **** #elif defined(DM42)
2008:src/xeq.c     **** 	int v = get_vbat();
2009:src/xeq.c     **** 	v = v / 100;
2010:src/xeq.c     **** #else
2011:src/xeq.c     **** 	unsigned long long int v = 32;
2012:src/xeq.c     **** #endif
2013:src/xeq.c     **** 
2014:src/xeq.c     **** 	if (is_intmode()) {
2015:src/xeq.c     **** 		setX_int_sgn(v, 0);
2016:src/xeq.c     **** 	} else {
2017:src/xeq.c     **** 		ullint_to_dn(&t, v);
2018:src/xeq.c     **** 		dn_mulpow10(&u, &t, -1);
2019:src/xeq.c     **** 		setX(&u);
2020:src/xeq.c     **** 	}
2021:src/xeq.c     **** }
2022:src/xeq.c     **** 
2023:src/xeq.c     **** /*
2024:src/xeq.c     ****  *  Commands to determine free memory
2025:src/xeq.c     ****  */
2026:src/xeq.c     **** int free_mem(void) {
2027:src/xeq.c     **** 	return RetStkSize + RetStkPtr;
2028:src/xeq.c     **** }
2029:src/xeq.c     **** 
2030:src/xeq.c     **** int free_flash(void) {
2031:src/xeq.c     **** 	return NUMPROG_FLASH_MAX - UserFlash.size;
2032:src/xeq.c     **** }
2033:src/xeq.c     **** 
2034:src/xeq.c     **** void get_mem(enum nilop op) {
2035:src/xeq.c     **** 	setX_int_sgn( op == OP_MEMQ ? free_mem() :
ARM GAS  /tmp/ccBFDvgN.s 			page 43


2036:src/xeq.c     **** 		 op == OP_LOCRQ ? local_regs() :
2037:src/xeq.c     **** 		 op == OP_FLASHQ ? free_flash() :
2038:src/xeq.c     **** 		 global_regs(),
2039:src/xeq.c     **** 		 0);
2040:src/xeq.c     **** }
2041:src/xeq.c     **** 
2042:src/xeq.c     **** 
2043:src/xeq.c     **** /* Check if a keystroke is pending in the buffer, if so return it to the specified
2044:src/xeq.c     ****  * register, if not skip the next step.
2045:src/xeq.c     ****  */
2046:src/xeq.c     **** void cmdkeyp(unsigned int arg, enum rarg op) {
2047:src/xeq.c     **** 	int cond = LastKey == 0;
2048:src/xeq.c     **** 	if (!cond) {
2049:src/xeq.c     **** 		int k = LastKey - 1;
2050:src/xeq.c     **** 		LastKey = 0;
2051:src/xeq.c     **** 		set_reg_n_int_sgn(arg, keycode_to_row_column(k), 0);
2052:src/xeq.c     **** 	}
2053:src/xeq.c     **** 	fin_tst(cond);
2054:src/xeq.c     **** }
2055:src/xeq.c     **** 
2056:src/xeq.c     **** /*
2057:src/xeq.c     ****  *  Get a key code from a register and translate it from row/colum to internal
2058:src/xeq.c     ****  *  Check for valid arguments
2059:src/xeq.c     ****  */
2060:src/xeq.c     **** static int get_keycode_from_reg(unsigned int n)
2061:src/xeq.c     **** {
2062:src/xeq.c     **** 	int sgn;
2063:src/xeq.c     **** 	const int c = row_column_to_keycode((int) get_reg_n_int_sgn((int) n, &sgn));
2064:src/xeq.c     **** 	if ( c < 0 )
2065:src/xeq.c     **** 		report_err(ERR_RANGE);
2066:src/xeq.c     **** 	return c;
2067:src/xeq.c     **** }
2068:src/xeq.c     **** 
2069:src/xeq.c     **** /*
2070:src/xeq.c     ****  *  Take a row/column key code and feed it to the keyboard buffer
2071:src/xeq.c     ****  *  This stops program execution first to make sure, the key is not
2072:src/xeq.c     ****  *  read in by KEY? again.
2073:src/xeq.c     ****  */
2074:src/xeq.c     **** void cmdputkey(unsigned int arg, enum rarg op)
2075:src/xeq.c     **** {
2076:src/xeq.c     **** 	const int c = get_keycode_from_reg(arg);
2077:src/xeq.c     **** 
2078:src/xeq.c     **** 	if (c >= 0) {
2079:src/xeq.c     **** 		set_running_off();
2080:src/xeq.c     **** 		put_key(c);
2081:src/xeq.c     **** 	}
2082:src/xeq.c     **** }
2083:src/xeq.c     **** 
2084:src/xeq.c     **** /*
2085:src/xeq.c     ****  *  Return the type of the keycode in register n
2086:src/xeq.c     ****  *  returns 0-9 for digits, 10 for ., +/-, EEX, 11 for f,g,h, 12 for all other keys.
2087:src/xeq.c     ****  *  Invalid codes produce an error.
2088:src/xeq.c     ****  */
2089:src/xeq.c     **** void cmdkeytype(unsigned int arg, enum rarg op)
2090:src/xeq.c     **** {
2091:src/xeq.c     **** 	const int c = get_keycode_from_reg(arg);
2092:src/xeq.c     **** 	if ( c >= 0 ) {
ARM GAS  /tmp/ccBFDvgN.s 			page 44


2093:src/xeq.c     **** 		const char types[] = {
2094:src/xeq.c     **** 			12, 12, 12, 12, 12, 12,
2095:src/xeq.c     **** 			12, 12, 12, 11, 11, 11,
2096:src/xeq.c     **** 			12, 12, 10, 10, 12, 12,
2097:src/xeq.c     **** 			12,  7,  8,  9, 12, 12,
2098:src/xeq.c     **** 			12,  4,  5,  6, 12, 12,
2099:src/xeq.c     **** 			12,  1,  2,  3, 12, 12,
2100:src/xeq.c     **** 			12,  0, 10, 12, 12 };
2101:src/xeq.c     **** 		lift_if_enabled();
2102:src/xeq.c     **** 		setX_int_sgn(types[c], 0);
2103:src/xeq.c     **** 	}
2104:src/xeq.c     **** }
2105:src/xeq.c     **** 
2106:src/xeq.c     **** 
2107:src/xeq.c     **** /* Check which operating mode we're in -- integer or real -- they both
2108:src/xeq.c     ****  * vector through this routine.
2109:src/xeq.c     ****  */
2110:src/xeq.c     **** void check_mode(enum nilop op) {
2111:src/xeq.c     **** 	const int intmode = is_intmode() ? 1 : 0;
2112:src/xeq.c     **** 	const int desired = (op == OP_ISINT) ? 1 : 0;
2113:src/xeq.c     **** 
2114:src/xeq.c     **** 	fin_tst(intmode == desired);
2115:src/xeq.c     **** }
2116:src/xeq.c     **** 
2117:src/xeq.c     **** 
2118:src/xeq.c     **** /* Check if DBLON is active
2119:src/xeq.c     ****  */
2120:src/xeq.c     **** void check_dblmode(enum nilop op) {
2121:src/xeq.c     **** 	fin_tst(is_dblmode());
2122:src/xeq.c     **** }
2123:src/xeq.c     **** 
2124:src/xeq.c     **** void op_query_xtal(enum nilop op) {
2125:src/xeq.c     **** 	fin_tst(Xtal);
2126:src/xeq.c     **** }
2127:src/xeq.c     **** 
2128:src/xeq.c     **** void op_query_print(enum nilop op) {
2129:src/xeq.c     **** #ifdef INFRARED
2130:src/xeq.c     **** 	fin_tst(1);
2131:src/xeq.c     **** #else
2132:src/xeq.c     **** 	fin_tst(0);
2133:src/xeq.c     **** #endif
2134:src/xeq.c     **** }
2135:src/xeq.c     **** 
2136:src/xeq.c     **** /* Save and restore the entire stack to sequential registers */
2137:src/xeq.c     **** static int check_stack_overlap(unsigned int arg) {
2138:src/xeq.c     **** 	const int n = stack_size();
2139:src/xeq.c     **** 
2140:src/xeq.c     **** 	if (arg + n <= global_regs() || arg >= NUMREG) {
2141:src/xeq.c     **** 		return n;
2142:src/xeq.c     **** 	}
2143:src/xeq.c     **** 	report_err(ERR_STK_CLASH);
2144:src/xeq.c     **** 	return 0;
2145:src/xeq.c     **** }
2146:src/xeq.c     **** 
2147:src/xeq.c     **** void cmdstostk(unsigned int arg, enum rarg op) {
2148:src/xeq.c     **** 	int i, n = check_stack_overlap(arg);
2149:src/xeq.c     **** 
ARM GAS  /tmp/ccBFDvgN.s 			page 45


2150:src/xeq.c     **** 	for (i=0; i<n; i++)
2151:src/xeq.c     **** 		copyreg_n(arg + i, regX_idx + i);
2152:src/xeq.c     **** }
2153:src/xeq.c     **** 
2154:src/xeq.c     **** void cmdrclstk(unsigned int arg, enum rarg op) {
2155:src/xeq.c     **** 	int i, n = check_stack_overlap(arg);
2156:src/xeq.c     **** 
2157:src/xeq.c     **** 	for (i=0; i<n; i++)
2158:src/xeq.c     **** 		copyreg_n(regX_idx + i, arg + i);
2159:src/xeq.c     **** }
2160:src/xeq.c     **** 
2161:src/xeq.c     **** 
2162:src/xeq.c     **** /*
2163:src/xeq.c     ****  *  Move up the return stack, skipping any local variables
2164:src/xeq.c     ****  */
2165:src/xeq.c     **** static void retstk_up(void)
2166:src/xeq.c     **** {
 309              		.loc 1 2166 1 is_stmt 1 view -0
 310              		.cfi_startproc
 311              		@ args = 0, pretend = 0, frame = 0
 312              		@ frame_needed = 0, uses_anonymous_args = 0
 313              		@ link register save eliminated.
2167:src/xeq.c     **** 	if (RetStkPtr < 0) {
 314              		.loc 1 2167 2 view .LVU95
 315              		.loc 1 2167 6 is_stmt 0 view .LVU96
 316 0000 1A4B     		ldr	r3, .L39
2166:src/xeq.c     **** 	if (RetStkPtr < 0) {
 317              		.loc 1 2166 1 view .LVU97
 318 0002 70B4     		push	{r4, r5, r6}
 319              		.cfi_def_cfa_offset 12
 320              		.cfi_offset 4, -12
 321              		.cfi_offset 5, -8
 322              		.cfi_offset 6, -4
 323              		.loc 1 2167 6 view .LVU98
 324 0004 1C68     		ldr	r4, [r3]
 325 0006 B4F9E227 		ldrsh	r2, [r4, #2018]
 326              		.loc 1 2167 5 view .LVU99
 327 000a 002A     		cmp	r2, #0
 328 000c 01DB     		blt	.L37
 329              	.L27:
2168:src/xeq.c     **** 		int sp = RetStkPtr++;
2169:src/xeq.c     **** 		unsigned int s = RetStk[sp++];
2170:src/xeq.c     **** 		if (isLOCAL(s) || isHIDDEN(s)) {
2171:src/xeq.c     **** 			sp += LOCAL_LEVELS(s);
2172:src/xeq.c     **** 			RetStkPtr = sp;
2173:src/xeq.c     **** 			// Re-adjust the LocalRegs pointer
2174:src/xeq.c     **** 			LocalRegs = 0;
2175:src/xeq.c     **** 			while (sp < 0) {
2176:src/xeq.c     **** 				s = RetStk[sp];
2177:src/xeq.c     **** 				if (isLOCAL(s)) {
2178:src/xeq.c     **** 					LocalRegs = sp;
2179:src/xeq.c     **** 					break;
2180:src/xeq.c     **** 				}
2181:src/xeq.c     **** 				++sp;
2182:src/xeq.c     **** 				if (isHIDDEN(s))
2183:src/xeq.c     **** 					sp += LOCAL_LEVELS(s);
2184:src/xeq.c     **** 			}
ARM GAS  /tmp/ccBFDvgN.s 			page 46


2185:src/xeq.c     **** 		}
2186:src/xeq.c     **** 	}
2187:src/xeq.c     **** }
 330              		.loc 1 2187 1 view .LVU100
 331 000e 70BC     		pop	{r4, r5, r6}
 332              		.cfi_remember_state
 333              		.cfi_restore 6
 334              		.cfi_restore 5
 335              		.cfi_restore 4
 336              		.cfi_def_cfa_offset 0
 337 0010 7047     		bx	lr
 338              	.L37:
 339              		.cfi_restore_state
 340              	.LBB1331:
2168:src/xeq.c     **** 		int sp = RetStkPtr++;
 341              		.loc 1 2168 3 is_stmt 1 view .LVU101
2169:src/xeq.c     **** 		if (isLOCAL(s) || isHIDDEN(s)) {
 342              		.loc 1 2169 26 is_stmt 0 view .LVU102
 343 0012 174B     		ldr	r3, .L39+4
2168:src/xeq.c     **** 		int sp = RetStkPtr++;
 344              		.loc 1 2168 21 view .LVU103
 345 0014 511C     		adds	r1, r2, #1
2169:src/xeq.c     **** 		if (isLOCAL(s) || isHIDDEN(s)) {
 346              		.loc 1 2169 26 view .LVU104
 347 0016 1D68     		ldr	r5, [r3]
2168:src/xeq.c     **** 		int sp = RetStkPtr++;
 348              		.loc 1 2168 21 view .LVU105
 349 0018 A4F8E217 		strh	r1, [r4, #2018]	@ movhi
 350              	.LVL26:
2169:src/xeq.c     **** 		if (isLOCAL(s) || isHIDDEN(s)) {
 351              		.loc 1 2169 3 is_stmt 1 view .LVU106
2169:src/xeq.c     **** 		if (isLOCAL(s) || isHIDDEN(s)) {
 352              		.loc 1 2169 26 is_stmt 0 view .LVU107
 353 001c 35F81230 		ldrh	r3, [r5, r2, lsl #1]
 354              	.LVL27:
2170:src/xeq.c     **** 			sp += LOCAL_LEVELS(s);
 355              		.loc 1 2170 3 is_stmt 1 view .LVU108
2170:src/xeq.c     **** 			sp += LOCAL_LEVELS(s);
 356              		.loc 1 2170 7 is_stmt 0 view .LVU109
 357 0020 1A0B     		lsrs	r2, r3, #12
 358              	.LVL28:
2170:src/xeq.c     **** 			sp += LOCAL_LEVELS(s);
 359              		.loc 1 2170 6 view .LVU110
 360 0022 22F00202 		bic	r2, r2, #2
 361 0026 012A     		cmp	r2, #1
 362 0028 F1D1     		bne	.L27
2171:src/xeq.c     **** 			RetStkPtr = sp;
 363              		.loc 1 2171 4 is_stmt 1 view .LVU111
2171:src/xeq.c     **** 			RetStkPtr = sp;
 364              		.loc 1 2171 10 is_stmt 0 view .LVU112
 365 002a C3F30B03 		ubfx	r3, r3, #0, #12
 366              	.LVL29:
2171:src/xeq.c     **** 			RetStkPtr = sp;
 367              		.loc 1 2171 7 view .LVU113
 368 002e 0B44     		add	r3, r3, r1
 369              	.LVL30:
2172:src/xeq.c     **** 			// Re-adjust the LocalRegs pointer
ARM GAS  /tmp/ccBFDvgN.s 			page 47


 370              		.loc 1 2172 4 is_stmt 1 view .LVU114
2174:src/xeq.c     **** 			while (sp < 0) {
 371              		.loc 1 2174 14 is_stmt 0 view .LVU115
 372 0030 0022     		movs	r2, #0
2172:src/xeq.c     **** 			// Re-adjust the LocalRegs pointer
 373              		.loc 1 2172 14 view .LVU116
 374 0032 A4F8E237 		strh	r3, [r4, #2018]	@ movhi
 375              	.LVL31:
2174:src/xeq.c     **** 			while (sp < 0) {
 376              		.loc 1 2174 4 is_stmt 1 view .LVU117
2174:src/xeq.c     **** 			while (sp < 0) {
 377              		.loc 1 2174 14 is_stmt 0 view .LVU118
 378 0036 A4F8DE27 		strh	r2, [r4, #2014]	@ movhi
2175:src/xeq.c     **** 				s = RetStk[sp];
 379              		.loc 1 2175 4 is_stmt 1 view .LVU119
 380 003a 6FF00046 		mvn	r6, #-2147483648
 381              	.L31:
2175:src/xeq.c     **** 				s = RetStk[sp];
 382              		.loc 1 2175 4 is_stmt 0 view .LVU120
 383 003e 9919     		adds	r1, r3, r6
 384 0040 05EB4101 		add	r1, r5, r1, lsl #1
 385 0044 03E0     		b	.L33
 386              	.LVL32:
 387              	.L32:
2182:src/xeq.c     **** 					sp += LOCAL_LEVELS(s);
 388              		.loc 1 2182 8 view .LVU121
 389 0046 032A     		cmp	r2, #3
2181:src/xeq.c     **** 				if (isHIDDEN(s))
 390              		.loc 1 2181 5 view .LVU122
 391 0048 03F10103 		add	r3, r3, #1
 392              	.LVL33:
2182:src/xeq.c     **** 					sp += LOCAL_LEVELS(s);
 393              		.loc 1 2182 5 is_stmt 1 view .LVU123
2182:src/xeq.c     **** 					sp += LOCAL_LEVELS(s);
 394              		.loc 1 2182 8 is_stmt 0 view .LVU124
 395 004c 0AD0     		beq	.L38
 396              	.LVL34:
 397              	.L33:
2176:src/xeq.c     **** 				if (isLOCAL(s)) {
 398              		.loc 1 2176 5 is_stmt 1 view .LVU125
2181:src/xeq.c     **** 				if (isHIDDEN(s))
 399              		.loc 1 2181 5 view .LVU126
2175:src/xeq.c     **** 				s = RetStk[sp];
 400              		.loc 1 2175 10 view .LVU127
 401 004e 002B     		cmp	r3, #0
 402 0050 DDDA     		bge	.L27
2176:src/xeq.c     **** 				if (isLOCAL(s)) {
 403              		.loc 1 2176 15 is_stmt 0 view .LVU128
 404 0052 31F8020F 		ldrh	r0, [r1, #2]!
 405              	.LVL35:
2177:src/xeq.c     **** 					LocalRegs = sp;
 406              		.loc 1 2177 5 is_stmt 1 view .LVU129
2177:src/xeq.c     **** 					LocalRegs = sp;
 407              		.loc 1 2177 9 is_stmt 0 view .LVU130
 408 0056 020B     		lsrs	r2, r0, #12
2177:src/xeq.c     **** 					LocalRegs = sp;
 409              		.loc 1 2177 8 view .LVU131
ARM GAS  /tmp/ccBFDvgN.s 			page 48


 410 0058 012A     		cmp	r2, #1
 411 005a F4D1     		bne	.L32
2178:src/xeq.c     **** 					break;
 412              		.loc 1 2178 6 is_stmt 1 view .LVU132
2178:src/xeq.c     **** 					break;
 413              		.loc 1 2178 16 is_stmt 0 view .LVU133
 414 005c A4F8DE37 		strh	r3, [r4, #2014]	@ movhi
2179:src/xeq.c     **** 				}
 415              		.loc 1 2179 6 is_stmt 1 view .LVU134
 416              	.LBE1331:
 417              		.loc 1 2187 1 is_stmt 0 view .LVU135
 418 0060 70BC     		pop	{r4, r5, r6}
 419              		.cfi_remember_state
 420              		.cfi_restore 6
 421              		.cfi_restore 5
 422              		.cfi_restore 4
 423              		.cfi_def_cfa_offset 0
 424 0062 7047     		bx	lr
 425              	.L38:
 426              		.cfi_restore_state
 427              	.LBB1332:
2183:src/xeq.c     **** 			}
 428              		.loc 1 2183 6 is_stmt 1 view .LVU136
2183:src/xeq.c     **** 			}
 429              		.loc 1 2183 12 is_stmt 0 view .LVU137
 430 0064 C0F30B00 		ubfx	r0, r0, #0, #12
 431              	.LVL36:
2183:src/xeq.c     **** 			}
 432              		.loc 1 2183 9 view .LVU138
 433 0068 0344     		add	r3, r3, r0
 434              	.LVL37:
2183:src/xeq.c     **** 			}
 435              		.loc 1 2183 9 view .LVU139
 436 006a E8E7     		b	.L31
 437              	.L40:
 438              		.align	2
 439              	.L39:
 440 006c 00000000 		.word	main_ram
 441 0070 00000000 		.word	RetStk
 442              	.LBE1332:
 443              		.cfi_endproc
 444              	.LFE150:
 446              		.section	.text.flag_word,"ax",%progbits
 447              		.align	1
 448              		.p2align 2,,3
 449              		.syntax unified
 450              		.thumb
 451              		.thumb_func
 452              		.fpu fpv4-sp-d16
 454              	flag_word:
 455              	.LVL38:
 456              	.LFB198:
2188:src/xeq.c     **** 
2189:src/xeq.c     **** 
2190:src/xeq.c     **** /* Search from the given position for the specified numeric label.
2191:src/xeq.c     ****  */
2192:src/xeq.c     **** unsigned int find_opcode_from(unsigned int pc, const opcode l, const int flags) {
ARM GAS  /tmp/ccBFDvgN.s 			page 49


2193:src/xeq.c     **** 	unsigned short int top;
2194:src/xeq.c     **** 	int count;
2195:src/xeq.c     **** 	const int endp = flags & FIND_OP_ENDS;
2196:src/xeq.c     **** 	const int errp = flags & FIND_OP_ERROR;
2197:src/xeq.c     **** 
2198:src/xeq.c     **** 	count = 1 + find_section_bounds(pc, endp, &top);
2199:src/xeq.c     **** 	count -= top;
2200:src/xeq.c     **** 	while (count--) {
2201:src/xeq.c     **** 		// Wrap around doesn't hurt, we just limit the search to the number of possible steps
2202:src/xeq.c     **** 		// If we don't find the label, we may search a little too far if many double word
2203:src/xeq.c     **** 		// instructions are in the code, but this doesn't do any harm.
2204:src/xeq.c     **** 		if (getprog(pc) == l)
2205:src/xeq.c     **** 			return pc;
2206:src/xeq.c     **** 		pc = do_inc(pc, endp);
2207:src/xeq.c     **** 	}
2208:src/xeq.c     **** 	if (errp)
2209:src/xeq.c     **** 		report_err(ERR_NO_LBL);
2210:src/xeq.c     **** 	return 0;
2211:src/xeq.c     **** }
2212:src/xeq.c     **** 
2213:src/xeq.c     **** 
2214:src/xeq.c     **** unsigned int find_label_from(unsigned int pc, unsigned int arg, int flags) {
2215:src/xeq.c     **** 	return find_opcode_from(pc, RARG(RARG_LBL, arg), flags);
2216:src/xeq.c     **** }
2217:src/xeq.c     **** 
2218:src/xeq.c     **** 
2219:src/xeq.c     **** 
2220:src/xeq.c     **** /* Handle a GTO/GSB instruction
2221:src/xeq.c     ****  */
2222:src/xeq.c     **** static void gsbgto(unsigned int pc, int gsb, unsigned int oldpc) {
2223:src/xeq.c     **** 	const unsigned short int old_begin = ProgBegin;
2224:src/xeq.c     **** 	raw_set_pc(pc);
2225:src/xeq.c     **** 	if (gsb) {
2226:src/xeq.c     **** 		if (!Running && !XromRunning) {
2227:src/xeq.c     **** 			// XEQ or hot key from keyboard
2228:src/xeq.c     **** 			clrretstk();
2229:src/xeq.c     **** 			set_running_on();
2230:src/xeq.c     **** 			if (! isXROM(pc) && ProgBegin != old_begin)
2231:src/xeq.c     **** 				// RTN will bring us to the label if a different program is selected
2232:src/xeq.c     **** 				oldpc = pc;
2233:src/xeq.c     **** 		}
2234:src/xeq.c     **** 		if (-RetStkPtr >= (XromFlags.xIN ? XROM_RET_STACK_SIZE : RetStkSize)) {
2235:src/xeq.c     **** 			// Stack is full
2236:src/xeq.c     **** 			report_err(ERR_RAM_FULL);
2237:src/xeq.c     **** 			// clrretstk();
2238:src/xeq.c     **** 		}
2239:src/xeq.c     **** 		else {
2240:src/xeq.c     **** 			// Push PC on return stack
2241:src/xeq.c     **** 			RetStk[--RetStkPtr] = oldpc;
2242:src/xeq.c     **** 		}
2243:src/xeq.c     **** 	}
2244:src/xeq.c     **** }
2245:src/xeq.c     **** 
2246:src/xeq.c     **** // Handle a RTN
2247:src/xeq.c     **** static void do_rtn(int plus1) {
2248:src/xeq.c     **** 	unsigned short pc;
2249:src/xeq.c     **** 
ARM GAS  /tmp/ccBFDvgN.s 			page 50


2250:src/xeq.c     **** 	if (RetStkPtr >= 0) {
2251:src/xeq.c     **** 		// stray RTN: Go to ProgBegin
2252:src/xeq.c     **** 		clrretstk();
2253:src/xeq.c     **** 		raw_set_pc(ProgBegin);
2254:src/xeq.c     **** 	}
2255:src/xeq.c     **** 	else {
2256:src/xeq.c     **** 		// Normal RTN within program
2257:src/xeq.c     **** 		// Pop any LOCALS off the stack, increment sp
2258:src/xeq.c     **** 		retstk_up();
2259:src/xeq.c     **** 		pc = RetStk[RetStkPtr - 1];
2260:src/xeq.c     **** 		raw_set_pc(pc);
2261:src/xeq.c     **** 		// If RTN+1 inc PC unless a POPUSR command or the program end would be skipped
2262:src/xeq.c     **** 		if (plus1 && getprog(pc) != (OP_NIL | OP_POPUSR))
2263:src/xeq.c     **** 			if (incpc())
2264:src/xeq.c     **** 				decpc();
2265:src/xeq.c     **** 	}
2266:src/xeq.c     **** 	if (RetStkPtr == 0) {
2267:src/xeq.c     **** 		// RTN with empty stack stops
2268:src/xeq.c     **** 		set_running_off();
2269:src/xeq.c     **** 	}
2270:src/xeq.c     **** }
2271:src/xeq.c     **** 
2272:src/xeq.c     **** // RTN and RTN+1
2273:src/xeq.c     **** void op_rtn(enum nilop op) {
2274:src/xeq.c     **** 	if (! Running && ! XromRunning) {
2275:src/xeq.c     **** 		// Manual return goes to step 0 and clears the return stack
2276:src/xeq.c     **** 		clrretstk_pc();
2277:src/xeq.c     **** 	}
2278:src/xeq.c     **** 	else
2279:src/xeq.c     **** 		do_rtn(op == OP_RTNp1 ? 1 : 0);
2280:src/xeq.c     **** }
2281:src/xeq.c     **** 
2282:src/xeq.c     **** 
2283:src/xeq.c     **** // Called by XEQ, GTO and CAT browser
2284:src/xeq.c     **** void cmdgtocommon(int gsb, unsigned int pc) {
2285:src/xeq.c     **** 	if (pc == 0)
2286:src/xeq.c     **** 		set_running_off();
2287:src/xeq.c     **** 	else
2288:src/xeq.c     **** 		gsbgto(pc, gsb, state_pc());
2289:src/xeq.c     **** }
2290:src/xeq.c     **** 
2291:src/xeq.c     **** 
2292:src/xeq.c     **** // Common part of XEQUSR and XEQ'...' from XROM
2293:src/xeq.c     **** // Command pushes 4 values on stack, needs to be followed by POPUSR
2294:src/xeq.c     **** static void usergsb_common(unsigned short int target) {
2295:src/xeq.c     **** 	const unsigned int pc = state_pc();
2296:src/xeq.c     **** 	gsbgto(pc, 1, XromUserPc);	     // Push address of callee
2297:src/xeq.c     **** 	gsbgto(pc, 1, LocalRegs);	     // Push my local registers
2298:src/xeq.c     **** 	gsbgto(pc, 1, UserLocalRegs);	     // Push former local registers
2299:src/xeq.c     **** 	gsbgto(target, 1, pc);		     // Push return address, transfer control
2300:src/xeq.c     **** 
2301:src/xeq.c     **** 	XromUserPc = 0;			     // Hide information irrelevant to user code
2302:src/xeq.c     **** 	RetStk[LocalRegs] |= LOCAL_HIDDEN;   // Hide the local frame
2303:src/xeq.c     **** 	LocalRegs = UserLocalRegs;	     // Reestablish user environment
2304:src/xeq.c     **** 	if (! Running)
2305:src/xeq.c     **** 		set_running_on();	     // We are running outside XROM now!
2306:src/xeq.c     **** 	watchdog();			     // Just for safety. Shouldn't be needed.
ARM GAS  /tmp/ccBFDvgN.s 			page 51


2307:src/xeq.c     **** }
2308:src/xeq.c     **** 
2309:src/xeq.c     **** 
2310:src/xeq.c     **** // XEQUSR
2311:src/xeq.c     **** // Command fills the stack and calls the user's code.
2312:src/xeq.c     **** // Needs to be followed by POPUSR
2313:src/xeq.c     **** void do_usergsb(enum nilop op) {
2314:src/xeq.c     **** 	usergsb_common(XromUserPc);
2315:src/xeq.c     ****         fill(OP_FILL);
2316:src/xeq.c     **** }
2317:src/xeq.c     **** 
2318:src/xeq.c     **** 
2319:src/xeq.c     **** // POPUSR
2320:src/xeq.c     **** void op_popusr(enum nilop op) {
2321:src/xeq.c     **** 	UserLocalRegs = RetStk[RetStkPtr++]; // Previous local registers
2322:src/xeq.c     **** 	LocalRegs =     RetStk[RetStkPtr++]; // My local registers
2323:src/xeq.c     **** 	XromUserPc =    RetStk[RetStkPtr++]; // Adress of callee
2324:src/xeq.c     **** 	RetStk[LocalRegs] &= ~LOCAL_HIDDEN;   // Repair the local frame
2325:src/xeq.c     **** }
2326:src/xeq.c     **** 
2327:src/xeq.c     **** /* Tests if the user program is at the top level */
2328:src/xeq.c     **** void isTop(enum nilop op) {
2329:src/xeq.c     **** 	int top = 0;
2330:src/xeq.c     **** 
2331:src/xeq.c     **** 	if (Running) {
2332:src/xeq.c     **** 		top = RetStkPtr >= -1 - local_levels();
2333:src/xeq.c     **** 	}
2334:src/xeq.c     **** 	fin_tst(top);
2335:src/xeq.c     **** }
2336:src/xeq.c     **** 
2337:src/xeq.c     **** 
2338:src/xeq.c     **** // LBL?
2339:src/xeq.c     **** void cmdlblp(unsigned int arg, enum rarg op) {
2340:src/xeq.c     **** 	fin_tst(find_label_from(state_pc(), arg, FIND_OP_ENDS) != 0);
2341:src/xeq.c     **** }
2342:src/xeq.c     **** 
2343:src/xeq.c     **** 
2344:src/xeq.c     **** void cmdgto(unsigned int arg, enum rarg op) {
2345:src/xeq.c     **** 	unsigned int lbl;
2346:src/xeq.c     **** 	if (is_xrom())
2347:src/xeq.c     **** 		lbl = addrXROM(xrom_targets[arg]) + (1 - XROM_START);
2348:src/xeq.c     **** 	else
2349:src/xeq.c     **** 		lbl = find_label_from(state_pc(), arg, FIND_OP_ERROR | FIND_OP_ENDS);
2350:src/xeq.c     **** 	cmdgtocommon(op != RARG_GTO, lbl);
2351:src/xeq.c     **** }
2352:src/xeq.c     **** 
2353:src/xeq.c     **** unsigned int findmultilbl(const opcode o, int flags) {
2354:src/xeq.c     **** 	const opcode dest = (o & 0xfffff0ff) + (DBL_LBL << DBL_SHIFT);
2355:src/xeq.c     **** 	unsigned int lbl;
2356:src/xeq.c     **** 
2357:src/xeq.c     **** 	lbl = find_opcode_from(0, dest, 0);					// RAM
2358:src/xeq.c     **** 	if (lbl == 0)
2359:src/xeq.c     **** 		lbl = find_opcode_from(addrLIB(0, REGION_LIBRARY), dest, 0);	// Library
2360:src/xeq.c     **** 	if (lbl == 0)
2361:src/xeq.c     **** 		lbl = find_opcode_from(addrLIB(0, REGION_BACKUP), dest, 0);	// Backup
2362:src/xeq.c     **** 	if (lbl == 0 && (flags & FIND_OP_ERROR) != 0)
2363:src/xeq.c     **** 		report_err(ERR_NO_LBL);
ARM GAS  /tmp/ccBFDvgN.s 			page 52


2364:src/xeq.c     **** 	return lbl;
2365:src/xeq.c     **** }
2366:src/xeq.c     **** 
2367:src/xeq.c     **** // LBL?'...'
2368:src/xeq.c     **** void cmdmultilblp(const opcode o, enum multiops mopr) {
2369:src/xeq.c     **** 	fin_tst(findmultilbl(o, 0) != 0);
2370:src/xeq.c     **** }
2371:src/xeq.c     **** 
2372:src/xeq.c     **** void cmdmultigto(const opcode o, enum multiops mopr) {
2373:src/xeq.c     **** 	if (mopr == DBL_XEQ && is_xrom()) {
2374:src/xeq.c     **** 		// In XROM the command behaves differently!
2375:src/xeq.c     **** 		unsigned short int target = findmultilbl(o, 0);
2376:src/xeq.c     **** 		if (target != 0)
2377:src/xeq.c     **** 			usergsb_common(target); 
2378:src/xeq.c     **** 		else
2379:src/xeq.c     **** 			incpc();
2380:src/xeq.c     **** 	}
2381:src/xeq.c     **** 	else {
2382:src/xeq.c     **** 		cmdgtocommon(mopr != DBL_GTO, findmultilbl(o, FIND_OP_ERROR));
2383:src/xeq.c     **** 	}
2384:src/xeq.c     **** }
2385:src/xeq.c     **** 
2386:src/xeq.c     **** void multiumenu(const opcode o, enum multiops mopr) {
2387:src/xeq.c     ****   opcode op = (o & 0xFFFFF0FF) + ((DBL_LBL) << DBL_SHIFT); // change opcode to LBL
2388:src/xeq.c     ****   build_user_menu_from_program(op);
2389:src/xeq.c     ****   set_menu (M_User);
2390:src/xeq.c     ****   display_current_menu ();
2391:src/xeq.c     **** }
2392:src/xeq.c     **** 
2393:src/xeq.c     **** static void branchtoalpha(int is_gsb, char buf[]) {
2394:src/xeq.c     **** 	unsigned int op;
2395:src/xeq.c     **** 
2396:src/xeq.c     **** 	op = OP_DBL + (DBL_LBL << DBL_SHIFT);
2397:src/xeq.c     **** 	op |= buf[0] & 0xff;
2398:src/xeq.c     **** 	op |= (buf[1] & 0xff) << 16;
2399:src/xeq.c     **** 	op |= (buf[2] & 0xff) << 24;
2400:src/xeq.c     **** 	cmdgtocommon(is_gsb, findmultilbl(op, FIND_OP_ERROR));
2401:src/xeq.c     **** }
2402:src/xeq.c     **** 
2403:src/xeq.c     **** void cmdalphagto(unsigned int arg, enum rarg op) {
2404:src/xeq.c     **** 	char buf[14];
2405:src/xeq.c     **** 
2406:src/xeq.c     **** 	xset(buf, '\0', sizeof(buf));
2407:src/xeq.c     **** 	branchtoalpha(op != RARG_ALPHAGTO, alpha_rcl_s(arg, buf));
2408:src/xeq.c     **** }
2409:src/xeq.c     **** 
2410:src/xeq.c     **** static void do_branchalpha(int is_gsb) {
2411:src/xeq.c     **** 	char buf[4];
2412:src/xeq.c     **** 
2413:src/xeq.c     **** 	xcopy(buf, Alpha, 3);
2414:src/xeq.c     **** 	buf[3] = '\0';
2415:src/xeq.c     **** 	branchtoalpha(is_gsb, buf);
2416:src/xeq.c     **** }
2417:src/xeq.c     **** 
2418:src/xeq.c     **** void op_gtoalpha(enum nilop op) {
2419:src/xeq.c     **** 	do_branchalpha((op == OP_GTOALPHA) ? 0 : 1);
2420:src/xeq.c     **** }
ARM GAS  /tmp/ccBFDvgN.s 			page 53


2421:src/xeq.c     **** 
2422:src/xeq.c     **** #ifdef INCLUDE_SIGFIG_MODE
2423:src/xeq.c     **** int get_dispmode_digs(int *pdigs)
2424:src/xeq.c     **** {
2425:src/xeq.c     **** 	int dispmode = UState.dispmode;
2426:src/xeq.c     **** 	int dispdigs = UState.dispdigs;
2427:src/xeq.c     **** 
2428:src/xeq.c     **** 	if (dispdigs >= 12) {
2429:src/xeq.c     **** 		dispdigs -= 12;
2430:src/xeq.c     **** 		dispmode += 4;
2431:src/xeq.c     **** 		if (dispmode >= 6) {
2432:src/xeq.c     **** 			dispmode -= 2;
2433:src/xeq.c     **** 			dispdigs += 4;
2434:src/xeq.c     **** 		}
2435:src/xeq.c     **** 	}
2436:src/xeq.c     **** 	*pdigs = dispdigs;
2437:src/xeq.c     **** 	return dispmode;
2438:src/xeq.c     **** }
2439:src/xeq.c     **** 
2440:src/xeq.c     **** void set_dispmode_digs(int dispmode, int dispdigs)
2441:src/xeq.c     **** {
2442:src/xeq.c     **** 	if (dispmode >= 4) {
2443:src/xeq.c     **** 		dispmode -= 4;
2444:src/xeq.c     **** 		dispdigs += 12;
2445:src/xeq.c     **** 		if (dispdigs >= 16) {
2446:src/xeq.c     **** 			dispdigs -= 4;
2447:src/xeq.c     **** 			dispmode += 2;
2448:src/xeq.c     **** 		}
2449:src/xeq.c     **** 	}
2450:src/xeq.c     **** 	UState.dispmode = dispmode;
2451:src/xeq.c     **** 	UState.dispdigs = dispdigs;
2452:src/xeq.c     **** }
2453:src/xeq.c     **** #endif
2454:src/xeq.c     **** 
2455:src/xeq.c     **** void cmddisp(unsigned int arg, enum rarg op) {
2456:src/xeq.c     **** #ifdef INCLUDE_SIGFIG_MODE
2457:src/xeq.c     **** 	int dispdigs;
2458:src/xeq.c     **** 	int dispmode = get_dispmode_digs(&dispdigs);
2459:src/xeq.c     **** #ifdef DM42
2460:src/xeq.c     **** 	switch (op) {
2461:src/xeq.c     **** 	case RARG_STD:
2462:src/xeq.c     **** 	  dispmode = MODE_STD;
2463:src/xeq.c     **** 	  break;
2464:src/xeq.c     **** 	case RARG_FIX:
2465:src/xeq.c     **** 	  dispmode = MODE_FIX;
2466:src/xeq.c     **** 	  break;
2467:src/xeq.c     **** 	case RARG_SCI:
2468:src/xeq.c     **** 	  dispmode = MODE_SCI;
2469:src/xeq.c     **** 	  break;
2470:src/xeq.c     **** 	case RARG_ENG:
2471:src/xeq.c     **** 	  dispmode = MODE_ENG;
2472:src/xeq.c     **** 	  break;
2473:src/xeq.c     **** 	case RARG_SIG:
2474:src/xeq.c     **** 	  dispmode = MODE_SIG;
2475:src/xeq.c     **** 	  break;
2476:src/xeq.c     **** 	case RARG_SIG0:
2477:src/xeq.c     **** 	  dispmode = MODE_SIG0;
ARM GAS  /tmp/ccBFDvgN.s 			page 54


2478:src/xeq.c     **** 	  break;
2479:src/xeq.c     **** 	default:;
2480:src/xeq.c     **** 	}
2481:src/xeq.c     **** 	if ((dispmode == MODE_SIG || dispmode == MODE_SIG0) && arg >= 8) {
2482:src/xeq.c     **** 	  report_err(ERR_RANGE);
2483:src/xeq.c     **** 	  return;
2484:src/xeq.c     **** 	}
2485:src/xeq.c     **** #else	
2486:src/xeq.c     **** 	if (op != RARG_DISP)
2487:src/xeq.c     **** 		dispmode = (op - RARG_STD) + MODE_STD;
2488:src/xeq.c     **** 	else if ((dispmode == MODE_SIG || dispmode == MODE_SIG0) && arg >= 8) {
2489:src/xeq.c     **** 		report_err(ERR_RANGE);
2490:src/xeq.c     **** 		return;
2491:src/xeq.c     **** 	}
2492:src/xeq.c     **** #endif
2493:src/xeq.c     **** 	set_dispmode_digs(dispmode, arg);
2494:src/xeq.c     **** #else
2495:src/xeq.c     **** 	UState.dispdigs = arg;
2496:src/xeq.c     **** 	if (op != RARG_DISP)
2497:src/xeq.c     **** 		UState.dispmode = (op - RARG_STD) + MODE_STD;
2498:src/xeq.c     **** #endif
2499:src/xeq.c     **** 	op_float(OP_FLOAT);
2500:src/xeq.c     **** }
2501:src/xeq.c     **** 
2502:src/xeq.c     **** 
2503:src/xeq.c     **** /* Metric / Imperial conversion code */
2504:src/xeq.c     **** decNumber *convC2F(decNumber *r, const decNumber *x) {
2505:src/xeq.c     **** 	decNumber s;
2506:src/xeq.c     **** 
2507:src/xeq.c     **** 	dn_multiply(&s, x, &const_9on5);
2508:src/xeq.c     **** 	return dn_add(r, &s, &const_32);
2509:src/xeq.c     **** }
2510:src/xeq.c     **** 
2511:src/xeq.c     **** decNumber *convF2C(decNumber *r, const decNumber *x) {
2512:src/xeq.c     **** 	decNumber s;
2513:src/xeq.c     **** 
2514:src/xeq.c     **** 	dn_subtract(&s, x, &const_32);
2515:src/xeq.c     **** 	return dn_divide(r, &s, &const_9on5);
2516:src/xeq.c     **** }
2517:src/xeq.c     **** 
2518:src/xeq.c     **** decNumber *convDB2AR(decNumber *r, const decNumber *x) {
2519:src/xeq.c     **** 	decNumber t;
2520:src/xeq.c     **** 	dn_multiply(&t, x, &const_0_05);
2521:src/xeq.c     **** 	return decNumberPow10(r, &t);
2522:src/xeq.c     **** }
2523:src/xeq.c     **** 
2524:src/xeq.c     **** decNumber *convAR2DB(decNumber *r, const decNumber *x) {
2525:src/xeq.c     **** 	decNumber t;
2526:src/xeq.c     **** 	dn_log10(&t, x);
2527:src/xeq.c     **** 	return dn_multiply(r, &t, &const_20);
2528:src/xeq.c     **** }
2529:src/xeq.c     **** 
2530:src/xeq.c     **** decNumber *convDB2PR(decNumber *r, const decNumber *x) {
2531:src/xeq.c     **** 	decNumber t;
2532:src/xeq.c     **** 	dn_mulpow10(&t, x, -1);
2533:src/xeq.c     **** 	return decNumberPow10(r, &t);
2534:src/xeq.c     **** }
ARM GAS  /tmp/ccBFDvgN.s 			page 55


2535:src/xeq.c     **** 
2536:src/xeq.c     **** decNumber *convPR2DB(decNumber *r, const decNumber *x) {
2537:src/xeq.c     **** 	decNumber t;
2538:src/xeq.c     **** 	dn_log10(&t, x);
2539:src/xeq.c     **** 	return dn_mulpow10(r, &t, 1);
2540:src/xeq.c     **** }
2541:src/xeq.c     **** 
2542:src/xeq.c     **** /* Scale conversions */
2543:src/xeq.c     **** void do_conv(decNumber *r, unsigned int arg, const decNumber *x) {
2544:src/xeq.c     **** 	decNumber m;
2545:src/xeq.c     **** 	const unsigned int conv = arg / 2;
2546:src/xeq.c     **** 	const unsigned int dirn = arg & 1;
2547:src/xeq.c     **** 
2548:src/xeq.c     **** 	if (conv > NUM_CONSTS_CONV) {
2549:src/xeq.c     **** 		decNumberCopy(r, x);
2550:src/xeq.c     **** 		return;
2551:src/xeq.c     **** 	}
2552:src/xeq.c     **** 
2553:src/xeq.c     **** 	decimal64ToNumber(&CONSTANT_CONV(conv), &m);
2554:src/xeq.c     **** 
2555:src/xeq.c     **** 	if (dirn == 0)		// metric to imperial
2556:src/xeq.c     **** 		dn_divide(r, x, &m);
2557:src/xeq.c     **** 	else			// imperial to metric
2558:src/xeq.c     **** 		dn_multiply(r, x, &m);
2559:src/xeq.c     **** }
2560:src/xeq.c     **** 
2561:src/xeq.c     **** void cmdconv(unsigned int arg, enum rarg op) {
2562:src/xeq.c     **** 	decNumber x, r;
2563:src/xeq.c     **** 
2564:src/xeq.c     **** 	if (is_intmode())
2565:src/xeq.c     **** 		return;
2566:src/xeq.c     **** 
2567:src/xeq.c     **** 	getX(&x);
2568:src/xeq.c     **** 	do_conv(&r, arg, &x);
2569:src/xeq.c     **** 	setlastX();
2570:src/xeq.c     **** 	setX(&r);
2571:src/xeq.c     **** }
2572:src/xeq.c     **** 
2573:src/xeq.c     **** /*  Finish up a test -- if the value is non-zero, the test passes.
2574:src/xeq.c     ****  *  If it is zero, the test fails.
2575:src/xeq.c     ****  */
2576:src/xeq.c     **** void fin_tst(const int a) {
2577:src/xeq.c     **** 	const char *msg = a ? "true" : "false";
2578:src/xeq.c     **** 	if (Running || XromRunning) {
2579:src/xeq.c     **** 		if (! a && incpc())
2580:src/xeq.c     **** 			decpc();
2581:src/xeq.c     **** 	}
2582:src/xeq.c     **** 	else
2583:src/xeq.c     **** 		DispMsg = msg;
2584:src/xeq.c     **** #ifdef INFRARED
2585:src/xeq.c     **** 	if (Tracing) {
2586:src/xeq.c     **** 		print_justified( msg );
2587:src/xeq.c     **** 		Tracing = 0;
2588:src/xeq.c     **** 	}
2589:src/xeq.c     **** #endif
2590:src/xeq.c     **** }
2591:src/xeq.c     **** 
ARM GAS  /tmp/ccBFDvgN.s 			page 56


2592:src/xeq.c     **** 
2593:src/xeq.c     **** /* Skip a number of instructions forwards */
2594:src/xeq.c     **** void cmdskip(unsigned int arg, enum rarg op) {
2595:src/xeq.c     **** 	const unsigned int origpc = state_pc();
2596:src/xeq.c     **** 	unsigned int pc;
2597:src/xeq.c     **** 
2598:src/xeq.c     **** 	if (op == RARG_CASE) {
2599:src/xeq.c     **** 		int sgn;
2600:src/xeq.c     **** 		arg = (int) get_reg_n_int_sgn((int) arg, &sgn);
2601:src/xeq.c     **** 		if (sgn || arg >= 100) {
2602:src/xeq.c     **** 			report_err(ERR_RANGE);
2603:src/xeq.c     **** 			return;
2604:src/xeq.c     **** 		}
2605:src/xeq.c     **** 	}
2606:src/xeq.c     **** 
2607:src/xeq.c     **** 	if (isXROM(origpc))
2608:src/xeq.c     **** 		pc = origpc + arg;
2609:src/xeq.c     **** 	else {
2610:src/xeq.c     **** 		while (arg-- && !incpc());
2611:src/xeq.c     **** 		if (PcWrapped) {
2612:src/xeq.c     **** 			report_err(ERR_RANGE);
2613:src/xeq.c     **** 		}
2614:src/xeq.c     **** 		pc = state_pc();
2615:src/xeq.c     **** 	}
2616:src/xeq.c     **** 	gsbgto(pc, op == RARG_BSF, origpc);
2617:src/xeq.c     **** }
2618:src/xeq.c     **** 
2619:src/xeq.c     **** /* Skip backwards */
2620:src/xeq.c     **** void cmdback(unsigned int arg, enum rarg op) {
2621:src/xeq.c     **** 	const unsigned int origpc = state_pc();
2622:src/xeq.c     **** 	unsigned int pc = origpc;
2623:src/xeq.c     **** 
2624:src/xeq.c     **** 	if (isXROM(origpc))
2625:src/xeq.c     **** 		pc -= arg + 1;
2626:src/xeq.c     ****         else if (arg) {
2627:src/xeq.c     **** 		if ( Running ) {
2628:src/xeq.c     **** 			// Handles the case properly that we are on last step
2629:src/xeq.c     **** 			pc = do_dec(pc, 1);
2630:src/xeq.c     **** 		}
2631:src/xeq.c     **** 		do {
2632:src/xeq.c     **** 			pc = do_dec(pc, 1);
2633:src/xeq.c     **** 		} while (--arg && !PcWrapped);
2634:src/xeq.c     **** 		if (PcWrapped) {
2635:src/xeq.c     **** 			report_err(ERR_RANGE);
2636:src/xeq.c     **** 			return;
2637:src/xeq.c     **** 		}
2638:src/xeq.c     **** 	}
2639:src/xeq.c     **** 	gsbgto(pc, op == RARG_BSB, origpc);
2640:src/xeq.c     **** }
2641:src/xeq.c     **** 
2642:src/xeq.c     **** 
2643:src/xeq.c     **** /* Append a character to the command line
2644:src/xeq.c     ****  */
2645:src/xeq.c     **** static void append_cmdline(char c) {
2646:src/xeq.c     **** 	Cmdline[CmdLineLength++] = c;
2647:src/xeq.c     **** 	Cmdline[CmdLineLength] = '\0';
2648:src/xeq.c     **** }
ARM GAS  /tmp/ccBFDvgN.s 			page 57


2649:src/xeq.c     **** 
2650:src/xeq.c     **** /* Make sure exponent stays within allowed limits.
2651:src/xeq.c     ****  * was_digit_entered: 0: sign was changed
2652:src/xeq.c     ****  *                    1: new digit was entered
2653:src/xeq.c     ****  */
2654:src/xeq.c     **** static void exponent_adjusted(int was_digit_entered)
2655:src/xeq.c     **** {
2656:src/xeq.c     **** 	const int dbl = is_dblmode();
2657:src/xeq.c     **** 	int i;
2658:src/xeq.c     **** #if SP_NEG_EXP_ENTRY_TYPE_DC == -1
2659:src/xeq.c     **** 	const int neg_type_dc = get_reg_n_int_sgn(0, &i);
2660:src/xeq.c     **** #else
2661:src/xeq.c     **** 	const int neg_type_dc = SP_NEG_EXP_ENTRY_TYPE_DC;
2662:src/xeq.c     **** #endif
2663:src/xeq.c     **** #if SP_NEG_EXP_ENTRY_LIMIT_DC == -1
2664:src/xeq.c     **** 	const int neg_lim_dc = get_reg_n_int_sgn(1, &i);
2665:src/xeq.c     **** #else
2666:src/xeq.c     **** 	const int neg_lim_dc = SP_NEG_EXP_ENTRY_LIMIT_DC;
2667:src/xeq.c     **** #endif
2668:src/xeq.c     **** #if SP_NEG_EXP_ENTRY_TYPE_DS == -1
2669:src/xeq.c     **** 	const int neg_type_ds = get_reg_n_int_sgn(2, &i);
2670:src/xeq.c     **** #else
2671:src/xeq.c     **** 	const int neg_type_ds = SP_NEG_EXP_ENTRY_TYPE_DS;
2672:src/xeq.c     **** #endif
2673:src/xeq.c     **** #if SP_NEG_EXP_ENTRY_LIMIT_DS == -1
2674:src/xeq.c     **** 	const int neg_lim_ds = get_reg_n_int_sgn(3, &i);
2675:src/xeq.c     **** #else
2676:src/xeq.c     **** 	const int neg_lim_ds = SP_NEG_EXP_ENTRY_LIMIT_DS;
2677:src/xeq.c     **** #endif
2678:src/xeq.c     **** #if SP_POS_EXP_ENTRY_TYPE_DC == -1
2679:src/xeq.c     **** 	const int pos_type_dc = get_reg_n_int_sgn(4, &i);
2680:src/xeq.c     **** #else
2681:src/xeq.c     **** 	const int pos_type_dc = SP_POS_EXP_ENTRY_TYPE_DC;
2682:src/xeq.c     **** #endif
2683:src/xeq.c     **** #if SP_POS_EXP_ENTRY_LIMIT_DC == -1
2684:src/xeq.c     **** 	const int pos_lim_dc = get_reg_n_int_sgn(5, &i);
2685:src/xeq.c     **** #else
2686:src/xeq.c     **** 	const int pos_lim_dc = SP_POS_EXP_ENTRY_LIMIT_DC;
2687:src/xeq.c     **** #endif
2688:src/xeq.c     **** #if SP_POS_EXP_ENTRY_TYPE_DS == -1
2689:src/xeq.c     **** 	const int pos_type_ds = get_reg_n_int_sgn(6, &i);
2690:src/xeq.c     **** #else
2691:src/xeq.c     **** 	const int pos_type_ds = SP_POS_EXP_ENTRY_TYPE_DS;
2692:src/xeq.c     **** #endif
2693:src/xeq.c     **** #if SP_POS_EXP_ENTRY_LIMIT_DS == -1
2694:src/xeq.c     **** 	const int pos_lim_ds = get_reg_n_int_sgn(7, &i);
2695:src/xeq.c     **** #else
2696:src/xeq.c     **** 	const int pos_lim_ds = SP_POS_EXP_ENTRY_LIMIT_DS;
2697:src/xeq.c     **** #endif
2698:src/xeq.c     **** #if SP_EXP_ENTRY_CHS_DC == -1
2699:src/xeq.c     **** 	const int exp_chs_dc = get_reg_n_int_sgn(8, &i);
2700:src/xeq.c     **** #else
2701:src/xeq.c     **** 	const int exp_chs_dc = SP_EXP_ENTRY_CHS_DC;
2702:src/xeq.c     **** #endif
2703:src/xeq.c     **** #if SP_EXP_ENTRY_CHS_DS == -1
2704:src/xeq.c     **** 	const int exp_chs_ds = get_reg_n_int_sgn(9, &i);
2705:src/xeq.c     **** #else
ARM GAS  /tmp/ccBFDvgN.s 			page 58


2706:src/xeq.c     **** 	const int exp_chs_ds = SP_EXP_ENTRY_CHS_DS;
2707:src/xeq.c     **** #endif
2708:src/xeq.c     **** 	const int dp_neg_type_dc = DP_NEG_EXP_ENTRY_TYPE_DC;
2709:src/xeq.c     **** 	const int dp_neg_lim_dc = DP_NEG_EXP_ENTRY_LIMIT_DC;
2710:src/xeq.c     **** 	const int dp_neg_type_ds = DP_NEG_EXP_ENTRY_TYPE_DS;
2711:src/xeq.c     **** 	const int dp_neg_lim_ds = DP_NEG_EXP_ENTRY_LIMIT_DS;
2712:src/xeq.c     **** 	const int dp_pos_type_dc = DP_POS_EXP_ENTRY_TYPE_DC;
2713:src/xeq.c     **** 	const int dp_pos_lim_dc = DP_POS_EXP_ENTRY_LIMIT_DC;
2714:src/xeq.c     **** 	const int dp_pos_type_ds = DP_POS_EXP_ENTRY_TYPE_DS;
2715:src/xeq.c     **** 	const int dp_pos_lim_ds = DP_POS_EXP_ENTRY_LIMIT_DS;
2716:src/xeq.c     **** 	const int dp_exp_chs_dc = DP_EXP_ENTRY_CHS_DC;
2717:src/xeq.c     **** 	const int dp_exp_chs_ds = DP_EXP_ENTRY_CHS_DS;
2718:src/xeq.c     **** #ifdef LARGE_EXPONENT_ENTRY
2719:src/xeq.c     **** 	const int large_exp_entry = 1;
2720:src/xeq.c     **** 	char *p = &Cmdline[CmdLineEex];
2721:src/xeq.c     **** #else
2722:src/xeq.c     **** 	const int large_exp_entry = 0;
2723:src/xeq.c     **** 	char *p = &Cmdline[CmdLineEex + 1];
2724:src/xeq.c     **** #endif
2725:src/xeq.c     **** #if SP_NEG_EXP_ENTRY_TYPE_DC == -1 || SP_NEG_EXP_ENTRY_TYPE_DC != SP_NEG_EXP_ENTRY_TYPE_DS \
2726:src/xeq.c     ****     || SP_NEG_EXP_ENTRY_LIMIT_DC == -1 || SP_NEG_EXP_ENTRY_LIMIT_DC != SP_NEG_EXP_ENTRY_LIMIT_DS \
2727:src/xeq.c     ****     || SP_POS_EXP_ENTRY_TYPE_DC == -1 || SP_POS_EXP_ENTRY_TYPE_DC != SP_POS_EXP_ENTRY_TYPE_DS \
2728:src/xeq.c     ****     || SP_POS_EXP_ENTRY_LIMIT_DC == -1 || SP_POS_EXP_ENTRY_LIMIT_DC != SP_POS_EXP_ENTRY_LIMIT_DS \
2729:src/xeq.c     ****     || SP_EXP_ENTRY_CHS_DC == -1 || SP_EXP_ENTRY_CHS_DC != SP_EXP_ENTRY_CHS_DS \
2730:src/xeq.c     ****     || SP_EXP_ENTRY_ZERO_DC == -1 || SP_EXP_ENTRY_ZERO_DC != SP_EXP_ENTRY_ZERO_DS \
2731:src/xeq.c     ****     || ((DP_NEG_EXP_ENTRY_TYPE_DC != DP_NEG_EXP_ENTRY_TYPE_DS \
2732:src/xeq.c     ****          || DP_NEG_EXP_ENTRY_LIMIT_DC != DP_NEG_EXP_ENTRY_LIMIT_DS \
2733:src/xeq.c     ****          || DP_POS_EXP_ENTRY_TYPE_DC != DP_POS_EXP_ENTRY_TYPE_DS \
2734:src/xeq.c     ****          || DP_POS_EXP_ENTRY_LIMIT_DC != DP_POS_EXP_ENTRY_LIMIT_DS \
2735:src/xeq.c     ****          || DP_EXP_ENTRY_CHS_DC != DP_EXP_ENTRY_CHS_DS \
2736:src/xeq.c     ****          || DP_EXP_ENTRY_ZERO_DC != DP_EXP_ENTRY_ZERO_DS) && defined(LARGE_EXPONENT_ENTRY))
2737:src/xeq.c     **** 	const int flag_D = get_user_flag(NAN_FLAG);
2738:src/xeq.c     **** #else
2739:src/xeq.c     **** 	const int flag_D = 0;
2740:src/xeq.c     **** #endif
2741:src/xeq.c     **** #ifndef SHIFT_EXPONENT
2742:src/xeq.c     **** 	int negative;
2743:src/xeq.c     **** #endif
2744:src/xeq.c     **** 	int emax;
2745:src/xeq.c     **** 
2746:src/xeq.c     **** 	/* Figure out the range limit for the exponent */
2747:src/xeq.c     **** 	if (!large_exp_entry && dbl) {
2748:src/xeq.c     **** 		emax = 999;
2749:src/xeq.c     **** 	}
2750:src/xeq.c     **** 	else {
2751:src/xeq.c     **** 		int emax_plus, emax_minus;
2752:src/xeq.c     **** 		int dot = 0, first_nonzero = -1, last_nonzero = 0;
2753:src/xeq.c     **** 
2754:src/xeq.c     **** 		if ((neg_type_dc >= 1 && neg_type_dc <= 9)
2755:src/xeq.c     **** 		    || (neg_type_ds >= 1 && neg_type_ds <= 9)
2756:src/xeq.c     **** 		    || (pos_type_dc >= 1 && pos_type_dc <= 3)
2757:src/xeq.c     **** 		    || (pos_type_ds >= 1 && pos_type_ds <= 3)
2758:src/xeq.c     **** #ifdef LARGE_EXPONENT_ENTRY
2759:src/xeq.c     **** 		    || (dp_neg_type_dc >= 1 && dp_neg_type_dc <= 9)
2760:src/xeq.c     **** 		    || (dp_neg_type_ds >= 1 && dp_neg_type_ds <= 9)
2761:src/xeq.c     **** 		    || (dp_pos_type_dc >= 1 && dp_pos_type_dc <= 3)
2762:src/xeq.c     **** 		    || (dp_pos_type_ds >= 1 && dp_pos_type_ds <= 3)
ARM GAS  /tmp/ccBFDvgN.s 			page 59


2763:src/xeq.c     **** #endif
2764:src/xeq.c     **** 		   ) {
2765:src/xeq.c     **** 			// Exponent limits have to be calculated at run-time
2766:src/xeq.c     **** 
2767:src/xeq.c     **** 			for (i = 0; i < CmdLineLength; ++i) {
2768:src/xeq.c     **** #ifdef LARGE_EXPONENT_ENTRY
2769:src/xeq.c     **** 				if (Cmdline[i] == 'E' || Cmdline[i] == 'D')
2770:src/xeq.c     **** #else
2771:src/xeq.c     **** 				if (Cmdline[i] == 'E')
2772:src/xeq.c     **** #endif
2773:src/xeq.c     **** 					break;
2774:src/xeq.c     **** 				else if (Cmdline[i] == '.')
2775:src/xeq.c     **** 					dot = i;
2776:src/xeq.c     **** 				else if (Cmdline[i] != '0') {
2777:src/xeq.c     **** 					last_nonzero = i - (dot != 0);
2778:src/xeq.c     **** 					if (first_nonzero < 0)
2779:src/xeq.c     **** 						first_nonzero = i - (dot != 0);
2780:src/xeq.c     **** 				}
2781:src/xeq.c     **** 			}
2782:src/xeq.c     **** 			if (first_nonzero < 0) { // Mantissa is zero.
2783:src/xeq.c     **** #if SP_EXP_ENTRY_ZERO_DC == -1
2784:src/xeq.c     **** 				const int zero_dc = (get_user_flag(1) << 1) | get_user_flag(0);
2785:src/xeq.c     **** #else
2786:src/xeq.c     **** 				const int zero_dc = SP_EXP_ENTRY_ZERO_DC;
2787:src/xeq.c     **** #endif
2788:src/xeq.c     **** #if SP_EXP_ENTRY_ZERO_DS == -1
2789:src/xeq.c     **** 				const int zero_ds = (get_user_flag(3) << 1) | get_user_flag(2);
2790:src/xeq.c     **** #else
2791:src/xeq.c     **** 				const int zero_ds = SP_EXP_ENTRY_ZERO_DS;
2792:src/xeq.c     **** #endif
2793:src/xeq.c     **** 				const int dp_zero_dc = DP_EXP_ENTRY_ZERO_DC;
2794:src/xeq.c     **** 				const int dp_zero_ds = DP_EXP_ENTRY_ZERO_DS;
2795:src/xeq.c     **** 
2796:src/xeq.c     **** 				if (large_exp_entry && dbl) {
2797:src/xeq.c     **** 					if ((dp_zero_dc == 1 && dp_zero_ds == 1)
2798:src/xeq.c     **** 					    || (dp_zero_dc == 1 && !flag_D)
2799:src/xeq.c     **** 					    || (dp_zero_ds == 1 && flag_D)) {
2800:src/xeq.c     **** 						// Double precision: Allow any exponent
2801:src/xeq.c     **** 						// within configured limits if any.
2802:src/xeq.c     **** 						emax_plus = emax_minus = 9999;
2803:src/xeq.c     **** 						goto check_limits;
2804:src/xeq.c     **** 					}
2805:src/xeq.c     **** 					else if ((dp_zero_dc == 2 && dp_zero_ds == 2)
2806:src/xeq.c     **** 					         || (dp_zero_dc == 2 && !flag_D)
2807:src/xeq.c     **** 					         || (dp_zero_ds == 2 && flag_D)) {
2808:src/xeq.c     **** 						// Double precision: Allow any exponent
2809:src/xeq.c     **** 						// even outside of configured limits.
2810:src/xeq.c     **** 						emax = 9999;
2811:src/xeq.c     **** 						goto do_not_check_limits;
2812:src/xeq.c     **** 					}
2813:src/xeq.c     **** 					goto zero_has_one_significant_digit;
2814:src/xeq.c     **** 				}
2815:src/xeq.c     **** 				if ((zero_dc == 1 && zero_ds == 1)
2816:src/xeq.c     **** 				    || (zero_dc == 1 && !flag_D)
2817:src/xeq.c     **** 				    || (zero_ds == 1 && flag_D)) {
2818:src/xeq.c     **** 					// Allow any exponent within configured limits if any.
2819:src/xeq.c     **** 					emax_plus = emax_minus = 999;
ARM GAS  /tmp/ccBFDvgN.s 			page 60


2820:src/xeq.c     **** 					goto check_limits;
2821:src/xeq.c     **** 				}
2822:src/xeq.c     **** 				else if ((zero_dc == 2 && zero_ds == 2)
2823:src/xeq.c     **** 				         || (zero_dc == 2 && !flag_D)
2824:src/xeq.c     **** 				         || (zero_ds == 2 && flag_D)) {
2825:src/xeq.c     **** 					// Allow any exponent even outside of configured limits.
2826:src/xeq.c     **** 					emax = 999;
2827:src/xeq.c     **** 					goto do_not_check_limits;
2828:src/xeq.c     **** 				}
2829:src/xeq.c     **** 				else {
2830:src/xeq.c     **** zero_has_one_significant_digit:
2831:src/xeq.c     **** 					// Treat zero as if it had one significant digit.
2832:src/xeq.c     **** 					first_nonzero = 0;
2833:src/xeq.c     **** 					dot = 1;
2834:src/xeq.c     **** 				}
2835:src/xeq.c     **** 			}
2836:src/xeq.c     **** 			else if (dot == 0)
2837:src/xeq.c     **** 				dot = i;
2838:src/xeq.c     **** 		}
2839:src/xeq.c     **** 
2840:src/xeq.c     **** 		if (large_exp_entry && dbl) {
2841:src/xeq.c     **** 			// Double precision mode
2842:src/xeq.c     **** 			if (flag_D && dp_neg_type_dc != dp_neg_type_ds) {
2843:src/xeq.c     **** 				if (dp_neg_type_ds >= 1 && dp_neg_type_ds <= 3) {
2844:src/xeq.c     **** 					// Don't allow denormal numbers
2845:src/xeq.c     **** 					emax_minus = -DECIMAL128_Emin - 1 + dot - first_nonzero;
2846:src/xeq.c     **** 				}
2847:src/xeq.c     **** 				else if (dp_neg_type_ds >= 4 && dp_neg_type_ds <= 6) {
2848:src/xeq.c     **** 					// No entered digit can be lost in denormal numbers
2849:src/xeq.c     **** 					emax_minus = -DECIMAL128_Emin + DECIMAL128_Pmax - 2 - (last_nonzero - dot);
2850:src/xeq.c     **** 				}
2851:src/xeq.c     **** 				else if (dp_neg_type_ds >= 7 && dp_neg_type_ds <= 9) {
2852:src/xeq.c     **** 					// At least one digit preserved in denormal numbers
2853:src/xeq.c     **** 					emax_minus = -DECIMAL128_Emin + DECIMAL128_Pmax - 2 + dot - first_nonzero;
2854:src/xeq.c     **** 				}
2855:src/xeq.c     **** 				else {
2856:src/xeq.c     **** 					// Fixed limit
2857:src/xeq.c     **** 					emax_minus = dp_neg_lim_ds;
2858:src/xeq.c     **** 				}
2859:src/xeq.c     **** 			}
2860:src/xeq.c     **** 			else {
2861:src/xeq.c     **** 				if (dp_neg_type_dc >= 1 && dp_neg_type_dc <= 3) {
2862:src/xeq.c     **** 					// Don't allow denormal numbers
2863:src/xeq.c     **** 					emax_minus = -DECIMAL128_Emin - 1 + dot - first_nonzero;
2864:src/xeq.c     **** 				}
2865:src/xeq.c     **** 				else if (dp_neg_type_dc >= 4 && dp_neg_type_dc <= 6) {
2866:src/xeq.c     **** 					// No entered digit can be lost in denormal numbers
2867:src/xeq.c     **** 					emax_minus = -DECIMAL128_Emin + DECIMAL128_Pmax - 2 - (last_nonzero - dot);
2868:src/xeq.c     **** 				}
2869:src/xeq.c     **** 				else if (dp_neg_type_dc >= 7 && dp_neg_type_dc <= 9) {
2870:src/xeq.c     **** 					// At least one digit preserved in denormal numbers
2871:src/xeq.c     **** 					emax_minus = -DECIMAL128_Emin + DECIMAL128_Pmax - 2 + dot - first_nonzero;
2872:src/xeq.c     **** 				}
2873:src/xeq.c     **** 				else {
2874:src/xeq.c     **** 					// Fixed limit
2875:src/xeq.c     **** 					emax_minus = dp_neg_lim_dc;
2876:src/xeq.c     **** 				}
ARM GAS  /tmp/ccBFDvgN.s 			page 61


2877:src/xeq.c     **** 			}
2878:src/xeq.c     **** 
2879:src/xeq.c     **** 			if (flag_D && dp_pos_type_dc != dp_pos_type_ds) {
2880:src/xeq.c     **** 				if (dp_pos_type_ds >= 1 && dp_pos_type_ds <= 3)
2881:src/xeq.c     **** 					// Don't allow numbers that overflow to infinity
2882:src/xeq.c     **** 					emax_plus = DECIMAL128_Emax + 1 - (dot - first_nonzero);
2883:src/xeq.c     **** 				else
2884:src/xeq.c     **** 					// Fixed limit
2885:src/xeq.c     **** 					emax_plus = dp_pos_lim_ds;
2886:src/xeq.c     **** 			}
2887:src/xeq.c     **** 			else {
2888:src/xeq.c     **** 				if (dp_pos_type_dc >= 1 && dp_pos_type_dc <= 3)
2889:src/xeq.c     **** 					// Don't allow numbers that overflow to infinity
2890:src/xeq.c     **** 					emax_plus = DECIMAL128_Emax + 1 - (dot - first_nonzero);
2891:src/xeq.c     **** 				else
2892:src/xeq.c     **** 					// Fixed limit
2893:src/xeq.c     **** 					emax_plus = dp_pos_lim_dc;
2894:src/xeq.c     **** 			}
2895:src/xeq.c     **** 
2896:src/xeq.c     **** 			goto check_limits;
2897:src/xeq.c     **** 		}
2898:src/xeq.c     **** 
2899:src/xeq.c     **** 		if (flag_D && neg_type_dc != neg_type_ds) {
2900:src/xeq.c     **** 			if (neg_type_ds >= 1 && neg_type_ds <= 3) {
2901:src/xeq.c     **** 				// Don't allow denormal numbers
2902:src/xeq.c     **** 				emax_minus = -DECIMAL64_Emin - 1 + dot - first_nonzero;
2903:src/xeq.c     **** 			}
2904:src/xeq.c     **** 			else if (neg_type_ds >= 4 && neg_type_ds <= 6) {
2905:src/xeq.c     **** 				// No entered digit can be lost in denormal numbers
2906:src/xeq.c     **** 				emax_minus = -DECIMAL64_Emin + DECIMAL64_Pmax - 2 - (last_nonzero - dot);
2907:src/xeq.c     **** 			}
2908:src/xeq.c     **** 			else if (neg_type_ds >= 7 && neg_type_ds <= 9) {
2909:src/xeq.c     **** 				// At least one digit preserved in denormal numbers
2910:src/xeq.c     **** 				emax_minus = -DECIMAL64_Emin + DECIMAL64_Pmax - 2 + dot - first_nonzero;
2911:src/xeq.c     **** 			}
2912:src/xeq.c     **** 			else {
2913:src/xeq.c     **** 				// Fixed limit
2914:src/xeq.c     **** 				emax_minus = neg_lim_ds;
2915:src/xeq.c     **** 			}
2916:src/xeq.c     **** 		}
2917:src/xeq.c     **** 		else {
2918:src/xeq.c     **** 			if (neg_type_dc >= 1 && neg_type_dc <= 3) {
2919:src/xeq.c     **** 				// Don't allow denormal numbers
2920:src/xeq.c     **** 				emax_minus = -DECIMAL64_Emin - 1 + dot - first_nonzero;
2921:src/xeq.c     **** 			}
2922:src/xeq.c     **** 			else if (neg_type_dc >= 4 && neg_type_dc <= 6) {
2923:src/xeq.c     **** 				// No entered digit can be lost in denormal numbers
2924:src/xeq.c     **** 				emax_minus = -DECIMAL64_Emin + DECIMAL64_Pmax - 2 - (last_nonzero - dot);
2925:src/xeq.c     **** 			}
2926:src/xeq.c     **** 			else if (neg_type_dc >= 7 && neg_type_dc <= 9) {
2927:src/xeq.c     **** 				// At least one digit preserved in denormal numbers
2928:src/xeq.c     **** 				emax_minus = -DECIMAL64_Emin + DECIMAL64_Pmax - 2 + dot - first_nonzero;
2929:src/xeq.c     **** 			}
2930:src/xeq.c     **** 			else {
2931:src/xeq.c     **** 				// Fixed limit
2932:src/xeq.c     **** 				emax_minus = neg_lim_dc;
2933:src/xeq.c     **** 			}
ARM GAS  /tmp/ccBFDvgN.s 			page 62


2934:src/xeq.c     **** 		}
2935:src/xeq.c     **** 
2936:src/xeq.c     **** 		if (flag_D && pos_type_dc != pos_type_ds) {
2937:src/xeq.c     **** 			if (pos_type_ds >= 1 && pos_type_ds <= 3)
2938:src/xeq.c     **** 				// Don't allow numbers that overflow to infinity
2939:src/xeq.c     **** 				emax_plus = DECIMAL64_Emax + 1 - (dot - first_nonzero);
2940:src/xeq.c     **** 			else
2941:src/xeq.c     **** 				// Fixed limit
2942:src/xeq.c     **** 				emax_plus = pos_lim_ds;
2943:src/xeq.c     **** 		}
2944:src/xeq.c     **** 		else {
2945:src/xeq.c     **** 			if (pos_type_dc >= 1 && pos_type_dc <= 3)
2946:src/xeq.c     **** 				// Don't allow numbers that overflow to infinity
2947:src/xeq.c     **** 				emax_plus = DECIMAL64_Emax + 1 - (dot - first_nonzero);
2948:src/xeq.c     **** 			else
2949:src/xeq.c     **** 				// Fixed limit
2950:src/xeq.c     **** 				emax_plus = pos_lim_dc;
2951:src/xeq.c     **** 		}
2952:src/xeq.c     **** 
2953:src/xeq.c     **** check_limits:
2954:src/xeq.c     **** 		if (large_exp_entry && dbl && flag_D
2955:src/xeq.c     **** 		    && (dp_neg_type_dc != dp_neg_type_ds || dp_neg_lim_dc != dp_neg_lim_ds)
2956:src/xeq.c     **** 		    && (dp_neg_type_ds != neg_type_ds || dp_neg_lim_ds != neg_lim_ds)) {
2957:src/xeq.c     **** 			if (dp_neg_type_ds >= 1 && dp_neg_type_ds <= 9) {
2958:src/xeq.c     **** 				if (dp_neg_type_ds % 3 == 2) { // low limit
2959:src/xeq.c     **** 					if (emax_minus > dp_neg_lim_ds)
2960:src/xeq.c     **** 						emax_minus = dp_neg_lim_ds;
2961:src/xeq.c     **** 				}
2962:src/xeq.c     **** 				else if (dp_neg_type_ds % 3 == 0) { // high limit
2963:src/xeq.c     **** 					if (emax_minus < dp_neg_lim_ds)
2964:src/xeq.c     **** 						emax_minus = dp_neg_lim_ds;
2965:src/xeq.c     **** 				}
2966:src/xeq.c     **** 			}
2967:src/xeq.c     **** 			if (dp_neg_lim_ds < 0 && emax_minus < 0)
2968:src/xeq.c     **** 				emax_minus = 0;
2969:src/xeq.c     **** 		}
2970:src/xeq.c     **** 		else if (large_exp_entry && dbl
2971:src/xeq.c     **** 		         && (!flag_D || (dp_neg_type_dc == dp_neg_type_ds
2972:src/xeq.c     **** 		                         && dp_neg_lim_dc == dp_neg_lim_ds))
2973:src/xeq.c     **** 		         && (dp_neg_type_dc != neg_type_dc || dp_neg_lim_dc != neg_lim_dc)) {
2974:src/xeq.c     **** 			if (dp_neg_type_dc >= 1 && dp_neg_type_dc <= 9) {
2975:src/xeq.c     **** 				if (dp_neg_type_dc % 3 == 2) { // low limit
2976:src/xeq.c     **** 					if (emax_minus > dp_neg_lim_dc)
2977:src/xeq.c     **** 						emax_minus = dp_neg_lim_dc;
2978:src/xeq.c     **** 				}
2979:src/xeq.c     **** 				else if (dp_neg_type_dc % 3 == 0) { // high limit
2980:src/xeq.c     **** 					if (emax_minus < dp_neg_lim_dc)
2981:src/xeq.c     **** 						emax_minus = dp_neg_lim_dc;
2982:src/xeq.c     **** 				}
2983:src/xeq.c     **** 			}
2984:src/xeq.c     **** 			if (dp_neg_lim_dc < 0 && emax_minus < 0)
2985:src/xeq.c     **** 				emax_minus = 0;
2986:src/xeq.c     **** 		}
2987:src/xeq.c     **** 		else if (flag_D && (neg_type_dc != neg_type_ds || neg_lim_dc != neg_lim_ds)) {
2988:src/xeq.c     **** 			if (neg_type_ds >= 1 && neg_type_ds <= 9) {
2989:src/xeq.c     **** 				if (neg_type_ds % 3 == 2) { // low limit
2990:src/xeq.c     **** 					if (emax_minus > neg_lim_ds)
ARM GAS  /tmp/ccBFDvgN.s 			page 63


2991:src/xeq.c     **** 						emax_minus = neg_lim_ds;
2992:src/xeq.c     **** 				}
2993:src/xeq.c     **** 				else if (neg_type_ds % 3 == 0) { // high limit
2994:src/xeq.c     **** 					if (emax_minus < neg_lim_ds)
2995:src/xeq.c     **** 						emax_minus = neg_lim_ds;
2996:src/xeq.c     **** 				}
2997:src/xeq.c     **** 			}
2998:src/xeq.c     **** 			if (neg_lim_ds < 0 && emax_minus < 0)
2999:src/xeq.c     **** 				emax_minus = 0;
3000:src/xeq.c     **** 		}
3001:src/xeq.c     **** 		else {
3002:src/xeq.c     **** 			if (neg_type_dc >= 1 && neg_type_dc <= 9) {
3003:src/xeq.c     **** 				if (neg_type_dc % 3 == 2) { // low limit
3004:src/xeq.c     **** 					if (emax_minus > neg_lim_dc)
3005:src/xeq.c     **** 						emax_minus = neg_lim_dc;
3006:src/xeq.c     **** 				}
3007:src/xeq.c     **** 				else if (neg_type_dc % 3 == 0) { // high limit
3008:src/xeq.c     **** 					if (emax_minus < neg_lim_dc)
3009:src/xeq.c     **** 						emax_minus = neg_lim_dc;
3010:src/xeq.c     **** 				}
3011:src/xeq.c     **** 			}
3012:src/xeq.c     **** 			if (neg_lim_dc < 0 && emax_minus < 0)
3013:src/xeq.c     **** 				emax_minus = 0;
3014:src/xeq.c     **** 		}
3015:src/xeq.c     **** 
3016:src/xeq.c     **** 		if (large_exp_entry && dbl && flag_D
3017:src/xeq.c     **** 		    && (dp_pos_type_dc != dp_pos_type_ds || dp_pos_lim_dc != dp_pos_lim_ds)
3018:src/xeq.c     **** 		    && (dp_pos_type_ds != pos_type_ds || dp_pos_lim_ds != pos_lim_ds)) {
3019:src/xeq.c     **** 			if (dp_pos_type_ds == 2) { // low limit
3020:src/xeq.c     **** 				if (emax_plus < dp_pos_lim_ds)
3021:src/xeq.c     **** 					emax_plus = dp_pos_lim_ds;
3022:src/xeq.c     **** 			}
3023:src/xeq.c     **** 			else if (dp_pos_type_ds == 3) { // high limit
3024:src/xeq.c     **** 				if (emax_plus > dp_pos_lim_ds)
3025:src/xeq.c     **** 					emax_plus = dp_pos_lim_ds;
3026:src/xeq.c     **** 			}
3027:src/xeq.c     **** 			if (dp_pos_lim_ds < 0 && emax_plus < 0)
3028:src/xeq.c     **** 				emax_plus = 0;
3029:src/xeq.c     **** 		}
3030:src/xeq.c     **** 		else if (large_exp_entry && dbl
3031:src/xeq.c     **** 		         && (!flag_D || (dp_pos_type_dc == dp_pos_type_ds
3032:src/xeq.c     **** 		                         && dp_pos_lim_dc == dp_pos_lim_ds))
3033:src/xeq.c     **** 		         && (dp_pos_type_dc != pos_type_dc || dp_pos_lim_dc != pos_lim_dc)) {
3034:src/xeq.c     **** 			if (dp_pos_type_dc == 2) { // low limit
3035:src/xeq.c     **** 				if (emax_plus < dp_pos_lim_dc)
3036:src/xeq.c     **** 					emax_plus = dp_pos_lim_dc;
3037:src/xeq.c     **** 			}
3038:src/xeq.c     **** 			else if (dp_pos_type_dc == 3) { // high limit
3039:src/xeq.c     **** 				if (emax_plus > dp_pos_lim_dc)
3040:src/xeq.c     **** 					emax_plus = dp_pos_lim_dc;
3041:src/xeq.c     **** 			}
3042:src/xeq.c     **** 			if (dp_pos_lim_dc < 0 && emax_plus < 0)
3043:src/xeq.c     **** 				emax_plus = 0;
3044:src/xeq.c     **** 		}
3045:src/xeq.c     **** 		else if (flag_D && (pos_type_dc != pos_type_ds || pos_lim_dc != pos_lim_ds)) {
3046:src/xeq.c     **** 			if (pos_type_ds == 2) { // low limit
3047:src/xeq.c     **** 				if (emax_plus < pos_lim_ds)
ARM GAS  /tmp/ccBFDvgN.s 			page 64


3048:src/xeq.c     **** 					emax_plus = pos_lim_ds;
3049:src/xeq.c     **** 			}
3050:src/xeq.c     **** 			else if (pos_type_ds == 3) { // high limit
3051:src/xeq.c     **** 				if (emax_plus > pos_lim_ds)
3052:src/xeq.c     **** 					emax_plus = pos_lim_ds;
3053:src/xeq.c     **** 			}
3054:src/xeq.c     **** 			if (pos_lim_ds < 0 && emax_plus < 0)
3055:src/xeq.c     **** 				emax_plus = 0;
3056:src/xeq.c     **** 		}
3057:src/xeq.c     **** 		else {
3058:src/xeq.c     **** 			if (pos_type_dc == 2) { // low limit
3059:src/xeq.c     **** 				if (emax_plus < pos_lim_dc)
3060:src/xeq.c     **** 					emax_plus = pos_lim_dc;
3061:src/xeq.c     **** 			}
3062:src/xeq.c     **** 			else if (pos_type_dc == 3) { // high limit
3063:src/xeq.c     **** 				if (emax_plus > pos_lim_dc)
3064:src/xeq.c     **** 					emax_plus = pos_lim_dc;
3065:src/xeq.c     **** 			}
3066:src/xeq.c     **** 			if (pos_lim_dc < 0 && emax_plus < 0)
3067:src/xeq.c     **** 				emax_plus = 0;
3068:src/xeq.c     **** 		}
3069:src/xeq.c     **** 
3070:src/xeq.c     **** 		if (large_exp_entry && dbl && flag_D
3071:src/xeq.c     **** 		    && (dp_exp_chs_dc != dp_exp_chs_ds)
3072:src/xeq.c     **** 		    && (dp_exp_chs_ds != exp_chs_ds)) {
3073:src/xeq.c     **** 			if (dp_exp_chs_ds == 0) {
3074:src/xeq.c     **** 				// Limit exponents so sign change is always legal
3075:src/xeq.c     **** 				if (emax_minus < emax_plus)
3076:src/xeq.c     **** 					emax = emax_minus;
3077:src/xeq.c     **** 				else
3078:src/xeq.c     **** 					emax = emax_plus;
3079:src/xeq.c     **** 			}
3080:src/xeq.c     **** 			else if (dp_exp_chs_ds == 3) {
3081:src/xeq.c     **** 				// Extend range of exponents so sign change is always legal
3082:src/xeq.c     **** 				if (emax_minus > emax_plus)
3083:src/xeq.c     **** 					emax = emax_minus;
3084:src/xeq.c     **** 				else
3085:src/xeq.c     **** 					emax = emax_plus;
3086:src/xeq.c     **** 			}
3087:src/xeq.c     **** 			else {
3088:src/xeq.c     **** 				if (dp_exp_chs_ds == 2 && !was_digit_entered)
3089:src/xeq.c     **** 					return;
3090:src/xeq.c     **** 				if (*p == 'D')
3091:src/xeq.c     **** 					emax = emax_minus;
3092:src/xeq.c     **** 				else
3093:src/xeq.c     **** 					emax = emax_plus;
3094:src/xeq.c     **** 			}
3095:src/xeq.c     **** 		}
3096:src/xeq.c     **** 		else if (large_exp_entry && dbl
3097:src/xeq.c     **** 		         && (!flag_D || dp_exp_chs_dc == dp_exp_chs_ds)
3098:src/xeq.c     **** 		         && (dp_exp_chs_dc != exp_chs_dc)) {
3099:src/xeq.c     **** 			if (dp_exp_chs_dc == 0) {
3100:src/xeq.c     **** 				// Limit exponents so sign change is always legal
3101:src/xeq.c     **** 				if (emax_minus < emax_plus)
3102:src/xeq.c     **** 					emax = emax_minus;
3103:src/xeq.c     **** 				else
3104:src/xeq.c     **** 					emax = emax_plus;
ARM GAS  /tmp/ccBFDvgN.s 			page 65


3105:src/xeq.c     **** 			}
3106:src/xeq.c     **** 			else if (dp_exp_chs_dc == 3) {
3107:src/xeq.c     **** 				// Extend range of exponents so sign change is always legal
3108:src/xeq.c     **** 				if (emax_minus > emax_plus)
3109:src/xeq.c     **** 					emax = emax_minus;
3110:src/xeq.c     **** 				else
3111:src/xeq.c     **** 					emax = emax_plus;
3112:src/xeq.c     **** 			}
3113:src/xeq.c     **** 			else {
3114:src/xeq.c     **** 				if (dp_exp_chs_dc == 2 && !was_digit_entered)
3115:src/xeq.c     **** 					return;
3116:src/xeq.c     **** 				if (*p == 'D')
3117:src/xeq.c     **** 					emax = emax_minus;
3118:src/xeq.c     **** 				else
3119:src/xeq.c     **** 					emax = emax_plus;
3120:src/xeq.c     **** 			}
3121:src/xeq.c     **** 		}
3122:src/xeq.c     **** 		else if (flag_D && exp_chs_dc != exp_chs_ds) {
3123:src/xeq.c     **** 			if (exp_chs_ds == 0) {
3124:src/xeq.c     **** 				// Limit exponents so sign change is always legal
3125:src/xeq.c     **** 				if (emax_minus < emax_plus)
3126:src/xeq.c     **** 					emax = emax_minus;
3127:src/xeq.c     **** 				else
3128:src/xeq.c     **** 					emax = emax_plus;
3129:src/xeq.c     **** 			}
3130:src/xeq.c     **** 			else if (exp_chs_ds == 3) {
3131:src/xeq.c     **** 				// Extend range of exponents so sign change is always legal
3132:src/xeq.c     **** 				if (emax_minus > emax_plus)
3133:src/xeq.c     **** 					emax = emax_minus;
3134:src/xeq.c     **** 				else
3135:src/xeq.c     **** 					emax = emax_plus;
3136:src/xeq.c     **** 			}
3137:src/xeq.c     **** 			else {
3138:src/xeq.c     **** 				if (exp_chs_ds == 2 && !was_digit_entered)
3139:src/xeq.c     **** 					return;
3140:src/xeq.c     **** #ifdef LARGE_EXPONENT_ENTRY
3141:src/xeq.c     **** 				if (*p == 'D')
3142:src/xeq.c     **** #else
3143:src/xeq.c     **** 				if (*p == '-')
3144:src/xeq.c     **** #endif
3145:src/xeq.c     **** 					emax = emax_minus;
3146:src/xeq.c     **** 				else
3147:src/xeq.c     **** 					emax = emax_plus;
3148:src/xeq.c     **** 			}
3149:src/xeq.c     **** 		}
3150:src/xeq.c     **** 		else {
3151:src/xeq.c     **** 			if (exp_chs_dc == 0) {
3152:src/xeq.c     **** 				// Limit exponents so sign change is always legal
3153:src/xeq.c     **** 				if (emax_minus < emax_plus)
3154:src/xeq.c     **** 					emax = emax_minus;
3155:src/xeq.c     **** 				else
3156:src/xeq.c     **** 					emax = emax_plus;
3157:src/xeq.c     **** 			}
3158:src/xeq.c     **** 			else if (exp_chs_dc == 3) {
3159:src/xeq.c     **** 				// Extend range of exponents so sign change is always legal
3160:src/xeq.c     **** 				if (emax_minus > emax_plus)
3161:src/xeq.c     **** 					emax = emax_minus;
ARM GAS  /tmp/ccBFDvgN.s 			page 66


3162:src/xeq.c     **** 				else
3163:src/xeq.c     **** 					emax = emax_plus;
3164:src/xeq.c     **** 			}
3165:src/xeq.c     **** 			else {
3166:src/xeq.c     **** 				if (exp_chs_dc == 2 && !was_digit_entered)
3167:src/xeq.c     **** 					return;
3168:src/xeq.c     **** #ifdef LARGE_EXPONENT_ENTRY
3169:src/xeq.c     **** 				if (*p == 'D')
3170:src/xeq.c     **** #else
3171:src/xeq.c     **** 				if (*p == '-')
3172:src/xeq.c     **** #endif
3173:src/xeq.c     **** 					emax = emax_minus;
3174:src/xeq.c     **** 				else
3175:src/xeq.c     **** 					emax = emax_plus;
3176:src/xeq.c     **** 			}
3177:src/xeq.c     **** 		}
3178:src/xeq.c     **** 	}
3179:src/xeq.c     **** 
3180:src/xeq.c     **** do_not_check_limits:
3181:src/xeq.c     **** #ifdef SHIFT_EXPONENT
3182:src/xeq.c     **** #  ifdef LARGE_EXPONENT_ENTRY
3183:src/xeq.c     **** 	p++;
3184:src/xeq.c     **** #  else
3185:src/xeq.c     **** 	if (*p == '-')
3186:src/xeq.c     **** 		p++;
3187:src/xeq.c     **** #  endif
3188:src/xeq.c     **** 	/* Check if the current exponent exceeds the range.
3189:src/xeq.c     **** 	 * If so, shift it back until it doesn't.
3190:src/xeq.c     **** 	 * Also remove leading zeros.
3191:src/xeq.c     **** 	 */
3192:src/xeq.c     **** 	while (s_to_i(p) > emax || *p == '0') {
3193:src/xeq.c     **** 		for (i = 0; p[i] != '\0'; ++i)
3194:src/xeq.c     **** 			p[i] = p[i + 1];
3195:src/xeq.c     **** 		CmdLineLength--;
3196:src/xeq.c     **** 	}
3197:src/xeq.c     **** #else
3198:src/xeq.c     **** #  ifdef LARGE_EXPONENT_ENTRY
3199:src/xeq.c     **** 	negative = (*p == 'D');
3200:src/xeq.c     **** 	p++;
3201:src/xeq.c     **** #  else
3202:src/xeq.c     **** 	if (*p == '-') {
3203:src/xeq.c     **** 		p++;
3204:src/xeq.c     **** 		negative = 1;
3205:src/xeq.c     **** 	}
3206:src/xeq.c     **** 	else negative = 0;
3207:src/xeq.c     **** #  endif
3208:src/xeq.c     **** 	// Display a warning if the exponent is out of range.
3209:src/xeq.c     **** 	if ((i = s_to_i(p)) > emax) {
3210:src/xeq.c     **** 		if (was_digit_entered) {
3211:src/xeq.c     **** 			CmdLineLength--;
3212:src/xeq.c     **** 			if (large_exp_entry && dbl ? i > 9999 : i > 999) {
3213:src/xeq.c     **** 				report_warn(ERR_TOO_LONG);
3214:src/xeq.c     **** 				return;
3215:src/xeq.c     **** 			}
3216:src/xeq.c     **** 		}
3217:src/xeq.c     **** #  ifdef LARGE_EXPONENT_ENTRY
3218:src/xeq.c     **** 		else if (('D' | 1) == 'E')
ARM GAS  /tmp/ccBFDvgN.s 			page 67


3219:src/xeq.c     **** 			Cmdline[CmdLineEex] ^= 1;
3220:src/xeq.c     **** 		else if (Cmdline[CmdLineEex] == 'E')
3221:src/xeq.c     **** 			Cmdline[CmdLineEex] = 'D';
3222:src/xeq.c     **** 		else
3223:src/xeq.c     **** 			Cmdline[CmdLineEex] = 'E';
3224:src/xeq.c     **** #  else
3225:src/xeq.c     **** 		else if (negative) {
3226:src/xeq.c     **** 			scopy(p - 1, p);
3227:src/xeq.c     **** 			CmdLineLength--;
3228:src/xeq.c     **** 		}
3229:src/xeq.c     **** 		else {
3230:src/xeq.c     **** 			xcopy(p + 1, p, CMDLINELEN - 1 - CmdLineEex);
3231:src/xeq.c     **** 			*p = '-';
3232:src/xeq.c     **** 			CmdLineLength++;
3233:src/xeq.c     **** 		}
3234:src/xeq.c     **** #  endif
3235:src/xeq.c     **** 		if (negative)
3236:src/xeq.c     **** 			report_warn(ERR_TOO_SMALL);
3237:src/xeq.c     **** 		else
3238:src/xeq.c     **** 			report_warn(ERR_TOO_BIG);
3239:src/xeq.c     **** 	}
3240:src/xeq.c     **** #endif
3241:src/xeq.c     **** }
3242:src/xeq.c     **** 
3243:src/xeq.c     **** /* We've encountered a CHS while entering the command line.
3244:src/xeq.c     ****  */
3245:src/xeq.c     **** static void cmdlinechs(void) {
3246:src/xeq.c     **** 	if (CmdLineEex) {
3247:src/xeq.c     **** #ifdef LARGE_EXPONENT_ENTRY
3248:src/xeq.c     **** 		// 'D' instead of 'E' indicates a negative exponent.
3249:src/xeq.c     **** 		// Four-digit exponents wouldn't fit into Cmdline if we used 'E-'.
3250:src/xeq.c     **** 		if (('D' | 1) == 'E')
3251:src/xeq.c     **** 			Cmdline[CmdLineEex] ^= 1;
3252:src/xeq.c     **** 		else if (Cmdline[CmdLineEex] == 'E')
3253:src/xeq.c     **** 			Cmdline[CmdLineEex] = 'D';
3254:src/xeq.c     **** 		else
3255:src/xeq.c     **** 			Cmdline[CmdLineEex] = 'E';
3256:src/xeq.c     **** #else
3257:src/xeq.c     **** 		const unsigned int pos = CmdLineEex + 1;
3258:src/xeq.c     **** 		if (CmdLineLength <= pos) {
3259:src/xeq.c     **** 			if (CmdLineLength < CMDLINELEN)
3260:src/xeq.c     **** 				append_cmdline('-');
3261:src/xeq.c     **** 		} else if (Cmdline[pos] == '-') {
3262:src/xeq.c     **** 			if (CmdLineLength != pos)
3263:src/xeq.c     **** 				xcopy(Cmdline + pos, Cmdline + pos + 1, CmdLineLength-pos);
3264:src/xeq.c     **** 			CmdLineLength--;
3265:src/xeq.c     **** 		} else if (CmdLineLength < CMDLINELEN) {
3266:src/xeq.c     **** 			xcopy(Cmdline+pos+1, Cmdline+pos, CmdLineLength-pos);
3267:src/xeq.c     **** 			Cmdline[pos] = '-';
3268:src/xeq.c     **** 			CmdLineLength++;
3269:src/xeq.c     **** 		}
3270:src/xeq.c     **** #endif
3271:src/xeq.c     **** #if SP_EXP_ENTRY_CHS_DC == -1 || SP_EXP_ENTRY_CHS_DC == 1 \
3272:src/xeq.c     ****     || SP_EXP_ENTRY_CHS_DS == -1 || SP_EXP_ENTRY_CHS_DS == 1 \
3273:src/xeq.c     ****     || ((DP_EXP_ENTRY_CHS_DC == 1 || DP_EXP_ENTRY_CHS_DS == 1) && defined(LARGE_EXPONENT_ENTRY))
3274:src/xeq.c     **** 		exponent_adjusted(0);
3275:src/xeq.c     **** #endif
ARM GAS  /tmp/ccBFDvgN.s 			page 68


3276:src/xeq.c     **** 	} else {
3277:src/xeq.c     **** 		if (Cmdline[0] == '-') {
3278:src/xeq.c     **** 			if (CmdLineLength > 1)
3279:src/xeq.c     **** 				xcopy(Cmdline, Cmdline+1, CmdLineLength);
3280:src/xeq.c     **** 			CmdLineLength--;
3281:src/xeq.c     **** 		} else if (CmdLineLength < CMDLINELEN) {
3282:src/xeq.c     **** 			xcopy(Cmdline+1, Cmdline, CmdLineLength);
3283:src/xeq.c     **** 			Cmdline[0] = '-';
3284:src/xeq.c     **** 			CmdLineLength++;
3285:src/xeq.c     **** 		}
3286:src/xeq.c     **** 	}
3287:src/xeq.c     **** }
3288:src/xeq.c     **** 
3289:src/xeq.c     **** /* Execute a tests command
3290:src/xeq.c     ****  */
3291:src/xeq.c     **** static void do_tst(int cmp, const enum tst_op op) {
3292:src/xeq.c     **** 	int a = 0;
3293:src/xeq.c     **** 	int iszero, isneg;
3294:src/xeq.c     **** 
3295:src/xeq.c     **** 	process_cmdline_set_lift();
3296:src/xeq.c     **** 
3297:src/xeq.c     **** 	if (is_intmode()) {
3298:src/xeq.c     **** 		unsigned long long int xv, yv;
3299:src/xeq.c     **** 		int xs, ys;
3300:src/xeq.c     **** 
3301:src/xeq.c     **** 		xv = extract_value(getX_int(), &xs);
3302:src/xeq.c     **** 		if (cmp >= CONST_REG_BASE) {
3303:src/xeq.c     **** 			yv = cmp - CONST_REG_BASE - OP_ZERO;
3304:src/xeq.c     **** 			ys = 0;
3305:src/xeq.c     **** 		} else
3306:src/xeq.c     **** 			yv = extract_value(get_reg_n_int(cmp), &ys);
3307:src/xeq.c     **** 
3308:src/xeq.c     **** 		if (xv == 0 && yv == 0)
3309:src/xeq.c     **** 			iszero = 1;
3310:src/xeq.c     **** 		else
3311:src/xeq.c     **** 			iszero = (xv == yv) && (xs == ys);
3312:src/xeq.c     **** 
3313:src/xeq.c     **** 		if (xs == ys) {		// same sign
3314:src/xeq.c     **** 			if (xs)		// both negative
3315:src/xeq.c     **** 				isneg = xv > yv;
3316:src/xeq.c     **** 			else		// both positive
3317:src/xeq.c     **** 				isneg = xv < yv;
3318:src/xeq.c     **** 		} else
3319:src/xeq.c     **** 			isneg = xs;	// opposite signs
3320:src/xeq.c     **** 	} else {
3321:src/xeq.c     **** 		decNumber t, x, r;
3322:src/xeq.c     **** 
3323:src/xeq.c     **** 		getX(&x);
3324:src/xeq.c     **** 		if (decNumberIsNaN(&x))
3325:src/xeq.c     **** 			goto flse;
3326:src/xeq.c     **** 
3327:src/xeq.c     **** 		getRegister(&t, cmp);
3328:src/xeq.c     **** 		if (decNumberIsNaN(&t))
3329:src/xeq.c     **** 			goto flse;
3330:src/xeq.c     **** 
3331:src/xeq.c     **** 		if (op == TST_APX) {
3332:src/xeq.c     **** 			decNumberRnd(&x, &x);
ARM GAS  /tmp/ccBFDvgN.s 			page 69


3333:src/xeq.c     **** 			if (cmp < CONST_REG_BASE)
3334:src/xeq.c     **** 				decNumberRnd(&t, &t);
3335:src/xeq.c     **** 		}
3336:src/xeq.c     **** 		dn_compare(&r, &x, &t);
3337:src/xeq.c     **** 		iszero = dn_eq0(&r);
3338:src/xeq.c     **** 		isneg = decNumberIsNegative(&r);
3339:src/xeq.c     **** 	}
3340:src/xeq.c     **** 
3341:src/xeq.c     **** 	switch (op) {
3342:src/xeq.c     **** 	case TST_APX:
3343:src/xeq.c     **** 	case TST_EQ:	a = iszero;		break;
3344:src/xeq.c     **** 	case TST_NE:	a = !iszero;		break;
3345:src/xeq.c     **** 	case TST_LT:	a = isneg && !iszero;	break;
3346:src/xeq.c     **** 	case TST_LE:	a = isneg || iszero;	break;
3347:src/xeq.c     **** 	case TST_GT:	a = !isneg && !iszero;	break;
3348:src/xeq.c     **** 	case TST_GE:	a = !isneg || iszero;	break;
3349:src/xeq.c     **** 	default:	a = 0;			break;
3350:src/xeq.c     **** 	}
3351:src/xeq.c     **** 
3352:src/xeq.c     **** flse:	fin_tst(a);
3353:src/xeq.c     **** }
3354:src/xeq.c     **** 
3355:src/xeq.c     **** void check_zero(enum nilop op) {
3356:src/xeq.c     **** 	int neg;
3357:src/xeq.c     **** 	int zero;
3358:src/xeq.c     **** 
3359:src/xeq.c     **** 	if (is_intmode()) {
3360:src/xeq.c     **** 		const unsigned long long int xv = extract_value(getX_int(), &neg);
3361:src/xeq.c     **** 		zero = (xv == 0);
3362:src/xeq.c     **** 	} else {
3363:src/xeq.c     **** 		decNumber x;
3364:src/xeq.c     **** 		getX(&x);
3365:src/xeq.c     **** 		neg = decNumberIsNegative(&x);
3366:src/xeq.c     **** 		zero = dn_eq0(&x);
3367:src/xeq.c     **** 	}
3368:src/xeq.c     **** 	if (op == OP_Xeq_pos0)
3369:src/xeq.c     **** 		fin_tst(zero && !neg);
3370:src/xeq.c     **** 	else /* if (op == OP_Xeq_neg0) */
3371:src/xeq.c     **** 		fin_tst(zero && neg);
3372:src/xeq.c     **** }
3373:src/xeq.c     **** 
3374:src/xeq.c     **** void cmdtest(unsigned int arg, enum rarg op) {
3375:src/xeq.c     **** 	do_tst(arg, (enum tst_op)(op - RARG_TEST_EQ));
3376:src/xeq.c     **** }
3377:src/xeq.c     **** 
3378:src/xeq.c     **** static void do_ztst(const decNumber *re, const decNumber *im, enum tst_op op) {
3379:src/xeq.c     **** 	decNumber x, y;
3380:src/xeq.c     **** 
3381:src/xeq.c     **** 	process_cmdline_set_lift();
3382:src/xeq.c     **** 	if (is_intmode()) {
3383:src/xeq.c     **** 		bad_mode_error();
3384:src/xeq.c     **** 		return;
3385:src/xeq.c     **** 	}
3386:src/xeq.c     **** 	getXY(&x, &y);
3387:src/xeq.c     **** 	if (decNumberIsNaN(&x) || decNumberIsNaN(&y) || decNumberIsNaN(re) || decNumberIsNaN(im)) {
3388:src/xeq.c     **** 		fin_tst(0);
3389:src/xeq.c     **** 		return;
ARM GAS  /tmp/ccBFDvgN.s 			page 70


3390:src/xeq.c     **** 	}
3391:src/xeq.c     **** 	fin_tst((op == TST_EQ) == (dn_eq(&x, re) && dn_eq(&y, im)));
3392:src/xeq.c     **** }
3393:src/xeq.c     **** 
3394:src/xeq.c     **** void cmdztest(unsigned int arg, enum rarg op) {
3395:src/xeq.c     **** 	decNumber re, im;
3396:src/xeq.c     **** 	getRegister(&re, arg);
3397:src/xeq.c     **** 	getRegister(&im, arg + 1);
3398:src/xeq.c     **** 	do_ztst(&re, &im, (enum tst_op)(op - RARG_TEST_ZEQ));
3399:src/xeq.c     **** }
3400:src/xeq.c     **** 
3401:src/xeq.c     **** static int incdec(unsigned int arg, int inc) {
3402:src/xeq.c     **** 	if (is_intmode()) {
3403:src/xeq.c     **** 		long long int x = get_reg_n_int(arg);
3404:src/xeq.c     **** 		int xs;
3405:src/xeq.c     **** 		unsigned long long int xv;
3406:src/xeq.c     **** 
3407:src/xeq.c     **** 		if (inc)
3408:src/xeq.c     **** 			x = intAdd(x, 1LL);
3409:src/xeq.c     **** 		else
3410:src/xeq.c     **** 			x = intSubtract(x, 1LL);
3411:src/xeq.c     **** 		set_reg_n_int(arg, x);
3412:src/xeq.c     **** 
3413:src/xeq.c     **** 		xv = extract_value(x, &xs);
3414:src/xeq.c     **** 		return xv != 0;
3415:src/xeq.c     **** 	} else {
3416:src/xeq.c     **** 		decNumber x, y;
3417:src/xeq.c     **** 
3418:src/xeq.c     **** 		getRegister(&x, arg);
3419:src/xeq.c     **** 		if (inc)
3420:src/xeq.c     **** 			dn_inc(&x);
3421:src/xeq.c     **** 		else
3422:src/xeq.c     **** 			dn_dec(&x);
3423:src/xeq.c     **** 		setRegister(arg, &x);
3424:src/xeq.c     **** 		decNumberTrunc(&y, &x);
3425:src/xeq.c     **** 		return ! dn_eq0(&y);
3426:src/xeq.c     **** 	}
3427:src/xeq.c     **** }
3428:src/xeq.c     **** 
3429:src/xeq.c     **** void cmdlincdec(unsigned int arg, enum rarg op) {
3430:src/xeq.c     **** 	incdec(arg, op == RARG_INC);
3431:src/xeq.c     **** }
3432:src/xeq.c     **** 
3433:src/xeq.c     **** void cmdloopz(unsigned int arg, enum rarg op) {
3434:src/xeq.c     **** 	fin_tst(incdec(arg, op == RARG_ISZ));
3435:src/xeq.c     **** }
3436:src/xeq.c     **** 
3437:src/xeq.c     **** void cmdloop(unsigned int arg, enum rarg op) {
3438:src/xeq.c     **** 	if (is_intmode()) {
3439:src/xeq.c     **** 		long long int x = get_reg_n_int(arg);
3440:src/xeq.c     **** 		int xs;
3441:src/xeq.c     **** 		unsigned long long int xv;
3442:src/xeq.c     **** 
3443:src/xeq.c     **** 		if (op == RARG_ISG || op == RARG_ISE)
3444:src/xeq.c     **** 			x = intAdd(x, 1LL);
3445:src/xeq.c     **** 		else
3446:src/xeq.c     **** 			x = intSubtract(x, 1LL);
ARM GAS  /tmp/ccBFDvgN.s 			page 71


3447:src/xeq.c     **** 		set_reg_n_int(arg, x);
3448:src/xeq.c     **** 
3449:src/xeq.c     **** 		xv = extract_value(x, &xs);
3450:src/xeq.c     **** 		if (op == RARG_ISG)
3451:src/xeq.c     **** 			fin_tst(! (xs == 0 && xv > 0));		// > 0
3452:src/xeq.c     **** 		else if (op == RARG_DSE)
3453:src/xeq.c     **** 			fin_tst(! (xs != 0 || xv == 0));	// <= 0
3454:src/xeq.c     **** 		else if (op == RARG_ISE)
3455:src/xeq.c     **** 			fin_tst(! (xs == 0 || xv == 0));	// >= 0
3456:src/xeq.c     **** 		else // if (op == RARG_DSL)
3457:src/xeq.c     **** 			fin_tst(! (xs != 0 && xv > 0));		// < 0
3458:src/xeq.c     **** 		return;
3459:src/xeq.c     **** 	} else {
3460:src/xeq.c     **** 		decNumber x, i, f, n, u;
3461:src/xeq.c     **** 
3462:src/xeq.c     **** 		getRegister(&x, arg);
3463:src/xeq.c     **** 
3464:src/xeq.c     **** 		// Break the number into the important bits
3465:src/xeq.c     **** 		// nnnnn.fffii
3466:src/xeq.c     **** 		dn_abs(&f, &x);
3467:src/xeq.c     **** 		decNumberTrunc(&n, &f);			// n = nnnnn
3468:src/xeq.c     **** 		dn_subtract(&u, &f, &n);		// u = .fffii
3469:src/xeq.c     **** 		if (decNumberIsNegative(&x))
3470:src/xeq.c     **** 			dn_minus(&n, &n);
3471:src/xeq.c     **** 		dn_mulpow10(&i, &u, 3);			// i = fff.ii
3472:src/xeq.c     **** 		decNumberTrunc(&f, &i);			// f = fff
3473:src/xeq.c     **** 		dn_subtract(&i, &i, &f);		// i = .ii
3474:src/xeq.c     **** 		dn_mul100(&x, &i);
3475:src/xeq.c     **** 		decNumberTrunc(&i, &x);			// i = ii
3476:src/xeq.c     **** 		if (dn_eq0(&i))
3477:src/xeq.c     **** 			dn_1(&i);
3478:src/xeq.c     **** 
3479:src/xeq.c     **** 		if (op == RARG_ISG || op == RARG_ISE) {
3480:src/xeq.c     **** 			dn_add(&n, &n, &i);
3481:src/xeq.c     **** 			dn_compare(&x, &f, &n);
3482:src/xeq.c     **** 			if (op == RARG_ISE)
3483:src/xeq.c     **** 				fin_tst(dn_gt0(&x));
3484:src/xeq.c     **** 			else
3485:src/xeq.c     **** 				fin_tst(dn_ge0(&x));
3486:src/xeq.c     **** 		} else {
3487:src/xeq.c     **** 			dn_subtract(&n, &n, &i);
3488:src/xeq.c     **** 			dn_compare(&x, &f, &n);
3489:src/xeq.c     **** 			if (op == RARG_DSL)
3490:src/xeq.c     **** 				fin_tst(dn_le0(&x));
3491:src/xeq.c     **** 			else
3492:src/xeq.c     **** 				fin_tst(dn_lt0(&x));
3493:src/xeq.c     **** 		}
3494:src/xeq.c     **** 
3495:src/xeq.c     **** 		// Finally rebuild the result
3496:src/xeq.c     **** 		if (decNumberIsNegative(&n)) {
3497:src/xeq.c     **** 			dn_subtract(&x, &n, &u);
3498:src/xeq.c     **** 		} else
3499:src/xeq.c     **** 			dn_add(&x, &n, &u);
3500:src/xeq.c     **** 		setRegister(arg, &x);
3501:src/xeq.c     **** 	}
3502:src/xeq.c     **** }
3503:src/xeq.c     **** 
ARM GAS  /tmp/ccBFDvgN.s 			page 72


3504:src/xeq.c     **** 
3505:src/xeq.c     **** /* Shift a real number by 10 to the specified power
3506:src/xeq.c     ****  */
3507:src/xeq.c     **** void op_shift_digit(unsigned int n, enum rarg op) {
3508:src/xeq.c     **** 	decNumber x;
3509:src/xeq.c     **** 	int adjust = n;
3510:src/xeq.c     **** 
3511:src/xeq.c     **** 	if (is_intmode()) {
3512:src/xeq.c     **** 		bad_mode_error();
3513:src/xeq.c     **** 		return;
3514:src/xeq.c     **** 	}
3515:src/xeq.c     **** 	getX(&x);
3516:src/xeq.c     **** 	setlastX();
3517:src/xeq.c     **** 	if (decNumberIsSpecial(&x) || dn_eq0(&x))
3518:src/xeq.c     **** 		return;
3519:src/xeq.c     **** 	if (op == RARG_SRD)
3520:src/xeq.c     **** 		adjust = -adjust;
3521:src/xeq.c     **** 	x.exponent += adjust;
3522:src/xeq.c     **** 	setX(&x);
3523:src/xeq.c     **** }
3524:src/xeq.c     **** 
3525:src/xeq.c     **** 
3526:src/xeq.c     **** /* Return a pointer to the byte with the indicated flag in it.
3527:src/xeq.c     ****  * also return a byte with the relevant bit mask set up.
3528:src/xeq.c     ****  * Also, handle local flags.
3529:src/xeq.c     ****  */
3530:src/xeq.c     **** static unsigned short int *flag_word(int n, unsigned short int *mask) {
 457              		.loc 1 3530 71 is_stmt 1 view -0
 458              		.cfi_startproc
 459              		@ args = 0, pretend = 0, frame = 0
 460              		@ frame_needed = 0, uses_anonymous_args = 0
 461              		@ link register save eliminated.
3531:src/xeq.c     **** 	unsigned short int *p;
 462              		.loc 1 3531 2 view .LVU141
3532:src/xeq.c     **** 
3533:src/xeq.c     **** 	if (n >= LOCAL_FLAG_BASE) {
 463              		.loc 1 3533 2 view .LVU142
 464              		.loc 1 3533 5 is_stmt 0 view .LVU143
 465 0000 6F28     		cmp	r0, #111
3530:src/xeq.c     **** 	unsigned short int *p;
 466              		.loc 1 3530 71 view .LVU144
 467 0002 10B4     		push	{r4}
 468              		.cfi_def_cfa_offset 4
 469              		.cfi_offset 4, -4
 470              		.loc 1 3533 5 view .LVU145
 471 0004 29DD     		ble	.L42
3534:src/xeq.c     **** 		n -= LOCAL_FLAG_BASE;
 472              		.loc 1 3534 3 is_stmt 1 view .LVU146
 473              		.loc 1 3534 5 is_stmt 0 view .LVU147
 474 0006 7038     		subs	r0, r0, #112
 475              	.LVL39:
3535:src/xeq.c     **** 		if (n > XROM_SYSTEM_FLAG_BASE && XromFlags.xIN) {
 476              		.loc 1 3535 3 is_stmt 1 view .LVU148
 477              		.loc 1 3535 6 is_stmt 0 view .LVU149
 478 0008 0828     		cmp	r0, #8
 479 000a 04DD     		ble	.L43
 480              		.loc 1 3535 33 discriminator 1 view .LVU150
ARM GAS  /tmp/ccBFDvgN.s 			page 73


 481 000c 174B     		ldr	r3, .L54
 482 000e 93F90120 		ldrsb	r2, [r3, #1]
 483 0012 002A     		cmp	r2, #0
 484 0014 15DB     		blt	.L44
 485              	.L43:
3536:src/xeq.c     **** 			// XROM special
3537:src/xeq.c     **** 			p = &XromFlagWord;
3538:src/xeq.c     **** 		}
3539:src/xeq.c     **** 		else if (LocalRegs & 1) {
 486              		.loc 1 3539 8 is_stmt 1 view .LVU151
 487              		.loc 1 3539 12 is_stmt 0 view .LVU152
 488 0016 164B     		ldr	r3, .L54+4
 489 0018 1B68     		ldr	r3, [r3]
 490 001a B3F9DE27 		ldrsh	r2, [r3, #2014]
3540:src/xeq.c     **** 			// Odd frame: flags are at end of frame
3541:src/xeq.c     **** 			p = RetStk + LocalRegs + local_levels() - 1;
 491              		.loc 1 3541 44 view .LVU153
 492 001e 154B     		ldr	r3, .L54+8
3539:src/xeq.c     **** 			// Odd frame: flags are at end of frame
 493              		.loc 1 3539 11 view .LVU154
 494 0020 D407     		lsls	r4, r2, #31
 495              		.loc 1 3541 44 view .LVU155
 496 0022 1B68     		ldr	r3, [r3]
3539:src/xeq.c     **** 			// Odd frame: flags are at end of frame
 497              		.loc 1 3539 11 view .LVU156
 498 0024 1ED5     		bpl	.L45
 499              		.loc 1 3541 4 is_stmt 1 view .LVU157
 500              	.LBB1333:
 501              	.LBI1333:
 217:src/xeq.c     **** 	return LocalRegs < 0 ? LOCAL_LEVELS(RetStk[LocalRegs]) : 0;
 502              		.loc 1 217 5 view .LVU158
 503              	.LBB1334:
 218:src/xeq.c     **** }
 504              		.loc 1 218 2 view .LVU159
 218:src/xeq.c     **** }
 505              		.loc 1 218 57 is_stmt 0 view .LVU160
 506 0026 002A     		cmp	r2, #0
 507 0028 B8BF     		it	lt
 508 002a 33F81240 		ldrhlt	r4, [r3, r2, lsl #1]
 509              	.LBE1334:
 510              	.LBE1333:
 511              		.loc 1 3541 44 view .LVU161
 512 002e 02F10042 		add	r2, r2, #-2147483648
 513 0032 B4BF     		ite	lt
 514 0034 C4F30B04 		ubfxlt	r4, r4, #0, #12
 515              	.LBB1336:
 516              	.LBB1335:
 517 0038 0024     		movge	r4, #0
 518              	.LBE1335:
 519              	.LBE1336:
 520 003a 013A     		subs	r2, r2, #1
 521 003c 2244     		add	r2, r2, r4
 522              		.loc 1 3541 6 view .LVU162
 523 003e 03EB4203 		add	r3, r3, r2, lsl #1
 524              	.LVL40:
 525              	.L44:
3542:src/xeq.c     **** 		}
ARM GAS  /tmp/ccBFDvgN.s 			page 74


3543:src/xeq.c     **** 		else {
3544:src/xeq.c     **** 			// Even frame: Flags are at beginning of frame
3545:src/xeq.c     **** 			p = RetStk + LocalRegs + 1;
3546:src/xeq.c     **** 		}
3547:src/xeq.c     **** 	}
3548:src/xeq.c     **** 	else
3549:src/xeq.c     **** 		p = UserFlags;
3550:src/xeq.c     **** 
3551:src/xeq.c     **** 	if (mask != NULL)
 526              		.loc 1 3551 2 is_stmt 1 view .LVU163
 527              		.loc 1 3551 5 is_stmt 0 view .LVU164
 528 0042 21B1     		cbz	r1, .L47
3552:src/xeq.c     **** 		*mask = 1 << (n & 15);
 529              		.loc 1 3552 3 is_stmt 1 view .LVU165
 530              		.loc 1 3552 19 is_stmt 0 view .LVU166
 531 0044 00F00F04 		and	r4, r0, #15
 532              		.loc 1 3552 13 view .LVU167
 533 0048 0122     		movs	r2, #1
 534 004a A240     		lsls	r2, r2, r4
 535              		.loc 1 3552 9 view .LVU168
 536 004c 0A80     		strh	r2, [r1]	@ movhi
 537              	.L47:
3553:src/xeq.c     **** 	return p + (n >> 4);
 538              		.loc 1 3553 2 is_stmt 1 view .LVU169
 539              		.loc 1 3553 16 is_stmt 0 view .LVU170
 540 004e 0011     		asrs	r0, r0, #4
 541              	.LVL41:
3554:src/xeq.c     **** }
 542              		.loc 1 3554 1 view .LVU171
 543 0050 03EB4000 		add	r0, r3, r0, lsl #1
 544 0054 5DF8044B 		ldr	r4, [sp], #4
 545              		.cfi_remember_state
 546              		.cfi_restore 4
 547              		.cfi_def_cfa_offset 0
 548 0058 7047     		bx	lr
 549              	.LVL42:
 550              	.L42:
 551              		.cfi_restore_state
3549:src/xeq.c     **** 
 552              		.loc 1 3549 3 is_stmt 1 view .LVU172
3549:src/xeq.c     **** 
 553              		.loc 1 3549 7 is_stmt 0 view .LVU173
 554 005a 054B     		ldr	r3, .L54+4
3549:src/xeq.c     **** 
 555              		.loc 1 3549 5 view .LVU174
 556 005c 1B68     		ldr	r3, [r3]
 557 005e 03F5FE63 		add	r3, r3, #2032
 558              	.LVL43:
3549:src/xeq.c     **** 
 559              		.loc 1 3549 5 view .LVU175
 560 0062 EEE7     		b	.L44
 561              	.LVL44:
 562              	.L45:
3545:src/xeq.c     **** 		}
 563              		.loc 1 3545 4 is_stmt 1 view .LVU176
3545:src/xeq.c     **** 		}
 564              		.loc 1 3545 27 is_stmt 0 view .LVU177
ARM GAS  /tmp/ccBFDvgN.s 			page 75


 565 0064 0132     		adds	r2, r2, #1
3545:src/xeq.c     **** 		}
 566              		.loc 1 3545 6 view .LVU178
 567 0066 03EB4203 		add	r3, r3, r2, lsl #1
 568              	.LVL45:
3545:src/xeq.c     **** 		}
 569              		.loc 1 3545 6 view .LVU179
 570 006a EAE7     		b	.L44
 571              	.L55:
 572              		.align	2
 573              	.L54:
 574 006c 00000000 		.word	XromParams
 575 0070 00000000 		.word	main_ram
 576 0074 00000000 		.word	RetStk
 577              		.cfi_endproc
 578              	.LFE198:
 580              		.section	.text.set_zero,"ax",%progbits
 581              		.align	1
 582              		.p2align 2,,3
 583              		.syntax unified
 584              		.thumb
 585              		.thumb_func
 586              		.fpu fpv4-sp-d16
 588              	set_zero:
 589              	.LVL46:
 590              	.LFB106:
1546:src/xeq.c     **** 	zero_regs(x, 1);
 591              		.loc 1 1546 35 is_stmt 1 view -0
 592              		.cfi_startproc
 593              		@ args = 0, pretend = 0, frame = 0
 594              		@ frame_needed = 0, uses_anonymous_args = 0
 595              		@ link register save eliminated.
1547:src/xeq.c     **** }
 596              		.loc 1 1547 2 view .LVU181
 597              	.LBB1337:
 598              	.LBI1337:
1518:src/xeq.c     **** #if 0
 599              		.loc 1 1518 6 view .LVU182
 600              	.LBB1338:
1533:src/xeq.c     **** #endif
 601              		.loc 1 1533 2 view .LVU183
 602              	.LBB1339:
 603              	.LBI1339:
1118:src/xeq.c     **** 	return (! UState.intm && UState.mode_double);
 604              		.loc 1 1118 5 view .LVU184
 605              	.LBB1340:
1119:src/xeq.c     **** }
 606              		.loc 1 1119 2 view .LVU185
1119:src/xeq.c     **** }
 607              		.loc 1 1119 24 is_stmt 0 view .LVU186
 608 0000 074B     		ldr	r3, .L57
 609 0002 1B68     		ldr	r3, [r3]
 610 0004 B3F8E837 		ldrh	r3, [r3, #2024]
 611 0008 44F20102 		movw	r2, #16385
 612 000c 1A40     		ands	r2, r2, r3
 613              	.LBE1340:
 614              	.LBE1339:
ARM GAS  /tmp/ccBFDvgN.s 			page 76


1533:src/xeq.c     **** #endif
 615              		.loc 1 1533 2 view .LVU187
 616 000e B2F5804F 		cmp	r2, #16384
 617 0012 0CBF     		ite	eq
 618 0014 1022     		moveq	r2, #16
 619 0016 0822     		movne	r2, #8
 620 0018 0021     		movs	r1, #0
 621 001a FFF7FEBF 		b	xset
 622              	.LVL47:
 623              	.L58:
1533:src/xeq.c     **** #endif
 624              		.loc 1 1533 2 view .LVU188
 625 001e 00BF     		.align	2
 626              	.L57:
 627 0020 00000000 		.word	main_ram
 628              	.LBE1338:
 629              	.LBE1337:
 630              		.cfi_endproc
 631              	.LFE106:
 633              		.section	.text.intResult,"ax",%progbits
 634              		.align	1
 635              		.p2align 2,,3
 636              		.syntax unified
 637              		.thumb
 638              		.thumb_func
 639              		.fpu fpv4-sp-d16
 641              	intResult:
 642              	.LVL48:
 643              	.LFB239:
3555:src/xeq.c     **** 
3556:src/xeq.c     **** int get_user_flag(int n) {
3557:src/xeq.c     **** 	unsigned short mask;
3558:src/xeq.c     **** 	const unsigned short *const f = flag_word(n, &mask);
3559:src/xeq.c     **** 
3560:src/xeq.c     **** 	return (*f & mask)? 1 : 0;
3561:src/xeq.c     **** }
3562:src/xeq.c     **** 
3563:src/xeq.c     **** void put_user_flag(int n, int f) {
3564:src/xeq.c     **** 	if (f)	set_user_flag(n);
3565:src/xeq.c     **** 	else	clr_user_flag(n);
3566:src/xeq.c     **** }
3567:src/xeq.c     **** 
3568:src/xeq.c     **** #ifndef set_user_flag
3569:src/xeq.c     **** void set_user_flag(int n) {
3570:src/xeq.c     **** 	unsigned short mask;
3571:src/xeq.c     **** 	unsigned short *const f = flag_word(n, &mask);
3572:src/xeq.c     **** 
3573:src/xeq.c     **** 	*f |= mask;
3574:src/xeq.c     **** }
3575:src/xeq.c     **** 
3576:src/xeq.c     **** void clr_user_flag(int n) {
3577:src/xeq.c     **** 	unsigned short mask;
3578:src/xeq.c     **** 	unsigned short *const f = flag_word(n, &mask);
3579:src/xeq.c     **** 
3580:src/xeq.c     **** 	*f &= ~mask;
3581:src/xeq.c     **** }
3582:src/xeq.c     **** #endif
ARM GAS  /tmp/ccBFDvgN.s 			page 77


3583:src/xeq.c     **** 
3584:src/xeq.c     **** void cmdflag(unsigned int arg, enum rarg op) {
3585:src/xeq.c     **** 	unsigned short mask;
3586:src/xeq.c     **** 	unsigned short *const f = flag_word(arg, &mask);
3587:src/xeq.c     **** 	int flg = *f & mask;
3588:src/xeq.c     **** 
3589:src/xeq.c     **** 	switch (op) {
3590:src/xeq.c     **** 	case RARG_SF:	flg = 1;			   break;
3591:src/xeq.c     **** 	case RARG_CF:	flg = 0;			   break;
3592:src/xeq.c     **** 	case RARG_FF:	flg = flg? 0 : 1;		   break;
3593:src/xeq.c     **** 
3594:src/xeq.c     **** 	case RARG_FS:	fin_tst(flg);			   return;
3595:src/xeq.c     **** 	case RARG_FC:	fin_tst(! flg);			   return;
3596:src/xeq.c     **** 
3597:src/xeq.c     **** 	case RARG_FSC:	fin_tst(flg); flg = 0;		   break;
3598:src/xeq.c     **** 	case RARG_FSS:	fin_tst(flg); flg = 1;		   break;
3599:src/xeq.c     **** 	case RARG_FSF:	fin_tst(flg); flg = flg ? 0 : 1;   break;
3600:src/xeq.c     **** 
3601:src/xeq.c     **** 	case RARG_FCC:	fin_tst(! flg);	flg = 0;	   break;
3602:src/xeq.c     **** 	case RARG_FCS:	fin_tst(! flg);	flg = 1;	   break;
3603:src/xeq.c     **** 	case RARG_FCF:	fin_tst(! flg);	flg = flg ? 0 : 1; break;
3604:src/xeq.c     **** 
3605:src/xeq.c     **** 	default:
3606:src/xeq.c     **** 		return;
3607:src/xeq.c     **** 	}
3608:src/xeq.c     **** 
3609:src/xeq.c     **** 	// And write the value back
3610:src/xeq.c     **** 	if (flg)
3611:src/xeq.c     **** 		*f |= mask;
3612:src/xeq.c     **** 	else
3613:src/xeq.c     **** 		*f &= ~mask;
3614:src/xeq.c     **** 
3615:src/xeq.c     **** 	if ( arg == A_FLAG ) {
3616:src/xeq.c     **** 		dot( BIG_EQ, flg );
3617:src/xeq.c     **** 		finish_display(); // BIG_EQ
3618:src/xeq.c     **** 	}
3619:src/xeq.c     **** }
3620:src/xeq.c     **** 
3621:src/xeq.c     **** /* Reset all flags to off/false
3622:src/xeq.c     ****  */
3623:src/xeq.c     **** void clrflags(enum nilop op) {
3624:src/xeq.c     **** 	xset(UserFlags, 0, sizeof(UserFlags));
3625:src/xeq.c     **** 	if (LocalRegs < 0) {
3626:src/xeq.c     **** 		* flag_word(LOCAL_REG_BASE, NULL) = 0;
3627:src/xeq.c     **** 	}
3628:src/xeq.c     **** }
3629:src/xeq.c     **** 
3630:src/xeq.c     **** 
3631:src/xeq.c     **** /* Integer word size
3632:src/xeq.c     ****  */
3633:src/xeq.c     **** void intws(unsigned int arg, enum rarg op) {
3634:src/xeq.c     **** 	if (is_intmode()) {
3635:src/xeq.c     **** 		int i, ss = stack_size();
3636:src/xeq.c     **** 		unsigned int oldlen = UState.int_len;
3637:src/xeq.c     **** 		long long int v;
3638:src/xeq.c     **** 
3639:src/xeq.c     **** 		for (i=0; i<ss; i++) {
ARM GAS  /tmp/ccBFDvgN.s 			page 78


3640:src/xeq.c     **** 			v = mask_value(get_reg_n_int(regX_idx + i));
3641:src/xeq.c     **** 			UState.int_len = arg;
3642:src/xeq.c     **** 			set_reg_n_int(regX_idx + i, mask_value(v));
3643:src/xeq.c     **** 			UState.int_len = oldlen;
3644:src/xeq.c     **** 		}
3645:src/xeq.c     **** 		v = mask_value(get_reg_n_int(regL_idx));
3646:src/xeq.c     **** 		UState.int_len = arg;
3647:src/xeq.c     **** 		set_reg_n_int(regL_idx, mask_value(v));
3648:src/xeq.c     **** 	} else
3649:src/xeq.c     **** 	    UState.int_len = arg;
3650:src/xeq.c     **** }
3651:src/xeq.c     **** 
3652:src/xeq.c     **** 
3653:src/xeq.c     **** /* Convert from a real to a fraction
3654:src/xeq.c     ****  */
3655:src/xeq.c     **** 
3656:src/xeq.c     **** void get_maxdenom(decNumber *d) {
3657:src/xeq.c     **** 	const unsigned int dm = UState.denom_max;
3658:src/xeq.c     **** 	int_to_dn(d, dm==0?9999:dm);
3659:src/xeq.c     **** }
3660:src/xeq.c     **** 
3661:src/xeq.c     **** void op_2frac(enum nilop op) {
3662:src/xeq.c     **** 	decNumber z, n, d, t;
3663:src/xeq.c     **** 
3664:src/xeq.c     **** 	if (UState.intm) {
3665:src/xeq.c     **** 		setX_int(1);
3666:src/xeq.c     **** 		return;
3667:src/xeq.c     **** 	}
3668:src/xeq.c     **** 
3669:src/xeq.c     **** 	getY(&z);			// Stack has been lifted already
3670:src/xeq.c     **** 	decNumber2Fraction(&n, &d, &z);
3671:src/xeq.c     **** 	setXY(&d, &n);			// Set numerator and denominator
3672:src/xeq.c     **** 	if (State2.runmode) {
3673:src/xeq.c     **** 		dn_divide(&t, &n, &d);
3674:src/xeq.c     **** 		dn_compare(&n, &t, &z);
3675:src/xeq.c     **** 		if (dn_eq0(&n))
3676:src/xeq.c     **** 			DispMsg = "y/x =";
3677:src/xeq.c     **** 		else if (decNumberIsNegative(&n))
3678:src/xeq.c     **** #ifdef INCLUDE_FONT_ESCAPE
3679:src/xeq.c     **** 			DispMsg = "y/x \007\344<";
3680:src/xeq.c     **** 		else
3681:src/xeq.c     **** 			DispMsg = "y/x \007\344>";
3682:src/xeq.c     **** #else
3683:src/xeq.c     **** 			DispMsg = "y/x <";
3684:src/xeq.c     **** 		else
3685:src/xeq.c     **** 			DispMsg = "y/x >";
3686:src/xeq.c     **** #endif
3687:src/xeq.c     **** 	}
3688:src/xeq.c     **** }
3689:src/xeq.c     **** 
3690:src/xeq.c     **** void op_fracdenom(enum nilop op) {
3691:src/xeq.c     **** 	int s;
3692:src/xeq.c     **** 	unsigned long long int i;
3693:src/xeq.c     **** 
3694:src/xeq.c     **** 	i = getX_int_sgn(&s);
3695:src/xeq.c     **** 	if (i > 9999)
3696:src/xeq.c     **** 		UState.denom_max = 0;
ARM GAS  /tmp/ccBFDvgN.s 			page 79


3697:src/xeq.c     **** 	else if (i != 1)
3698:src/xeq.c     **** 		UState.denom_max = (unsigned int) i;
3699:src/xeq.c     **** 	else {
3700:src/xeq.c     **** 		setlastX();
3701:src/xeq.c     **** 		setX_int_sgn(UState.denom_max, 0);
3702:src/xeq.c     **** 	}
3703:src/xeq.c     **** }
3704:src/xeq.c     **** 
3705:src/xeq.c     **** 
3706:src/xeq.c     **** /*  Switching from an integer mode to real mode
3707:src/xeq.c     ****  *  We convert the stack and LastX 
3708:src/xeq.c     ****  */
3709:src/xeq.c     **** static const unsigned short int StackRegMask[] = { 0x10f, 0x1ff };
3710:src/xeq.c     **** 
3711:src/xeq.c     **** void op_float(enum nilop op) {
3712:src/xeq.c     **** 
3713:src/xeq.c     **** 	if (is_intmode()) {
3714:src/xeq.c     **** 		int i;
3715:src/xeq.c     **** 		int mask = StackRegMask[UState.stack_depth];
3716:src/xeq.c     **** 		for (i = regX_idx; i <= regK_idx; ++i, mask >>= 1) {
3717:src/xeq.c     **** 			if (mask & 1) {
3718:src/xeq.c     **** 				// register belongs to stack
3719:src/xeq.c     **** 				register_from_int(i, i, op == OP_FLOAT_XIN);
3720:src/xeq.c     **** 			}
3721:src/xeq.c     **** 			else if (is_dblmode()) {
3722:src/xeq.c     **** 				// expand the other registers which have been left
3723:src/xeq.c     **** 				// in decimal64 format by the integer mode switch
3724:src/xeq.c     **** 				packed128_from_packed(&(get_reg_n(i)->d), Regs + i);
3725:src/xeq.c     **** 			}
3726:src/xeq.c     **** 		}
3727:src/xeq.c     **** 	}
3728:src/xeq.c     **** 	if (op != OP_FLOAT_XIN && op != OP_FLOAT_RCLM) {
3729:src/xeq.c     **** 		UState.fract = 0;
3730:src/xeq.c     **** 		State2.hms = (op == OP_HMS) ? 1 : 0;
3731:src/xeq.c     **** 	}
3732:src/xeq.c     **** 	StackBase = get_reg_n(regX_idx);
3733:src/xeq.c     **** }
3734:src/xeq.c     **** 
3735:src/xeq.c     **** /*  Switch to integer mode.
3736:src/xeq.c     ****  *  We convert the stack and LastX
3737:src/xeq.c     ****  */
3738:src/xeq.c     **** static void switch_to_int(void) {
3739:src/xeq.c     **** 	int i;
3740:src/xeq.c     **** 	int mask = StackRegMask[UState.stack_depth];
3741:src/xeq.c     **** 	const int dbl = is_dblmode();
3742:src/xeq.c     **** 
3743:src/xeq.c     **** 	for (i = regK_idx; i >= regX_idx; --i, mask <<= 1) {
3744:src/xeq.c     **** 		if (mask & 0x800) {
3745:src/xeq.c     **** 			// register belongs to stack
3746:src/xeq.c     **** 			int_from_register(i, i);
3747:src/xeq.c     **** 		}
3748:src/xeq.c     **** 		else if (dbl) {
3749:src/xeq.c     **** 			// compress the other registers to save them while integer mode is active
3750:src/xeq.c     **** 			packed_from_packed128(Regs + i, &(get_reg_n(i)->d));
3751:src/xeq.c     **** 		}
3752:src/xeq.c     **** 	}
3753:src/xeq.c     **** }
ARM GAS  /tmp/ccBFDvgN.s 			page 80


3754:src/xeq.c     **** 
3755:src/xeq.c     **** static void set_base(unsigned int b) {
3756:src/xeq.c     **** 	UState.int_base = b - 1;
3757:src/xeq.c     **** 	if (!is_intmode())
3758:src/xeq.c     **** 		switch_to_int();
3759:src/xeq.c     **** }
3760:src/xeq.c     **** 
3761:src/xeq.c     **** void set_int_base(unsigned int arg, enum rarg op) {
3762:src/xeq.c     **** 	if (arg < 2) {
3763:src/xeq.c     **** 		if (arg == 0)
3764:src/xeq.c     **** 			op_float(OP_FLOAT);
3765:src/xeq.c     **** 		else
3766:src/xeq.c     **** 			op_fract(OP_FRACT);
3767:src/xeq.c     **** 	} else
3768:src/xeq.c     **** 		set_base(arg);
3769:src/xeq.c     **** }
3770:src/xeq.c     **** 
3771:src/xeq.c     **** 
3772:src/xeq.c     **** void op_fract(enum nilop op) {
3773:src/xeq.c     **** 	op_float(OP_FLOAT);
3774:src/xeq.c     **** 	UState.fract = 1;
3775:src/xeq.c     **** 	if (op == OP_FRACIMPROPER)
3776:src/xeq.c     **** 		UState.improperfrac = 1;
3777:src/xeq.c     **** 	else if (op == OP_FRACPROPER)
3778:src/xeq.c     **** 		UState.improperfrac = 0;
3779:src/xeq.c     **** }
3780:src/xeq.c     **** 
3781:src/xeq.c     **** #ifdef INCLUDE_USER_MODE
3782:src/xeq.c     **** /* Save and restore user state.
3783:src/xeq.c     ****  */
3784:src/xeq.c     **** void cmdsavem(unsigned int arg, enum rarg op) {
3785:src/xeq.c     **** 	xcopy( get_reg_n(arg), &UState, sizeof(unsigned long long int) );
3786:src/xeq.c     **** }
3787:src/xeq.c     **** 
3788:src/xeq.c     **** void cmdrestm(unsigned int arg, enum rarg op) {
3789:src/xeq.c     **** 	const int dbl = is_dblmode();
3790:src/xeq.c     **** 	const int intm = is_intmode();
3791:src/xeq.c     **** 	xcopy( &UState, get_reg_n(arg), sizeof(unsigned long long int) );
3792:src/xeq.c     **** 
3793:src/xeq.c     **** 	// Fix things
3794:src/xeq.c     **** #ifndef DM42
3795:src/xeq.c     **** 	if ( UState.contrast == 0 )
3796:src/xeq.c     **** 		UState.contrast = 6;
3797:src/xeq.c     **** #endif
3798:src/xeq.c     **** 	if (intm != is_intmode()) {
3799:src/xeq.c     **** 		// Switch back to decimal or integer mode
3800:src/xeq.c     **** 		UState.intm = intm;
3801:src/xeq.c     **** 		if (intm)
3802:src/xeq.c     **** 			op_float(OP_FLOAT_RCLM);
3803:src/xeq.c     **** 		else
3804:src/xeq.c     **** 			switch_to_int();
3805:src/xeq.c     **** 	}
3806:src/xeq.c     **** 	if (! is_intmode() && dbl != is_dblmode()) {
3807:src/xeq.c     **** 		// Switch back to double/single precision
3808:src/xeq.c     **** 		UState.mode_double = dbl;
3809:src/xeq.c     **** 		op_double(dbl ? OP_DBLOFF : OP_DBLON);
3810:src/xeq.c     **** 	}
ARM GAS  /tmp/ccBFDvgN.s 			page 81


3811:src/xeq.c     **** }
3812:src/xeq.c     **** #endif
3813:src/xeq.c     **** 
3814:src/xeq.c     **** /* Process a single digit.
3815:src/xeq.c     ****  */
3816:src/xeq.c     **** #if 0 // unused
3817:src/xeq.c     **** static int is_digit(const char c) {
3818:src/xeq.c     **** 	if (c >= '0' && c <= '9')
3819:src/xeq.c     **** 		return 1;
3820:src/xeq.c     **** 	return 0;
3821:src/xeq.c     **** }
3822:src/xeq.c     **** 
3823:src/xeq.c     **** static int is_xdigit(const char c) {
3824:src/xeq.c     **** 	if (is_digit(c) || (c >= 'A' && c <= 'F'))
3825:src/xeq.c     **** 		return 1;
3826:src/xeq.c     **** 	return 0;
3827:src/xeq.c     **** }
3828:src/xeq.c     **** #endif
3829:src/xeq.c     **** 
3830:src/xeq.c     **** static void digit(unsigned int c) {
3831:src/xeq.c     **** 	const int intm = is_intmode();
3832:src/xeq.c     **** 	int lim = DISPLAY_DIGITS;
3833:src/xeq.c     **** 
3834:src/xeq.c     **** 	if (Cmdline[0] == '-')
3835:src/xeq.c     **** 		lim++;
3836:src/xeq.c     **** 	if (intm) {
3837:src/xeq.c     **** 		if (c >= int_base()) {
3838:src/xeq.c     **** 			report_warn(ERR_DIGIT);
3839:src/xeq.c     **** 			return;
3840:src/xeq.c     **** 		}
3841:src/xeq.c     **** 	} else {
3842:src/xeq.c     **** 		if (c >= 10) {
3843:src/xeq.c     **** 			report_warn(ERR_DIGIT);
3844:src/xeq.c     **** 			return;
3845:src/xeq.c     **** 		}
3846:src/xeq.c     **** 
3847:src/xeq.c     **** 		if (CmdLineEex) {
3848:src/xeq.c     **** 			lim = CMDLINELEN;
3849:src/xeq.c     **** #ifdef SHIFT_EXPONENT
3850:src/xeq.c     **** 			if (CmdLineLength >= lim) {
3851:src/xeq.c     **** 				char *p = &Cmdline[CmdLineEex + 1];
3852:src/xeq.c     **** 
3853:src/xeq.c     **** 				if (*p == '-')
3854:src/xeq.c     **** 					p++;
3855:src/xeq.c     **** 				while (p < &Cmdline[CMDLINELEN]) {
3856:src/xeq.c     **** 					p[0] = p[1];
3857:src/xeq.c     **** 					p++;
3858:src/xeq.c     **** 				}
3859:src/xeq.c     **** 				CmdLineLength--;
3860:src/xeq.c     **** 			}
3861:src/xeq.c     **** #endif
3862:src/xeq.c     **** 		}
3863:src/xeq.c     **** 		else {
3864:src/xeq.c     **** 			lim += CmdLineDot;
3865:src/xeq.c     **** #ifdef PRETTY_FRACTION_ENTRY
3866:src/xeq.c     **** 			if (CmdLineDot >= 2) {
3867:src/xeq.c     **** #  ifdef FRACTION_ENTRY_OVERFLOW_LEFT
ARM GAS  /tmp/ccBFDvgN.s 			page 82


3868:src/xeq.c     **** 				// Make space for the minus sign
3869:src/xeq.c     **** 				lim = CMDLINELEN - (Cmdline[0] != '-');
3870:src/xeq.c     **** #  elif defined(INCLUDE_DOUBLEDOT_FRACTIONS)
3871:src/xeq.c     **** 				lim += 1 + (find_char(Cmdline, '.')[1] == '.');
3872:src/xeq.c     **** #  else
3873:src/xeq.c     **** 				lim++;
3874:src/xeq.c     **** #  endif
3875:src/xeq.c     **** 			}
3876:src/xeq.c     **** #endif
3877:src/xeq.c     **** 		}
3878:src/xeq.c     **** 	}
3879:src/xeq.c     **** 	if (CmdLineLength >= lim
3880:src/xeq.c     **** 	    || (DISPLAY_DIGITS + 5 > CMDLINELEN && CmdLineLength >= CMDLINELEN)) {
3881:src/xeq.c     **** 		report_warn(ERR_TOO_LONG);
3882:src/xeq.c     **** 		return;
3883:src/xeq.c     **** 	}
3884:src/xeq.c     **** 
3885:src/xeq.c     **** 	if (c >= 10)
3886:src/xeq.c     **** 		append_cmdline(c - 10 + 'A');
3887:src/xeq.c     **** 	else {
3888:src/xeq.c     **** 		// Leading zeros in the exponent aren't visible to the user,
3889:src/xeq.c     **** 		// and they're removed automatically if digits are shifted,
3890:src/xeq.c     **** 		// so it's more consistent if they can't be entered, either.
3891:src/xeq.c     **** 		if (c == 0 && CmdLineEex) {
3892:src/xeq.c     **** 			if (Cmdline[CmdLineLength-1] == 'E')
3893:src/xeq.c     **** 				return;
3894:src/xeq.c     **** #ifdef LARGE_EXPONENT_ENTRY
3895:src/xeq.c     **** 			if (Cmdline[CmdLineLength-1] == 'D')
3896:src/xeq.c     **** 				return;
3897:src/xeq.c     **** #else
3898:src/xeq.c     **** 			if (Cmdline[CmdLineLength-1] == '-')
3899:src/xeq.c     **** 				return;
3900:src/xeq.c     **** #endif
3901:src/xeq.c     **** 		}
3902:src/xeq.c     **** 
3903:src/xeq.c     **** 		append_cmdline(c + '0');
3904:src/xeq.c     **** 
3905:src/xeq.c     **** 		if (CmdLineEex)
3906:src/xeq.c     **** 			exponent_adjusted(1);
3907:src/xeq.c     **** 	}
3908:src/xeq.c     **** }
3909:src/xeq.c     **** 
3910:src/xeq.c     **** 
3911:src/xeq.c     **** void set_entry() {
3912:src/xeq.c     **** 	if (!Running && !XromRunning)
3913:src/xeq.c     **** 		State.entryp = 1;
3914:src/xeq.c     **** }
3915:src/xeq.c     **** 
3916:src/xeq.c     **** 
3917:src/xeq.c     **** /* Decode and process the specials.  These are niladic functions and
3918:src/xeq.c     ****  * commands with non-standard stack operation.
3919:src/xeq.c     ****  */
3920:src/xeq.c     **** static void specials(const opcode op) {
3921:src/xeq.c     **** 	int opm = argKIND(op);
3922:src/xeq.c     **** 
3923:src/xeq.c     **** 	switch (opm) {
3924:src/xeq.c     **** 	case OP_0:	case OP_1:	case OP_2:
ARM GAS  /tmp/ccBFDvgN.s 			page 83


3925:src/xeq.c     **** 	case OP_3:	case OP_4:	case OP_5:
3926:src/xeq.c     **** 	case OP_6:	case OP_7:	case OP_8:
3927:src/xeq.c     **** 	case OP_9:	case OP_A:	case OP_B:
3928:src/xeq.c     **** 	case OP_C:	case OP_D:	case OP_E:
3929:src/xeq.c     **** 	case OP_F:
3930:src/xeq.c     **** 		digit(opm - OP_0);
3931:src/xeq.c     **** 		break;
3932:src/xeq.c     **** 
3933:src/xeq.c     **** 	case OP_DOT:
3934:src/xeq.c     **** 		if (is_intmode())
3935:src/xeq.c     **** 			break;
3936:src/xeq.c     **** #if defined(INCLUDE_DOUBLEDOT_FRACTIONS)
3937:src/xeq.c     **** 		if (CmdLineDot < 2 && !CmdLineEex && CmdLineLength < 13 + CmdLineDot) {
3938:src/xeq.c     **** 			if (CmdLineLength == 0 || Cmdline[CmdLineLength-1] == '-') // ND change: stop a zero being enter
3939:src/xeq.c     **** #else
3940:src/xeq.c     **** #  if defined(PRETTY_FRACTION_ENTRY)
3941:src/xeq.c     **** 		if (CmdLineDot < 2 && !CmdLineEex && CmdLineLength < 12 + 2*CmdLineDot) {
3942:src/xeq.c     **** #  else
3943:src/xeq.c     **** 		if (CmdLineDot < 2 && !CmdLineEex && CmdLineLength < 12 + CmdLineDot) {
3944:src/xeq.c     **** #  endif
3945:src/xeq.c     **** 			if (CmdLineLength == 0 || Cmdline[CmdLineLength-1] == '.'
3946:src/xeq.c     ****                             || Cmdline[CmdLineLength-1] == '-')
3947:src/xeq.c     **** #endif
3948:src/xeq.c     **** 				digit(0);
3949:src/xeq.c     **** 			CmdLineDot++;
3950:src/xeq.c     **** 			append_cmdline('.');
3951:src/xeq.c     **** 		}
3952:src/xeq.c     **** 		break;
3953:src/xeq.c     **** 
3954:src/xeq.c     **** 	case OP_EEX:
3955:src/xeq.c     **** 		if (is_intmode())
3956:src/xeq.c     **** 			break;
3957:src/xeq.c     **** 		else {
3958:src/xeq.c     **** #if INCLUDE_EEX_PI == 2
3959:src/xeq.c     **** 			const int eex_pi = 1;
3960:src/xeq.c     **** #elif INCLUDE_EEX_PI == 1
3961:src/xeq.c     **** 			const int eex_pi = get_user_flag(regL_idx);
3962:src/xeq.c     **** #else
3963:src/xeq.c     **** 			const int eex_pi = 0;
3964:src/xeq.c     **** #endif
3965:src/xeq.c     **** 
3966:src/xeq.c     **** 			if (CmdLineDot == 2) {
3967:src/xeq.c     **** 				if (eex_pi) {
3968:src/xeq.c     **** 					// fraction entered (two dots); execute ENTER and enter pi
3969:src/xeq.c     **** 					if (is_bad_cmdline()) {
3970:src/xeq.c     **** 						if (Running || XromRunning)
3971:src/xeq.c     **** 							report_err(ERR_DOMAIN);
3972:src/xeq.c     **** 						break;
3973:src/xeq.c     **** 					}
3974:src/xeq.c     **** 					process_cmdline();
3975:src/xeq.c     **** 					lift();
3976:src/xeq.c     **** 					copyreg(StackBase, get_const(OP_PI, is_dblmode()));
3977:src/xeq.c     **** 					set_lift();
3978:src/xeq.c     **** 				}
3979:src/xeq.c     **** 				break;
3980:src/xeq.c     **** 			}
3981:src/xeq.c     **** 			if (CmdLineEex || CmdLineLength >= CMDLINELEN)
ARM GAS  /tmp/ccBFDvgN.s 			page 84


3982:src/xeq.c     **** 				break;
3983:src/xeq.c     **** 			if (eex_pi && CmdLineLength == 0) {
3984:src/xeq.c     **** 				// empty command line: enter pi
3985:src/xeq.c     **** 				lift_if_enabled();
3986:src/xeq.c     **** 				copyreg(StackBase, get_const(OP_PI, is_dblmode()));
3987:src/xeq.c     **** 				set_lift();
3988:src/xeq.c     **** 				break;
3989:src/xeq.c     **** 			}
3990:src/xeq.c     **** #if !(FRACTION_MODE_INPUT & 1)
3991:src/xeq.c     **** 			if (UState.fract)
3992:src/xeq.c     **** 				break;
3993:src/xeq.c     **** #endif
3994:src/xeq.c     **** 			if (CmdLineLength == 0)
3995:src/xeq.c     **** 				digit(1);
3996:src/xeq.c     **** 			CmdLineEex = CmdLineLength;
3997:src/xeq.c     **** 			append_cmdline('E');
3998:src/xeq.c     **** 		}
3999:src/xeq.c     **** 		break;
4000:src/xeq.c     **** 
4001:src/xeq.c     **** 	case OP_CHS:
4002:src/xeq.c     **** 		if (CmdLineLength)
4003:src/xeq.c     **** 			cmdlinechs();
4004:src/xeq.c     **** 		else if (is_intmode()) {
4005:src/xeq.c     **** 			setX_int(intChs(getX_int()));
4006:src/xeq.c     **** 			set_lift();
4007:src/xeq.c     **** 		} else {
4008:src/xeq.c     **** 			decNumber x, r;
4009:src/xeq.c     **** 
4010:src/xeq.c     **** 			getX(&x);
4011:src/xeq.c     **** 			dn_minus(&r, &x);
4012:src/xeq.c     **** 			setX(&r);
4013:src/xeq.c     **** 			set_lift();
4014:src/xeq.c     **** 		}
4015:src/xeq.c     **** 		break;
4016:src/xeq.c     **** 
4017:src/xeq.c     **** 	case OP_CLX:
4018:src/xeq.c     **** 		if (Running)
4019:src/xeq.c     **** 			illegal(op);
4020:src/xeq.c     **** 		else if (CmdLineLength) {
4021:src/xeq.c     **** #ifdef LARGE_EXPONENT_ENTRY
4022:src/xeq.c     **** 			if (CmdLineEex != 0 && Cmdline[CmdLineLength-1] == 'D') {
4023:src/xeq.c     **** 				Cmdline[CmdLineLength-1] = 'E';
4024:src/xeq.c     **** 				break;
4025:src/xeq.c     **** 			}
4026:src/xeq.c     **** #endif
4027:src/xeq.c     **** 			CmdLineLength--;
4028:src/xeq.c     **** 			if (Cmdline[CmdLineLength] == 'E')
4029:src/xeq.c     **** 				CmdLineEex = 0;
4030:src/xeq.c     **** 			else if (Cmdline[CmdLineLength] == '.')
4031:src/xeq.c     **** 				CmdLineDot--;
4032:src/xeq.c     **** 		} else
4033:src/xeq.c     **** 			clrx(OP_rCLX);
4034:src/xeq.c     **** 		break;
4035:src/xeq.c     **** 
4036:src/xeq.c     **** 		case OP_ENTER:
4037:src/xeq.c     **** 		  if (ENTRY_RPN_ENABLED) {  
4038:src/xeq.c     **** 		    if ( CmdLineLength && !(XromRunning || Running) ) { 
ARM GAS  /tmp/ccBFDvgN.s 			page 85


4039:src/xeq.c     **** 		      //exclude stack lift if there is something in the input line AND if NOT running code i.e. X
4040:src/xeq.c     **** 		      process_cmdline();     //JM
4041:src/xeq.c     **** 		    } else {                       //JM
4042:src/xeq.c     **** 		      process_cmdline();
4043:src/xeq.c     **** 		      lift();
4044:src/xeq.c     **** 		      if ( (XromRunning || Running) ) {//JMTEST Explicitly including standard functionality if co
4045:src/xeq.c     **** 			clr_lift();
4046:src/xeq.c     **** 		      }   
4047:src/xeq.c     **** 		    }                              //JM
4048:src/xeq.c     **** 		  }
4049:src/xeq.c     **** 		  else {
4050:src/xeq.c     **** 		    process_cmdline();
4051:src/xeq.c     **** 		    lift();
4052:src/xeq.c     **** 		    clr_lift();
4053:src/xeq.c     **** 		  }
4054:src/xeq.c     **** 		  break;
4055:src/xeq.c     **** 		  
4056:src/xeq.c     **** 	case OP_SIGMAPLUS:
4057:src/xeq.c     **** 	case OP_SIGMAMINUS:
4058:src/xeq.c     **** 		if (is_intmode()) {
4059:src/xeq.c     **** 			bad_mode_error();
4060:src/xeq.c     **** 			break;
4061:src/xeq.c     **** 		}
4062:src/xeq.c     **** 		process_cmdline();
4063:src/xeq.c     **** 		clr_lift();
4064:src/xeq.c     **** 		setlastX();
4065:src/xeq.c     **** 		if (opm == OP_SIGMAPLUS)
4066:src/xeq.c     **** 			sigma_plus();
4067:src/xeq.c     **** 		else
4068:src/xeq.c     **** 			sigma_minus();
4069:src/xeq.c     **** 		sigma_val(OP_sigmaN);
4070:src/xeq.c     **** 		break;
4071:src/xeq.c     **** 
4072:src/xeq.c     **** 	// Conditional tests vs registers....
4073:src/xeq.c     **** 	case OP_Xeq0:	case OP_Xlt0:	case OP_Xgt0:
4074:src/xeq.c     **** 	case OP_Xne0:	case OP_Xle0:	case OP_Xge0:
4075:src/xeq.c     **** 	case OP_Xapx0:
4076:src/xeq.c     **** 		do_tst(CONST_REG_BASE + OP_ZERO, (enum tst_op)(opm - OP_Xeq0));
4077:src/xeq.c     **** 		break;
4078:src/xeq.c     **** 	case OP_Zeq0: case OP_Zne0:
4079:src/xeq.c     **** 		do_ztst(&const_0, &const_0, (enum tst_op)(opm - OP_Zeq0));
4080:src/xeq.c     **** 		break;
4081:src/xeq.c     **** 
4082:src/xeq.c     **** 	case OP_Xeq1:	case OP_Xlt1:	case OP_Xgt1:
4083:src/xeq.c     **** 	case OP_Xne1:	case OP_Xle1:	case OP_Xge1:
4084:src/xeq.c     **** 	case OP_Xapx1:
4085:src/xeq.c     **** 		do_tst(CONST_REG_BASE + OP_ONE, (enum tst_op)(opm - OP_Xeq1));
4086:src/xeq.c     **** 		break;
4087:src/xeq.c     **** 	case OP_Zeq1:	case OP_Zne1:
4088:src/xeq.c     **** 		do_ztst(&const_1, &const_0, (enum tst_op)(opm - OP_Zeq1));
4089:src/xeq.c     **** 		break;
4090:src/xeq.c     **** 	case OP_Zeqi:	case OP_Znei:
4091:src/xeq.c     **** 		do_ztst(&const_0, &const_1, (enum tst_op)(opm - OP_Zeqi));
4092:src/xeq.c     **** 		break;
4093:src/xeq.c     **** 
4094:src/xeq.c     **** 	default:
4095:src/xeq.c     **** 		illegal(op);
ARM GAS  /tmp/ccBFDvgN.s 			page 86


4096:src/xeq.c     **** 	}
4097:src/xeq.c     **** }
4098:src/xeq.c     **** 
4099:src/xeq.c     **** enum trig_modes get_trig_mode(void) {
4100:src/xeq.c     **** 	if (State2.cmplx || XromFlags.xIN)
4101:src/xeq.c     **** 		return TRIG_RAD;
4102:src/xeq.c     **** 	//if (State2.hyp)	return TRIG_RAD;
4103:src/xeq.c     **** 	return (enum trig_modes) UState.trigmode;
4104:src/xeq.c     **** }
4105:src/xeq.c     **** 
4106:src/xeq.c     **** void op_double(enum nilop op) {
4107:src/xeq.c     **** 	const int dbl = (op == OP_DBLON);
4108:src/xeq.c     **** 	const int intm = is_intmode();
4109:src/xeq.c     **** 	int i;
4110:src/xeq.c     **** 
4111:src/xeq.c     **** 	if (dbl != UState.mode_double) {
4112:src/xeq.c     **** 		// Mode switch
4113:src/xeq.c     **** 		if (dbl) {
4114:src/xeq.c     **** 			if (NumRegs < STACK_SIZE + EXTRA_REG) {
4115:src/xeq.c     **** 				// Need space for double precision stack
4116:src/xeq.c     **** 				cmdregs(STACK_SIZE + EXTRA_REG, RARG_REGS);
4117:src/xeq.c     **** 				if (Error) {
4118:src/xeq.c     **** 					return;
4119:src/xeq.c     **** 				}
4120:src/xeq.c     **** 			}
4121:src/xeq.c     **** 
4122:src/xeq.c     **** 			UState.mode_double = 1;
4123:src/xeq.c     **** 			if (! intm) {
4124:src/xeq.c     **** 				// Convert X to K to double precision
4125:src/xeq.c     **** 				// Avoid this in integer mode
4126:src/xeq.c     **** 				for (i = 0; i < STACK_SIZE + EXTRA_REG; ++i)
4127:src/xeq.c     **** 					packed128_from_packed(&(get_stack(i)->d), Regs + regX_idx + i);
4128:src/xeq.c     **** 			}
4129:src/xeq.c     **** 		}
4130:src/xeq.c     **** 		else {
4131:src/xeq.c     **** 			if (! intm) {
4132:src/xeq.c     **** 				// Convert X to K to single precision
4133:src/xeq.c     **** 				// Avoid this in integer mode
4134:src/xeq.c     **** 				for (i = STACK_SIZE + EXTRA_REG - 1; i >= 0; --i)
4135:src/xeq.c     **** 					packed_from_packed128(Regs + regX_idx + i, &(get_stack(i)->d));
4136:src/xeq.c     **** 			}
4137:src/xeq.c     **** 			UState.mode_double = 0;
4138:src/xeq.c     **** 			if (NumRegs > TOPREALREG)
4139:src/xeq.c     **** 				cmdregs(TOPREALREG, RARG_REGS);
4140:src/xeq.c     **** 		}
4141:src/xeq.c     **** 	}
4142:src/xeq.c     **** 	StackBase = get_reg_n(regX_idx);
4143:src/xeq.c     **** 	if (intm) {
4144:src/xeq.c     **** 		// Do the necessary conversions from integer mode
4145:src/xeq.c     **** 		op_float(OP_FLOAT_XIN);
4146:src/xeq.c     **** 	}
4147:src/xeq.c     **** }
4148:src/xeq.c     **** 
4149:src/xeq.c     **** void cmdpause(unsigned int arg, enum rarg op) {
4150:src/xeq.c     **** 	display();
4151:src/xeq.c     **** #ifndef CONSOLE
4152:src/xeq.c     **** 	// decremented in the low level heartbeat
ARM GAS  /tmp/ccBFDvgN.s 			page 87


4153:src/xeq.c     **** 	Pause = arg;
4154:src/xeq.c     **** 	GoFast = (arg == 0);
4155:src/xeq.c     **** #elif 0
4156:src/xeq.c     **** 	start_pause(arg);
4157:src/xeq.c     **** #else	
4158:src/xeq.c     **** #if defined(WIN32) && !defined(__GNUC__)
4159:src/xeq.c     **** #pragma warning(disable:4996)
4160:src/xeq.c     **** 	sleep(arg/10);
4161:src/xeq.c     **** #else
4162:src/xeq.c     **** 	usleep(arg * 100000);
4163:src/xeq.c     **** #endif
4164:src/xeq.c     **** #endif
4165:src/xeq.c     **** }
4166:src/xeq.c     **** 
4167:src/xeq.c     **** 
4168:src/xeq.c     **** 
4169:src/xeq.c     **** void op_setspeed(enum nilop op) {
4170:src/xeq.c     **** 	UState.slow_speed = (op == OP_SLOW) ? 1 : 0;
4171:src/xeq.c     **** 	update_speed(1);
4172:src/xeq.c     **** }
4173:src/xeq.c     **** 
4174:src/xeq.c     **** 
4175:src/xeq.c     **** void op_prompt(enum nilop op) {
4176:src/xeq.c     **** 	set_running_off();
4177:src/xeq.c     **** 	alpha_view_common(regX_idx);
4178:src/xeq.c     **** }
4179:src/xeq.c     **** 
4180:src/xeq.c     **** /* Test if a number is an integer or fractional */
4181:src/xeq.c     **** /* Special numbers are neither */
4182:src/xeq.c     **** void XisInt(enum nilop op) {
4183:src/xeq.c     **** 	decNumber x;
4184:src/xeq.c     **** 	int result, op_int = (op == OP_XisINT);
4185:src/xeq.c     **** 	if ( is_intmode() )
4186:src/xeq.c     **** 		result = op_int;
4187:src/xeq.c     **** 	else if (decNumberIsSpecial(getX(&x)))
4188:src/xeq.c     **** 		result = 0;
4189:src/xeq.c     **** 	else
4190:src/xeq.c     **** 	        result = (is_int(&x) == op_int);
4191:src/xeq.c     **** 	fin_tst(result);
4192:src/xeq.c     **** }
4193:src/xeq.c     **** 
4194:src/xeq.c     **** /* Test if a number is an even or odd integer */
4195:src/xeq.c     **** /* fractional or special values are neither even nor odd */
4196:src/xeq.c     **** void XisEvenOrOdd(enum nilop op) {
4197:src/xeq.c     **** 	decNumber x;
4198:src/xeq.c     **** 	int odd = (op == OP_XisODD);
4199:src/xeq.c     **** 
4200:src/xeq.c     **** 	if (is_intmode()) {
4201:src/xeq.c     **** 		fin_tst((getX_int() & 1) == odd);
4202:src/xeq.c     **** 	} else {
4203:src/xeq.c     **** 		fin_tst(is_even(getX(&x)) == !odd);
4204:src/xeq.c     **** 	}
4205:src/xeq.c     **** }
4206:src/xeq.c     **** 
4207:src/xeq.c     **** 
4208:src/xeq.c     **** /* Test if a number is prime */
4209:src/xeq.c     **** void XisPrime(enum nilop op) {
ARM GAS  /tmp/ccBFDvgN.s 			page 88


4210:src/xeq.c     **** 	unsigned long long int i;
4211:src/xeq.c     **** 	int sgn;
4212:src/xeq.c     **** 
4213:src/xeq.c     **** 	i = getX_int_sgn(&sgn);
4214:src/xeq.c     **** 	if (!is_intmode()) {
4215:src/xeq.c     **** 		decNumber x;
4216:src/xeq.c     **** 
4217:src/xeq.c     **** 		getX(&x);
4218:src/xeq.c     **** 		if (decNumberIsSpecial(&x))
4219:src/xeq.c     **** 			sgn = 1; // not prime
4220:src/xeq.c     **** 		else if (dn_ge(&x, &const_2pow64))
4221:src/xeq.c     **** 			// isPrime() reports domain error for numbers with bit 63 set
4222:src/xeq.c     **** 			i = 0xFFFFFFFFFFFFFFFFull;
4223:src/xeq.c     **** 	}
4224:src/xeq.c     **** 	fin_tst(sgn == 0 && isPrime(i));
4225:src/xeq.c     **** }
4226:src/xeq.c     **** 
4227:src/xeq.c     **** /* Test is a number is infinite.
4228:src/xeq.c     ****  */
4229:src/xeq.c     **** void isInfinite(enum nilop op) {
4230:src/xeq.c     **** 	decNumber x;
4231:src/xeq.c     **** 
4232:src/xeq.c     **** 	getX(&x);
4233:src/xeq.c     **** 	fin_tst(!is_intmode() && decNumberIsInfinite(&x));
4234:src/xeq.c     **** }
4235:src/xeq.c     **** 
4236:src/xeq.c     **** /* Test for NaN.
4237:src/xeq.c     ****  * this could be done by testing x != x, but having a special command
4238:src/xeq.c     ****  * for it reads easier.
4239:src/xeq.c     ****  */
4240:src/xeq.c     **** void isNan(enum nilop op) {
4241:src/xeq.c     **** 	decNumber x;
4242:src/xeq.c     **** 
4243:src/xeq.c     **** 	getX(&x);
4244:src/xeq.c     **** 	fin_tst(!is_intmode() && decNumberIsNaN(&x));
4245:src/xeq.c     **** }
4246:src/xeq.c     **** 
4247:src/xeq.c     **** void isSpecial(enum nilop op) {
4248:src/xeq.c     **** 	decNumber x;
4249:src/xeq.c     **** 
4250:src/xeq.c     **** 	getX(&x);
4251:src/xeq.c     **** 	fin_tst(!is_intmode() && decNumberIsSpecial(&x));
4252:src/xeq.c     **** }
4253:src/xeq.c     **** 
4254:src/xeq.c     **** void op_entryp(enum nilop op) {
4255:src/xeq.c     **** 	fin_tst(State.entryp);
4256:src/xeq.c     **** }
4257:src/xeq.c     **** 
4258:src/xeq.c     **** /* Bulk register operations */
4259:src/xeq.c     **** int reg_decode(int *s, int *n, int *d, int flash) {
4260:src/xeq.c     **** 	decNumber x, y;
4261:src/xeq.c     **** 	int rsrc, num, rdest, q, mx_src, mx_dest;
4262:src/xeq.c     **** 
4263:src/xeq.c     **** 	if (is_intmode()) {
4264:src/xeq.c     **** 		bad_mode_error();
4265:src/xeq.c     **** 		return 1;
4266:src/xeq.c     **** 	}
ARM GAS  /tmp/ccBFDvgN.s 			page 89


4267:src/xeq.c     **** 	getX(&x);			// sss.nnddd~
4268:src/xeq.c     **** 	dn_mulpow10(&y, &x, 2 + 3);	// sssnnddd.~
4269:src/xeq.c     **** 	decNumberTrunc(&x, &y);		// sssnnddd.0
4270:src/xeq.c     **** 	rsrc = dn_to_int(&x);		// sssnnddd
4271:src/xeq.c     **** 
4272:src/xeq.c     **** 	if (rsrc < 0) {
4273:src/xeq.c     **** 		if (!flash)
4274:src/xeq.c     **** 			goto range_error;
4275:src/xeq.c     **** 		rsrc = -rsrc;
4276:src/xeq.c     **** 	}
4277:src/xeq.c     **** 	else
4278:src/xeq.c     **** 		flash = 0;
4279:src/xeq.c     **** 
4280:src/xeq.c     **** 	rdest = rsrc % 1000;		// ddd
4281:src/xeq.c     **** 	rsrc /= 1000;			// sssnn
4282:src/xeq.c     **** 	num = rsrc % 100;		// nn
4283:src/xeq.c     **** 	rsrc /= 100;			// sss
4284:src/xeq.c     **** 
4285:src/xeq.c     **** 	mx_src = flash ? BackupFlash._numregs
4286:src/xeq.c     **** 	       : rsrc >= LOCAL_REG_BASE ? local_regs() + LOCAL_REG_BASE
4287:src/xeq.c     **** 	       : rsrc >= regX_idx ? LOCAL_REG_BASE
4288:src/xeq.c     **** 	       : global_regs();
4289:src/xeq.c     **** 	if (rsrc >= mx_src)
4290:src/xeq.c     **** 		goto range_error;
4291:src/xeq.c     **** 
4292:src/xeq.c     **** 	if (d != NULL) {
4293:src/xeq.c     **** 		mx_dest = rdest >= LOCAL_REG_BASE ? local_regs() : global_regs();
4294:src/xeq.c     **** 
4295:src/xeq.c     **** 		if (num == 0) {
4296:src/xeq.c     **** 			/* Calculate the maximum non-overlapping size */
4297:src/xeq.c     **** 			if (flash || (rsrc >= LOCAL_REG_BASE) != (rdest >= LOCAL_REG_BASE))
4298:src/xeq.c     **** 				// source & destination in different memory areas
4299:src/xeq.c     **** 				num = mx_dest < mx_src ? mx_dest : mx_src;
4300:src/xeq.c     **** 			else {
4301:src/xeq.c     **** 				if (rsrc > rdest) {
4302:src/xeq.c     **** 					num = mx_src - rsrc;
4303:src/xeq.c     **** 					q = rsrc - rdest;
4304:src/xeq.c     **** 				}
4305:src/xeq.c     **** 				else {
4306:src/xeq.c     **** 					num = mx_dest - rdest;
4307:src/xeq.c     **** 					q = rdest - rsrc;
4308:src/xeq.c     **** 				}
4309:src/xeq.c     **** 				if (num > q)
4310:src/xeq.c     **** 					num = q;
4311:src/xeq.c     **** 			}
4312:src/xeq.c     **** 		}
4313:src/xeq.c     **** 		if (rdest >= LOCAL_REG_BASE)
4314:src/xeq.c     **** 			mx_dest += LOCAL_REG_BASE;
4315:src/xeq.c     **** 		if (rdest + num > mx_dest)
4316:src/xeq.c     **** 			goto range_error;
4317:src/xeq.c     **** 		// Set pointer
4318:src/xeq.c     **** 		*d = rdest;
4319:src/xeq.c     **** 	}
4320:src/xeq.c     **** 	else {
4321:src/xeq.c     **** 		if (num == 0) {
4322:src/xeq.c     **** 			num = mx_src - rsrc;
4323:src/xeq.c     **** 		}
ARM GAS  /tmp/ccBFDvgN.s 			page 90


4324:src/xeq.c     **** 	}
4325:src/xeq.c     **** 	if (rsrc + num > mx_src)
4326:src/xeq.c     **** 		goto range_error;
4327:src/xeq.c     **** 
4328:src/xeq.c     **** 	// Now point to the correct source register
4329:src/xeq.c     **** 	*s = flash ? FLASH_REG_BASE + rsrc : rsrc;
4330:src/xeq.c     **** 	*n = num;
4331:src/xeq.c     **** 
4332:src/xeq.c     **** 	return 0;
4333:src/xeq.c     **** 
4334:src/xeq.c     **** range_error:
4335:src/xeq.c     **** 	report_err(ERR_RANGE);
4336:src/xeq.c     **** 	return 1;
4337:src/xeq.c     **** }
4338:src/xeq.c     **** 
4339:src/xeq.c     **** void op_regcopy(enum nilop op) {
4340:src/xeq.c     **** 	int s, n, d;
4341:src/xeq.c     **** 
4342:src/xeq.c     **** 	if (reg_decode(&s, &n, &d, 1))
4343:src/xeq.c     **** 		return;
4344:src/xeq.c     **** 	move_regs(get_reg_n(d), get_reg_n(s), n);
4345:src/xeq.c     **** }
4346:src/xeq.c     **** 
4347:src/xeq.c     **** void op_regswap(enum nilop op) {
4348:src/xeq.c     **** 	int s, n, d, i;
4349:src/xeq.c     **** 
4350:src/xeq.c     **** 	if (reg_decode(&s, &n, &d, 0) || s == d)
4351:src/xeq.c     **** 		return;
4352:src/xeq.c     **** 	else {
4353:src/xeq.c     **** 		if ((s > d && d + n > s) || (d > s && s + n > d))
4354:src/xeq.c     **** 			report_err(ERR_RANGE);
4355:src/xeq.c     **** 		else {
4356:src/xeq.c     **** 			for (i = 0; i < n; i++)
4357:src/xeq.c     **** 				swap_reg(get_reg_n(s + i), get_reg_n(d + i));
4358:src/xeq.c     **** 		}
4359:src/xeq.c     **** 	}
4360:src/xeq.c     **** }
4361:src/xeq.c     **** 
4362:src/xeq.c     **** void op_regclr(enum nilop op) {
4363:src/xeq.c     **** 	int s, n;
4364:src/xeq.c     **** 
4365:src/xeq.c     **** 	if (reg_decode(&s, &n, NULL, 0))
4366:src/xeq.c     **** 		return;
4367:src/xeq.c     **** 	zero_regs(get_reg_n(s), n);
4368:src/xeq.c     **** }
4369:src/xeq.c     **** 
4370:src/xeq.c     **** void op_regsort(enum nilop op) {
4371:src/xeq.c     **** 	int s, n;
4372:src/xeq.c     **** 	decNumber pivot, a;
4373:src/xeq.c     **** 	int beg[10], end[10], i;
4374:src/xeq.c     **** 
4375:src/xeq.c     **** 	if (reg_decode(&s, &n, NULL, 0) || n == 1)
4376:src/xeq.c     **** 		return;
4377:src/xeq.c     **** 
4378:src/xeq.c     **** 	/* Non-recursive quicksort */
4379:src/xeq.c     **** 	beg[0] = 0;
4380:src/xeq.c     **** 	end[0] = n;
ARM GAS  /tmp/ccBFDvgN.s 			page 91


4381:src/xeq.c     **** 	i = 0;
4382:src/xeq.c     **** 	while (i>=0) {
4383:src/xeq.c     **** 		int L = beg[i];
4384:src/xeq.c     **** 		int R = end[i] - 1;
4385:src/xeq.c     **** 		if (L<R) {
4386:src/xeq.c     **** 			const int pvt = s + L;
4387:src/xeq.c     **** 			getRegister(&pivot, pvt);
4388:src/xeq.c     **** 			while (L<R) {
4389:src/xeq.c     **** 				while (L<R) {
4390:src/xeq.c     **** 					getRegister(&a, s + R);
4391:src/xeq.c     **** 					if (dn_lt(&a, &pivot))
4392:src/xeq.c     **** 						break;
4393:src/xeq.c     **** 					R--;
4394:src/xeq.c     **** 				}
4395:src/xeq.c     **** 				if (L<R)
4396:src/xeq.c     **** 					copyreg_n(s + L++, s + R);
4397:src/xeq.c     **** 				while (L<R) {
4398:src/xeq.c     **** 					getRegister(&a, s + L);
4399:src/xeq.c     **** 					if (dn_gt(&a, &pivot))
4400:src/xeq.c     **** 						break;
4401:src/xeq.c     **** 					L++;
4402:src/xeq.c     **** 				}
4403:src/xeq.c     **** 				if (L<R)
4404:src/xeq.c     **** 					copyreg_n(s + R--, s + L);
4405:src/xeq.c     **** 			}
4406:src/xeq.c     **** 			setRegister(s + L, &pivot);
4407:src/xeq.c     **** 			if (L - beg[i] < end[i] - (L+1)) {
4408:src/xeq.c     **** 				beg[i+1] = beg[i];
4409:src/xeq.c     **** 				end[i+1] = L;
4410:src/xeq.c     **** 				beg[i] = L+1;
4411:src/xeq.c     **** 			} else {
4412:src/xeq.c     **** 				beg[i+1] = L+1;
4413:src/xeq.c     **** 				end[i+1] = end[i];
4414:src/xeq.c     **** 				end[i] = L;
4415:src/xeq.c     **** 			}
4416:src/xeq.c     **** 			i++;
4417:src/xeq.c     **** 		} else
4418:src/xeq.c     **** 			i--;
4419:src/xeq.c     **** 	}
4420:src/xeq.c     **** }
4421:src/xeq.c     **** 
4422:src/xeq.c     **** 
4423:src/xeq.c     **** 
4424:src/xeq.c     **** /* Print a single program step nicely.
4425:src/xeq.c     ****  */
4426:src/xeq.c     **** static void print_step(const opcode op) {
4427:src/xeq.c     **** 	char buf[16];
4428:src/xeq.c     **** 	const unsigned int pc = state_pc();
4429:src/xeq.c     **** 	char *p = TraceBuffer;
4430:src/xeq.c     **** 
4431:src/xeq.c     **** 	if (isXROM(pc)) {
4432:src/xeq.c     **** 		*p++ = 'x';
4433:src/xeq.c     **** 	} else if (isLIB(pc)) {
4434:src/xeq.c     **** 		p = num_arg_0(p, nLIB(pc), 1);
4435:src/xeq.c     **** 		*p++ = ' ';
4436:src/xeq.c     **** 	}
4437:src/xeq.c     **** 	if (pc == 0)
ARM GAS  /tmp/ccBFDvgN.s 			page 92


4438:src/xeq.c     **** 		scopy(p, "000:");
4439:src/xeq.c     **** 	else {
4440:src/xeq.c     **** 		p = num_arg_0(p, user_pc(pc), 3);
4441:src/xeq.c     **** 		*p++ = ':';
4442:src/xeq.c     **** 		scopy_char(p, prt(op, buf), '\0');
4443:src/xeq.c     **** 		if (*p == '?')
4444:src/xeq.c     **** 			*p = '\0';
4445:src/xeq.c     **** 	}
4446:src/xeq.c     **** 	State2.disp_small = 1;
4447:src/xeq.c     **** 	DispMsg = TraceBuffer;
4448:src/xeq.c     **** }
4449:src/xeq.c     **** 
4450:src/xeq.c     **** 
4451:src/xeq.c     **** /* When stuff gets done, there are some bits of state that need
4452:src/xeq.c     ****  * to be reset -- SHOW, ->base change the display mode until something
4453:src/xeq.c     ****  * happens.  This should be called on that something.
4454:src/xeq.c     ****  */
4455:src/xeq.c     **** void reset_volatile_state(void) {
4456:src/xeq.c     **** 	// extern int IntMaxWindow;
4457:src/xeq.c     **** 	// IntMaxWindow = 0;
4458:src/xeq.c     **** 	State2.window = 0;
4459:src/xeq.c     **** 	State2.smode = SDISP_NORMAL;
4460:src/xeq.c     **** }
4461:src/xeq.c     **** 
4462:src/xeq.c     **** 
4463:src/xeq.c     **** /*
4464:src/xeq.c     ****  *  Called by any long running function
4465:src/xeq.c     ****  */
4466:src/xeq.c     **** void busy(void)
4467:src/xeq.c     **** {
4468:src/xeq.c     **** 	/*
4469:src/xeq.c     **** 	 *  Serve the hardware watch dog
4470:src/xeq.c     **** 	 */
4471:src/xeq.c     **** 	watchdog();
4472:src/xeq.c     **** 
4473:src/xeq.c     **** 	/*
4474:src/xeq.c     **** 	 *  Increase the speed
4475:src/xeq.c     **** 	 */
4476:src/xeq.c     **** 	update_speed(1);
4477:src/xeq.c     **** 
4478:src/xeq.c     **** 	/*
4479:src/xeq.c     **** 	 *  Indicate busy state to the user
4480:src/xeq.c     **** 	 */
4481:src/xeq.c     **** 	if (!Busy && !Running) {
4482:src/xeq.c     **** 		Busy = 1;
4483:src/xeq.c     **** 		message("Wait...", NULL);
4484:src/xeq.c     **** 	}
4485:src/xeq.c     **** }
4486:src/xeq.c     **** 
4487:src/xeq.c     **** /***************************************************************************
4488:src/xeq.c     ****  * Function dispatchers.
4489:src/xeq.c     ****  */
4490:src/xeq.c     **** 
4491:src/xeq.c     **** /*
4492:src/xeq.c     ****  *  Check for a call into XROM space.
4493:src/xeq.c     ****  *  Fix the pointer alignment on the go.
4494:src/xeq.c     ****  */
ARM GAS  /tmp/ccBFDvgN.s 			page 93


4495:src/xeq.c     **** #ifdef REALBUILD
4496:src/xeq.c     **** typedef unsigned long uintptr_t;
4497:src/xeq.c     **** #else
4498:src/xeq.c     **** #include <stdint.h>
4499:src/xeq.c     **** #endif
4500:src/xeq.c     **** 
4501:src/xeq.c     **** static const s_opcode *check_for_xrom_address(void *fp)
4502:src/xeq.c     **** {
4503:src/xeq.c     **** 	const s_opcode *xp = (const s_opcode *) ((uintptr_t ) fp & ~1);
4504:src/xeq.c     **** 	if (xp < xrom)
4505:src/xeq.c     **** 		return NULL;
4506:src/xeq.c     **** #ifndef REALBUILD
4507:src/xeq.c     **** 	// On the device, XROM is at the end so this is not needed
4508:src/xeq.c     **** 	if (xp >= xrom + xrom_size)
4509:src/xeq.c     **** 		return NULL;
4510:src/xeq.c     **** #endif
4511:src/xeq.c     **** 	return xp;
4512:src/xeq.c     **** }
4513:src/xeq.c     **** 
4514:src/xeq.c     **** /*
4515:src/xeq.c     ****  *  Check for a call into XROM space and dispatch it.
4516:src/xeq.c     ****  */
4517:src/xeq.c     **** static int dispatch_xrom(void *fp)
4518:src/xeq.c     **** {
4519:src/xeq.c     **** 	const s_opcode *xp = check_for_xrom_address(fp);
4520:src/xeq.c     **** 	if (xp == NULL)
4521:src/xeq.c     **** 		return 0;
4522:src/xeq.c     **** 	// set_lift();
4523:src/xeq.c     **** 	UserLocalRegs = LocalRegs;
4524:src/xeq.c     **** 	XromRunning = 1;
4525:src/xeq.c     **** 	gsbgto(addrXROM((xp - xrom) + 1), 1, state_pc());
4526:src/xeq.c     **** 	xeq_xrom();
4527:src/xeq.c     **** 	return 1;
4528:src/xeq.c     **** }
4529:src/xeq.c     **** 
4530:src/xeq.c     **** /*
4531:src/xeq.c     ****  *  Return an integer result from a decimal value, setting flags properly
4532:src/xeq.c     ****  */
4533:src/xeq.c     **** static long long int intResult(decNumber *r) {
 644              		.loc 1 4533 46 is_stmt 1 view -0
 645              		.cfi_startproc
 646              		@ args = 0, pretend = 0, frame = 80
 647              		@ frame_needed = 0, uses_anonymous_args = 0
4534:src/xeq.c     **** 	unsigned long long int i;
 648              		.loc 1 4534 2 view .LVU190
4535:src/xeq.c     **** 	int s;
 649              		.loc 1 4535 2 view .LVU191
4536:src/xeq.c     **** 	decNumber ri, t;
 650              		.loc 1 4536 2 view .LVU192
4537:src/xeq.c     **** 
4538:src/xeq.c     **** 	decNumberRoundDigits(&t, r, 25, DEC_ROUND_HALF_EVEN);
 651              		.loc 1 4538 2 view .LVU193
4533:src/xeq.c     **** 	unsigned long long int i;
 652              		.loc 1 4533 46 is_stmt 0 view .LVU194
 653 0000 30B5     		push	{r4, r5, lr}
 654              		.cfi_def_cfa_offset 12
 655              		.cfi_offset 4, -12
ARM GAS  /tmp/ccBFDvgN.s 			page 94


 656              		.cfi_offset 5, -8
 657              		.cfi_offset 14, -4
 658 0002 95B0     		sub	sp, sp, #84
 659              		.cfi_def_cfa_offset 96
 660              		.loc 1 4538 2 view .LVU195
 661 0004 0323     		movs	r3, #3
 662 0006 1922     		movs	r2, #25
4533:src/xeq.c     **** 	unsigned long long int i;
 663              		.loc 1 4533 46 view .LVU196
 664 0008 0146     		mov	r1, r0
 665              		.loc 1 4538 2 view .LVU197
 666 000a 0BA8     		add	r0, sp, #44
 667              	.LVL49:
 668              		.loc 1 4538 2 view .LVU198
 669 000c FFF7FEFF 		bl	decNumberRoundDigits
 670              	.LVL50:
4539:src/xeq.c     **** 	decNumberTrunc(&ri, &t);
 671              		.loc 1 4539 2 is_stmt 1 view .LVU199
 672 0010 0BA9     		add	r1, sp, #44
 673 0012 02A8     		add	r0, sp, #8
 674 0014 FFF7FEFF 		bl	decNumberTrunc
 675              	.LVL51:
4540:src/xeq.c     **** 	set_carry(dn_eq(&ri, &t) ? 0 : 1);
 676              		.loc 1 4540 2 view .LVU200
 677              		.loc 1 4540 12 is_stmt 0 view .LVU201
 678 0018 0BA9     		add	r1, sp, #44
 679 001a 02A8     		add	r0, sp, #8
 680 001c FFF7FEFF 		bl	dn_eq
 681              	.LVL52:
 682              		.loc 1 4540 2 view .LVU202
 683 0020 B0FA80F0 		clz	r0, r0
 684 0024 4009     		lsrs	r0, r0, #5
 685 0026 FFF7FEFF 		bl	set_carry
 686              	.LVL53:
4541:src/xeq.c     **** 
4542:src/xeq.c     **** 	if (decNumberIsNaN(&t)) {
 687              		.loc 1 4542 2 is_stmt 1 view .LVU203
 688              		.loc 1 4542 6 is_stmt 0 view .LVU204
 689 002a 9DF83430 		ldrb	r3, [sp, #52]	@ zero_extendqisi2
 690              		.loc 1 4542 5 view .LVU205
 691 002e 13F0300F 		tst	r3, #48
 692 0032 22D1     		bne	.L67
4543:src/xeq.c     **** 		report_err(ERR_DOMAIN);
4544:src/xeq.c     **** 		return 0;
4545:src/xeq.c     **** 	}
4546:src/xeq.c     **** 	if (decNumberIsSpecial(&t)) {
 693              		.loc 1 4546 2 is_stmt 1 view .LVU206
 694              		.loc 1 4546 5 is_stmt 0 view .LVU207
 695 0034 13F0700F 		tst	r3, #112
 696 0038 18D1     		bne	.L68
4547:src/xeq.c     **** 		set_overflow(1);
4548:src/xeq.c     **** 		return 0;
4549:src/xeq.c     **** 	}
4550:src/xeq.c     **** 	i = dn_to_ull(&ri, &s);
 697              		.loc 1 4550 2 is_stmt 1 view .LVU208
 698              		.loc 1 4550 6 is_stmt 0 view .LVU209
 699 003a 02A8     		add	r0, sp, #8
ARM GAS  /tmp/ccBFDvgN.s 			page 95


 700 003c 01A9     		add	r1, sp, #4
 701 003e FFF7FEFF 		bl	dn_to_ull
 702              	.LVL54:
 703 0042 0C46     		mov	r4, r1
4551:src/xeq.c     **** 	dn_abs(&t, &t);
 704              		.loc 1 4551 2 view .LVU210
 705 0044 0BA9     		add	r1, sp, #44
4550:src/xeq.c     **** 	dn_abs(&t, &t);
 706              		.loc 1 4550 6 view .LVU211
 707 0046 0546     		mov	r5, r0
 708              	.LVL55:
 709              		.loc 1 4551 2 is_stmt 1 view .LVU212
 710 0048 0846     		mov	r0, r1
 711              	.LVL56:
 712              		.loc 1 4551 2 is_stmt 0 view .LVU213
 713 004a FFF7FEFF 		bl	dn_abs
 714              	.LVL57:
4552:src/xeq.c     **** 	set_overflow(check_overflow(i) || dn_ge(&t, &const_2pow64));
 715              		.loc 1 4552 2 is_stmt 1 view .LVU214
 716              		.loc 1 4552 15 is_stmt 0 view .LVU215
 717 004e 2846     		mov	r0, r5
 718 0050 2146     		mov	r1, r4
 719 0052 FFF7FEFF 		bl	check_overflow
 720              	.LVL58:
 721              		.loc 1 4552 2 view .LVU216
 722 0056 E8B1     		cbz	r0, .L69
 723 0058 0120     		movs	r0, #1
 724              	.L63:
 725              		.loc 1 4552 2 discriminator 6 view .LVU217
 726 005a FFF7FEFF 		bl	set_overflow
 727              	.LVL59:
4553:src/xeq.c     **** 	return build_value(i, s);
 728              		.loc 1 4553 2 is_stmt 1 discriminator 6 view .LVU218
 729              		.loc 1 4553 9 is_stmt 0 discriminator 6 view .LVU219
 730 005e 019A     		ldr	r2, [sp, #4]
 731 0060 2846     		mov	r0, r5
 732 0062 2146     		mov	r1, r4
 733 0064 FFF7FEFF 		bl	build_value
 734              	.LVL60:
4554:src/xeq.c     **** }
 735              		.loc 1 4554 1 discriminator 6 view .LVU220
 736 0068 15B0     		add	sp, sp, #84
 737              		.cfi_remember_state
 738              		.cfi_def_cfa_offset 12
 739              		@ sp needed
 740 006a 30BD     		pop	{r4, r5, pc}
 741              	.LVL61:
 742              	.L68:
 743              		.cfi_restore_state
4547:src/xeq.c     **** 		return 0;
 744              		.loc 1 4547 3 is_stmt 1 view .LVU221
 745 006c 0120     		movs	r0, #1
 746 006e FFF7FEFF 		bl	set_overflow
 747              	.LVL62:
4548:src/xeq.c     **** 	}
 748              		.loc 1 4548 3 view .LVU222
4548:src/xeq.c     **** 	}
ARM GAS  /tmp/ccBFDvgN.s 			page 96


 749              		.loc 1 4548 10 is_stmt 0 view .LVU223
 750 0072 0020     		movs	r0, #0
 751 0074 0146     		mov	r1, r0
 752              		.loc 1 4554 1 view .LVU224
 753 0076 15B0     		add	sp, sp, #84
 754              		.cfi_remember_state
 755              		.cfi_def_cfa_offset 12
 756              		@ sp needed
 757 0078 30BD     		pop	{r4, r5, pc}
 758              	.L67:
 759              		.cfi_restore_state
4543:src/xeq.c     **** 		return 0;
 760              		.loc 1 4543 3 is_stmt 1 view .LVU225
 761              	.LVL63:
 762              	.LBB1345:
 763              	.LBI1345:
 546:src/xeq.c     **** 	if (Error == ERR_NONE) {
 764              		.loc 1 546 5 view .LVU226
 765              	.LBB1346:
 547:src/xeq.c     **** 		Error = e;
 766              		.loc 1 547 2 view .LVU227
 547:src/xeq.c     **** 		Error = e;
 767              		.loc 1 547 12 is_stmt 0 view .LVU228
 768 007a 0A4B     		ldr	r3, .L70
 547:src/xeq.c     **** 		Error = e;
 769              		.loc 1 547 5 view .LVU229
 770 007c 1A68     		ldr	r2, [r3]
 771 007e 2AB9     		cbnz	r2, .L64
 772              	.LVL64:
 773              	.LBB1347:
 774              	.LBI1347:
 546:src/xeq.c     **** 	if (Error == ERR_NONE) {
 775              		.loc 1 546 5 is_stmt 1 view .LVU230
 776              	.LBB1348:
 548:src/xeq.c     **** 		if (e == ERR_NONE) {
 777              		.loc 1 548 3 view .LVU231
 778              	.LBE1348:
 779              	.LBE1347:
 780              	.LBE1346:
 781              	.LBE1345:
4544:src/xeq.c     **** 	}
 782              		.loc 1 4544 10 is_stmt 0 view .LVU232
 783 0080 0020     		movs	r0, #0
 784              	.LBB1355:
 785              	.LBB1353:
 786              	.LBB1351:
 787              	.LBB1349:
 548:src/xeq.c     **** 		if (e == ERR_NONE) {
 788              		.loc 1 548 9 view .LVU233
 789 0082 0122     		movs	r2, #1
 790              	.LBE1349:
 791              	.LBE1351:
 792              	.LBE1353:
 793              	.LBE1355:
4544:src/xeq.c     **** 	}
 794              		.loc 1 4544 10 view .LVU234
 795 0084 0146     		mov	r1, r0
ARM GAS  /tmp/ccBFDvgN.s 			page 97


 796              	.LBB1356:
 797              	.LBB1354:
 798              	.LBB1352:
 799              	.LBB1350:
 548:src/xeq.c     **** 		if (e == ERR_NONE) {
 800              		.loc 1 548 9 view .LVU235
 801 0086 1A60     		str	r2, [r3]
 549:src/xeq.c     **** 			error_message(e); // "Running Program"
 802              		.loc 1 549 3 is_stmt 1 view .LVU236
 803              	.LBE1350:
 804              	.LBE1352:
 805              	.LBE1354:
 806              	.LBE1356:
 807              		.loc 1 4554 1 is_stmt 0 view .LVU237
 808 0088 15B0     		add	sp, sp, #84
 809              		.cfi_remember_state
 810              		.cfi_def_cfa_offset 12
 811              		@ sp needed
 812 008a 30BD     		pop	{r4, r5, pc}
 813              	.LVL65:
 814              	.L64:
 815              		.cfi_restore_state
4544:src/xeq.c     **** 	}
 816              		.loc 1 4544 10 view .LVU238
 817 008c 0020     		movs	r0, #0
 818 008e 0146     		mov	r1, r0
 819              	.LVL66:
 820              		.loc 1 4554 1 view .LVU239
 821 0090 15B0     		add	sp, sp, #84
 822              		.cfi_remember_state
 823              		.cfi_def_cfa_offset 12
 824              		@ sp needed
 825 0092 30BD     		pop	{r4, r5, pc}
 826              	.LVL67:
 827              	.L69:
 828              		.cfi_restore_state
4552:src/xeq.c     **** 	return build_value(i, s);
 829              		.loc 1 4552 36 discriminator 2 view .LVU240
 830 0094 0449     		ldr	r1, .L70+4
 831 0096 0BA8     		add	r0, sp, #44
